
build/test91:     file format elf64-littleriscv


Disassembly of section .text.init:

0000000080000000 <_start>:
    80000000:	05c0006f          	j	8000005c <reset_vector>

0000000080000004 <trap_vector>:
    80000004:	34202f73          	csrr	t5,mcause
    80000008:	00800f93          	li	t6,8
    8000000c:	03ff0a63          	beq	t5,t6,80000040 <write_tohost>
    80000010:	00900f93          	li	t6,9
    80000014:	03ff0663          	beq	t5,t6,80000040 <write_tohost>
    80000018:	00b00f93          	li	t6,11
    8000001c:	03ff0263          	beq	t5,t6,80000040 <write_tohost>
    80000020:	80000f17          	auipc	t5,0x80000
    80000024:	fe0f0f13          	addi	t5,t5,-32 # 0 <_start-0x80000000>
    80000028:	000f0463          	beqz	t5,80000030 <trap_vector+0x2c>
    8000002c:	000f0067          	jr	t5
    80000030:	34202f73          	csrr	t5,mcause
    80000034:	000f5463          	bgez	t5,8000003c <handle_exception>
    80000038:	0040006f          	j	8000003c <handle_exception>

000000008000003c <handle_exception>:
    8000003c:	5391e193          	ori	gp,gp,1337

0000000080000040 <write_tohost>:
    80000040:	00001f17          	auipc	t5,0x1
    80000044:	fc3f2023          	sw	gp,-64(t5) # 80001000 <tohost>
    80000048:	000902b7          	lui	t0,0x90
    8000004c:	0012829b          	addiw	t0,t0,1
    80000050:	00c29293          	slli	t0,t0,0xc
    80000054:	0002af83          	lw	t6,0(t0) # 90000 <_start-0x7ff70000>
    80000058:	fe9ff06f          	j	80000040 <write_tohost>

000000008000005c <reset_vector>:
    8000005c:	00000093          	li	ra,0
    80000060:	00000113          	li	sp,0
    80000064:	00000193          	li	gp,0
    80000068:	00000213          	li	tp,0
    8000006c:	00000293          	li	t0,0
    80000070:	00000313          	li	t1,0
    80000074:	00000393          	li	t2,0
    80000078:	00000413          	li	s0,0
    8000007c:	00000493          	li	s1,0
    80000080:	00000513          	li	a0,0
    80000084:	00000593          	li	a1,0
    80000088:	00000613          	li	a2,0
    8000008c:	00000693          	li	a3,0
    80000090:	00000713          	li	a4,0
    80000094:	00000793          	li	a5,0
    80000098:	00000813          	li	a6,0
    8000009c:	00000893          	li	a7,0
    800000a0:	00000913          	li	s2,0
    800000a4:	00000993          	li	s3,0
    800000a8:	00000a13          	li	s4,0
    800000ac:	00000a93          	li	s5,0
    800000b0:	00000b13          	li	s6,0
    800000b4:	00000b93          	li	s7,0
    800000b8:	00000c13          	li	s8,0
    800000bc:	00000c93          	li	s9,0
    800000c0:	00000d13          	li	s10,0
    800000c4:	00000d93          	li	s11,0
    800000c8:	00000e13          	li	t3,0
    800000cc:	00000e93          	li	t4,0
    800000d0:	00000f13          	li	t5,0
    800000d4:	00000f93          	li	t6,0
    800000d8:	f1402573          	csrr	a0,mhartid
    800000dc:	00051063          	bnez	a0,800000dc <reset_vector+0x80>
    800000e0:	00000297          	auipc	t0,0x0
    800000e4:	01028293          	addi	t0,t0,16 # 800000f0 <reset_vector+0x94>
    800000e8:	30529073          	csrw	mtvec,t0
    800000ec:	18005073          	csrwi	satp,0
    800000f0:	00000297          	auipc	t0,0x0
    800000f4:	02428293          	addi	t0,t0,36 # 80000114 <reset_vector+0xb8>
    800000f8:	30529073          	csrw	mtvec,t0
    800000fc:	0010029b          	addiw	t0,zero,1
    80000100:	03529293          	slli	t0,t0,0x35
    80000104:	fff28293          	addi	t0,t0,-1
    80000108:	3b029073          	csrw	pmpaddr0,t0
    8000010c:	01f00293          	li	t0,31
    80000110:	3a029073          	csrw	pmpcfg0,t0
    80000114:	30405073          	csrwi	mie,0
    80000118:	00000297          	auipc	t0,0x0
    8000011c:	01428293          	addi	t0,t0,20 # 8000012c <reset_vector+0xd0>
    80000120:	30529073          	csrw	mtvec,t0
    80000124:	30205073          	csrwi	medeleg,0
    80000128:	30305073          	csrwi	mideleg,0
    8000012c:	00000193          	li	gp,0
    80000130:	00000297          	auipc	t0,0x0
    80000134:	ed428293          	addi	t0,t0,-300 # 80000004 <trap_vector>
    80000138:	30529073          	csrw	mtvec,t0
    8000013c:	00100513          	li	a0,1
    80000140:	01f51513          	slli	a0,a0,0x1f
    80000144:	00055c63          	bgez	a0,8000015c <reset_vector+0x100>
    80000148:	0ff0000f          	fence
    8000014c:	00100193          	li	gp,1
    80000150:	05d00893          	li	a7,93
    80000154:	00000513          	li	a0,0
    80000158:	00000073          	ecall
    8000015c:	80000297          	auipc	t0,0x80000
    80000160:	ea428293          	addi	t0,t0,-348 # 0 <_start-0x80000000>
    80000164:	00028a63          	beqz	t0,80000178 <reset_vector+0x11c>
    80000168:	10529073          	csrw	stvec,t0
    8000016c:	0000b2b7          	lui	t0,0xb
    80000170:	1092829b          	addiw	t0,t0,265
    80000174:	30229073          	csrw	medeleg,t0
    80000178:	30005073          	csrwi	mstatus,0
    8000017c:	00000297          	auipc	t0,0x0
    80000180:	01428293          	addi	t0,t0,20 # 80000190 <reset_vector+0x134>
    80000184:	34129073          	csrw	mepc,t0
    80000188:	f1402573          	csrr	a0,mhartid
    8000018c:	30200073          	mret
    80000190:	0200006f          	j	800001b0 <test_start>

0000000080000194 <crash_backward>:
    80000194:	0ff0000f          	fence
    80000198:	00018063          	beqz	gp,80000198 <crash_backward+0x4>
    8000019c:	00119193          	slli	gp,gp,0x1
    800001a0:	0011e193          	ori	gp,gp,1
    800001a4:	05d00893          	li	a7,93
    800001a8:	00018513          	mv	a0,gp
    800001ac:	00000073          	ecall

00000000800001b0 <test_start>:
    800001b0:	00002f97          	auipc	t6,0x2
    800001b4:	e50f8f93          	addi	t6,t6,-432 # 80002000 <hidden_data>
    800001b8:	000fb003          	ld	zero,0(t6)
    800001bc:	008fb083          	ld	ra,8(t6)
    800001c0:	010fb103          	ld	sp,16(t6)
    800001c4:	018fb183          	ld	gp,24(t6)
    800001c8:	020fb203          	ld	tp,32(t6)
    800001cc:	028fb283          	ld	t0,40(t6)
    800001d0:	030fb303          	ld	t1,48(t6)
    800001d4:	038fb383          	ld	t2,56(t6)
    800001d8:	040fb403          	ld	s0,64(t6)
    800001dc:	048fb483          	ld	s1,72(t6)
    800001e0:	050fb503          	ld	a0,80(t6)
    800001e4:	058fb583          	ld	a1,88(t6)
    800001e8:	060fb603          	ld	a2,96(t6)
    800001ec:	068fb683          	ld	a3,104(t6)
    800001f0:	070fb703          	ld	a4,112(t6)
    800001f4:	078fb783          	ld	a5,120(t6)
    800001f8:	080fb803          	ld	a6,128(t6)
    800001fc:	088fb883          	ld	a7,136(t6)
    80000200:	090fb903          	ld	s2,144(t6)
    80000204:	098fb983          	ld	s3,152(t6)
    80000208:	0a0fba03          	ld	s4,160(t6)
    8000020c:	0a8fba83          	ld	s5,168(t6)
    80000210:	0b0fbb03          	ld	s6,176(t6)
    80000214:	0b8fbb83          	ld	s7,184(t6)
    80000218:	0c0fbc03          	ld	s8,192(t6)
    8000021c:	0c8fbc83          	ld	s9,200(t6)
    80000220:	0d0fbd03          	ld	s10,208(t6)
    80000224:	0d8fbd83          	ld	s11,216(t6)
    80000228:	0e0fbe03          	ld	t3,224(t6)
    8000022c:	0e8fbe83          	ld	t4,232(t6)
    80000230:	0f0fbf03          	ld	t5,240(t6)
    80000234:	0f8fbf83          	ld	t6,248(t6)
    80000238:	0040006f          	j	8000023c <pseg_0>

000000008000023c <pseg_0>:
    8000023c:	03630cbb          	mulw	s9,t1,s6
    80000240:	65b00a13          	li	s4,1627
    80000244:	0000523b          	srlw	tp,zero,zero
    80000248:	5b410093          	addi	ra,sp,1460
    8000024c:	01ef553b          	srlw	a0,t5,t5
    80000250:	22e00893          	li	a7,558
    80000254:	48200613          	li	a2,1154
    80000258:	e9300493          	li	s1,-365
    8000025c:	0294e1bb          	remw	gp,s1,s1
    80000260:	00002f97          	auipc	t6,0x2
    80000264:	537f8f93          	addi	t6,t6,1335 # 80002797 <_end+0x187>
    80000268:	00ae0c33          	add	s8,t3,a0
    8000026c:	bf0fc583          	lbu	a1,-1040(t6)
    80000270:	00000f93          	li	t6,0
    80000274:	00002c17          	auipc	s8,0x2
    80000278:	7a2c0c13          	addi	s8,s8,1954 # 80002a16 <_end+0x406>
    8000027c:	06300713          	li	a4,99
    80000280:	00100a93          	li	s5,1
    80000284:	03fa9a93          	slli	s5,s5,0x3f
    80000288:	f12966e3          	bltu	s2,s2,80000194 <crash_backward>
    8000028c:	b2cc2923          	sw	a2,-1230(s8)
    80000290:	0339e133          	rem	sp,s3,s3
    80000294:	01af121b          	slliw	tp,t5,0x1a
    80000298:	4c400b93          	li	s7,1220
    8000029c:	92e00913          	li	s2,-1746
    800002a0:	bda00593          	li	a1,-1062
    800002a4:	6e006e63          	bltu	zero,zero,800009a0 <crash_forward>
    800002a8:	00aae833          	or	a6,s5,a0
    800002ac:	e7300293          	li	t0,-397
    800002b0:	bdd00793          	li	a5,-1059
    800002b4:	40a283bb          	subw	t2,t0,a0
    800002b8:	00f89ebb          	sllw	t4,a7,a5
    800002bc:	018c3c33          	sltu	s8,s8,s8
    800002c0:	034a1f33          	mulh	t5,s4,s4
    800002c4:	00002c17          	auipc	s8,0x2
    800002c8:	aeac0c13          	addi	s8,s8,-1302 # 80001dae <fromhost+0xd6e>
    800002cc:	00002197          	auipc	gp,0x2
    800002d0:	ead18193          	addi	gp,gp,-339 # 80002179 <reg_x15_output+0x1>
    800002d4:	fff00313          	li	t1,-1
    800002d8:	19818483          	lb	s1,408(gp) # 80002fa8 <__global_pointer$+0x198>
    800002dc:	00b5fcb3          	and	s9,a1,a1
    800002e0:	d5000413          	li	s0,-688
    800002e4:	03760b33          	mul	s6,a2,s7
    800002e8:	005706bb          	addw	a3,a4,t0
    800002ec:	ca840e13          	addi	t3,s0,-856
    800002f0:	00002117          	auipc	sp,0x2
    800002f4:	d7010113          	addi	sp,sp,-656 # 80002060 <reg_x12_init>
    800002f8:	c4100813          	li	a6,-959
    800002fc:	03083533          	mulhu	a0,a6,a6
    80000300:	00000093          	li	ra,0
    80000304:	01534333          	xor	t1,t1,s5
    80000308:	95c90993          	addi	s3,s2,-1700
    8000030c:	3c815203          	lhu	tp,968(sp)
    80000310:	00100893          	li	a7,1
    80000314:	e93960e3          	bltu	s2,s3,80000194 <crash_backward>
    80000318:	557c1f23          	sh	s7,1374(s8)
    8000031c:	b4800693          	li	a3,-1208
    80000320:	c0000b13          	li	s6,-1024
    80000324:	03ded5bb          	divuw	a1,t4,t4
    80000328:	40d6d0b3          	sra	ra,a3,a3
    8000032c:	9c000b93          	li	s7,-1600
    80000330:	00002c97          	auipc	s9,0x2
    80000334:	05bc8c93          	addi	s9,s9,91 # 8000238b <test_memory+0x18b>
    80000338:	0069fdb3          	and	s11,s3,t1
    8000033c:	b8b00593          	li	a1,-1141
    80000340:	01bde433          	or	s0,s11,s11
    80000344:	00002f97          	auipc	t6,0x2
    80000348:	3cbf8f93          	addi	t6,t6,971 # 8000270f <_end+0xff>
    8000034c:	004259b3          	srl	s3,tp,tp
    80000350:	b2d28613          	addi	a2,t0,-1235
    80000354:	45e00513          	li	a0,1118
    80000358:	00a52e33          	slt	t3,a0,a0
    8000035c:	b48b8293          	addi	t0,s7,-1208
    80000360:	0010973b          	sllw	a4,ra,ra
    80000364:	01291233          	sll	tp,s2,s2
    80000368:	0d8cc483          	lbu	s1,216(s9)
    8000036c:	d55fb8a3          	sd	s5,-687(t6)
    80000370:	de558113          	addi	sp,a1,-539
    80000374:	00100e13          	li	t3,1
    80000378:	03fe1e13          	slli	t3,t3,0x3f
    8000037c:	1c600913          	li	s2,454
    80000380:	412950b3          	sra	ra,s2,s2
    80000384:	03fff5bb          	remuw	a1,t6,t6
    80000388:	fff00513          	li	a0,-1
    8000038c:	00002217          	auipc	tp,0x2
    80000390:	00720213          	addi	tp,tp,7 # 80002393 <test_memory+0x193>
    80000394:	01c54533          	xor	a0,a0,t3
    80000398:	03295433          	divu	s0,s2,s2
    8000039c:	0166ca33          	xor	s4,a3,s6
    800003a0:	00048f13          	mv	t5,s1
    800003a4:	00002f97          	auipc	t6,0x2
    800003a8:	059f8f93          	addi	t6,t6,89 # 800023fd <test_memory+0x1fd>
    800003ac:	000f0193          	mv	gp,t5
    800003b0:	1fd00493          	li	s1,509
    800003b4:	6560f713          	andi	a4,ra,1622
    800003b8:	037bc9bb          	divw	s3,s7,s7
    800003bc:	0294f13b          	remuw	sp,s1,s1
    800003c0:	00a67633          	and	a2,a2,a0
    800003c4:	015ded33          	or	s10,s11,s5
    800003c8:	02e72833          	mulhsu	a6,a4,a4
    800003cc:	f5d20c83          	lb	s9,-163(tp) # ffffffffffffff5d <__global_pointer$+0xffffffff7fffd14d>
    800003d0:	01c66c33          	or	s8,a2,t3
    800003d4:	03f89893          	slli	a7,a7,0x3f
    800003d8:	5c3f4463          	blt	t5,gp,800009a0 <crash_forward>
    800003dc:	fb0f98a3          	sh	a6,-79(t6)
    800003e0:	fff00793          	li	a5,-1
    800003e4:	5bad8e63          	beq	s11,s10,800009a0 <crash_forward>
    800003e8:	dacc56e3          	bge	s8,a2,80000194 <crash_backward>
    800003ec:	0117c7b3          	xor	a5,a5,a7
    800003f0:	00ff73b3          	and	t2,t5,a5
    800003f4:	0114eeb3          	or	t4,s1,a7
    800003f8:	40395f3b          	sraw	t5,s2,gp
    800003fc:	00002c97          	auipc	s9,0x2
    80000400:	86ec8c93          	addi	s9,s9,-1938 # 80001c6a <fromhost+0xc2a>
    80000404:	28900913          	li	s2,649
    80000408:	2b100813          	li	a6,689
    8000040c:	e7d00893          	li	a7,-387
    80000410:	f2f9c393          	xori	t2,s3,-209
    80000414:	57500293          	li	t0,1397
    80000418:	00002517          	auipc	a0,0x2
    8000041c:	41250513          	addi	a0,a0,1042 # 8000282a <_end+0x21a>
    80000420:	a4658493          	addi	s1,a1,-1466
    80000424:	42300713          	li	a4,1059
    80000428:	012939b3          	sltu	s3,s2,s2
    8000042c:	606cab03          	lw	s6,1542(s9)
    80000430:	97700693          	li	a3,-1673
    80000434:	b1b00d13          	li	s10,-1253
    80000438:	01bd89bb          	addw	s3,s11,s11
    8000043c:	7b900913          	li	s2,1977
    80000440:	ac2d0593          	addi	a1,s10,-1342
    80000444:	01295b33          	srl	s6,s2,s2
    80000448:	00002a97          	auipc	s5,0x2
    8000044c:	9eda8a93          	addi	s5,s5,-1555 # 80001e35 <fromhost+0xdf5>
    80000450:	b4e55603          	lhu	a2,-1202(a0)
    80000454:	d4bd60e3          	bltu	s10,a1,80000194 <crash_backward>
    80000458:	0bc00a13          	li	s4,188
    8000045c:	00d2843b          	addw	s0,t0,a3
    80000460:	0339e4bb          	remw	s1,s3,s3
    80000464:	01af033b          	addw	t1,t5,s10
    80000468:	86100913          	li	s2,-1951
    8000046c:	51800b93          	li	s7,1304
    80000470:	8c200093          	li	ra,-1854
    80000474:	43800993          	li	s3,1080
    80000478:	00a2139b          	slliw	t2,tp,0xa
    8000047c:	466a9ea3          	sh	t1,1149(s5)
    80000480:	1d938113          	addi	sp,t2,473
    80000484:	03396b33          	rem	s6,s2,s3
    80000488:	00e77233          	and	tp,a4,a4
    8000048c:	000d9c9b          	slliw	s9,s11,0x0
    80000490:	0378bf33          	mulhu	t5,a7,s7
    80000494:	79c00e13          	li	t3,1948
    80000498:	01ca4db3          	xor	s11,s4,t3
    8000049c:	01080fbb          	addw	t6,a6,a6
    800004a0:	0e700793          	li	a5,231
    800004a4:	ac800e93          	li	t4,-1336
    800004a8:	6c878193          	addi	gp,a5,1736
    800004ac:	01d0bc33          	sltu	s8,ra,t4
    800004b0:	ce3782e3          	beq	a5,gp,80000194 <crash_backward>
    800004b4:	00002b97          	auipc	s7,0x2
    800004b8:	c32b8b93          	addi	s7,s7,-974 # 800020e6 <reg_x28_init+0x6>
    800004bc:	fc100993          	li	s3,-63
    800004c0:	3bebad83          	lw	s11,958(s7)
    800004c4:	2292a913          	slti	s2,t0,553
    800004c8:	56c2bd13          	sltiu	s10,t0,1388
    800004cc:	d7680e13          	addi	t3,a6,-650
    800004d0:	6c500713          	li	a4,1733
    800004d4:	039246bb          	divw	a3,tp,s9
    800004d8:	0233ef33          	rem	t5,t2,gp
    800004dc:	fd700393          	li	t2,-41
    800004e0:	07000913          	li	s2,112
    800004e4:	1b170413          	addi	s0,a4,433
    800004e8:	bbc00213          	li	tp,-1092
    800004ec:	0f400893          	li	a7,244
    800004f0:	00001517          	auipc	a0,0x1
    800004f4:	6d450513          	addi	a0,a0,1748 # 80001bc4 <fromhost+0xb84>
    800004f8:	80a00493          	li	s1,-2038
    800004fc:	6d854e83          	lbu	t4,1752(a0)
    80000500:	00002b97          	auipc	s7,0x2
    80000504:	cd9b8b93          	addi	s7,s7,-807 # 800021d9 <reg_x27_output+0x1>
    80000508:	07f00593          	li	a1,127
    8000050c:	01c90dbb          	addw	s11,s2,t3
    80000510:	79500c93          	li	s9,1941
    80000514:	2f800813          	li	a6,760
    80000518:	0294d1bb          	divuw	gp,s1,s1
    8000051c:	00000113          	li	sp,0
    80000520:	66f90e13          	addi	t3,s2,1647
    80000524:	0109f333          	and	t1,s3,a6
    80000528:	023fc2b3          	div	t0,t6,gp
    8000052c:	47c90a63          	beq	s2,t3,800009a0 <crash_forward>
    80000530:	00001a17          	auipc	s4,0x1
    80000534:	7f9a0a13          	addi	s4,s4,2041 # 80001d29 <fromhost+0xce9>
    80000538:	40b88633          	sub	a2,a7,a1
    8000053c:	46875263          	bge	a4,s0,800009a0 <crash_forward>
    80000540:	5c4a2ba3          	sw	tp,1495(s4)
    80000544:	127bbd03          	ld	s10,295(s7)
    80000548:	37f00f93          	li	t6,895
    8000054c:	7f400e13          	li	t3,2036
    80000550:	e1d00913          	li	s2,-483
    80000554:	54000193          	li	gp,1344
    80000558:	43c65613          	srai	a2,a2,0x3c
    8000055c:	032904b3          	mul	s1,s2,s2
    80000560:	01fccc33          	xor	s8,s9,t6
    80000564:	02e43d33          	mulhu	s10,s0,a4
    80000568:	0049cbb3          	xor	s7,s3,tp
    8000056c:	9f000993          	li	s3,-1552
    80000570:	41688733          	sub	a4,a7,s6
    80000574:	2d100893          	li	a7,721
    80000578:	01ea76b3          	and	a3,s4,t5
    8000057c:	411d063b          	subw	a2,s10,a7
    80000580:	02f7fb3b          	remuw	s6,a5,a5
    80000584:	00000793          	li	a5,0
    80000588:	4b918313          	addi	t1,gp,1209 # 800032c9 <__global_pointer$+0x4b9>
    8000058c:	40211a63          	bne	sp,sp,800009a0 <crash_forward>
    80000590:	00003d33          	snez	s10,zero
    80000594:	0010983b          	sllw	a6,ra,ra
    80000598:	03ce4533          	div	a0,t3,t3
    8000059c:	00002f17          	auipc	t5,0x2
    800005a0:	37df0f13          	addi	t5,t5,893 # 80002919 <_end+0x309>
    800005a4:	00002f97          	auipc	t6,0x2
    800005a8:	09df8f93          	addi	t6,t6,157 # 80002641 <_end+0x31>
    800005ac:	d27fb703          	ld	a4,-729(t6)
    800005b0:	40100493          	li	s1,1025
    800005b4:	0094893b          	addw	s2,s1,s1
    800005b8:	c3fe809b          	addiw	ra,t4,-961
    800005bc:	e8500413          	li	s0,-379
    800005c0:	8e7f6583          	lwu	a1,-1817(t5)
    800005c4:	0319aa33          	mulhsu	s4,s3,a7
    800005c8:	408e5ebb          	sraw	t4,t3,s0
    800005cc:	cdb00d93          	li	s11,-805
    800005d0:	01bdb2b3          	sltu	t0,s11,s11
    800005d4:	02438abb          	mulw	s5,t2,tp
    800005d8:	00e7563b          	srlw	a2,a4,a4
    800005dc:	43f00393          	li	t2,1087
    800005e0:	0231833b          	mulw	t1,gp,gp
    800005e4:	00002697          	auipc	a3,0x2
    800005e8:	29668693          	addi	a3,a3,662 # 8000287a <_end+0x26a>
    800005ec:	00100e13          	li	t3,1
    800005f0:	88e00b13          	li	s6,-1906
    800005f4:	8476bcb7          	lui	s9,0x8476b
    800005f8:	bb400813          	li	a6,-1100
    800005fc:	02739933          	mulh	s2,t2,t2
    80000600:	e4a00713          	li	a4,-438
    80000604:	00002b97          	auipc	s7,0x2
    80000608:	51bb8b93          	addi	s7,s7,1307 # 80002b1f <_end+0x50f>
    8000060c:	7d100293          	li	t0,2001
    80000610:	c526b723          	sd	s2,-946(a3)
    80000614:	00ad7ab3          	and	s5,s10,a0
    80000618:	02eb7db3          	remu	s11,s6,a4
    8000061c:	73d00793          	li	a5,1853
    80000620:	01d0d6bb          	srlw	a3,ra,t4
    80000624:	00002f97          	auipc	t6,0x2
    80000628:	0aaf8f93          	addi	t6,t6,170 # 800026ce <_end+0xbe>
    8000062c:	41085533          	sra	a0,a6,a6
    80000630:	00000e93          	li	t4,0
    80000634:	6b500c93          	li	s9,1717
    80000638:	00002417          	auipc	s0,0x2
    8000063c:	9fc40413          	addi	s0,s0,-1540 # 80002034 <reg_x6_init+0x4>
    80000640:	ac600513          	li	a0,-1338
    80000644:	00100d93          	li	s11,1
    80000648:	15614713          	xori	a4,sp,342
    8000064c:	03ee0333          	mul	t1,t3,t5
    80000650:	0252d1b3          	divu	gp,t0,t0
    80000654:	97400713          	li	a4,-1676
    80000658:	50300593          	li	a1,1283
    8000065c:	e3800693          	li	a3,-456
    80000660:	40d5583b          	sraw	a6,a0,a3
    80000664:	02a94a33          	div	s4,s2,a0
    80000668:	f9f00213          	li	tp,-97
    8000066c:	03fd9d93          	slli	s11,s11,0x3f
    80000670:	02b5d933          	divu	s2,a1,a1
    80000674:	31c44c03          	lbu	s8,796(s0)
    80000678:	02e7033b          	mulw	t1,a4,a4
    8000067c:	03fe1e13          	slli	t3,t3,0x3f
    80000680:	fff00493          	li	s1,-1
    80000684:	406dda33          	sra	s4,s11,t1
    80000688:	00001197          	auipc	gp,0x1
    8000068c:	7e418193          	addi	gp,gp,2020 # 80001e6c <fromhost+0xe2c>
    80000690:	2a400c13          	li	s8,676
    80000694:	00058693          	mv	a3,a1
    80000698:	41e900bb          	subw	ra,s2,t5
    8000069c:	018c5733          	srl	a4,s8,s8
    800006a0:	03083833          	mulhu	a6,a6,a6
    800006a4:	01c4c4b3          	xor	s1,s1,t3
    800006a8:	024085bb          	mulw	a1,ra,tp
    800006ac:	42a1d283          	lhu	t0,1066(gp) # 8000323a <__global_pointer$+0x42a>
    800006b0:	009279b3          	and	s3,tp,s1
    800006b4:	85f00c13          	li	s8,-1953
    800006b8:	00068513          	mv	a0,a3
    800006bc:	00000f13          	li	t5,0
    800006c0:	d65f89a3          	sb	t0,-653(t6)
    800006c4:	01c9ed33          	or	s10,s3,t3
    800006c8:	b5300913          	li	s2,-1197
    800006cc:	0252c5b3          	div	a1,t0,t0
    800006d0:	038c7a33          	remu	s4,s8,s8
    800006d4:	2ca6c663          	blt	a3,a0,800009a0 <crash_forward>
    800006d8:	fff00393          	li	t2,-1
    800006dc:	1c278893          	addi	a7,a5,450
    800006e0:	01399a33          	sll	s4,s3,s3
    800006e4:	2b3d5e63          	bge	s10,s3,800009a0 <crash_forward>
    800006e8:	01293733          	sltu	a4,s2,s2
    800006ec:	24500513          	li	a0,581
    800006f0:	80d00313          	li	t1,-2035
    800006f4:	034a3833          	mulhu	a6,s4,s4
    800006f8:	01b3c3b3          	xor	t2,t2,s11
    800006fc:	004cab33          	slt	s6,s9,tp
    80000700:	40c65c3b          	sraw	s8,a2,a2
    80000704:	40630433          	sub	s0,t1,t1
    80000708:	924bc103          	lbu	sp,-1756(s7)
    8000070c:	0072f633          	and	a2,t0,t2
    80000710:	a9eee2e3          	bltu	t4,t5,80000194 <crash_backward>
    80000714:	cf300293          	li	t0,-781
    80000718:	08d00193          	li	gp,141
    8000071c:	0232a0b3          	mulhsu	ra,t0,gp
    80000720:	00098313          	mv	t1,s3
    80000724:	e4500113          	li	sp,-443
    80000728:	bca10093          	addi	ra,sp,-1078
    8000072c:	8ca00993          	li	s3,-1846
    80000730:	a61142e3          	blt	sp,ra,80000194 <crash_backward>
    80000734:	4d800f13          	li	t5,1240
    80000738:	9a300b13          	li	s6,-1629
    8000073c:	00100e13          	li	t3,1
    80000740:	76ad8b93          	addi	s7,s11,1898
    80000744:	03fe1e13          	slli	t3,t3,0x3f
    80000748:	8da00893          	li	a7,-1830
    8000074c:	0369d433          	divu	s0,s3,s6
    80000750:	41ef0c3b          	subw	s8,t5,t5
    80000754:	fff00813          	li	a6,-1
    80000758:	bb900213          	li	tp,-1095
    8000075c:	18400293          	li	t0,388
    80000760:	0118f7b3          	and	a5,a7,a7
    80000764:	d8100493          	li	s1,-639
    80000768:	00030913          	mv	s2,t1
    8000076c:	01b66ab3          	or	s5,a2,s11
    80000770:	02948d3b          	mulw	s10,s1,s1
    80000774:	16b00993          	li	s3,363
    80000778:	23236463          	bltu	t1,s2,800009a0 <crash_forward>
    8000077c:	46000493          	li	s1,1120
    80000780:	0294ed33          	rem	s10,s1,s1
    80000784:	00000793          	li	a5,0
    80000788:	00000b93          	li	s7,0
    8000078c:	5e400b13          	li	s6,1508
    80000790:	017bafb3          	slt	t6,s7,s7
    80000794:	00100113          	li	sp,1
    80000798:	58d98d93          	addi	s11,s3,1421
    8000079c:	01c84833          	xor	a6,a6,t3
    800007a0:	03f11113          	slli	sp,sp,0x3f
    800007a4:	a0900693          	li	a3,-1527
    800007a8:	95200f93          	li	t6,-1710
    800007ac:	010bfcb3          	and	s9,s7,a6
    800007b0:	76400913          	li	s2,1892
    800007b4:	fff00a93          	li	s5,-1
    800007b8:	002acab3          	xor	s5,s5,sp
    800007bc:	01ccea33          	or	s4,s9,t3
    800007c0:	03720c3b          	mulw	s8,tp,s7
    800007c4:	cc4f8d13          	addi	s10,t6,-828
    800007c8:	46700313          	li	t1,1127
    800007cc:	1d4c8a63          	beq	s9,s4,800009a0 <crash_forward>
    800007d0:	006954bb          	srlw	s1,s2,t1
    800007d4:	422b0413          	addi	s0,s6,1058
    800007d8:	9bfd7ee3          	bgeu	s10,t6,80000194 <crash_backward>
    800007dc:	0157f633          	and	a2,a5,s5
    800007e0:	0052973b          	sllw	a4,t0,t0
    800007e4:	d5c00e93          	li	t4,-676
    800007e8:	40d555bb          	sraw	a1,a0,a3
    800007ec:	0022e3b3          	or	t2,t0,sp
    800007f0:	01d251b3          	srl	gp,tp,t4
    800007f4:	9a7670e3          	bgeu	a2,t2,80000194 <crash_backward>
    800007f8:	1b779463          	bne	a5,s7,800009a0 <crash_forward>
    800007fc:	c7800d13          	li	s10,-904
    80000800:	3bd00d93          	li	s11,957
    80000804:	48d00a13          	li	s4,1165
    80000808:	a3f00e93          	li	t4,-1473
    8000080c:	2a900293          	li	t0,681
    80000810:	e0a00b93          	li	s7,-502
    80000814:	d9d00693          	li	a3,-611
    80000818:	005a023b          	addw	tp,s4,t0
    8000081c:	02d193b3          	mulh	t2,gp,a3
    80000820:	03dd5b33          	divu	s6,s10,t4
    80000824:	cd400f13          	li	t5,-812
    80000828:	92bf0813          	addi	a6,t5,-1749
    8000082c:	02d6bc33          	mulhu	s8,a3,a3
    80000830:	ed700093          	li	ra,-297
    80000834:	40dd84bb          	subw	s1,s11,a3
    80000838:	001bdab3          	srl	s5,s7,ra
    8000083c:	00001497          	auipc	s1,0x1
    80000840:	63848493          	addi	s1,s1,1592 # 80001e74 <fromhost+0xe34>
    80000844:	00100893          	li	a7,1
    80000848:	aa400b93          	li	s7,-1372
    8000084c:	03f89893          	slli	a7,a7,0x3f
    80000850:	4f800593          	li	a1,1272
    80000854:	13600793          	li	a5,310
    80000858:	00002997          	auipc	s3,0x2
    8000085c:	80d98993          	addi	s3,s3,-2035 # 80002065 <reg_x12_init+0x5>
    80000860:	24300f93          	li	t6,579
    80000864:	4b248ca3          	sb	s2,1209(s1)
    80000868:	2b39a703          	lw	a4,691(s3)
    8000086c:	2be00413          	li	s0,702
    80000870:	130f4863          	blt	t5,a6,800009a0 <crash_forward>
    80000874:	0ae00313          	li	t1,174
    80000878:	7f0f8693          	addi	a3,t6,2032
    8000087c:	a0bb8293          	addi	t0,s7,-1525
    80000880:	00100113          	li	sp,1
    80000884:	83100c93          	li	s9,-1999
    80000888:	008699bb          	sllw	s3,a3,s0
    8000088c:	0287fc3b          	remuw	s8,a5,s0
    80000890:	0108a233          	slt	tp,a7,a6
    80000894:	4b900a13          	li	s4,1209
    80000898:	105b8463          	beq	s7,t0,800009a0 <crash_forward>
    8000089c:	17e00493          	li	s1,382
    800008a0:	75300613          	li	a2,1875
    800008a4:	d5c00213          	li	tp,-676
    800008a8:	c8320813          	addi	a6,tp,-893 # fffffffffffffc83 <__global_pointer$+0xffffffff7fffce73>
    800008ac:	38848713          	addi	a4,s1,904
    800008b0:	03934dbb          	divw	s11,t1,s9
    800008b4:	0e487663          	bgeu	a6,tp,800009a0 <crash_forward>
    800008b8:	8c976ee3          	bltu	a4,s1,80000194 <crash_backward>
    800008bc:	fff00e13          	li	t3,-1
    800008c0:	c4200993          	li	s3,-958
    800008c4:	59b00513          	li	a0,1435
    800008c8:	03f11113          	slli	sp,sp,0x3f
    800008cc:	8cdff4e3          	bgeu	t6,a3,80000194 <crash_backward>
    800008d0:	40c581b3          	sub	gp,a1,a2
    800008d4:	011e4e33          	xor	t3,t3,a7
    800008d8:	fff00a93          	li	s5,-1
    800008dc:	02aa7eb3          	remu	t4,s4,a0
    800008e0:	002acab3          	xor	s5,s5,sp
    800008e4:	015f73b3          	and	t2,t5,s5
    800008e8:	01c47933          	and	s2,s0,t3
    800008ec:	0110ed33          	or	s10,ra,a7
    800008f0:	2ee00f13          	li	t5,750
    800008f4:	01e9c433          	xor	s0,s3,t5
    800008f8:	0028eb33          	or	s6,a7,sp
    800008fc:	0040006f          	j	80000900 <reg_dump>

0000000080000900 <reg_dump>:
    80000900:	00002097          	auipc	ra,0x2
    80000904:	d0008093          	addi	ra,ra,-768 # 80002600 <loop_count>
    80000908:	0000a103          	lw	sp,0(ra)
    8000090c:	fff10193          	addi	gp,sp,-1
    80000910:	0030a023          	sw	gp,0(ra)
    80000914:	920114e3          	bnez	sp,8000023c <pseg_0>
    80000918:	00001097          	auipc	ra,0x1
    8000091c:	7e808093          	addi	ra,ra,2024 # 80002100 <begin_signature>
    80000920:	0000b023          	sd	zero,0(ra)
    80000924:	0020b823          	sd	sp,16(ra)
    80000928:	0030bc23          	sd	gp,24(ra)
    8000092c:	0240b023          	sd	tp,32(ra)
    80000930:	0250b423          	sd	t0,40(ra)
    80000934:	0260b823          	sd	t1,48(ra)
    80000938:	0270bc23          	sd	t2,56(ra)
    8000093c:	0480b023          	sd	s0,64(ra)
    80000940:	0490b423          	sd	s1,72(ra)
    80000944:	04a0b823          	sd	a0,80(ra)
    80000948:	04b0bc23          	sd	a1,88(ra)
    8000094c:	06c0b023          	sd	a2,96(ra)
    80000950:	06d0b423          	sd	a3,104(ra)
    80000954:	06e0b823          	sd	a4,112(ra)
    80000958:	06f0bc23          	sd	a5,120(ra)
    8000095c:	0900b023          	sd	a6,128(ra)
    80000960:	0910b423          	sd	a7,136(ra)
    80000964:	0920b823          	sd	s2,144(ra)
    80000968:	0930bc23          	sd	s3,152(ra)
    8000096c:	0b40b023          	sd	s4,160(ra)
    80000970:	0b50b423          	sd	s5,168(ra)
    80000974:	0b60b823          	sd	s6,176(ra)
    80000978:	0b70bc23          	sd	s7,184(ra)
    8000097c:	0d80b023          	sd	s8,192(ra)
    80000980:	0d90b423          	sd	s9,200(ra)
    80000984:	0da0b823          	sd	s10,208(ra)
    80000988:	0db0bc23          	sd	s11,216(ra)
    8000098c:	0fc0b023          	sd	t3,224(ra)
    80000990:	0fd0b423          	sd	t4,232(ra)
    80000994:	0fe0b823          	sd	t5,240(ra)
    80000998:	0ff0bc23          	sd	t6,248(ra)
    8000099c:	0200006f          	j	800009bc <test_end>

00000000800009a0 <crash_forward>:
    800009a0:	0ff0000f          	fence
    800009a4:	00018063          	beqz	gp,800009a4 <crash_forward+0x4>
    800009a8:	00119193          	slli	gp,gp,0x1
    800009ac:	0011e193          	ori	gp,gp,1
    800009b0:	05d00893          	li	a7,93
    800009b4:	00018513          	mv	a0,gp
    800009b8:	00000073          	ecall

00000000800009bc <test_end>:
    800009bc:	0ff0000f          	fence
    800009c0:	00100193          	li	gp,1
    800009c4:	05d00893          	li	a7,93
    800009c8:	00000513          	li	a0,0
    800009cc:	00000073          	ecall
    800009d0:	c0001073          	unimp
	...

Disassembly of section .tohost:

0000000080001000 <tohost>:
	...

0000000080001040 <fromhost>:
	...

Disassembly of section .data:

0000000080002000 <hidden_data>:
    80002000:	0009                	c.nop	2
    80002002:	0000                	unimp
    80002004:	0000                	unimp
    80002006:	0800                	addi	s0,sp,16

0000000080002008 <reg_x1_init>:
    80002008:	ffff                	0xffff
    8000200a:	ffff                	0xffff
    8000200c:	ffff                	0xffff
    8000200e:	ffff                	0xffff

0000000080002010 <reg_x2_init>:
    80002010:	09d5                	addi	s3,s3,21
    80002012:	39d1                	addiw	s3,s3,-12
    80002014:	63c8                	ld	a0,128(a5)
    80002016:	80e6                	mv	ra,s9

0000000080002018 <reg_x3_init>:
    80002018:	0001                	nop
    8000201a:	0000                	unimp
    8000201c:	0000                	unimp
	...

0000000080002020 <reg_x4_init>:
    80002020:	0004                	0x4
    80002022:	0000                	unimp
    80002024:	0000                	unimp
    80002026:	0800                	addi	s0,sp,16

0000000080002028 <reg_x5_init>:
    80002028:	0006                	c.slli	zero,0x1
    8000202a:	0000                	unimp
    8000202c:	0000                	unimp
	...

0000000080002030 <reg_x6_init>:
    80002030:	0002                	c.slli64	zero
    80002032:	0000                	unimp
    80002034:	0000                	unimp
	...

0000000080002038 <reg_x7_init>:
	...

0000000080002040 <reg_x8_init>:
    80002040:	ffff                	0xffff
    80002042:	ffff                	0xffff
    80002044:	ffff                	0xffff
    80002046:	ffff                	0xffff

0000000080002048 <reg_x9_init>:
    80002048:	458c                	lw	a1,8(a1)
    8000204a:	c081                	beqz	s1,8000204a <reg_x9_init+0x2>
    8000204c:	a0b6                	fsd	fa3,64(sp)
    8000204e:	4f1c                	lw	a5,24(a4)

0000000080002050 <reg_x10_init>:
    80002050:	7a92                	ld	s5,288(sp)
    80002052:	47e4                	lw	s1,76(a5)
    80002054:	0255                	addi	tp,tp,21
    80002056:	          	jal	s6,7ff1f81e <_start-0xe07e2>

0000000080002058 <reg_x11_init>:
    80002058:	fc81                	bnez	s1,80001f70 <fromhost+0xf30>
    8000205a:	49da                	lw	s3,148(sp)
    8000205c:	85a1                	srai	a1,a1,0x8
    8000205e:	4e94                	lw	a3,24(a3)

0000000080002060 <reg_x12_init>:
    80002060:	ffffff83          	0xffffff83
    80002064:	ffff                	0xffff
    80002066:	ffff                	0xffff

0000000080002068 <reg_x13_init>:
    80002068:	ffff                	0xffff
    8000206a:	ffff                	0xffff
    8000206c:	ffff                	0xffff
    8000206e:	ffff                	0xffff

0000000080002070 <reg_x14_init>:
    80002070:	82c2                	mv	t0,a6
    80002072:	3250                	fld	fa2,160(a2)
    80002074:	9670                	0x9670
    80002076:	          	0x38bc5813

0000000080002078 <reg_x15_init>:
    80002078:	38bc                	fld	fa5,112(s1)
    8000207a:	2e1d7207          	0x2e1d7207
    8000207e:	1ac2                	slli	s5,s5,0x30

0000000080002080 <reg_x16_init>:
    80002080:	ff88                	sd	a0,56(a5)
    80002082:	ffff                	0xffff
    80002084:	ffff                	0xffff
    80002086:	ffff                	0xffff

0000000080002088 <reg_x17_init>:
    80002088:	ff88                	sd	a0,56(a5)
    8000208a:	ffff                	0xffff
    8000208c:	ffff                	0xffff
    8000208e:	ffff                	0xffff

0000000080002090 <reg_x18_init>:
    80002090:	8ea2dd9b          	0x8ea2dd9b
    80002094:	8574                	0x8574
    80002096:	          	fmsub.s	ft2,ft4,fa5,ft11,rne

0000000080002098 <reg_x19_init>:
    80002098:	f8f2                	sd	t3,112(sp)
    8000209a:	4a5c                	lw	a5,20(a2)
    8000209c:	9041                	srli	s0,s0,0x30
    8000209e:	          	fnmadd.s	fa2,fa4,ft0,ft0,rup

00000000800020a0 <reg_x20_init>:
    800020a0:	00000007          	0x7
    800020a4:	0000                	unimp
    800020a6:	0800                	addi	s0,sp,16

00000000800020a8 <reg_x21_init>:
    800020a8:	e701                	bnez	a4,800020b0 <reg_x22_init>
    800020aa:	9482                	jalr	s1
    800020ac:	8c70                	0x8c70
    800020ae:	81ed                	srli	a1,a1,0x1b

00000000800020b0 <reg_x22_init>:
	...

00000000800020b8 <reg_x23_init>:
    800020b8:	fffd                	bnez	a5,800020b6 <reg_x22_init+0x6>
    800020ba:	ffff                	0xffff
    800020bc:	ffff                	0xffff
    800020be:	ffff                	0xffff

00000000800020c0 <reg_x24_init>:
    800020c0:	0001                	nop
    800020c2:	0000                	unimp
    800020c4:	0000                	unimp
    800020c6:	0800                	addi	s0,sp,16

00000000800020c8 <reg_x25_init>:
    800020c8:	48882b4f          	fnmadd.s	fs6,fa6,fs0,fs1,rdn
    800020cc:	208e                	fld	ft1,192(sp)
    800020ce:	3e01                	addiw	t3,t3,-32

00000000800020d0 <reg_x26_init>:
    800020d0:	edee                	sd	s11,216(sp)
    800020d2:	ed92b823          	sd	s9,-304(t0)
    800020d6:	a691                	j	8000241a <test_memory+0x21a>

00000000800020d8 <reg_x27_init>:
	...

00000000800020e0 <reg_x28_init>:
    800020e0:	8000                	0x8000
    800020e2:	ffff                	0xffff
    800020e4:	ffff                	0xffff
    800020e6:	ffff                	0xffff

00000000800020e8 <reg_x29_init>:
    800020e8:	1122                	slli	sp,sp,0x28
    800020ea:	5565                	li	a0,-7
    800020ec:	0ffe                	slli	t6,t6,0x1f
    800020ee:	3a09                	addiw	s4,s4,-30

00000000800020f0 <reg_x30_init>:
    800020f0:	ffff                	0xffff
    800020f2:	ffff                	0xffff
    800020f4:	ffff                	0xffff
    800020f6:	ffff                	0xffff

00000000800020f8 <reg_x31_init>:
    800020f8:	51050463          	beq	a0,a6,80002600 <loop_count>
    800020fc:	5d14                	lw	a3,56(a0)
    800020fe:	6582                	ld	a1,0(sp)

0000000080002100 <begin_signature>:
    80002100:	930a                	add	t1,t1,sp
    80002102:	7814                	ld	a3,48(s0)
    80002104:	3cb5                	addiw	s9,s9,-19
    80002106:	9e1d                	subw	a2,a2,a5

0000000080002108 <reg_x1_output>:
    80002108:	5880                	lw	s0,48(s1)
    8000210a:	12f6                	slli	t0,t0,0x3d
    8000210c:	0172cf73          	0x172cf73

0000000080002110 <reg_x2_output>:
    80002110:	995b71db          	0x995b71db
    80002114:	e209                	bnez	a2,80002116 <reg_x2_output+0x6>
    80002116:	f6de                	sd	s7,360(sp)

0000000080002118 <reg_x3_output>:
    80002118:	12d4                	addi	a3,sp,356
    8000211a:	01e92717          	auipc	a4,0x1e92
    8000211e:	60ba                	ld	ra,392(sp)

0000000080002120 <reg_x4_output>:
    80002120:	f7fd5ccf          	fnmadd.q	fs9,fs10,ft11,ft10,unknown
    80002124:	fc14                	sd	a3,56(s0)
    80002126:	          	0x10b73e57

0000000080002128 <reg_x5_output>:
    80002128:	a76410b7          	lui	ra,0xa7641
    8000212c:	0cf6                	slli	s9,s9,0x1d
    8000212e:	          	0x4533ff1b

0000000080002130 <reg_x6_output>:
    80002130:	8d6a4533          	0x8d6a4533
    80002134:	7985                	lui	s3,0xfffe1
    80002136:	226c                	fld	fa1,192(a2)

0000000080002138 <reg_x7_output>:
    80002138:	e25f d9eb 2b40      	0x2b40d9ebe25f
    8000213e:	          	fnmsub.s	ft0,fs0,fs11,ft11,rtz

0000000080002140 <reg_x8_output>:
    80002140:	f9b4                	sd	a3,112(a1)
    80002142:	0c80                	addi	s0,sp,592
    80002144:	4a95                	li	s5,5
    80002146:	62dd                	lui	t0,0x17

0000000080002148 <reg_x9_output>:
    80002148:	87c4                	0x87c4
    8000214a:	9f9dfbd3          	0x9f9dfbd3
    8000214e:	868c                	0x868c

0000000080002150 <reg_x10_output>:
    80002150:	96f0                	0x96f0
    80002152:	c169                	beqz	a0,80002214 <test_memory+0x14>
    80002154:	c769                	beqz	a4,8000221e <test_memory+0x1e>
    80002156:	3a2d                	addiw	s4,s4,-21

0000000080002158 <reg_x11_output>:
    80002158:	654e                	ld	a0,208(sp)
    8000215a:	e1d4                	sd	a3,128(a1)
    8000215c:	9c1f c445       	0xed4ac4459c1f

0000000080002160 <reg_x12_output>:
    80002160:	ed4a                	sd	s2,152(sp)
    80002162:	a44d                	j	80002404 <test_memory+0x204>
    80002164:	98be                	add	a7,a7,a5
    80002166:	8b0e                	mv	s6,gp

0000000080002168 <reg_x13_output>:
    80002168:	19584fcf          	fnmadd.s	ft11,fa6,fs5,ft3,rmm
    8000216c:	1551                	addi	a0,a0,-12
    8000216e:	f770                	sd	a2,232(a4)

0000000080002170 <reg_x14_output>:
    80002170:	effd                	bnez	a5,8000226e <test_memory+0x6e>
    80002172:	11d1                	addi	gp,gp,-12
    80002174:	c8fc06c3          	fmadd.s	fa3,fs8,fa5,fs9,rne

0000000080002178 <reg_x15_output>:
    80002178:	fdb5e3b3          	0xfdb5e3b3
    8000217c:	05be                	slli	a1,a1,0xf
    8000217e:	971d                	srai	a4,a4,0x27

0000000080002180 <reg_x16_output>:
    80002180:	1fbb8173          	0x1fbb8173
    80002184:	d241                	beqz	a2,80002104 <begin_signature+0x4>
    80002186:	          	lui	a0,0x9b75b

0000000080002188 <reg_x17_output>:
    80002188:	9b75                	andi	a4,a4,-3
    8000218a:	ae7e                	fsd	ft11,280(sp)
    8000218c:	e5ba                	sd	a4,200(sp)
    8000218e:	65e9                	lui	a1,0x1a

0000000080002190 <reg_x18_output>:
    80002190:	ab5a30d7          	0xab5a30d7
    80002194:	fc00                	sd	s0,56(s0)
    80002196:	b124                	fsd	fs1,96(a0)

0000000080002198 <reg_x19_output>:
    80002198:	5954                	lw	a3,52(a0)
    8000219a:	5b5c2cf3          	csrrs	s9,0x5b5,s8
    8000219e:	          	jal	s1,7ff9056c <_start-0x6fa94>

00000000800021a0 <reg_x20_output>:
    800021a0:	bce8                	fsd	fa0,248(s1)
    800021a2:	2f34                	fld	fa3,88(a4)
    800021a4:	1e6e                	slli	t3,t3,0x3b
    800021a6:	068e                	slli	a3,a3,0x3

00000000800021a8 <reg_x21_output>:
    800021a8:	5846                	lw	a6,112(sp)
    800021aa:	66c9e6cb          	fnmsub.q	fa3,fs3,fa2,fa2,unknown
    800021ae:	a59c                	fsd	fa5,8(a1)

00000000800021b0 <reg_x22_output>:
    800021b0:	7010                	ld	a2,32(s0)
    800021b2:	3d785f8b          	0x3d785f8b
    800021b6:	73c5                	lui	t2,0xffff1

00000000800021b8 <reg_x23_output>:
    800021b8:	b82d                	j	800019f2 <fromhost+0x9b2>
    800021ba:	96c4                	0x96c4
    800021bc:	46618eb7          	lui	t4,0x46618

00000000800021c0 <reg_x24_output>:
    800021c0:	a9b5                	j	8000263c <_end+0x2c>
    800021c2:	30bb0e9b          	addiw	t4,s6,779
    800021c6:	ff16                	sd	t0,440(sp)

00000000800021c8 <reg_x25_output>:
    800021c8:	1948                	addi	a0,sp,180
    800021ca:	1735                	addi	a4,a4,-19
    800021cc:	d132                	sw	a2,160(sp)
    800021ce:	          	fmadd.s	ft4,fs11,fa2,ft5,rmm

00000000800021d0 <reg_x26_output>:
    800021d0:	28cd                	addiw	a7,a7,19
    800021d2:	0b82                	c.slli64	s7
    800021d4:	0be0                	addi	s0,sp,476
    800021d6:	          	csrrci	ra,0xfae,22

00000000800021d8 <reg_x27_output>:
    800021d8:	ab43faeb          	0xab43faeb
    800021dc:	bea75c97          	auipc	s9,0xbea75

00000000800021e0 <reg_x28_output>:
    800021e0:	ebb8                	sd	a4,80(a5)
    800021e2:	865e                	mv	a2,s7
    800021e4:	2942                	fld	fs2,16(sp)
    800021e6:	58d4                	lw	a3,52(s1)

00000000800021e8 <reg_x29_output>:
    800021e8:	d172                	sw	t3,160(sp)
    800021ea:	77df 54e9 991e      	0x991e54e977df

00000000800021f0 <reg_x30_output>:
    800021f0:	b949                	j	80001e82 <fromhost+0xe42>
    800021f2:	0b36                	slli	s6,s6,0xd
    800021f4:	bad6                	fsd	fs5,368(sp)
    800021f6:	          	0x773943b

00000000800021f8 <reg_x31_output>:
    800021f8:	b11a0773          	0xb11a0773
    800021fc:	2944                	fld	fs1,144(a0)
    800021fe:	9108                	0x9108

0000000080002200 <test_memory>:
    80002200:	a725                	j	80002928 <_end+0x318>
    80002202:	0543b83b          	0x543b83b
    80002206:	5e327be7          	0x5e327be7
    8000220a:	22a5                	addiw	t0,t0,9
    8000220c:	3dac                	fld	fa1,120(a1)
    8000220e:	ba92                	fsd	ft4,368(sp)
    80002210:	3150                	fld	fa2,160(a0)
    80002212:	a958e4e7          	0xa958e4e7
    80002216:	0f35                	addi	t5,t5,13
    80002218:	6159                	addi	sp,sp,400
    8000221a:	a5f5                	j	80002906 <_end+0x2f6>
    8000221c:	ed0a                	sd	sp,152(sp)
    8000221e:	aa72                	fsd	ft8,272(sp)
    80002220:	b704                	fsd	fs1,40(a4)
    80002222:	c2e5                	beqz	a3,80002302 <test_memory+0x102>
    80002224:	9f9f 4371 e1e8      	0xe1e843719f9f
    8000222a:	3534                	fld	fa3,104(a0)
    8000222c:	2779                	addiw	a4,a4,30
    8000222e:	77c4                	ld	s1,168(a5)
    80002230:	70c5                	lui	ra,0xffff1
    80002232:	717c                	ld	a5,224(a0)
    80002234:	ca4d                	beqz	a2,800022e6 <test_memory+0xe6>
    80002236:	7a28                	ld	a0,112(a2)
    80002238:	ac69                	j	800024d2 <test_memory+0x2d2>
    8000223a:	3334                	fld	fa3,96(a4)
    8000223c:	30bd                	addiw	ra,ra,-17
    8000223e:	33b1cbf3          	0x33b1cbf3
    80002242:	b510                	fsd	fa2,40(a0)
    80002244:	415c                	lw	a5,4(a0)
    80002246:	ee68a973          	csrrs	s2,0xee6,a7
    8000224a:	44d2                	lw	s1,20(sp)
    8000224c:	040f4313          	xori	t1,t5,64
    80002250:	961c                	0x961c
    80002252:	c804                	sw	s1,16(s0)
    80002254:	bcfa                	fsd	ft10,120(sp)
    80002256:	ff22f10f          	0xff22f10f
    8000225a:	7b6e                	ld	s6,248(sp)
    8000225c:	ab191a2f          	0xab191a2f
    80002260:	495c                	lw	a5,20(a0)
    80002262:	1d90                	addi	a2,sp,752
    80002264:	c225                	beqz	a2,800022c4 <test_memory+0xc4>
    80002266:	d1f1                	beqz	a1,8000222a <test_memory+0x2a>
    80002268:	7f7c                	ld	a5,248(a4)
    8000226a:	4904                	lw	s1,16(a0)
    8000226c:	aa82                	fsd	ft0,336(sp)
    8000226e:	de91                	beqz	a3,8000218a <reg_x17_output+0x2>
    80002270:	bce0                	fsd	fs0,248(s1)
    80002272:	1b9c                	addi	a5,sp,496
    80002274:	8973758f          	0x8973758f
    80002278:	0536                	slli	a0,a0,0xd
    8000227a:	b0c4                	fsd	fs1,160(s1)
    8000227c:	88ba                	mv	a7,a4
    8000227e:	0da6                	slli	s11,s11,0x9
    80002280:	c3945e87          	0xc3945e87
    80002284:	38c6                	fld	fa7,112(sp)
    80002286:	c560d817          	auipc	a6,0xc560d
    8000228a:	c1ae                	sw	a1,192(sp)
    8000228c:	4c3ec58f          	0x4c3ec58f
    80002290:	0c2e                	slli	s8,s8,0xb
    80002292:	8c64                	0x8c64
    80002294:	7598                	ld	a4,40(a1)
    80002296:	f20ccbe3          	bltz	s9,800021cc <reg_x25_output+0x4>
    8000229a:	b71d                	j	800021c0 <reg_x24_output>
    8000229c:	41bc                	lw	a5,64(a1)
    8000229e:	8a8b7e13          	andi	t3,s6,-1880
    800022a2:	b729                	j	800021ac <reg_x21_output+0x4>
    800022a4:	b2253bb3          	0xb2253bb3
    800022a8:	bf44                	fsd	fs1,184(a4)
    800022aa:	2475                	addiw	s0,s0,29
    800022ac:	be4c                	fsd	fa1,184(a2)
    800022ae:	8729                	srai	a4,a4,0xa
    800022b0:	1539                	addi	a0,a0,-18
    800022b2:	a552                	fsd	fs4,136(sp)
    800022b4:	948c                	0x948c
    800022b6:	b20c                	fsd	fa1,32(a2)
    800022b8:	433e                	lw	t1,204(sp)
    800022ba:	2d1690cf          	0x2d1690cf
    800022be:	96ba                	add	a3,a3,a4
    800022c0:	f7895c13          	0xf7895c13
    800022c4:	b182                	fsd	ft0,224(sp)
    800022c6:	7b5f a5ce 8c63      	0x8c63a5ce7b5f
    800022cc:	058a                	slli	a1,a1,0x2
    800022ce:	6bfa                	ld	s7,408(sp)
    800022d0:	81c4                	0x81c4
    800022d2:	e20a                	sd	sp,256(sp)
    800022d4:	5842                	lw	a6,48(sp)
    800022d6:	08b0                	addi	a2,sp,88
    800022d8:	f736531b          	0xf736531b
    800022dc:	a1ad                	j	80002746 <_end+0x136>
    800022de:	09c1                	addi	s3,s3,16
    800022e0:	ef9e                	sd	t2,472(sp)
    800022e2:	61e9                	lui	gp,0x1a
    800022e4:	316d                	addiw	sp,sp,-5
    800022e6:	7551                	lui	a0,0xffff4
    800022e8:	2595                	addiw	a1,a1,5
    800022ea:	e7623e23          	sd	s6,-388(tp) # fffffffffffffe7c <__global_pointer$+0xffffffff7fffd06c>
    800022ee:	12abdabb          	0x12abdabb
    800022f2:	2108                	fld	fa0,0(a0)
    800022f4:	fafedd77          	0xfafedd77
    800022f8:	bb26                	fsd	fs1,432(sp)
    800022fa:	4c50                	lw	a2,28(s0)
    800022fc:	c1ea                	sw	s10,192(sp)
    800022fe:	7c10                	ld	a2,56(s0)
    80002300:	5601                	li	a2,-32
    80002302:	78ca                	ld	a7,176(sp)
    80002304:	f3d1                	bnez	a5,80002288 <test_memory+0x88>
    80002306:	1c0a                	slli	s8,s8,0x22
    80002308:	d25669a7          	0xd25669a7
    8000230c:	2fac                	fld	fa1,88(a5)
    8000230e:	b47f                	0xb47f
    80002310:	ee5a                	sd	s6,280(sp)
    80002312:	57b8                	lw	a4,104(a5)
    80002314:	504a                	0x504a
    80002316:	fb15                	bnez	a4,8000224a <test_memory+0x4a>
    80002318:	8695                	srai	a3,a3,0x5
    8000231a:	0568                	addi	a0,sp,652
    8000231c:	e83a                	sd	a4,16(sp)
    8000231e:	4ae301e3          	beq	t1,a4,80002fc0 <__global_pointer$+0x1b0>
    80002322:	d8f5                	beqz	s1,80002316 <test_memory+0x116>
    80002324:	52b0                	lw	a2,96(a3)
    80002326:	bb42                	fsd	fa6,432(sp)
    80002328:	f604                	sd	s1,40(a2)
    8000232a:	bed4                	fsd	fa3,184(a3)
    8000232c:	5b75de8b          	0x5b75de8b
    80002330:	3f54                	fld	fa3,184(a4)
    80002332:	3766                	fld	fa4,120(sp)
    80002334:	31a2f4bf ca4534d3 	0xca4534d331a2f4bf
    8000233c:	238d                	addiw	t2,t2,3
    8000233e:	8bd2                	mv	s7,s4
    80002340:	3b40                	fld	fs0,176(a4)
    80002342:	deb4                	sw	a3,120(a3)
    80002344:	0c6dda33          	0xc6dda33
    80002348:	5220                	lw	s0,96(a2)
    8000234a:	86da                	mv	a3,s6
    8000234c:	ece0                	sd	s0,216(s1)
    8000234e:	df84                	sw	s1,56(a5)
    80002350:	22ad                	addiw	t0,t0,11
    80002352:	b301                	j	80002052 <reg_x10_init+0x2>
    80002354:	bf3e                	fsd	fa5,440(sp)
    80002356:	1cf6                	slli	s9,s9,0x3d
    80002358:	8bfe                	mv	s7,t6
    8000235a:	c78a                	sw	sp,204(sp)
    8000235c:	c3da                	sw	s6,196(sp)
    8000235e:	db55                	beqz	a4,80002312 <test_memory+0x112>
    80002360:	12ec9be7          	0x12ec9be7
    80002364:	e922                	sd	s0,144(sp)
    80002366:	83658843          	fmadd.d	fa6,fa1,fs6,fa6,rne
    8000236a:	20d3116f          	jal	sp,80033d76 <__global_pointer$+0x30f66>
    8000236e:	8d79                	and	a0,a0,a4
    80002370:	e691                	bnez	a3,8000237c <test_memory+0x17c>
    80002372:	7f2e                	ld	t5,232(sp)
    80002374:	7d15                	lui	s10,0xfffe5
    80002376:	3b690df7          	0x3b690df7
    8000237a:	f69b1e2f          	0xf69b1e2f
    8000237e:	a629                	j	80002688 <_end+0x78>
    80002380:	8ffc                	0x8ffc
    80002382:	7521                	lui	a0,0xfffe8
    80002384:	403ce16b          	0x403ce16b
    80002388:	849957af          	0x849957af
    8000238c:	f24c                	sd	a1,160(a2)
    8000238e:	6b51                	lui	s6,0x14
    80002390:	b72e98bb          	0xb72e98bb
    80002394:	8cf2                	mv	s9,t3
    80002396:	bfc8                	fsd	fa0,184(a5)
    80002398:	4e1c                	lw	a5,24(a2)
    8000239a:	ed35                	bnez	a0,80002416 <test_memory+0x216>
    8000239c:	7349                	lui	t1,0xffff2
    8000239e:	df76680f          	0xdf76680f
    800023a2:	e89f9c93          	0xe89f9c93
    800023a6:	46fa                	lw	a3,156(sp)
    800023a8:	7fce                	ld	t6,240(sp)
    800023aa:	8b15                	andi	a4,a4,5
    800023ac:	7f7e                	ld	t5,504(sp)
    800023ae:	4854                	lw	a3,20(s0)
    800023b0:	e4fe                	sd	t6,72(sp)
    800023b2:	ca71                	beqz	a2,80002486 <test_memory+0x286>
    800023b4:	5d1d276b          	0x5d1d276b
    800023b8:	2e0e6d4f          	fnmadd.q	fs10,ft8,ft0,ft5,unknown
    800023bc:	37ea                	fld	fa5,184(sp)
    800023be:	02ca                	slli	t0,t0,0x12
    800023c0:	3da2                	fld	fs11,40(sp)
    800023c2:	f7fa                	sd	t5,488(sp)
    800023c4:	e8b93877          	0xe8b93877
    800023c8:	19b07a07          	0x19b07a07
    800023cc:	915c                	0x915c
    800023ce:	6bd8                	ld	a4,144(a5)
    800023d0:	43c0                	lw	s0,4(a5)
    800023d2:	3776b803          	ld	a6,887(a3)
    800023d6:	e47c                	sd	a5,200(s0)
    800023d8:	7f55f2f3          	csrrci	t0,0x7f5,11
    800023dc:	5580                	lw	s0,40(a1)
    800023de:	b46a                	fsd	fs10,40(sp)
    800023e0:	df9e                	sw	t2,252(sp)
    800023e2:	ff4d288b          	0xff4d288b
    800023e6:	3724                	fld	fs1,104(a4)
    800023e8:	4c94                	lw	a3,24(s1)
    800023ea:	a07e                	fsd	ft11,0(sp)
    800023ec:	b01a                	fsd	ft6,32(sp)
    800023ee:	9a01                	andi	a2,a2,-32
    800023f0:	787a                	ld	a6,440(sp)
    800023f2:	c2f26613          	ori	a2,tp,-977
    800023f6:	02f6                	slli	t0,t0,0x1d
    800023f8:	cc29                	beqz	s0,80002452 <test_memory+0x252>
    800023fa:	04ca                	slli	s1,s1,0x12
    800023fc:	cc95                	beqz	s1,80002438 <test_memory+0x238>
    800023fe:	1c31                	addi	s8,s8,-20
    80002400:	62df 9257 d09b      	0xd09b925762df
    80002406:	b641                	j	80001f86 <fromhost+0xf46>
    80002408:	101f 1380 47b7      	0x47b71380101f
    8000240e:	19d6                	slli	s3,s3,0x35
    80002410:	6039                	c.lui	zero,0xe
    80002412:	9548                	0x9548
    80002414:	e31c                	sd	a5,0(a4)
    80002416:	2b12                	fld	fs6,256(sp)
    80002418:	2bc8                	fld	fa0,144(a5)
    8000241a:	79b4b6b3          	0x79b4b6b3
    8000241e:	fea9                	bnez	a3,80002378 <test_memory+0x178>
    80002420:	03ac                	addi	a1,sp,456
    80002422:	c120                	sw	s0,64(a0)
    80002424:	a588                	fsd	fa0,8(a1)
    80002426:	4a4b4a3b          	0x4a4b4a3b
    8000242a:	5d80                	lw	s0,56(a1)
    8000242c:	a466dc6f          	jal	s8,7ff6f672 <_start-0x9098e>
    80002430:	1020                	addi	s0,sp,40
    80002432:	4d1a88a7          	0x4d1a88a7
    80002436:	e3ed                	bnez	a5,80002518 <test_memory+0x318>
    80002438:	d6140cdb          	0xd6140cdb
    8000243c:	11f2                	slli	gp,gp,0x3c
    8000243e:	23a039b7          	lui	s3,0x23a03
    80002442:	6d582e3b          	0x6d582e3b
    80002446:	e048                	sd	a0,128(s0)
    80002448:	9f30182b          	0x9f30182b
    8000244c:	4f45                	li	t5,17
    8000244e:	43e4a8f7          	0x43e4a8f7
    80002452:	6a74fc33          	0x6a74fc33
    80002456:	85210ad3          	0x85210ad3
    8000245a:	be66                	fsd	fs9,312(sp)
    8000245c:	e1c62f63          	0xe1c62f63
    80002460:	202c                	fld	fa1,64(s0)
    80002462:	4928                	lw	a0,80(a0)
    80002464:	2df5                	addiw	s11,s11,29
    80002466:	28c9aefb          	0x28c9aefb
    8000246a:	328413cf          	fnmadd.d	ft7,fs0,fs0,ft6,rtz
    8000246e:	1e5c                	addi	a5,sp,820
    80002470:	1c4e                	slli	s8,s8,0x33
    80002472:	6d9e                	ld	s11,448(sp)
    80002474:	0196                	slli	gp,gp,0x5
    80002476:	07d8                	addi	a4,sp,964
    80002478:	e78c                	sd	a1,8(a5)
    8000247a:	f8b4                	sd	a3,112(s1)
    8000247c:	6d9e                	ld	s11,448(sp)
    8000247e:	d156                	sw	s5,160(sp)
    80002480:	7912                	ld	s2,288(sp)
    80002482:	61dc                	ld	a5,128(a1)
    80002484:	b46d                	j	80001f2e <fromhost+0xeee>
    80002486:	54aa                	lw	s1,168(sp)
    80002488:	87a1                	srai	a5,a5,0x8
    8000248a:	93e8                	0x93e8
    8000248c:	2e32                	fld	ft8,264(sp)
    8000248e:	2dfe                	fld	fs11,472(sp)
    80002490:	2dbd                	addiw	s11,s11,15
    80002492:	0b9e                	slli	s7,s7,0x7
    80002494:	c4246e4f          	0xc4246e4f
    80002498:	b6c2                	fsd	fa6,360(sp)
    8000249a:	4749                	li	a4,18
    8000249c:	0c809643          	0xc809643
    800024a0:	38fe46eb          	0x38fe46eb
    800024a4:	8ccdd573          	csrrwi	a0,0x8cc,27
    800024a8:	75ee3723          	sd	t5,1870(t3)
    800024ac:	613574a3          	0x613574a3
    800024b0:	dea1                	beqz	a3,80002408 <test_memory+0x208>
    800024b2:	d9ca                	sw	s2,240(sp)
    800024b4:	6a54                	ld	a3,144(a2)
    800024b6:	8708                	0x8708
    800024b8:	679f 5c5a dd71      	0xdd715c5a679f
    800024be:	3a44                	fld	fs1,176(a2)
    800024c0:	01a2                	slli	gp,gp,0x8
    800024c2:	3ddb8787          	0x3ddb8787
    800024c6:	9b34af6f          	jal	t5,7ff4ce78 <_start-0xb3188>
    800024ca:	fbbd                	bnez	a5,80002440 <test_memory+0x240>
    800024cc:	46e5                	li	a3,25
    800024ce:	16019def          	jal	s11,8001b62e <__global_pointer$+0x1881e>
    800024d2:	b815                	j	80001d06 <fromhost+0xcc6>
    800024d4:	65bd                	lui	a1,0xf
    800024d6:	bd0a                	fsd	ft2,184(sp)
    800024d8:	f3b1                	bnez	a5,8000241c <test_memory+0x21c>
    800024da:	2e4e1157          	0x2e4e1157
    800024de:	1db4                	addi	a3,sp,760
    800024e0:	c48896f7          	0xc48896f7
    800024e4:	d322                	sw	s0,164(sp)
    800024e6:	b01a                	fsd	ft6,32(sp)
    800024e8:	b3ad                	j	80002252 <test_memory+0x52>
    800024ea:	9356                	add	t1,t1,s5
    800024ec:	2bcf8953          	fmin.d	fs2,ft11,ft8
    800024f0:	39f6                	fld	fs3,376(sp)
    800024f2:	6f880637          	lui	a2,0x6f880
    800024f6:	127a                	slli	tp,tp,0x3e
    800024f8:	3fcf3bbb          	0x3fcf3bbb
    800024fc:	69468783          	lb	a5,1684(a3)
    80002500:	d0fe                	sw	t6,96(sp)
    80002502:	cd0e                	sw	gp,152(sp)
    80002504:	a3e5                	j	80002aec <_end+0x4dc>
    80002506:	dbe6                	sw	s9,244(sp)
    80002508:	f05026db          	0xf05026db
    8000250c:	6808                	ld	a0,16(s0)
    8000250e:	2f40                	fld	fs0,152(a4)
    80002510:	7e2e                	ld	t3,232(sp)
    80002512:	8cb6                	mv	s9,a3
    80002514:	ae12                	fsd	ft4,280(sp)
    80002516:	3949                	addiw	s2,s2,-14
    80002518:	3a32                	fld	fs4,296(sp)
    8000251a:	67bcd003          	lhu	zero,1659(s9) # 3ea77857 <_start-0x415887a9>
    8000251e:	7ef0                	ld	a2,248(a3)
    80002520:	0c9d                	addi	s9,s9,7
    80002522:	6866d757          	0x6866d757
    80002526:	2879                	addiw	a6,a6,30
    80002528:	1bfd                	addi	s7,s7,-1
    8000252a:	6ad2                	ld	s5,272(sp)
    8000252c:	0b62                	slli	s6,s6,0x18
    8000252e:	8422                	mv	s0,s0
    80002530:	826a                	mv	tp,s10
    80002532:	67a12e4f          	fnmadd.q	ft8,ft2,fs10,fa2,rdn
    80002536:	2828                	fld	fa0,80(s0)
    80002538:	2cab05c3          	0x2cab05c3
    8000253c:	4a2d                	li	s4,11
    8000253e:	afc9                	j	80002d10 <_end+0x700>
    80002540:	4011                	c.li	zero,4
    80002542:	47d8                	lw	a4,12(a5)
    80002544:	930c                	0x930c
    80002546:	8030                	0x8030
    80002548:	e5ca                	sd	s2,200(sp)
    8000254a:	2021                	0x2021
    8000254c:	5c84                	lw	s1,56(s1)
    8000254e:	a60c                	fsd	fa1,8(a2)
    80002550:	4100                	lw	s0,0(a0)
    80002552:	a5e8                	fsd	fa0,200(a1)
    80002554:	9adc                	0x9adc
    80002556:	9f2c                	0x9f2c
    80002558:	0e7da3cb          	fnmsub.q	ft7,fs11,ft7,ft1,rdn
    8000255c:	3308                	fld	fa0,32(a4)
    8000255e:	5655                	li	a2,-11
    80002560:	5169                	li	sp,-6
    80002562:	93d5                	srli	a5,a5,0x35
    80002564:	f0de                	sd	s7,96(sp)
    80002566:	7ce819c7          	0x7ce819c7
    8000256a:	0808                	addi	a0,sp,16
    8000256c:	d9d5                	beqz	a1,80002520 <test_memory+0x320>
    8000256e:	6054                	ld	a3,128(s0)
    80002570:	4d59                	li	s10,22
    80002572:	3e61                	addiw	t3,t3,-8
    80002574:	2751                	addiw	a4,a4,20
    80002576:	aadd4483          	lbu	s1,-1363(s10) # fffffffffffe4aad <__global_pointer$+0xffffffff7ffe1c9d>
    8000257a:	7d75                	lui	s10,0xffffd
    8000257c:	4c08                	lw	a0,24(s0)
    8000257e:	bd09b6c3          	0xbd09b6c3
    80002582:	da0e5a73          	csrrwi	s4,0xda0,28
    80002586:	9424                	0x9424
    80002588:	ca76                	sw	t4,20(sp)
    8000258a:	919d                	srli	a1,a1,0x27
    8000258c:	7b80                	ld	s0,48(a5)
    8000258e:	544a                	lw	s0,176(sp)
    80002590:	6274                	ld	a3,192(a2)
    80002592:	02e0                	addi	s0,sp,332
    80002594:	85ee                	mv	a1,s11
    80002596:	b9ed                	j	80002290 <test_memory+0x90>
    80002598:	b540                	fsd	fs0,168(a0)
    8000259a:	f8f6                	sd	t4,112(sp)
    8000259c:	90e8                	0x90e8
    8000259e:	8c29e8b3          	0x8c29e8b3
    800025a2:	4290                	lw	a2,0(a3)
    800025a4:	f26c                	sd	a1,224(a2)
    800025a6:	4126                	lw	sp,72(sp)
    800025a8:	6142c283          	lbu	t0,1556(t0) # 17614 <_start-0x7ffe89ec>
    800025ac:	a7f6                	fsd	ft9,456(sp)
    800025ae:	0059                	c.nop	22
    800025b0:	4162                	lw	sp,24(sp)
    800025b2:	5f6e                	lw	t5,248(sp)
    800025b4:	1188                	addi	a0,sp,224
    800025b6:	a20e                	fsd	ft3,256(sp)
    800025b8:	a36e                	fsd	fs11,384(sp)
    800025ba:	f33e                	sd	a5,416(sp)
    800025bc:	8bec                	0x8bec
    800025be:	2e55                	addiw	t3,t3,21
    800025c0:	9b54                	0x9b54
    800025c2:	f8cd                	bnez	s1,80002574 <test_memory+0x374>
    800025c4:	79ed                	lui	s3,0xffffb
    800025c6:	c4a0                	sw	s0,72(s1)
    800025c8:	4e94                	lw	a3,24(a3)
    800025ca:	78d4                	ld	a3,176(s1)
    800025cc:	3868                	fld	fa0,240(s0)
    800025ce:	d70a                	sw	sp,172(sp)
    800025d0:	dfc8                	sw	a0,60(a5)
    800025d2:	8b01                	andi	a4,a4,0
    800025d4:	aac4df57          	0xaac4df57
    800025d8:	2fccae97          	auipc	t4,0x2fcca
    800025dc:	2259                	addiw	tp,tp,22
    800025de:	04f2                	slli	s1,s1,0x1c
    800025e0:	30ea                	fld	ft1,184(sp)
    800025e2:	de91                	beqz	a3,800024fe <test_memory+0x2fe>
    800025e4:	eed82d2f          	0xeed82d2f
    800025e8:	0822                	slli	a6,a6,0x8
    800025ea:	6a61                	lui	s4,0x18
    800025ec:	8d4e                	mv	s10,s3
    800025ee:	2109                	addiw	sp,sp,2
    800025f0:	e660                	sd	s0,200(a2)
    800025f2:	5d52                	lw	s10,52(sp)
    800025f4:	2778                	fld	fa4,200(a4)
    800025f6:	581f 4b1c 1fa8      	0x1fa84b1c581f
    800025fc:	70f6                	ld	ra,376(sp)
    800025fe:	eb32                	sd	a2,400(sp)

0000000080002600 <loop_count>:
    80002600:	0040                	addi	s0,sp,4
	...

Disassembly of section .riscv.attributes:

0000000000000000 <.riscv.attributes>:
   0:	1e41                	addi	t3,t3,-16
   2:	0000                	unimp
   4:	7200                	ld	s0,32(a2)
   6:	7369                	lui	t1,0xffffa
   8:	01007663          	bgeu	zero,a6,14 <_start-0x7fffffec>
   c:	0014                	0x14
   e:	0000                	unimp
  10:	7205                	lui	tp,0xfffe1
  12:	3676                	fld	fa2,376(sp)
  14:	6934                	ld	a3,80(a0)
  16:	7032                	0x7032
  18:	5f30                	lw	a2,120(a4)
  1a:	326d                	addiw	tp,tp,-5
  1c:	3070                	fld	fa2,224(s0)
	...
