
build/test32:     file format elf64-littleriscv


Disassembly of section .text.init:

0000000080000000 <_start>:
    80000000:	05c0006f          	j	8000005c <reset_vector>

0000000080000004 <trap_vector>:
    80000004:	34202f73          	csrr	t5,mcause
    80000008:	00800f93          	li	t6,8
    8000000c:	03ff0a63          	beq	t5,t6,80000040 <write_tohost>
    80000010:	00900f93          	li	t6,9
    80000014:	03ff0663          	beq	t5,t6,80000040 <write_tohost>
    80000018:	00b00f93          	li	t6,11
    8000001c:	03ff0263          	beq	t5,t6,80000040 <write_tohost>
    80000020:	80000f17          	auipc	t5,0x80000
    80000024:	fe0f0f13          	addi	t5,t5,-32 # 0 <_start-0x80000000>
    80000028:	000f0463          	beqz	t5,80000030 <trap_vector+0x2c>
    8000002c:	000f0067          	jr	t5
    80000030:	34202f73          	csrr	t5,mcause
    80000034:	000f5463          	bgez	t5,8000003c <handle_exception>
    80000038:	0040006f          	j	8000003c <handle_exception>

000000008000003c <handle_exception>:
    8000003c:	5391e193          	ori	gp,gp,1337

0000000080000040 <write_tohost>:
    80000040:	00001f17          	auipc	t5,0x1
    80000044:	fc3f2023          	sw	gp,-64(t5) # 80001000 <tohost>
    80000048:	000902b7          	lui	t0,0x90
    8000004c:	0012829b          	addiw	t0,t0,1
    80000050:	00c29293          	slli	t0,t0,0xc
    80000054:	0002af83          	lw	t6,0(t0) # 90000 <_start-0x7ff70000>
    80000058:	fe9ff06f          	j	80000040 <write_tohost>

000000008000005c <reset_vector>:
    8000005c:	00000093          	li	ra,0
    80000060:	00000113          	li	sp,0
    80000064:	00000193          	li	gp,0
    80000068:	00000213          	li	tp,0
    8000006c:	00000293          	li	t0,0
    80000070:	00000313          	li	t1,0
    80000074:	00000393          	li	t2,0
    80000078:	00000413          	li	s0,0
    8000007c:	00000493          	li	s1,0
    80000080:	00000513          	li	a0,0
    80000084:	00000593          	li	a1,0
    80000088:	00000613          	li	a2,0
    8000008c:	00000693          	li	a3,0
    80000090:	00000713          	li	a4,0
    80000094:	00000793          	li	a5,0
    80000098:	00000813          	li	a6,0
    8000009c:	00000893          	li	a7,0
    800000a0:	00000913          	li	s2,0
    800000a4:	00000993          	li	s3,0
    800000a8:	00000a13          	li	s4,0
    800000ac:	00000a93          	li	s5,0
    800000b0:	00000b13          	li	s6,0
    800000b4:	00000b93          	li	s7,0
    800000b8:	00000c13          	li	s8,0
    800000bc:	00000c93          	li	s9,0
    800000c0:	00000d13          	li	s10,0
    800000c4:	00000d93          	li	s11,0
    800000c8:	00000e13          	li	t3,0
    800000cc:	00000e93          	li	t4,0
    800000d0:	00000f13          	li	t5,0
    800000d4:	00000f93          	li	t6,0
    800000d8:	f1402573          	csrr	a0,mhartid
    800000dc:	00051063          	bnez	a0,800000dc <reset_vector+0x80>
    800000e0:	00000297          	auipc	t0,0x0
    800000e4:	01028293          	addi	t0,t0,16 # 800000f0 <reset_vector+0x94>
    800000e8:	30529073          	csrw	mtvec,t0
    800000ec:	18005073          	csrwi	satp,0
    800000f0:	00000297          	auipc	t0,0x0
    800000f4:	02428293          	addi	t0,t0,36 # 80000114 <reset_vector+0xb8>
    800000f8:	30529073          	csrw	mtvec,t0
    800000fc:	0010029b          	addiw	t0,zero,1
    80000100:	03529293          	slli	t0,t0,0x35
    80000104:	fff28293          	addi	t0,t0,-1
    80000108:	3b029073          	csrw	pmpaddr0,t0
    8000010c:	01f00293          	li	t0,31
    80000110:	3a029073          	csrw	pmpcfg0,t0
    80000114:	30405073          	csrwi	mie,0
    80000118:	00000297          	auipc	t0,0x0
    8000011c:	01428293          	addi	t0,t0,20 # 8000012c <reset_vector+0xd0>
    80000120:	30529073          	csrw	mtvec,t0
    80000124:	30205073          	csrwi	medeleg,0
    80000128:	30305073          	csrwi	mideleg,0
    8000012c:	00000193          	li	gp,0
    80000130:	00000297          	auipc	t0,0x0
    80000134:	ed428293          	addi	t0,t0,-300 # 80000004 <trap_vector>
    80000138:	30529073          	csrw	mtvec,t0
    8000013c:	00100513          	li	a0,1
    80000140:	01f51513          	slli	a0,a0,0x1f
    80000144:	00055c63          	bgez	a0,8000015c <reset_vector+0x100>
    80000148:	0ff0000f          	fence
    8000014c:	00100193          	li	gp,1
    80000150:	05d00893          	li	a7,93
    80000154:	00000513          	li	a0,0
    80000158:	00000073          	ecall
    8000015c:	80000297          	auipc	t0,0x80000
    80000160:	ea428293          	addi	t0,t0,-348 # 0 <_start-0x80000000>
    80000164:	00028a63          	beqz	t0,80000178 <reset_vector+0x11c>
    80000168:	10529073          	csrw	stvec,t0
    8000016c:	0000b2b7          	lui	t0,0xb
    80000170:	1092829b          	addiw	t0,t0,265
    80000174:	30229073          	csrw	medeleg,t0
    80000178:	30005073          	csrwi	mstatus,0
    8000017c:	00000297          	auipc	t0,0x0
    80000180:	01428293          	addi	t0,t0,20 # 80000190 <reset_vector+0x134>
    80000184:	34129073          	csrw	mepc,t0
    80000188:	f1402573          	csrr	a0,mhartid
    8000018c:	30200073          	mret
    80000190:	0200006f          	j	800001b0 <test_start>

0000000080000194 <crash_backward>:
    80000194:	0ff0000f          	fence
    80000198:	00018063          	beqz	gp,80000198 <crash_backward+0x4>
    8000019c:	00119193          	slli	gp,gp,0x1
    800001a0:	0011e193          	ori	gp,gp,1
    800001a4:	05d00893          	li	a7,93
    800001a8:	00018513          	mv	a0,gp
    800001ac:	00000073          	ecall

00000000800001b0 <test_start>:
    800001b0:	00002f97          	auipc	t6,0x2
    800001b4:	e50f8f93          	addi	t6,t6,-432 # 80002000 <hidden_data>
    800001b8:	000fb003          	ld	zero,0(t6)
    800001bc:	008fb083          	ld	ra,8(t6)
    800001c0:	010fb103          	ld	sp,16(t6)
    800001c4:	018fb183          	ld	gp,24(t6)
    800001c8:	020fb203          	ld	tp,32(t6)
    800001cc:	028fb283          	ld	t0,40(t6)
    800001d0:	030fb303          	ld	t1,48(t6)
    800001d4:	038fb383          	ld	t2,56(t6)
    800001d8:	040fb403          	ld	s0,64(t6)
    800001dc:	048fb483          	ld	s1,72(t6)
    800001e0:	050fb503          	ld	a0,80(t6)
    800001e4:	058fb583          	ld	a1,88(t6)
    800001e8:	060fb603          	ld	a2,96(t6)
    800001ec:	068fb683          	ld	a3,104(t6)
    800001f0:	070fb703          	ld	a4,112(t6)
    800001f4:	078fb783          	ld	a5,120(t6)
    800001f8:	080fb803          	ld	a6,128(t6)
    800001fc:	088fb883          	ld	a7,136(t6)
    80000200:	090fb903          	ld	s2,144(t6)
    80000204:	098fb983          	ld	s3,152(t6)
    80000208:	0a0fba03          	ld	s4,160(t6)
    8000020c:	0a8fba83          	ld	s5,168(t6)
    80000210:	0b0fbb03          	ld	s6,176(t6)
    80000214:	0b8fbb83          	ld	s7,184(t6)
    80000218:	0c0fbc03          	ld	s8,192(t6)
    8000021c:	0c8fbc83          	ld	s9,200(t6)
    80000220:	0d0fbd03          	ld	s10,208(t6)
    80000224:	0d8fbd83          	ld	s11,216(t6)
    80000228:	0e0fbe03          	ld	t3,224(t6)
    8000022c:	0e8fbe83          	ld	t4,232(t6)
    80000230:	0f0fbf03          	ld	t5,240(t6)
    80000234:	0f8fbf83          	ld	t6,248(t6)
    80000238:	0040006f          	j	8000023c <pseg_0>

000000008000023c <pseg_0>:
    8000023c:	2d500913          	li	s2,725
    80000240:	c5800c13          	li	s8,-936
    80000244:	002b1e33          	sll	t3,s6,sp
    80000248:	00100793          	li	a5,1
    8000024c:	03296233          	rem	tp,s2,s2
    80000250:	82400893          	li	a7,-2012
    80000254:	03f79793          	slli	a5,a5,0x3f
    80000258:	d3200613          	li	a2,-718
    8000025c:	d6100f93          	li	t6,-671
    80000260:	e6d00393          	li	t2,-403
    80000264:	01087233          	and	tp,a6,a6
    80000268:	fff00b93          	li	s7,-1
    8000026c:	024831b3          	mulhu	gp,a6,tp
    80000270:	a0800713          	li	a4,-1528
    80000274:	00e70a3b          	addw	s4,a4,a4
    80000278:	01f882b3          	add	t0,a7,t6
    8000027c:	36e5ba13          	sltiu	s4,a1,878
    80000280:	00fbcbb3          	xor	s7,s7,a5
    80000284:	00c0d5b3          	srl	a1,ra,a2
    80000288:	0de00b13          	li	s6,222
    8000028c:	80a00513          	li	a0,-2038
    80000290:	2db00813          	li	a6,731
    80000294:	017bfeb3          	and	t4,s7,s7
    80000298:	ecb00f13          	li	t5,-309
    8000029c:	016c2433          	slt	s0,s8,s6
    800002a0:	006364b3          	or	s1,t1,t1
    800002a4:	03ad0dbb          	mulw	s11,s10,s10
    800002a8:	bc700693          	li	a3,-1081
    800002ac:	00a52333          	slt	t1,a0,a0
    800002b0:	43ba5a93          	srai	s5,s4,0x3b
    800002b4:	00feed33          	or	s10,t4,a5
    800002b8:	030380b3          	mul	ra,t2,a6
    800002bc:	0139c5b3          	xor	a1,s3,s3
    800002c0:	e1100493          	li	s1,-495
    800002c4:	a0148893          	addi	a7,s1,-1535
    800002c8:	da400713          	li	a4,-604
    800002cc:	ca500993          	li	s3,-859
    800002d0:	1be00913          	li	s2,446
    800002d4:	45790e13          	addi	t3,s2,1111
    800002d8:	4ae00c13          	li	s8,1198
    800002dc:	0136fcb3          	and	s9,a3,s3
    800002e0:	00000393          	li	t2,0
    800002e4:	00100593          	li	a1,1
    800002e8:	018c0fbb          	addw	t6,s8,s8
    800002ec:	83d00193          	li	gp,-1987
    800002f0:	00100a13          	li	s4,1
    800002f4:	03f59593          	slli	a1,a1,0x3f
    800002f8:	41e6513b          	sraw	sp,a2,t5
    800002fc:	02bd533b          	divuw	t1,s10,a1
    80000300:	0237023b          	mulw	tp,a4,gp
    80000304:	fff00813          	li	a6,-1
    80000308:	73148663          	beq	s1,a7,80000a34 <crash_forward>
    8000030c:	03fa1a13          	slli	s4,s4,0x3f
    80000310:	b1f00d93          	li	s11,-1249
    80000314:	fff00a93          	li	s5,-1
    80000318:	00b84833          	xor	a6,a6,a1
    8000031c:	01057d33          	and	s10,a0,a6
    80000320:	00b1e7b3          	or	a5,gp,a1
    80000324:	a2300093          	li	ra,-1501
    80000328:	e6fd06e3          	beq	s10,a5,80000194 <crash_backward>
    8000032c:	014acab3          	xor	s5,s5,s4
    80000330:	63000b93          	li	s7,1584
    80000334:	001d92b3          	sll	t0,s11,ra
    80000338:	015c7b33          	and	s6,s8,s5
    8000033c:	0145e533          	or	a0,a1,s4
    80000340:	037beebb          	remw	t4,s7,s7
    80000344:	00000413          	li	s0,0
    80000348:	00840e33          	add	t3,s0,s0
    8000034c:	ca700213          	li	tp,-857
    80000350:	d2200d93          	li	s11,-734
    80000354:	9df00913          	li	s2,-1569
    80000358:	41290f3b          	subw	t5,s2,s2
    8000035c:	de000c93          	li	s9,-544
    80000360:	0169c833          	xor	a6,s3,s6
    80000364:	00002b97          	auipc	s7,0x2
    80000368:	d96b8b93          	addi	s7,s7,-618 # 800020fa <reg_x31_init+0x2>
    8000036c:	40a10abb          	subw	s5,sp,a0
    80000370:	00002197          	auipc	gp,0x2
    80000374:	19418193          	addi	gp,gp,404 # 80002504 <test_memory+0x304>
    80000378:	3ceb9783          	lh	a5,974(s7)
    8000037c:	dd200a13          	li	s4,-558
    80000380:	00002497          	auipc	s1,0x2
    80000384:	1d148493          	addi	s1,s1,465 # 80002551 <test_memory+0x351>
    80000388:	04a18d03          	lb	s10,74(gp) # 80002e5a <__global_pointer$+0x4a>
    8000038c:	038c433b          	divw	t1,s8,s8
    80000390:	039cd0b3          	divu	ra,s9,s9
    80000394:	d8e491a3          	sh	a4,-637(s1)
    80000398:	00100793          	li	a5,1
    8000039c:	03f79793          	slli	a5,a5,0x3f
    800003a0:	024218b3          	mulh	a7,tp,tp
    800003a4:	69ef6863          	bltu	t5,t5,80000a34 <crash_forward>
    800003a8:	00002997          	auipc	s3,0x2
    800003ac:	e1f98993          	addi	s3,s3,-481 # 800021c7 <reg_x24_output+0x7>
    800003b0:	88800c13          	li	s8,-1912
    800003b4:	54800b13          	li	s6,1352
    800003b8:	aed00513          	li	a0,-1299
    800003bc:	00100e13          	li	t3,1
    800003c0:	b5600a93          	li	s5,-1194
    800003c4:	cc400393          	li	t2,-828
    800003c8:	19400093          	li	ra,404
    800003cc:	02511493          	slli	s1,sp,0x25
    800003d0:	2f19af83          	lw	t6,753(s3)
    800003d4:	21200893          	li	a7,530
    800003d8:	414dd2bb          	sraw	t0,s11,s4
    800003dc:	01ad1713          	slli	a4,s10,0x1a
    800003e0:	03fe1e13          	slli	t3,t3,0x3f
    800003e4:	eb900613          	li	a2,-327
    800003e8:	0213c333          	div	t1,t2,ra
    800003ec:	fff00f13          	li	t5,-1
    800003f0:	0318c233          	div	tp,a7,a7
    800003f4:	6c400a13          	li	s4,1732
    800003f8:	0ad00f93          	li	t6,173
    800003fc:	a2900193          	li	gp,-1495
    80000400:	035b5d33          	divu	s10,s6,s5
    80000404:	78d00093          	li	ra,1933
    80000408:	4c000213          	li	tp,1216
    8000040c:	fff00113          	li	sp,-1
    80000410:	e9f18b93          	addi	s7,gp,-353 # 80002caf <_end+0x69f>
    80000414:	afd00893          	li	a7,-1283
    80000418:	d7718ee3          	beq	gp,s7,80000194 <crash_backward>
    8000041c:	0042173b          	sllw	a4,tp,tp
    80000420:	ae500493          	li	s1,-1307
    80000424:	029a5db3          	divu	s11,s4,s1
    80000428:	02ac55b3          	divu	a1,s8,a0
    8000042c:	03a00a93          	li	s5,58
    80000430:	093f8313          	addi	t1,t6,147
    80000434:	0040d3b3          	srl	t2,ra,tp
    80000438:	08f00d93          	li	s11,143
    8000043c:	01cf4f33          	xor	t5,t5,t3
    80000440:	54f00593          	li	a1,1359
    80000444:	cf000e93          	li	t4,-784
    80000448:	e1d00513          	li	a0,-483
    8000044c:	03d666b3          	rem	a3,a2,t4
    80000450:	00f14133          	xor	sp,sp,a5
    80000454:	0118cb33          	xor	s6,a7,a7
    80000458:	82b00a13          	li	s4,-2005
    8000045c:	01edf833          	and	a6,s11,t5
    80000460:	ffe00b93          	li	s7,-2
    80000464:	03bdb1b3          	mulhu	gp,s11,s11
    80000468:	002c7cb3          	and	s9,s8,sp
    8000046c:	00ffe433          	or	s0,t6,a5
    80000470:	00002097          	auipc	ra,0x2
    80000474:	00b08093          	addi	ra,ra,11 # 8000247b <test_memory+0x27b>
    80000478:	0c500993          	li	s3,197
    8000047c:	e890e383          	lwu	t2,-375(ra)
    80000480:	d1946ae3          	bltu	s0,s9,80000194 <crash_backward>
    80000484:	01c86933          	or	s2,a6,t3
    80000488:	015acd33          	xor	s10,s5,s5
    8000048c:	0339f2bb          	remuw	t0,s3,s3
    80000490:	03756c3b          	remw	s8,a0,s7
    80000494:	4145d733          	sra	a4,a1,s4
    80000498:	000e8a93          	mv	s5,t4
    8000049c:	000a8e93          	mv	t4,s5
    800004a0:	0265f43b          	remuw	s0,a1,t1
    800004a4:	dad00513          	li	a0,-595
    800004a8:	82800213          	li	tp,-2008
    800004ac:	1e500193          	li	gp,485
    800004b0:	0252d633          	divu	a2,t0,t0
    800004b4:	78400113          	li	sp,1924
    800004b8:	0245533b          	divuw	t1,a0,tp
    800004bc:	02675f33          	divu	t5,a4,t1
    800004c0:	00002c97          	auipc	s9,0x2
    800004c4:	fbcc8c93          	addi	s9,s9,-68 # 8000247c <test_memory+0x27c>
    800004c8:	03c740b3          	div	ra,a4,t3
    800004cc:	57da9463          	bne	s5,t4,80000a34 <crash_forward>
    800004d0:	55b00693          	li	a3,1371
    800004d4:	34800393          	li	t2,840
    800004d8:	4fa38b93          	addi	s7,t2,1274
    800004dc:	41ad55b3          	sra	a1,s10,s10
    800004e0:	547bea63          	bltu	s7,t2,80000a34 <crash_forward>
    800004e4:	41900293          	li	t0,1049
    800004e8:	00002a17          	auipc	s4,0x2
    800004ec:	828a0a13          	addi	s4,s4,-2008 # 80001d10 <fromhost+0xcd0>
    800004f0:	790a2d83          	lw	s11,1936(s4)
    800004f4:	02986e33          	rem	t3,a6,s1
    800004f8:	f10cad03          	lw	s10,-240(s9)
    800004fc:	8e400793          	li	a5,-1820
    80000500:	24d00493          	li	s1,589
    80000504:	12a00f93          	li	t6,298
    80000508:	0291bb33          	mulhu	s6,gp,s1
    8000050c:	5a768913          	addi	s2,a3,1447
    80000510:	bc300893          	li	a7,-1085
    80000514:	0312a733          	mulhsu	a4,t0,a7
    80000518:	554f8813          	addi	a6,t6,1364
    8000051c:	02f109bb          	mulw	s3,sp,a5
    80000520:	004260b3          	or	ra,tp,tp
    80000524:	000b8c93          	mv	s9,s7
    80000528:	64400493          	li	s1,1604
    8000052c:	cf700193          	li	gp,-777
    80000530:	02a1dfbb          	divuw	t6,gp,a0
    80000534:	96a00e13          	li	t3,-1686
    80000538:	0294adb3          	mulhsu	s11,s1,s1
    8000053c:	f122f893          	andi	a7,t0,-238
    80000540:	9dc00393          	li	t2,-1572
    80000544:	40a00e93          	li	t4,1034
    80000548:	01c1d333          	srl	t1,gp,t3
    8000054c:	45000293          	li	t0,1104
    80000550:	00100a13          	li	s4,1
    80000554:	2ae00d13          	li	s10,686
    80000558:	000c8413          	mv	s0,s9
    8000055c:	41ad0633          	sub	a2,s10,s10
    80000560:	6fd00b13          	li	s6,1789
    80000564:	0052b6b3          	sltu	a3,t0,t0
    80000568:	49700513          	li	a0,1175
    8000056c:	c4f00313          	li	t1,-945
    80000570:	0b7b0c13          	addi	s8,s6,183
    80000574:	02a38abb          	mulw	s5,t2,a0
    80000578:	e2900e13          	li	t3,-471
    8000057c:	01b8ff33          	and	t5,a7,s11
    80000580:	03dee7b3          	rem	a5,t4,t4
    80000584:	00002097          	auipc	ra,0x2
    80000588:	30708093          	addi	ra,ra,775 # 8000288b <_end+0x27b>
    8000058c:	00002297          	auipc	t0,0x2
    80000590:	b6828293          	addi	t0,t0,-1176 # 800020f4 <reg_x30_init+0x4>
    80000594:	01ce11b3          	sll	gp,t3,t3
    80000598:	02633cb3          	mulhu	s9,t1,t1
    8000059c:	00008d13          	mv	s10,ra
    800005a0:	02e748b3          	div	a7,a4,a4
    800005a4:	03fa1a13          	slli	s4,s4,0x3f
    800005a8:	bf8b76e3          	bgeu	s6,s8,80000194 <crash_backward>
    800005ac:	e0200713          	li	a4,-510
    800005b0:	000d0f93          	mv	t6,s10
    800005b4:	bdd08603          	lb	a2,-1059(ra)
    800005b8:	00000493          	li	s1,0
    800005bc:	fff00813          	li	a6,-1
    800005c0:	36e29c23          	sh	a4,888(t0)
    800005c4:	00000693          	li	a3,0
    800005c8:	00100593          	li	a1,1
    800005cc:	00002a97          	auipc	s5,0x2
    800005d0:	56ca8a93          	addi	s5,s5,1388 # 80002b38 <_end+0x528>
    800005d4:	b3b00e93          	li	t4,-1221
    800005d8:	01484833          	xor	a6,a6,s4
    800005dc:	026e4c33          	div	s8,t3,t1
    800005e0:	851acc83          	lbu	s9,-1967(s5)
    800005e4:	010b7bb3          	and	s7,s6,a6
    800005e8:	15d00d93          	li	s11,349
    800005ec:	014b6133          	or	sp,s6,s4
    800005f0:	03b7443b          	divw	s0,a4,s11
    800005f4:	442bc063          	blt	s7,sp,80000a34 <crash_forward>
    800005f8:	a9d00393          	li	t2,-1379
    800005fc:	03f59593          	slli	a1,a1,0x3f
    80000600:	b9fd6ae3          	bltu	s10,t6,80000194 <crash_backward>
    80000604:	b0ee8093          	addi	ra,t4,-1266
    80000608:	b5800f13          	li	t5,-1192
    8000060c:	03e388b3          	mul	a7,t2,t5
    80000610:	fff00213          	li	tp,-1
    80000614:	00b24233          	xor	tp,tp,a1
    80000618:	401e8e63          	beq	t4,ra,80000a34 <crash_forward>
    8000061c:	0048f933          	and	s2,a7,tp
    80000620:	00b969b3          	or	s3,s2,a1
    80000624:	b729e8e3          	bltu	s3,s2,80000194 <crash_backward>
    80000628:	00001217          	auipc	tp,0x1
    8000062c:	50220213          	addi	tp,tp,1282 # 80001b2a <fromhost+0xaea>
    80000630:	00100593          	li	a1,1
    80000634:	3a500793          	li	a5,933
    80000638:	41ff549b          	sraiw	s1,t5,0x1f
    8000063c:	02636833          	rem	a6,t1,t1
    80000640:	83000b93          	li	s7,-2000
    80000644:	01ded733          	srl	a4,t4,t4
    80000648:	b5dee6e3          	bltu	t4,t4,80000194 <crash_backward>
    8000064c:	00100193          	li	gp,1
    80000650:	03f59593          	slli	a1,a1,0x3f
    80000654:	dcf00813          	li	a6,-561
    80000658:	417b82bb          	subw	t0,s7,s7
    8000065c:	00100e93          	li	t4,1
    80000660:	2dc00c13          	li	s8,732
    80000664:	03f19193          	slli	gp,gp,0x3f
    80000668:	2c000493          	li	s1,704
    8000066c:	fff00b13          	li	s6,-1
    80000670:	40980fb3          	sub	t6,a6,s1
    80000674:	03fe9e93          	slli	t4,t4,0x3f
    80000678:	0187c8b3          	xor	a7,a5,s8
    8000067c:	00001997          	auipc	s3,0x1
    80000680:	4a598993          	addi	s3,s3,1189 # 80001b21 <fromhost+0xae1>
    80000684:	00bb4b33          	xor	s6,s6,a1
    80000688:	00100513          	li	a0,1
    8000068c:	fff00393          	li	t2,-1
    80000690:	03f51513          	slli	a0,a0,0x3f
    80000694:	0164f633          	and	a2,s1,s6
    80000698:	fff00d13          	li	s10,-1
    8000069c:	fff00913          	li	s2,-1
    800006a0:	00394933          	xor	s2,s2,gp
    800006a4:	012a7133          	and	sp,s4,s2
    800006a8:	01d3c3b3          	xor	t2,t2,t4
    800006ac:	00737cb3          	and	s9,t1,t2
    800006b0:	00ad4d33          	xor	s10,s10,a0
    800006b4:	7da24683          	lbu	a3,2010(tp) # 7da <_start-0x7ffff826>
    800006b8:	00b66f33          	or	t5,a2,a1
    800006bc:	01aa7333          	and	t1,s4,s10
    800006c0:	00a7eab3          	or	s5,a5,a0
    800006c4:	7d09bfa3          	sd	a6,2015(s3)
    800006c8:	01dfe433          	or	s0,t6,t4
    800006cc:	368cf463          	bgeu	s9,s0,80000a34 <crash_forward>
    800006d0:	00316db3          	or	s11,sp,gp
    800006d4:	37b14063          	blt	sp,s11,80000a34 <crash_forward>
    800006d8:	41085fb3          	sra	t6,a6,a6
    800006dc:	415a8abb          	subw	s5,s5,s5
    800006e0:	60900713          	li	a4,1545
    800006e4:	80700313          	li	t1,-2041
    800006e8:	00002917          	auipc	s2,0x2
    800006ec:	fb190913          	addi	s2,s2,-79 # 80002699 <_end+0x89>
    800006f0:	40fb5d93          	srai	s11,s6,0xf
    800006f4:	415781b3          	sub	gp,a5,s5
    800006f8:	6cc00793          	li	a5,1740
    800006fc:	f2900893          	li	a7,-215
    80000700:	035ad9b3          	divu	s3,s5,s5
    80000704:	00038f13          	mv	t5,t2
    80000708:	ccc00513          	li	a0,-820
    8000070c:	000f0c13          	mv	s8,t5
    80000710:	00002f97          	auipc	t6,0x2
    80000714:	34df8f93          	addi	t6,t6,845 # 80002a5d <_end+0x44d>
    80000718:	43d00193          	li	gp,1085
    8000071c:	a78f1ce3          	bne	t5,s8,80000194 <crash_backward>
    80000720:	00000213          	li	tp,0
    80000724:	00001b97          	auipc	s7,0x1
    80000728:	7b7b8b93          	addi	s7,s7,1975 # 80001edb <fromhost+0xe9b>
    8000072c:	d8191d03          	lh	s10,-639(s2)
    80000730:	3f200113          	li	sp,1010
    80000734:	02a52833          	mulhsu	a6,a0,a0
    80000738:	00000693          	li	a3,0
    8000073c:	00000093          	li	ra,0
    80000740:	00000a13          	li	s4,0
    80000744:	0a818a93          	addi	s5,gp,168 # 80002eb8 <__global_pointer$+0xa8>
    80000748:	4a670493          	addi	s1,a4,1190
    8000074c:	406303bb          	subw	t2,t1,t1
    80000750:	16400c93          	li	s9,356
    80000754:	021e9513          	slli	a0,t4,0x21
    80000758:	024c76bb          	remuw	a3,s8,tp
    8000075c:	89800593          	li	a1,-1896
    80000760:	18600293          	li	t0,390
    80000764:	03910ebb          	mulw	t4,sp,s9
    80000768:	522b92a3          	sh	sp,1317(s7)
    8000076c:	a2e4e4e3          	bltu	s1,a4,80000194 <crash_backward>
    80000770:	9a9f8d83          	lb	s11,-1623(t6)
    80000774:	00528633          	add	a2,t0,t0
    80000778:	01581b3b          	sllw	s6,a6,s5
    8000077c:	8b200813          	li	a6,-1870
    80000780:	c2d00313          	li	t1,-979
    80000784:	03086d3b          	remw	s10,a6,a6
    80000788:	6c100213          	li	tp,1729
    8000078c:	13100a13          	li	s4,305
    80000790:	00b79433          	sll	s0,a5,a1
    80000794:	026379bb          	remuw	s3,t1,t1
    80000798:	41c95c3b          	sraw	s8,s2,t3
    8000079c:	1c9a0093          	addi	ra,s4,457
    800007a0:	6ea20393          	addi	t2,tp,1770 # 6ea <_start-0x7ffff916>
    800007a4:	9f40e8e3          	bltu	ra,s4,80000194 <crash_backward>
    800007a8:	0318ae33          	mulhsu	t3,a7,a7
    800007ac:	98e0a0b7          	lui	ra,0x98e0a
    800007b0:	3ce00113          	li	sp,974
    800007b4:	96d00193          	li	gp,-1683
    800007b8:	6fe00d93          	li	s11,1790
    800007bc:	0031cb33          	xor	s6,gp,gp
    800007c0:	59900413          	li	s0,1433
    800007c4:	00815c3b          	srlw	s8,sp,s0
    800007c8:	09100a93          	li	s5,145
    800007cc:	40420a33          	sub	s4,tp,tp
    800007d0:	006373b3          	and	t2,t1,t1
    800007d4:	0348d83b          	divuw	a6,a7,s4
    800007d8:	030878bb          	remuw	a7,a6,a6
    800007dc:	c9000793          	li	a5,-880
    800007e0:	00100f13          	li	t5,1
    800007e4:	000b0213          	mv	tp,s6
    800007e8:	2e600e13          	li	t3,742
    800007ec:	4b4a3093          	sltiu	ra,s4,1204
    800007f0:	001b9133          	sll	sp,s7,ra
    800007f4:	02416eb3          	rem	t4,sp,tp
    800007f8:	00100a13          	li	s4,1
    800007fc:	27400293          	li	t0,628
    80000800:	fa500c93          	li	s9,-91
    80000804:	03a9ec3b          	remw	s8,s3,s10
    80000808:	025d873b          	mulw	a4,s11,t0
    8000080c:	0118c433          	xor	s0,a7,a7
    80000810:	0091989b          	slliw	a7,gp,0x9
    80000814:	019e05bb          	addw	a1,t3,s9
    80000818:	415b0633          	sub	a2,s6,s5
    8000081c:	40fadbbb          	sraw	s7,s5,a5
    80000820:	9d900c93          	li	s9,-1575
    80000824:	02b5fab3          	remu	s5,a1,a1
    80000828:	55000293          	li	t0,1360
    8000082c:	14c00b93          	li	s7,332
    80000830:	03fa1a13          	slli	s4,s4,0x3f
    80000834:	00100d93          	li	s11,1
    80000838:	41398733          	sub	a4,s3,s3
    8000083c:	01ad043b          	addw	s0,s10,s10
    80000840:	01083eb3          	sltu	t4,a6,a6
    80000844:	00001697          	auipc	a3,0x1
    80000848:	7ef68693          	addi	a3,a3,2031 # 80002033 <reg_x6_init+0x3>
    8000084c:	00000613          	li	a2,0
    80000850:	00020f93          	mv	t6,tp
    80000854:	911d7a93          	andi	s5,s10,-1775
    80000858:	19900593          	li	a1,409
    8000085c:	51cc8513          	addi	a0,s9,1308
    80000860:	00000713          	li	a4,0
    80000864:	00bb813b          	addw	sp,s7,a1
    80000868:	0231d93b          	divuw	s2,gp,gp
    8000086c:	005cd8b3          	srl	a7,s9,t0
    80000870:	fff00b13          	li	s6,-1
    80000874:	0383ee3b          	remw	t3,t2,s8
    80000878:	07b00e93          	li	t4,123
    8000087c:	03ff1f13          	slli	t5,t5,0x3f
    80000880:	5956b483          	ld	s1,1429(a3)
    80000884:	03fd9d93          	slli	s11,s11,0x3f
    80000888:	fff00313          	li	t1,-1
    8000088c:	01e34333          	xor	t1,t1,t5
    80000890:	014b4b33          	xor	s6,s6,s4
    80000894:	00002297          	auipc	t0,0x2
    80000898:	3ab28293          	addi	t0,t0,939 # 80002c3f <_end+0x62f>
    8000089c:	0167f3b3          	and	t2,a5,s6
    800008a0:	006a79b3          	and	s3,s4,t1
    800008a4:	01e9ed33          	or	s10,s3,t5
    800008a8:	00100113          	li	sp,1
    800008ac:	18e64463          	blt	a2,a4,80000a34 <crash_forward>
    800008b0:	0346fcbb          	remuw	s9,a3,s4
    800008b4:	15300b93          	li	s7,339
    800008b8:	74200f93          	li	t6,1858
    800008bc:	417bd23b          	sraw	tp,s7,s7
    800008c0:	03def43b          	remuw	s0,t4,t4
    800008c4:	8da988e3          	beq	s3,s10,80000194 <crash_backward>
    800008c8:	fff00793          	li	a5,-1
    800008cc:	01ffcab3          	xor	s5,t6,t6
    800008d0:	f7b7c693          	xori	a3,a5,-133
    800008d4:	22200513          	li	a0,546
    800008d8:	03f11113          	slli	sp,sp,0x3f
    800008dc:	70f00593          	li	a1,1807
    800008e0:	02b54e3b          	divw	t3,a0,a1
    800008e4:	898298a3          	sh	s8,-1903(t0)
    800008e8:	fff00913          	li	s2,-1
    800008ec:	01456833          	or	a6,a0,s4
    800008f0:	01b7c7b3          	xor	a5,a5,s11
    800008f4:	02a375b3          	remu	a1,t1,a0
    800008f8:	03df2cb3          	mulhsu	s9,t5,t4
    800008fc:	03ded53b          	divuw	a0,t4,t4
    80000900:	31b00413          	li	s0,795
    80000904:	02483eb3          	mulhu	t4,a6,tp
    80000908:	00294933          	xor	s2,s2,sp
    8000090c:	e4200293          	li	t0,-446
    80000910:	1303f263          	bgeu	t2,a6,80000a34 <crash_forward>
    80000914:	03b40493          	addi	s1,s0,59
    80000918:	4a900e13          	li	t3,1193
    8000091c:	80400393          	li	t2,-2044
    80000920:	8ef00c93          	li	s9,-1809
    80000924:	039c8533          	mul	a0,s9,s9
    80000928:	02e76bbb          	remw	s7,a4,a4
    8000092c:	012e71b3          	and	gp,t3,s2
    80000930:	02211533          	mulh	a0,sp,sp
    80000934:	5c700f13          	li	t5,1479
    80000938:	037bbd33          	mulhu	s10,s7,s7
    8000093c:	03e2d9bb          	divuw	s3,t0,t5
    80000940:	5c300a93          	li	s5,1475
    80000944:	00f47c33          	and	s8,s0,a5
    80000948:	015aa333          	slt	t1,s5,s5
    8000094c:	8b400213          	li	tp,-1868
    80000950:	510e0713          	addi	a4,t3,1296
    80000954:	0243ca33          	div	s4,t2,tp
    80000958:	00100b13          	li	s6,1
    8000095c:	83c76ce3          	bltu	a4,t3,80000194 <crash_backward>
    80000960:	9a800f93          	li	t6,-1624
    80000964:	01bc60b3          	or	ra,s8,s11
    80000968:	03fb1b13          	slli	s6,s6,0x3f
    8000096c:	002de8b3          	or	a7,s11,sp
    80000970:	821c72e3          	bgeu	s8,ra,80000194 <crash_backward>
    80000974:	fff00593          	li	a1,-1
    80000978:	0165c5b3          	xor	a1,a1,s6
    8000097c:	00bc7eb3          	and	t4,s8,a1
    80000980:	0d600613          	li	a2,214
    80000984:	016c6833          	or	a6,s8,s6
    80000988:	0b0ef663          	bgeu	t4,a6,80000a34 <crash_forward>
    8000098c:	02cfc6b3          	div	a3,t6,a2
    80000990:	0040006f          	j	80000994 <reg_dump>

0000000080000994 <reg_dump>:
    80000994:	00002097          	auipc	ra,0x2
    80000998:	c6c08093          	addi	ra,ra,-916 # 80002600 <loop_count>
    8000099c:	0000a103          	lw	sp,0(ra)
    800009a0:	fff10193          	addi	gp,sp,-1
    800009a4:	0030a023          	sw	gp,0(ra)
    800009a8:	88011ae3          	bnez	sp,8000023c <pseg_0>
    800009ac:	00001097          	auipc	ra,0x1
    800009b0:	75408093          	addi	ra,ra,1876 # 80002100 <begin_signature>
    800009b4:	0000b023          	sd	zero,0(ra)
    800009b8:	0020b823          	sd	sp,16(ra)
    800009bc:	0030bc23          	sd	gp,24(ra)
    800009c0:	0240b023          	sd	tp,32(ra)
    800009c4:	0250b423          	sd	t0,40(ra)
    800009c8:	0260b823          	sd	t1,48(ra)
    800009cc:	0270bc23          	sd	t2,56(ra)
    800009d0:	0480b023          	sd	s0,64(ra)
    800009d4:	0490b423          	sd	s1,72(ra)
    800009d8:	04a0b823          	sd	a0,80(ra)
    800009dc:	04b0bc23          	sd	a1,88(ra)
    800009e0:	06c0b023          	sd	a2,96(ra)
    800009e4:	06d0b423          	sd	a3,104(ra)
    800009e8:	06e0b823          	sd	a4,112(ra)
    800009ec:	06f0bc23          	sd	a5,120(ra)
    800009f0:	0900b023          	sd	a6,128(ra)
    800009f4:	0910b423          	sd	a7,136(ra)
    800009f8:	0920b823          	sd	s2,144(ra)
    800009fc:	0930bc23          	sd	s3,152(ra)
    80000a00:	0b40b023          	sd	s4,160(ra)
    80000a04:	0b50b423          	sd	s5,168(ra)
    80000a08:	0b60b823          	sd	s6,176(ra)
    80000a0c:	0b70bc23          	sd	s7,184(ra)
    80000a10:	0d80b023          	sd	s8,192(ra)
    80000a14:	0d90b423          	sd	s9,200(ra)
    80000a18:	0da0b823          	sd	s10,208(ra)
    80000a1c:	0db0bc23          	sd	s11,216(ra)
    80000a20:	0fc0b023          	sd	t3,224(ra)
    80000a24:	0fd0b423          	sd	t4,232(ra)
    80000a28:	0fe0b823          	sd	t5,240(ra)
    80000a2c:	0ff0bc23          	sd	t6,248(ra)
    80000a30:	0200006f          	j	80000a50 <test_end>

0000000080000a34 <crash_forward>:
    80000a34:	0ff0000f          	fence
    80000a38:	00018063          	beqz	gp,80000a38 <crash_forward+0x4>
    80000a3c:	00119193          	slli	gp,gp,0x1
    80000a40:	0011e193          	ori	gp,gp,1
    80000a44:	05d00893          	li	a7,93
    80000a48:	00018513          	mv	a0,gp
    80000a4c:	00000073          	ecall

0000000080000a50 <test_end>:
    80000a50:	0ff0000f          	fence
    80000a54:	00100193          	li	gp,1
    80000a58:	05d00893          	li	a7,93
    80000a5c:	00000513          	li	a0,0
    80000a60:	00000073          	ecall
    80000a64:	c0001073          	unimp
	...

Disassembly of section .tohost:

0000000080001000 <tohost>:
	...

0000000080001040 <fromhost>:
	...

Disassembly of section .data:

0000000080002000 <hidden_data>:
    80002000:	33a0                	fld	fs0,96(a5)
    80002002:	eaae                	sd	a1,336(sp)
    80002004:	53f6                	lw	t2,124(sp)
    80002006:	87c6                	mv	a5,a7

0000000080002008 <reg_x1_init>:
    80002008:	b002                	fsd	ft0,32(sp)
    8000200a:	a52d                	j	80002634 <_end+0x24>
    8000200c:	82c5                	srli	a3,a3,0x11
    8000200e:	0db1                	addi	s11,s11,12

0000000080002010 <reg_x2_init>:
    80002010:	4b25                	li	s6,9
    80002012:	f82e                	sd	a1,48(sp)
    80002014:	caed                	beqz	a3,80002106 <begin_signature+0x6>
    80002016:	f686                	sd	ra,360(sp)

0000000080002018 <reg_x3_init>:
    80002018:	00000003          	lb	zero,0(zero) # 0 <_start-0x80000000>
    8000201c:	0000                	unimp
	...

0000000080002020 <reg_x4_init>:
    80002020:	ffffffef          	jal	t6,8000201e <reg_x3_init+0x6>
    80002024:	ffff                	0xffff
    80002026:	ffff                	0xffff

0000000080002028 <reg_x5_init>:
    80002028:	0005                	c.nop	1
    8000202a:	0000                	unimp
    8000202c:	0000                	unimp
	...

0000000080002030 <reg_x6_init>:
	...

0000000080002038 <reg_x7_init>:
    80002038:	00000003          	lb	zero,0(zero) # 0 <_start-0x80000000>
    8000203c:	0000                	unimp
    8000203e:	0800                	addi	s0,sp,16

0000000080002040 <reg_x8_init>:
    80002040:	3148                	fld	fa0,160(a0)
    80002042:	82f0                	0x82f0
    80002044:	dc68                	sw	a0,124(s0)
    80002046:	62ce                	ld	t0,208(sp)

0000000080002048 <reg_x9_init>:
    80002048:	ffff                	0xffff
    8000204a:	ffff                	0xffff
    8000204c:	ffff                	0xffff
    8000204e:	ffff                	0xffff

0000000080002050 <reg_x10_init>:
    80002050:	7a51                	lui	s4,0xffff4
    80002052:	9281                	srli	a3,a3,0x20
    80002054:	2541                	addiw	a0,a0,16
    80002056:	          	0xe5b5024b

0000000080002058 <reg_x11_init>:
    80002058:	e5b5                	bnez	a1,800020c4 <reg_x24_init+0x4>
    8000205a:	f128                	sd	a0,96(a0)
    8000205c:	a639                	j	8000236a <test_memory+0x16a>
    8000205e:	608a                	ld	ra,128(sp)

0000000080002060 <reg_x12_init>:
    80002060:	36d8                	fld	fa4,168(a3)
    80002062:	5fa8                	lw	a0,120(a5)
    80002064:	0e39b093          	sltiu	ra,s3,227

0000000080002068 <reg_x13_init>:
    80002068:	ff89                	bnez	a5,80001f82 <fromhost+0xf42>
    8000206a:	ffff                	0xffff
    8000206c:	ffff                	0xffff
    8000206e:	ffff                	0xffff

0000000080002070 <reg_x14_init>:
    80002070:	0004                	0x4
    80002072:	8000                	0x8000
    80002074:	ffff                	0xffff
    80002076:	ffff                	0xffff

0000000080002078 <reg_x15_init>:
    80002078:	305f 4fc6 2cb8      	0x2cb84fc6305f
    8000207e:	c881                	beqz	s1,8000208e <reg_x17_init+0x6>

0000000080002080 <reg_x16_init>:
    80002080:	ff81                	bnez	a5,80001f98 <fromhost+0xf58>
    80002082:	ffff                	0xffff
    80002084:	ffff                	0xffff
    80002086:	ffff                	0xffff

0000000080002088 <reg_x17_init>:
    80002088:	aa60                	fsd	fs0,208(a2)
    8000208a:	c7dda413          	slti	s0,s11,-899
    8000208e:	f018                	sd	a4,32(s0)

0000000080002090 <reg_x18_init>:
	...

0000000080002098 <reg_x19_init>:
    80002098:	1ce5af4b          	0x1ce5af4b
    8000209c:	b8bd24eb          	0xb8bd24eb

00000000800020a0 <reg_x20_init>:
    800020a0:	43b8                	lw	a4,64(a5)
    800020a2:	288746eb          	0x288746eb
    800020a6:	b676                	fsd	ft9,296(sp)

00000000800020a8 <reg_x21_init>:
    800020a8:	d0f1f253          	0xd0f1f253
    800020ac:	05f8                	addi	a4,sp,716
    800020ae:	c1a2                	sw	s0,192(sp)

00000000800020b0 <reg_x22_init>:
    800020b0:	683591c7          	fmsub.s	ft3,fa1,ft3,fa3,rtz
    800020b4:	82c617fb          	0x82c617fb

00000000800020b8 <reg_x23_init>:
	...

00000000800020c0 <reg_x24_init>:
    800020c0:	fffd                	bnez	a5,800020be <reg_x23_init+0x6>
    800020c2:	ffff                	0xffff
    800020c4:	ffff                	0xffff
    800020c6:	ffff                	0xffff

00000000800020c8 <reg_x25_init>:
    800020c8:	47fc                	lw	a5,76(a5)
    800020ca:	1858                	addi	a4,sp,52
    800020cc:	983ca557          	0x983ca557

00000000800020d0 <reg_x26_init>:
    800020d0:	bc81                	j	80001b20 <fromhost+0xae0>
    800020d2:	cc4698e3          	bne	a3,tp,80001da2 <fromhost+0xd62>
    800020d6:	b685                	j	80001c36 <fromhost+0xbf6>

00000000800020d8 <reg_x27_init>:
    800020d8:	4229                	li	tp,10
    800020da:	df4a                	sw	s2,188(sp)
    800020dc:	6110                	ld	a2,0(a0)
    800020de:	6124                	ld	s1,64(a0)

00000000800020e0 <reg_x28_init>:
    800020e0:	d36d                	beqz	a4,800020c2 <reg_x24_init+0x2>
    800020e2:	ac1c                	fsd	fa5,24(s0)
    800020e4:	c275                	beqz	a2,800021c8 <reg_x25_output>
    800020e6:	d120                	sw	s0,96(a0)

00000000800020e8 <reg_x29_init>:
    800020e8:	37e4                	fld	fs1,232(a5)
    800020ea:	c129bdeb          	0xc129bdeb
    800020ee:	          	auipc	s1,0x8e06f

00000000800020f0 <reg_x30_init>:
    800020f0:	8e06                	mv	t3,ra
    800020f2:	9bfeac53          	0x9bfeac53
    800020f6:	3ec9                	addiw	t4,t4,-14

00000000800020f8 <reg_x31_init>:
    800020f8:	ffff                	0xffff
    800020fa:	ffff                	0xffff
    800020fc:	ffff                	0xffff
    800020fe:	ffff                	0xffff

0000000080002100 <begin_signature>:
    80002100:	f65a                	sd	s6,296(sp)
    80002102:	45ca                	lw	a1,144(sp)
    80002104:	6804                	ld	s1,16(s0)
    80002106:	a27a                	fsd	ft10,256(sp)

0000000080002108 <reg_x1_output>:
    80002108:	3d34                	fld	fa3,120(a0)
    8000210a:	e92c                	sd	a1,80(a0)
    8000210c:	cfe1                	beqz	a5,800021e4 <reg_x28_output+0x4>
    8000210e:	          	sd	s9,-1586(s0)

0000000080002110 <reg_x2_output>:
    80002110:	9d94                	0x9d94
    80002112:	4ab03d83          	ld	s11,1195(zero) # 4ab <_start-0x7ffffb55>
    80002116:	          	0x9acef787

0000000080002118 <reg_x3_output>:
    80002118:	9ace                	add	s5,s5,s3
    8000211a:	521c                	lw	a5,32(a2)
    8000211c:	885baa43          	fmadd.s	fs4,fs7,ft5,fa7,rdn

0000000080002120 <reg_x4_output>:
    80002120:	c511                	beqz	a0,8000212c <reg_x5_output+0x4>
    80002122:	a452                	fsd	fs4,8(sp)
    80002124:	7acd                	lui	s5,0xffff3
    80002126:	35f0                	fld	fa2,232(a1)

0000000080002128 <reg_x5_output>:
    80002128:	bf8d0edb          	0xbf8d0edb
    8000212c:	82dcf433          	0x82dcf433

0000000080002130 <reg_x6_output>:
    80002130:	e7663e67          	0xe7663e67
    80002134:	0ab9                	addi	s5,s5,14
    80002136:	a35a                	fsd	fs6,384(sp)

0000000080002138 <reg_x7_output>:
    80002138:	e58a                	sd	sp,200(sp)
    8000213a:	e5cd                	bnez	a1,800021e4 <reg_x28_output+0x4>
    8000213c:	5228                	lw	a0,96(a2)
    8000213e:	83e6                	mv	t2,s9

0000000080002140 <reg_x8_output>:
    80002140:	949e                	add	s1,s1,t2
    80002142:	8ab8                	0x8ab8
    80002144:	71a4                	ld	s1,96(a1)
    80002146:	6049                	c.lui	zero,0x12

0000000080002148 <reg_x9_output>:
    80002148:	f165                	bnez	a0,80002128 <reg_x5_output>
    8000214a:	b23d                	j	80001a78 <fromhost+0xa38>
    8000214c:	d55103bb          	0xd55103bb

0000000080002150 <reg_x10_output>:
    80002150:	4a110913          	addi	s2,sp,1185
    80002154:	3d84                	fld	fs1,56(a1)
    80002156:	01b5                	addi	gp,gp,13

0000000080002158 <reg_x11_output>:
    80002158:	f9aa2cd7          	0xf9aa2cd7
    8000215c:	68bc                	ld	a5,80(s1)
    8000215e:	91f4                	0x91f4

0000000080002160 <reg_x12_output>:
    80002160:	fa9f bc0b 704a      	0x704abc0bfa9f
    80002166:	1889                	addi	a7,a7,-30

0000000080002168 <reg_x13_output>:
    80002168:	6fee                	ld	t6,216(sp)
    8000216a:	438ca847          	fmsub.d	fa6,fs9,fs8,fs0,rdn
    8000216e:	ea14                	sd	a3,16(a2)

0000000080002170 <reg_x14_output>:
    80002170:	ba201af7          	0xba201af7
    80002174:	fc59                	bnez	s0,80002112 <reg_x2_output+0x2>
    80002176:	          	0x3e6080f7

0000000080002178 <reg_x15_output>:
    80002178:	3e60                	fld	fs0,248(a2)
    8000217a:	4cabf56b          	0x4cabf56b
    8000217e:	0bc0                	addi	s0,sp,468

0000000080002180 <reg_x16_output>:
    80002180:	1655                	addi	a2,a2,-11
    80002182:	1436e0f7          	0x1436e0f7
    80002186:	d4f0                	sw	a2,108(s1)

0000000080002188 <reg_x17_output>:
    80002188:	abf4f1d3          	0xabf4f1d3
    8000218c:	eb8e                	sd	gp,464(sp)
    8000218e:	3260                	fld	fs0,224(a2)

0000000080002190 <reg_x18_output>:
    80002190:	9158                	0x9158
    80002192:	08b6                	slli	a7,a7,0xd
    80002194:	417e                	lw	sp,220(sp)
    80002196:	ab8e                	fsd	ft3,464(sp)

0000000080002198 <reg_x19_output>:
    80002198:	c458                	sw	a4,12(s0)
    8000219a:	dfa8                	sw	a0,120(a5)
    8000219c:	28b5                	addiw	a7,a7,13
    8000219e:	3816                	fld	fa6,352(sp)

00000000800021a0 <reg_x20_output>:
    800021a0:	a128                	fsd	fa0,64(a0)
    800021a2:	f740                	sd	s0,168(a4)
    800021a4:	7714                	ld	a3,40(a4)
    800021a6:	c602                	sw	zero,12(sp)

00000000800021a8 <reg_x21_output>:
    800021a8:	7f38                	ld	a4,120(a4)
    800021aa:	ebd2                	sd	s4,464(sp)
    800021ac:	2cfd                	addiw	s9,s9,31
    800021ae:	          	fnmsub.s	ft0,fs10,ft9,ft4,unknown

00000000800021b0 <reg_x22_output>:
    800021b0:	21dd                	addiw	gp,gp,23
    800021b2:	8541                	srai	a0,a0,0x10
    800021b4:	92a2                	add	t0,t0,s0
    800021b6:	b888                	fsd	fa0,48(s1)

00000000800021b8 <reg_x23_output>:
    800021b8:	e09dd1f3          	csrrwi	gp,0xe09,27
    800021bc:	e232                	sd	a2,256(sp)
    800021be:	7631                	lui	a2,0xfffec

00000000800021c0 <reg_x24_output>:
    800021c0:	8f20                	0x8f20
    800021c2:	01425c4f          	fnmadd.s	fs8,ft4,fs4,ft0,unknown
    800021c6:	          	beq	a1,s8,80001b12 <fromhost+0xad2>

00000000800021c8 <reg_x25_output>:
    800021c8:	9585                	srai	a1,a1,0x21
    800021ca:	5eee                	lw	t4,248(sp)
    800021cc:	88e9                	andi	s1,s1,26
    800021ce:	18ff                	0x18ff

00000000800021d0 <reg_x26_output>:
    800021d0:	9ec34313          	xori	t1,t1,-1556
    800021d4:	7b71                	lui	s6,0xffffc
    800021d6:	868e                	mv	a3,gp

00000000800021d8 <reg_x27_output>:
    800021d8:	9e637feb          	0x9e637feb
    800021dc:	578a                	lw	a5,160(sp)
    800021de:	93fc                	0x93fc

00000000800021e0 <reg_x28_output>:
    800021e0:	3f6e                	fld	ft10,248(sp)
    800021e2:	9b52                	add	s6,s6,s4
    800021e4:	0c50                	addi	a2,sp,532
    800021e6:	50e1                	li	ra,-8

00000000800021e8 <reg_x29_output>:
    800021e8:	0be4                	addi	s1,sp,476
    800021ea:	0ad2                	slli	s5,s5,0x14
    800021ec:	76b4                	ld	a3,104(a3)
    800021ee:	a705                	j	8000290e <_end+0x2fe>

00000000800021f0 <reg_x30_output>:
    800021f0:	e4ea                	sd	s10,72(sp)
    800021f2:	f570                	sd	a2,232(a0)
    800021f4:	c3b5d807          	0xc3b5d807

00000000800021f8 <reg_x31_output>:
    800021f8:	98fc                	0x98fc
    800021fa:	a632                	fsd	fa2,264(sp)
    800021fc:	eebc                	sd	a5,88(a3)
    800021fe:	7e41                	lui	t3,0xffff0

0000000080002200 <test_memory>:
    80002200:	3ce1                	addiw	s9,s9,-8
    80002202:	5587d9eb          	0x5587d9eb
    80002206:	d36a                	sw	s10,164(sp)
    80002208:	07c5                	addi	a5,a5,17
    8000220a:	85e0                	0x85e0
    8000220c:	5a95                	li	s5,-27
    8000220e:	eac0                	sd	s0,144(a3)
    80002210:	b936                	fsd	fa3,176(sp)
    80002212:	4396                	lw	t2,68(sp)
    80002214:	ef76                	sd	t4,408(sp)
    80002216:	0c08                	addi	a0,sp,528
    80002218:	367e5667          	0x367e5667
    8000221c:	73d9                	lui	t2,0xffff6
    8000221e:	f2bc                	sd	a5,96(a3)
    80002220:	8e72                	mv	t3,t3
    80002222:	7885                	lui	a7,0xfffe1
    80002224:	0cc84063          	blt	a6,a2,800022e4 <test_memory+0xe4>
    80002228:	3510015b          	0x3510015b
    8000222c:	cc1c                	sw	a5,24(s0)
    8000222e:	94a8                	0x94a8
    80002230:	a3130c2f          	0xa3130c2f
    80002234:	77c55e3f a5fa2c73 	0xa5fa2c7377c55e3f
    8000223c:	4785                	li	a5,1
    8000223e:	3d0a                	fld	fs10,160(sp)
    80002240:	97b8                	0x97b8
    80002242:	3db2                	fld	fs11,296(sp)
    80002244:	e910                	sd	a2,16(a0)
    80002246:	e352                	sd	s4,384(sp)
    80002248:	d81d                	beqz	s0,8000217e <reg_x15_output+0x6>
    8000224a:	2ca3f033          	0x2ca3f033
    8000224e:	e9f8                	sd	a4,208(a1)
    80002250:	2cf1                	addiw	s9,s9,28
    80002252:	5ae1                	li	s5,-8
    80002254:	d0df 699d a6e7      	0xa6e7699dd0df
    8000225a:	53dc                	lw	a5,36(a5)
    8000225c:	dd7d                	beqz	a0,8000225a <test_memory+0x5a>
    8000225e:	50ec                	lw	a1,100(s1)
    80002260:	8974                	0x8974
    80002262:	06f22e33          	0x6f22e33
    80002266:	ca04                	sw	s1,16(a2)
    80002268:	f746                	sd	a7,424(sp)
    8000226a:	8de32c3b          	0x8de32c3b
    8000226e:	f1c0                	sd	s0,160(a1)
    80002270:	65fd                	lui	a1,0x1f
    80002272:	8e79                	and	a2,a2,a4
    80002274:	8e3e                	mv	t3,a5
    80002276:	6c88                	ld	a0,24(s1)
    80002278:	5592                	lw	a1,36(sp)
    8000227a:	85f1                	srai	a1,a1,0x1c
    8000227c:	8b0a                	mv	s6,sp
    8000227e:	c568                	sw	a0,76(a0)
    80002280:	05906207          	0x5906207
    80002284:	9f1f 6e93 8a54      	0x8a546e939f1f
    8000228a:	e85f872b          	0xe85f872b
    8000228e:	edaa                	sd	a0,216(sp)
    80002290:	85b6                	mv	a1,a3
    80002292:	d240df07          	0xd240df07
    80002296:	97e4                	0x97e4
    80002298:	c8c4                	sw	s1,20(s1)
    8000229a:	a592d94b          	0xa592d94b
    8000229e:	4d9f 7df7 1d5e      	0x1d5e7df74d9f
    800022a4:	86e2                	mv	a3,s8
    800022a6:	4a88                	lw	a0,16(a3)
    800022a8:	c18c                	sw	a1,0(a1)
    800022aa:	95ae                	add	a1,a1,a1
    800022ac:	a1f5                	j	80002798 <_end+0x188>
    800022ae:	6ed5                	lui	t4,0x15
    800022b0:	f6e5                	bnez	a3,80002298 <test_memory+0x98>
    800022b2:	4cb9                	li	s9,14
    800022b4:	f83a                	sd	a4,48(sp)
    800022b6:	4000                	lw	s0,0(s0)
    800022b8:	9dd2                	add	s11,s11,s4
    800022ba:	f2ad                	bnez	a3,8000221c <test_memory+0x1c>
    800022bc:	f109                	bnez	a0,800021be <reg_x23_output+0x6>
    800022be:	4d82                	lw	s11,0(sp)
    800022c0:	b86e                	fsd	fs11,48(sp)
    800022c2:	7398                	ld	a4,32(a5)
    800022c4:	b639                	j	80001dd2 <fromhost+0xd92>
    800022c6:	f3e6                	sd	s9,480(sp)
    800022c8:	2675                	addiw	a2,a2,29
    800022ca:	1e85                	addi	t4,t4,-31
    800022cc:	6456                	ld	s0,336(sp)
    800022ce:	2c8d                	addiw	s9,s9,3
    800022d0:	6936                	ld	s2,328(sp)
    800022d2:	75736cab          	0x75736cab
    800022d6:	9b95b04b          	fnmsub.d	ft0,fa1,fs9,fs3,rup
    800022da:	ebf1                	bnez	a5,800023ae <test_memory+0x1ae>
    800022dc:	5e79                	li	t3,-2
    800022de:	11b1                	addi	gp,gp,-20
    800022e0:	6aab1bbb          	0x6aab1bbb
    800022e4:	35656a57          	0x35656a57
    800022e8:	0059                	c.nop	22
    800022ea:	8432                	mv	s0,a2
    800022ec:	4381                	li	t2,0
    800022ee:	ffda                	sd	s6,504(sp)
    800022f0:	09b9                	addi	s3,s3,14
    800022f2:	5629                	li	a2,-22
    800022f4:	4bb8a3a7          	fsw	fs11,1191(a7) # fffffffffffe14a7 <__global_pointer$+0xffffffff7ffde697>
    800022f8:	940ddeeb          	0x940ddeeb
    800022fc:	1a7e                	slli	s4,s4,0x3f
    800022fe:	0321                	addi	t1,t1,8
    80002300:	21ce                	fld	ft3,208(sp)
    80002302:	d014                	sw	a3,32(s0)
    80002304:	1822                	slli	a6,a6,0x28
    80002306:	c8c74957          	0xc8c74957
    8000230a:	f9a4                	sd	s1,112(a1)
    8000230c:	0c1b3453          	0xc1b3453
    80002310:	4b61                	li	s6,24
    80002312:	5b868057          	0x5b868057
    80002316:	1735b727          	fsd	fs3,366(a1) # 1f16e <_start-0x7ffe0e92>
    8000231a:	f77f                	0xf77f
    8000231c:	ebcc                	sd	a1,144(a5)
    8000231e:	84c0e86b          	0x84c0e86b
    80002322:	b0bd                	j	80001b90 <fromhost+0xb50>
    80002324:	0dad2eb7          	lui	t4,0xdad2
    80002328:	42cbb013          	sltiu	zero,s7,1068
    8000232c:	d2f5                	beqz	a3,80002310 <test_memory+0x110>
    8000232e:	2a29                	addiw	s4,s4,10
    80002330:	3f88                	fld	fa0,56(a5)
    80002332:	5f392777          	0x5f392777
    80002336:	a0ce                	fsd	fs3,64(sp)
    80002338:	d2d8                	sw	a4,36(a3)
    8000233a:	cf2e                	sw	a1,156(sp)
    8000233c:	e7d8e1a7          	0xe7d8e1a7
    80002340:	9f49                	0x9f49
    80002342:	846e                	mv	s0,s11
    80002344:	a9e2                	fsd	fs8,208(sp)
    80002346:	aac1                	j	80002516 <test_memory+0x316>
    80002348:	31d5                	addiw	gp,gp,-11
    8000234a:	2e42                	fld	ft8,16(sp)
    8000234c:	7966                	ld	s2,120(sp)
    8000234e:	20c0                	fld	fs0,128(s1)
    80002350:	7e69                	lui	t3,0xffffa
    80002352:	b74e                	fsd	fs3,424(sp)
    80002354:	94d4                	0x94d4
    80002356:	4efc                	lw	a5,92(a3)
    80002358:	dbbc                	sw	a5,112(a5)
    8000235a:	6426                	ld	s0,72(sp)
    8000235c:	526a                	lw	tp,184(sp)
    8000235e:	867d                	srai	a2,a2,0x1f
    80002360:	5d48                	lw	a0,60(a0)
    80002362:	43fa                	lw	t2,156(sp)
    80002364:	74a8                	ld	a0,104(s1)
    80002366:	f1d0                	sd	a2,160(a1)
    80002368:	b966                	fsd	fs9,176(sp)
    8000236a:	a98d                	j	800027dc <_end+0x1cc>
    8000236c:	a5f9                	j	80002a3a <_end+0x42a>
    8000236e:	121c                	addi	a5,sp,288
    80002370:	9fa5                	addw	a5,a5,s1
    80002372:	10e72673          	csrrs	a2,0x10e,a4
    80002376:	5fb6                	lw	t6,108(sp)
    80002378:	a3d0                	fsd	fa2,128(a5)
    8000237a:	2a002ea3          	sw	zero,701(zero) # 2bd <_start-0x7ffffd43>
    8000237e:	bc3f520f          	0xbc3f520f
    80002382:	100a                	c.slli	zero,0x22
    80002384:	9bbe                	add	s7,s7,a5
    80002386:	ab4a                	fsd	fs2,400(sp)
    80002388:	5666                	lw	a2,120(sp)
    8000238a:	4d9a                	lw	s11,132(sp)
    8000238c:	b1da                	fsd	fs6,224(sp)
    8000238e:	42bfcc17          	auipc	s8,0x42bfc
    80002392:	2481                	sext.w	s1,s1
    80002394:	f0f0                	sd	a2,224(s1)
    80002396:	c18409f7          	0xc18409f7
    8000239a:	886cf757          	0x886cf757
    8000239e:	3c42                	fld	fs8,48(sp)
    800023a0:	dbd5                	beqz	a5,80002354 <test_memory+0x154>
    800023a2:	500e28ab          	0x500e28ab
    800023a6:	286d                	addiw	a6,a6,27
    800023a8:	8139                	srli	a0,a0,0xe
    800023aa:	8569                	srai	a0,a0,0x1a
    800023ac:	d77f                	0xd77f
    800023ae:	a7a0552f          	0xa7a0552f
    800023b2:	7b71                	lui	s6,0xffffc
    800023b4:	05e5                	addi	a1,a1,25
    800023b6:	c0ad                	beqz	s1,80002418 <test_memory+0x218>
    800023b8:	7c4d                	lui	s8,0xffff3
    800023ba:	89f2                	mv	s3,t3
    800023bc:	b045                	j	80001c5c <fromhost+0xc1c>
    800023be:	efcc                	sd	a1,152(a5)
    800023c0:	9e52                	add	t3,t3,s4
    800023c2:	17f8                	addi	a4,sp,1004
    800023c4:	b938                	fsd	fa4,112(a0)
    800023c6:	aec6                	fsd	fa7,344(sp)
    800023c8:	ef85                	bnez	a5,80002400 <test_memory+0x200>
    800023ca:	fd24                	sd	s1,120(a0)
    800023cc:	263b893b          	0x263b893b
    800023d0:	0aa4d713          	0xaa4d713
    800023d4:	4eae                	lw	t4,200(sp)
    800023d6:	4e9d                	li	t4,7
    800023d8:	6924                	ld	s1,80(a0)
    800023da:	4535183b          	0x4535183b
    800023de:	9066                	c.add	zero,s9
    800023e0:	d926                	sw	s1,176(sp)
    800023e2:	1c8a                	slli	s9,s9,0x22
    800023e4:	980d                	andi	s0,s0,-29
    800023e6:	bf92                	fsd	ft4,504(sp)
    800023e8:	78b5                	lui	a7,0xfffed
    800023ea:	17b1dc07          	0x17b1dc07
    800023ee:	fdc1                	bnez	a1,80002386 <test_memory+0x186>
    800023f0:	5b4a                	lw	s6,176(sp)
    800023f2:	42a85053          	0x42a85053
    800023f6:	61e2                	ld	gp,24(sp)
    800023f8:	45551707          	0x45551707
    800023fc:	6866da77          	0x6866da77
    80002400:	1562                	slli	a0,a0,0x38
    80002402:	1291                	addi	t0,t0,-28
    80002404:	b916                	fsd	ft5,176(sp)
    80002406:	d018                	sw	a4,32(s0)
    80002408:	0a79                	addi	s4,s4,30
    8000240a:	67ce                	ld	a5,208(sp)
    8000240c:	a85a                	fsd	fs6,16(sp)
    8000240e:	1f2c                	addi	a1,sp,952
    80002410:	8c6f8857          	0x8c6f8857
    80002414:	04a9ec23          	0x4a9ec23
    80002418:	70f8cb77          	0x70f8cb77
    8000241c:	d15d                	beqz	a0,800023c2 <test_memory+0x1c2>
    8000241e:	e03dffd3          	0xe03dffd3
    80002422:	370c54ab          	0x370c54ab
    80002426:	ad44c377          	0xad44c377
    8000242a:	14a2                	slli	s1,s1,0x28
    8000242c:	7bff                	0x7bff
    8000242e:	1d5e                	slli	s10,s10,0x37
    80002430:	54b4                	lw	a3,104(s1)
    80002432:	d2e62637          	lui	a2,0xd2e62
    80002436:	b052                	fsd	fs4,32(sp)
    80002438:	4ef9                	li	t4,30
    8000243a:	42bd                	li	t0,15
    8000243c:	f9fc87cf          	fnmadd.s	fa5,fs9,ft11,ft11,rne
    80002440:	ab90                	fsd	fa2,16(a5)
    80002442:	4ff4                	lw	a3,92(a5)
    80002444:	8d5e                	mv	s10,s7
    80002446:	5982                	lw	s3,32(sp)
    80002448:	98cd                	andi	s1,s1,-13
    8000244a:	8540b0b3          	0x8540b0b3
    8000244e:	c1bc054b          	fnmsub.s	fa0,fs8,fs11,fs8,rne
    80002452:	23f8                	fld	fa4,192(a5)
    80002454:	b6a6                	fsd	fs1,360(sp)
    80002456:	7f2a                	ld	t5,168(sp)
    80002458:	c995                	beqz	a1,8000248c <test_memory+0x28c>
    8000245a:	a5ba                	fsd	fa4,200(sp)
    8000245c:	dffdd6c3          	fmadd.q	fa3,fs11,ft11,fs11,unknown
    80002460:	d0d03e5b          	0xd0d03e5b
    80002464:	7aad                	lui	s5,0xfffeb
    80002466:	d1a5                	beqz	a1,800023c6 <test_memory+0x1c6>
    80002468:	588e                	lw	a7,224(sp)
    8000246a:	4ee8                	lw	a0,92(a3)
    8000246c:	daaa4f13          	xori	t5,s4,-598
    80002470:	32cad42f          	0x32cad42f
    80002474:	1992                	slli	s3,s3,0x24
    80002476:	805a                	c.mv	zero,s6
    80002478:	af5a                	fsd	fs6,408(sp)
    8000247a:	5d1d                	li	s10,-25
    8000247c:	afc6e0cb          	fnmsub.q	ft1,fa3,ft8,fs5,unknown
    80002480:	b53e                	fsd	fa5,168(sp)
    80002482:	606e                	0x606e
    80002484:	b354                	fsd	fa3,160(a4)
    80002486:	33ea                	fld	ft7,184(sp)
    80002488:	0048                	addi	a0,sp,4
    8000248a:	333cd067          	0x333cd067
    8000248e:	dde6                	sw	s9,248(sp)
    80002490:	1cb2                	slli	s9,s9,0x2c
    80002492:	f23d                	bnez	a2,800023f8 <test_memory+0x1f8>
    80002494:	9ac9                	andi	a3,a3,-14
    80002496:	58c6                	lw	a7,112(sp)
    80002498:	bcd8                	fsd	fa4,184(s1)
    8000249a:	1a7a                	slli	s4,s4,0x3e
    8000249c:	3085                	addiw	ra,ra,-31
    8000249e:	a079                	j	8000252c <test_memory+0x32c>
    800024a0:	1300                	addi	s0,sp,416
    800024a2:	63d9651b          	0x63d9651b
    800024a6:	0d9a                	slli	s11,s11,0x6
    800024a8:	707d                	c.lui	zero,0xfffff
    800024aa:	e0db70db          	0xe0db70db
    800024ae:	ffd2                	sd	s4,504(sp)
    800024b0:	d04d                	beqz	s0,80002452 <test_memory+0x252>
    800024b2:	20e2f63f 03a42af6 	0x3a42af620e2f63f
    800024ba:	86f6                	mv	a3,t4
    800024bc:	0e3e2727          	fsw	ft3,238(t3) # ffffffffffffa0ee <__global_pointer$+0xffffffff7fff72de>
    800024c0:	610c                	ld	a1,0(a0)
    800024c2:	19bc                	addi	a5,sp,248
    800024c4:	837e                	mv	t1,t6
    800024c6:	f215                	bnez	a2,800023ea <test_memory+0x1ea>
    800024c8:	aaf5                	j	800026c4 <_end+0xb4>
    800024ca:	85b2                	mv	a1,a2
    800024cc:	3cda32db          	0x3cda32db
    800024d0:	37c670eb          	0x37c670eb
    800024d4:	d465                	beqz	s0,800024bc <test_memory+0x2bc>
    800024d6:	373c                	fld	fa5,104(a4)
    800024d8:	06d8                	addi	a4,sp,836
    800024da:	bafe008f          	0xbafe008f
    800024de:	5fefe8eb          	0x5fefe8eb
    800024e2:	db2a                	sw	a0,180(sp)
    800024e4:	f6b2                	sd	a2,360(sp)
    800024e6:	bbd8                	fsd	fa4,176(a5)
    800024e8:	373a                	fld	fa4,424(sp)
    800024ea:	b4bc                	fsd	fa5,104(s1)
    800024ec:	569e5683          	lhu	a3,1385(t3)
    800024f0:	05dd                	addi	a1,a1,23
    800024f2:	ea4d7ae7          	0xea4d7ae7
    800024f6:	e790c4bf 85e3e523 	0x85e3e523e790c4bf
    800024fe:	5212                	lw	tp,36(sp)
    80002500:	c7dc                	sw	a5,12(a5)
    80002502:	819fbc37          	lui	s8,0x819fb
    80002506:	5cd2                	lw	s9,52(sp)
    80002508:	42e3971b          	0x42e3971b
    8000250c:	41ea                	lw	gp,152(sp)
    8000250e:	884a                	mv	a6,s2
    80002510:	8777e457          	0x8777e457
    80002514:	ab173e8b          	0xab173e8b
    80002518:	a16e                	fsd	fs11,128(sp)
    8000251a:	24fd                	addiw	s1,s1,31
    8000251c:	504f23cb          	fnmsub.s	ft7,ft10,ft4,fa0,rdn
    80002520:	1928                	addi	a0,sp,184
    80002522:	cb94                	sw	a3,16(a5)
    80002524:	8a9e                	mv	s5,t2
    80002526:	0871                	addi	a6,a6,28
    80002528:	cb2d                	beqz	a4,8000259a <test_memory+0x39a>
    8000252a:	7a7abff3          	csrrc	t6,0x7a7,s5
    8000252e:	5f0a                	lw	t5,160(sp)
    80002530:	07f2                	slli	a5,a5,0x1c
    80002532:	ef6e                	sd	s11,408(sp)
    80002534:	be84                	fsd	fs1,56(a3)
    80002536:	57164397          	auipc	t2,0x57164
    8000253a:	e13b7ef7          	0xe13b7ef7
    8000253e:	9ef8                	0x9ef8
    80002540:	fccd                	bnez	s1,800024fa <test_memory+0x2fa>
    80002542:	f8e6                	sd	s9,112(sp)
    80002544:	acbe                	fsd	fa5,88(sp)
    80002546:	a51d                	j	80002b6c <_end+0x55c>
    80002548:	e745                	bnez	a4,800025f0 <test_memory+0x3f0>
    8000254a:	4096                	lw	ra,68(sp)
    8000254c:	2b75                	addiw	s6,s6,29
    8000254e:	d568                	sw	a0,108(a0)
    80002550:	fb28                	sd	a0,112(a4)
    80002552:	847d                	srai	s0,s0,0x1f
    80002554:	a392                	fsd	ft4,448(sp)
    80002556:	a090                	fsd	fa2,0(s1)
    80002558:	3892aeb3          	0x3892aeb3
    8000255c:	aa87b9cb          	fnmsub.d	fs3,fa5,fs0,fs5,rup
    80002560:	10c734eb          	0x10c734eb
    80002564:	bdfd1a43          	0xbdfd1a43
    80002568:	b6ff                	0xb6ff
    8000256a:	8c6c8c03          	lb	s8,-1850(s9)
    8000256e:	2d80                	fld	fs0,24(a1)
    80002570:	4fdc                	lw	a5,28(a5)
    80002572:	8cc1                	or	s1,s1,s0
    80002574:	7d80                	ld	s0,56(a1)
    80002576:	a805                	j	800025a6 <test_memory+0x3a6>
    80002578:	3e70                	fld	fa2,248(a2)
    8000257a:	a6aa5c8b          	0xa6aa5c8b
    8000257e:	1d43bb4b          	0x1d43bb4b
    80002582:	cf20d96f          	jal	s2,7ff0fa74 <_start-0xf058c>
    80002586:	a134                	fsd	fa3,64(a0)
    80002588:	723a                	ld	tp,424(sp)
    8000258a:	97c91f0b          	0x97c91f0b
    8000258e:	cb52                	sw	s4,148(sp)
    80002590:	3c62a7cf          	0x3c62a7cf
    80002594:	0d10                	addi	a2,sp,656
    80002596:	090016af          	0x90016af
    8000259a:	3d188abb          	0x3d188abb
    8000259e:	bbba294f          	fnmadd.d	fs2,fs4,fs11,fs7,rdn
    800025a2:	f450                	sd	a2,168(s0)
    800025a4:	f20c9383          	lh	t2,-224(s9)
    800025a8:	819a                	mv	gp,t1
    800025aa:	aa79                	j	80002748 <_end+0x138>
    800025ac:	1146                	slli	sp,sp,0x31
    800025ae:	7d9d                	lui	s11,0xfffe7
    800025b0:	4d2c                	lw	a1,88(a0)
    800025b2:	f892                	sd	tp,112(sp)
    800025b4:	ee74                	sd	a3,216(a2)
    800025b6:	7f4c                	ld	a1,184(a4)
    800025b8:	2c620a17          	auipc	s4,0x2c620
    800025bc:	357f9cef          	jal	s9,800fc112 <__global_pointer$+0xf9302>
    800025c0:	60dc                	ld	a5,128(s1)
    800025c2:	ce4acaeb          	0xce4acaeb
    800025c6:	b9a0                	fsd	fs0,112(a1)
    800025c8:	5305                	li	t1,-31
    800025ca:	dc73bef7          	0xdc73bef7
    800025ce:	3906                	fld	fs2,96(sp)
    800025d0:	5afd                	li	s5,-1
    800025d2:	6e45                	lui	t3,0x11
    800025d4:	13d8                	addi	a4,sp,484
    800025d6:	1192                	slli	gp,gp,0x24
    800025d8:	7022d2ef          	jal	t0,8002fcda <__global_pointer$+0x2ceca>
    800025dc:	af14                	fsd	fa3,24(a4)
    800025de:	d857cd73          	0xd857cd73
    800025e2:	7784                	ld	s1,40(a5)
    800025e4:	ec0c2787          	flw	fa5,-320(s8) # ffffffff819faec0 <__global_pointer$+0xffffffff019f80b0>
    800025e8:	3e26                	fld	ft8,104(sp)
    800025ea:	ace6                	fsd	fs9,88(sp)
    800025ec:	a335                	j	80002b18 <_end+0x508>
    800025ee:	75b3468b          	0x75b3468b
    800025f2:	9581                	srai	a1,a1,0x20
    800025f4:	0fd4                	addi	a3,sp,980
    800025f6:	5336                	lw	t1,108(sp)
    800025f8:	36c4                	fld	fs1,168(a3)
    800025fa:	c946                	sw	a7,144(sp)
    800025fc:	b405                	j	8000201c <reg_x3_init+0x4>
    800025fe:	106c                	addi	a1,sp,44

0000000080002600 <loop_count>:
    80002600:	0040                	addi	s0,sp,4
	...

Disassembly of section .riscv.attributes:

0000000000000000 <.riscv.attributes>:
   0:	1e41                	addi	t3,t3,-16
   2:	0000                	unimp
   4:	7200                	ld	s0,32(a2)
   6:	7369                	lui	t1,0xffffa
   8:	01007663          	bgeu	zero,a6,14 <_start-0x7fffffec>
   c:	0014                	0x14
   e:	0000                	unimp
  10:	7205                	lui	tp,0xfffe1
  12:	3676                	fld	fa2,376(sp)
  14:	6934                	ld	a3,80(a0)
  16:	7032                	0x7032
  18:	5f30                	lw	a2,120(a4)
  1a:	326d                	addiw	tp,tp,-5
  1c:	3070                	fld	fa2,224(s0)
	...
