
build/test40:     file format elf64-littleriscv


Disassembly of section .text.init:

0000000080000000 <_start>:
    80000000:	05c0006f          	j	8000005c <reset_vector>

0000000080000004 <trap_vector>:
    80000004:	34202f73          	csrr	t5,mcause
    80000008:	00800f93          	li	t6,8
    8000000c:	03ff0a63          	beq	t5,t6,80000040 <write_tohost>
    80000010:	00900f93          	li	t6,9
    80000014:	03ff0663          	beq	t5,t6,80000040 <write_tohost>
    80000018:	00b00f93          	li	t6,11
    8000001c:	03ff0263          	beq	t5,t6,80000040 <write_tohost>
    80000020:	80000f17          	auipc	t5,0x80000
    80000024:	fe0f0f13          	addi	t5,t5,-32 # 0 <_start-0x80000000>
    80000028:	000f0463          	beqz	t5,80000030 <trap_vector+0x2c>
    8000002c:	000f0067          	jr	t5
    80000030:	34202f73          	csrr	t5,mcause
    80000034:	000f5463          	bgez	t5,8000003c <handle_exception>
    80000038:	0040006f          	j	8000003c <handle_exception>

000000008000003c <handle_exception>:
    8000003c:	5391e193          	ori	gp,gp,1337

0000000080000040 <write_tohost>:
    80000040:	00001f17          	auipc	t5,0x1
    80000044:	fc3f2023          	sw	gp,-64(t5) # 80001000 <tohost>
    80000048:	000902b7          	lui	t0,0x90
    8000004c:	0012829b          	addiw	t0,t0,1
    80000050:	00c29293          	slli	t0,t0,0xc
    80000054:	0002af83          	lw	t6,0(t0) # 90000 <_start-0x7ff70000>
    80000058:	fe9ff06f          	j	80000040 <write_tohost>

000000008000005c <reset_vector>:
    8000005c:	00000093          	li	ra,0
    80000060:	00000113          	li	sp,0
    80000064:	00000193          	li	gp,0
    80000068:	00000213          	li	tp,0
    8000006c:	00000293          	li	t0,0
    80000070:	00000313          	li	t1,0
    80000074:	00000393          	li	t2,0
    80000078:	00000413          	li	s0,0
    8000007c:	00000493          	li	s1,0
    80000080:	00000513          	li	a0,0
    80000084:	00000593          	li	a1,0
    80000088:	00000613          	li	a2,0
    8000008c:	00000693          	li	a3,0
    80000090:	00000713          	li	a4,0
    80000094:	00000793          	li	a5,0
    80000098:	00000813          	li	a6,0
    8000009c:	00000893          	li	a7,0
    800000a0:	00000913          	li	s2,0
    800000a4:	00000993          	li	s3,0
    800000a8:	00000a13          	li	s4,0
    800000ac:	00000a93          	li	s5,0
    800000b0:	00000b13          	li	s6,0
    800000b4:	00000b93          	li	s7,0
    800000b8:	00000c13          	li	s8,0
    800000bc:	00000c93          	li	s9,0
    800000c0:	00000d13          	li	s10,0
    800000c4:	00000d93          	li	s11,0
    800000c8:	00000e13          	li	t3,0
    800000cc:	00000e93          	li	t4,0
    800000d0:	00000f13          	li	t5,0
    800000d4:	00000f93          	li	t6,0
    800000d8:	f1402573          	csrr	a0,mhartid
    800000dc:	00051063          	bnez	a0,800000dc <reset_vector+0x80>
    800000e0:	00000297          	auipc	t0,0x0
    800000e4:	01028293          	addi	t0,t0,16 # 800000f0 <reset_vector+0x94>
    800000e8:	30529073          	csrw	mtvec,t0
    800000ec:	18005073          	csrwi	satp,0
    800000f0:	00000297          	auipc	t0,0x0
    800000f4:	02428293          	addi	t0,t0,36 # 80000114 <reset_vector+0xb8>
    800000f8:	30529073          	csrw	mtvec,t0
    800000fc:	0010029b          	addiw	t0,zero,1
    80000100:	03529293          	slli	t0,t0,0x35
    80000104:	fff28293          	addi	t0,t0,-1
    80000108:	3b029073          	csrw	pmpaddr0,t0
    8000010c:	01f00293          	li	t0,31
    80000110:	3a029073          	csrw	pmpcfg0,t0
    80000114:	30405073          	csrwi	mie,0
    80000118:	00000297          	auipc	t0,0x0
    8000011c:	01428293          	addi	t0,t0,20 # 8000012c <reset_vector+0xd0>
    80000120:	30529073          	csrw	mtvec,t0
    80000124:	30205073          	csrwi	medeleg,0
    80000128:	30305073          	csrwi	mideleg,0
    8000012c:	00000193          	li	gp,0
    80000130:	00000297          	auipc	t0,0x0
    80000134:	ed428293          	addi	t0,t0,-300 # 80000004 <trap_vector>
    80000138:	30529073          	csrw	mtvec,t0
    8000013c:	00100513          	li	a0,1
    80000140:	01f51513          	slli	a0,a0,0x1f
    80000144:	00055c63          	bgez	a0,8000015c <reset_vector+0x100>
    80000148:	0ff0000f          	fence
    8000014c:	00100193          	li	gp,1
    80000150:	05d00893          	li	a7,93
    80000154:	00000513          	li	a0,0
    80000158:	00000073          	ecall
    8000015c:	80000297          	auipc	t0,0x80000
    80000160:	ea428293          	addi	t0,t0,-348 # 0 <_start-0x80000000>
    80000164:	00028a63          	beqz	t0,80000178 <reset_vector+0x11c>
    80000168:	10529073          	csrw	stvec,t0
    8000016c:	0000b2b7          	lui	t0,0xb
    80000170:	1092829b          	addiw	t0,t0,265
    80000174:	30229073          	csrw	medeleg,t0
    80000178:	30005073          	csrwi	mstatus,0
    8000017c:	00000297          	auipc	t0,0x0
    80000180:	01428293          	addi	t0,t0,20 # 80000190 <reset_vector+0x134>
    80000184:	34129073          	csrw	mepc,t0
    80000188:	f1402573          	csrr	a0,mhartid
    8000018c:	30200073          	mret
    80000190:	0200006f          	j	800001b0 <test_start>

0000000080000194 <crash_backward>:
    80000194:	0ff0000f          	fence
    80000198:	00018063          	beqz	gp,80000198 <crash_backward+0x4>
    8000019c:	00119193          	slli	gp,gp,0x1
    800001a0:	0011e193          	ori	gp,gp,1
    800001a4:	05d00893          	li	a7,93
    800001a8:	00018513          	mv	a0,gp
    800001ac:	00000073          	ecall

00000000800001b0 <test_start>:
    800001b0:	00002f97          	auipc	t6,0x2
    800001b4:	e50f8f93          	addi	t6,t6,-432 # 80002000 <hidden_data>
    800001b8:	000fb003          	ld	zero,0(t6)
    800001bc:	008fb083          	ld	ra,8(t6)
    800001c0:	010fb103          	ld	sp,16(t6)
    800001c4:	018fb183          	ld	gp,24(t6)
    800001c8:	020fb203          	ld	tp,32(t6)
    800001cc:	028fb283          	ld	t0,40(t6)
    800001d0:	030fb303          	ld	t1,48(t6)
    800001d4:	038fb383          	ld	t2,56(t6)
    800001d8:	040fb403          	ld	s0,64(t6)
    800001dc:	048fb483          	ld	s1,72(t6)
    800001e0:	050fb503          	ld	a0,80(t6)
    800001e4:	058fb583          	ld	a1,88(t6)
    800001e8:	060fb603          	ld	a2,96(t6)
    800001ec:	068fb683          	ld	a3,104(t6)
    800001f0:	070fb703          	ld	a4,112(t6)
    800001f4:	078fb783          	ld	a5,120(t6)
    800001f8:	080fb803          	ld	a6,128(t6)
    800001fc:	088fb883          	ld	a7,136(t6)
    80000200:	090fb903          	ld	s2,144(t6)
    80000204:	098fb983          	ld	s3,152(t6)
    80000208:	0a0fba03          	ld	s4,160(t6)
    8000020c:	0a8fba83          	ld	s5,168(t6)
    80000210:	0b0fbb03          	ld	s6,176(t6)
    80000214:	0b8fbb83          	ld	s7,184(t6)
    80000218:	0c0fbc03          	ld	s8,192(t6)
    8000021c:	0c8fbc83          	ld	s9,200(t6)
    80000220:	0d0fbd03          	ld	s10,208(t6)
    80000224:	0d8fbd83          	ld	s11,216(t6)
    80000228:	0e0fbe03          	ld	t3,224(t6)
    8000022c:	0e8fbe83          	ld	t4,232(t6)
    80000230:	0f0fbf03          	ld	t5,240(t6)
    80000234:	0f8fbf83          	ld	t6,248(t6)
    80000238:	0040006f          	j	8000023c <pseg_0>

000000008000023c <pseg_0>:
    8000023c:	c9500213          	li	tp,-875
    80000240:	00241833          	sll	a6,s0,sp
    80000244:	00000e93          	li	t4,0
    80000248:	0121cd33          	xor	s10,gp,s2
    8000024c:	74001e63          	bnez	zero,800009a8 <crash_forward>
    80000250:	74c64c63          	blt	a2,a2,800009a8 <crash_forward>
    80000254:	f4900613          	li	a2,-183
    80000258:	02f7d4b3          	divu	s1,a5,a5
    8000025c:	0b600413          	li	s0,182
    80000260:	008630b3          	sltu	ra,a2,s0
    80000264:	000f9733          	sll	a4,t6,zero
    80000268:	00100a13          	li	s4,1
    8000026c:	00000313          	li	t1,0
    80000270:	03fa1a13          	slli	s4,s4,0x3f
    80000274:	16500a93          	li	s5,357
    80000278:	e5900793          	li	a5,-423
    8000027c:	03530833          	mul	a6,t1,s5
    80000280:	edd00293          	li	t0,-291
    80000284:	45100913          	li	s2,1105
    80000288:	fff00e13          	li	t3,-1
    8000028c:	2f290d93          	addi	s11,s2,754
    80000290:	014e4e33          	xor	t3,t3,s4
    80000294:	f1b900e3          	beq	s2,s11,80000194 <crash_backward>
    80000298:	00000093          	li	ra,0
    8000029c:	002116bb          	sllw	a3,sp,sp
    800002a0:	015a98b3          	sll	a7,s5,s5
    800002a4:	00211ab3          	sll	s5,sp,sp
    800002a8:	00100413          	li	s0,1
    800002ac:	01c77fb3          	and	t6,a4,t3
    800002b0:	0273c83b          	divw	a6,t2,t2
    800002b4:	00100513          	li	a0,1
    800002b8:	51700993          	li	s3,1303
    800002bc:	02f20b33          	mul	s6,tp,a5
    800002c0:	e9b00193          	li	gp,-357
    800002c4:	019cb6b3          	sltu	a3,s9,s9
    800002c8:	03f51513          	slli	a0,a0,0x3f
    800002cc:	fff00f13          	li	t5,-1
    800002d0:	00000d13          	li	s10,0
    800002d4:	bf400493          	li	s1,-1036
    800002d8:	00af4f33          	xor	t5,t5,a0
    800002dc:	01466c33          	or	s8,a2,s4
    800002e0:	4132d5bb          	sraw	a1,t0,s3
    800002e4:	6d8ff263          	bgeu	t6,s8,800009a8 <crash_forward>
    800002e8:	01e27133          	and	sp,tp,t5
    800002ec:	00a16cb3          	or	s9,sp,a0
    800002f0:	6ba09c63          	bne	ra,s10,800009a8 <crash_forward>
    800002f4:	2c500393          	li	t2,709
    800002f8:	000a88bb          	addw	a7,s5,zero
    800002fc:	4071dbbb          	sraw	s7,gp,t2
    80000300:	03f41413          	slli	s0,s0,0x3f
    80000304:	6aa54b13          	xori	s6,a0,1706
    80000308:	00100293          	li	t0,1
    8000030c:	00100093          	li	ra,1
    80000310:	03f29293          	slli	t0,t0,0x3f
    80000314:	fff00193          	li	gp,-1
    80000318:	fff00713          	li	a4,-1
    8000031c:	0294c9b3          	div	s3,s1,s1
    80000320:	00100213          	li	tp,1
    80000324:	03f09093          	slli	ra,ra,0x3f
    80000328:	fff00313          	li	t1,-1
    8000032c:	03f21213          	slli	tp,tp,0x3f
    80000330:	fff00593          	li	a1,-1
    80000334:	00874733          	xor	a4,a4,s0
    80000338:	00f38c3b          	addw	s8,t2,a5
    8000033c:	00134333          	xor	t1,t1,ra
    80000340:	b1096f13          	ori	t5,s2,-1264
    80000344:	0294c63b          	divw	a2,s1,s1
    80000348:	031899b3          	mulh	s3,a7,a7
    8000034c:	0321ecb3          	rem	s9,gp,s2
    80000350:	02e413b3          	mulh	t2,s0,a4
    80000354:	02f7beb3          	mulhu	t4,a5,a5
    80000358:	0294bb33          	mulhu	s6,s1,s1
    8000035c:	0051c1b3          	xor	gp,gp,t0
    80000360:	02c62533          	mulhsu	a0,a2,a2
    80000364:	00002e17          	auipc	t3,0x2
    80000368:	49de0e13          	addi	t3,t3,1181 # 80002801 <_end+0x1f1>
    8000036c:	01f83fb3          	sltu	t6,a6,t6
    80000370:	0045c5b3          	xor	a1,a1,tp
    80000374:	0030fab3          	and	s5,ra,gp
    80000378:	00002697          	auipc	a3,0x2
    8000037c:	ae168693          	addi	a3,a3,-1311 # 80001e59 <fromhost+0xe19>
    80000380:	00e67db3          	and	s11,a2,a4
    80000384:	00697a33          	and	s4,s2,t1
    80000388:	00b178b3          	and	a7,sp,a1
    8000038c:	ba3e2803          	lw	a6,-1117(t3)
    80000390:	5566b3a3          	sd	s6,1351(a3)
    80000394:	001a6d33          	or	s10,s4,ra
    80000398:	61aa0863          	beq	s4,s10,800009a8 <crash_forward>
    8000039c:	0082e933          	or	s2,t0,s0
    800003a0:	005aebb3          	or	s7,s5,t0
    800003a4:	61b95263          	bge	s2,s11,800009a8 <crash_forward>
    800003a8:	004567b3          	or	a5,a0,tp
    800003ac:	5f7afe63          	bgeu	s5,s7,800009a8 <crash_forward>
    800003b0:	019ca533          	slt	a0,s9,s9
    800003b4:	32700213          	li	tp,807
    800003b8:	70b00d93          	li	s11,1803
    800003bc:	faf00913          	li	s2,-81
    800003c0:	5e700793          	li	a5,1511
    800003c4:	3da00b93          	li	s7,986
    800003c8:	61900713          	li	a4,1561
    800003cc:	9bc00313          	li	t1,-1604
    800003d0:	e8c00493          	li	s1,-372
    800003d4:	40e75fbb          	sraw	t6,a4,a4
    800003d8:	62a00b13          	li	s6,1578
    800003dc:	07fb0993          	addi	s3,s6,127
    800003e0:	00f7ccb3          	xor	s9,a5,a5
    800003e4:	bb500413          	li	s0,-1099
    800003e8:	40e55f1b          	sraiw	t5,a0,0xe
    800003ec:	02827a33          	remu	s4,tp,s0
    800003f0:	e1700293          	li	t0,-489
    800003f4:	006dd0b3          	srl	ra,s11,t1
    800003f8:	03294c3b          	divw	s8,s2,s2
    800003fc:	de600d93          	li	s11,-538
    80000400:	00002e97          	auipc	t4,0x2
    80000404:	e67e8e93          	addi	t4,t4,-409 # 80002267 <test_memory+0x67>
    80000408:	015a80b3          	add	ra,s5,s5
    8000040c:	2f800793          	li	a5,760
    80000410:	00100393          	li	t2,1
    80000414:	cee00713          	li	a4,-786
    80000418:	00002c17          	auipc	s8,0x2
    8000041c:	caac0c13          	addi	s8,s8,-854 # 800020c2 <reg_x24_init+0x2>
    80000420:	448a6413          	ori	s0,s4,1096
    80000424:	03e20933          	mul	s2,tp,t5
    80000428:	00100f13          	li	t5,1
    8000042c:	00000993          	li	s3,0
    80000430:	00000a13          	li	s4,0
    80000434:	1fc00893          	li	a7,508
    80000438:	03ff1f13          	slli	t5,t5,0x3f
    8000043c:	2a3c2323          	sw	gp,678(s8)
    80000440:	daa00a93          	li	s5,-598
    80000444:	0d5ee583          	lwu	a1,213(t4)
    80000448:	00e7b533          	sltu	a0,a5,a4
    8000044c:	fff00f93          	li	t6,-1
    80000450:	011b8d3b          	addw	s10,s7,a7
    80000454:	01efcfb3          	xor	t6,t6,t5
    80000458:	24e00b13          	li	s6,590
    8000045c:	4152d1b3          	sra	gp,t0,s5
    80000460:	416d8cbb          	subw	s9,s11,s6
    80000464:	1bd00713          	li	a4,445
    80000468:	77800093          	li	ra,1912
    8000046c:	62700293          	li	t0,1575
    80000470:	f5600d93          	li	s11,-170
    80000474:	df546e93          	ori	t4,s0,-523
    80000478:	03eec1b3          	div	gp,t4,t5
    8000047c:	0210f5bb          	remuw	a1,ra,ra
    80000480:	92c00d13          	li	s10,-1748
    80000484:	00215b3b          	srlw	s6,sp,sp
    80000488:	034a47bb          	divw	a5,s4,s4
    8000048c:	02e74bb3          	div	s7,a4,a4
    80000490:	01a0f933          	and	s2,ra,s10
    80000494:	005298b3          	sll	a7,t0,t0
    80000498:	40738a33          	sub	s4,t2,t2
    8000049c:	01fa7233          	and	tp,s4,t6
    800004a0:	03f39393          	slli	t2,t2,0x3f
    800004a4:	01bd9433          	sll	s0,s11,s11
    800004a8:	00100c93          	li	s9,1
    800004ac:	03fc9c93          	slli	s9,s9,0x3f
    800004b0:	01e26333          	or	t1,tp,t5
    800004b4:	18100613          	li	a2,385
    800004b8:	45900193          	li	gp,1113
    800004bc:	02c4b133          	mulhu	sp,s1,a2
    800004c0:	fff00993          	li	s3,-1
    800004c4:	0199c9b3          	xor	s3,s3,s9
    800004c8:	ccb5e6e3          	bltu	a1,a1,80000194 <crash_backward>
    800004cc:	4c620e63          	beq	tp,t1,800009a8 <crash_forward>
    800004d0:	19a00893          	li	a7,410
    800004d4:	01189bb3          	sll	s7,a7,a7
    800004d8:	01397c33          	and	s8,s2,s3
    800004dc:	ab300713          	li	a4,-1357
    800004e0:	0084523b          	srlw	tp,s0,s0
    800004e4:	00100093          	li	ra,1
    800004e8:	3e800793          	li	a5,1000
    800004ec:	29e78913          	addi	s2,a5,670
    800004f0:	00002b97          	auipc	s7,0x2
    800004f4:	452b8b93          	addi	s7,s7,1106 # 80002942 <_end+0x332>
    800004f8:	4052813b          	subw	sp,t0,t0
    800004fc:	00002897          	auipc	a7,0x2
    80000500:	42088893          	addi	a7,a7,1056 # 8000291c <_end+0x30c>
    80000504:	019ee533          	or	a0,t4,s9
    80000508:	01b95d93          	srli	s11,s2,0x1b
    8000050c:	82400a93          	li	s5,-2012
    80000510:	c92782e3          	beq	a5,s2,80000194 <crash_backward>
    80000514:	03f09093          	slli	ra,ra,0x3f
    80000518:	39800493          	li	s1,920
    8000051c:	fff00293          	li	t0,-1
    80000520:	de470d13          	addi	s10,a4,-540
    80000524:	16600413          	li	s0,358
    80000528:	015defb3          	or	t6,s11,s5
    8000052c:	0351f5b3          	remu	a1,gp,s5
    80000530:	26d48613          	addi	a2,s1,621
    80000534:	1fd40a13          	addi	s4,s0,509
    80000538:	fff00693          	li	a3,-1
    8000053c:	92ebb203          	ld	tp,-1746(s7)
    80000540:	0076c6b3          	xor	a3,a3,t2
    80000544:	c49668e3          	bltu	a2,s1,80000194 <crash_backward>
    80000548:	00060313          	mv	t1,a2
    8000054c:	00030f13          	mv	t5,t1
    80000550:	45855c63          	bge	a0,s8,800009a8 <crash_forward>
    80000554:	c54470e3          	bgeu	s0,s4,80000194 <crash_backward>
    80000558:	95289a23          	sh	s2,-1708(a7)
    8000055c:	0012c2b3          	xor	t0,t0,ra
    80000560:	0059fb33          	and	s6,s3,t0
    80000564:	001b6eb3          	or	t4,s6,ra
    80000568:	00d77e33          	and	t3,a4,a3
    8000056c:	007e6833          	or	a6,t3,t2
    80000570:	00000593          	li	a1,0
    80000574:	7c400f13          	li	t5,1988
    80000578:	03ef4933          	div	s2,t5,t5
    8000057c:	a1400113          	li	sp,-1516
    80000580:	00217ab3          	and	s5,sp,sp
    80000584:	52600393          	li	t2,1318
    80000588:	00000d13          	li	s10,0
    8000058c:	2f038513          	addi	a0,t2,752
    80000590:	d5410713          	addi	a4,sp,-684
    80000594:	00b594b3          	sll	s1,a1,a1
    80000598:	1d800093          	li	ra,472
    8000059c:	01087633          	and	a2,a6,a6
    800005a0:	03655cbb          	divuw	s9,a0,s6
    800005a4:	39600193          	li	gp,918
    800005a8:	a4900213          	li	tp,-1463
    800005ac:	ba200913          	li	s2,-1118
    800005b0:	d1400693          	li	a3,-748
    800005b4:	75f00293          	li	t0,1887
    800005b8:	00001497          	auipc	s1,0x1
    800005bc:	7d048493          	addi	s1,s1,2000 # 80001d88 <fromhost+0xd48>
    800005c0:	0210eebb          	remw	t4,ra,ra
    800005c4:	00100f13          	li	t5,1
    800005c8:	02d6c33b          	divw	t1,a3,a3
    800005cc:	02318dbb          	mulw	s11,gp,gp
    800005d0:	012d58bb          	srlw	a7,s10,s2
    800005d4:	e5500a13          	li	s4,-427
    800005d8:	03ff1f13          	slli	t5,t5,0x3f
    800005dc:	03292e33          	mulhsu	t3,s2,s2
    800005e0:	00f7943b          	sllw	s0,a5,a5
    800005e4:	fff00513          	li	a0,-1
    800005e8:	83600793          	li	a5,-1994
    800005ec:	00002697          	auipc	a3,0x2
    800005f0:	47b68693          	addi	a3,a3,1147 # 80002a67 <_end+0x457>
    800005f4:	015aed33          	or	s10,s5,s5
    800005f8:	00426bb3          	or	s7,tp,tp
    800005fc:	4fee019b          	addiw	gp,t3,1278
    80000600:	6e500c93          	li	s9,1765
    80000604:	01e54533          	xor	a0,a0,t5
    80000608:	a48697a3          	sh	s0,-1457(a3)
    8000060c:	73700d93          	li	s11,1847
    80000610:	84fdb613          	sltiu	a2,s11,-1969
    80000614:	77e4b023          	sd	t5,1888(s1)
    80000618:	02418c33          	mul	s8,gp,tp
    8000061c:	3b800893          	li	a7,952
    80000620:	01bdb0b3          	sltu	ra,s11,s11
    80000624:	4f900a93          	li	s5,1273
    80000628:	70400d13          	li	s10,1796
    8000062c:	f9200713          	li	a4,-110
    80000630:	0105893b          	addw	s2,a1,a6
    80000634:	03bcfebb          	remuw	t4,s9,s11
    80000638:	402b8333          	sub	t1,s7,sp
    8000063c:	05a00193          	li	gp,90
    80000640:	035a93b3          	mulh	t2,s5,s5
    80000644:	b8a78993          	addi	s3,a5,-1142
    80000648:	9de00b93          	li	s7,-1570
    8000064c:	00a5f833          	and	a6,a1,a0
    80000650:	16b00613          	li	a2,363
    80000654:	02d68cb3          	mul	s9,a3,a3
    80000658:	01429fbb          	sllw	t6,t0,s4
    8000065c:	f0300c13          	li	s8,-253
    80000660:	3537c463          	blt	a5,s3,800009a8 <crash_forward>
    80000664:	42e45313          	srai	t1,s0,0x2e
    80000668:	00100993          	li	s3,1
    8000066c:	01e8eb33          	or	s6,a7,t5
    80000670:	00002917          	auipc	s2,0x2
    80000674:	3d090913          	addi	s2,s2,976 # 80002a40 <_end+0x430>
    80000678:	02e8e133          	rem	sp,a7,a4
    8000067c:	b0894e83          	lbu	t4,-1272(s2)
    80000680:	52300493          	li	s1,1315
    80000684:	03f99993          	slli	s3,s3,0x3f
    80000688:	01ad0433          	add	s0,s10,s10
    8000068c:	59f60693          	addi	a3,a2,1439
    80000690:	03080abb          	mulw	s5,a6,a6
    80000694:	00001e97          	auipc	t4,0x1
    80000698:	54ce8e93          	addi	t4,t4,1356 # 80001be0 <fromhost+0xba0>
    8000069c:	798ea303          	lw	t1,1944(t4)
    800006a0:	00002297          	auipc	t0,0x2
    800006a4:	c2628293          	addi	t0,t0,-986 # 800022c6 <test_memory+0xc6>
    800006a8:	fff00a13          	li	s4,-1
    800006ac:	0181d0bb          	srlw	ra,gp,s8
    800006b0:	013a4a33          	xor	s4,s4,s3
    800006b4:	28100913          	li	s2,641
    800006b8:	41080733          	sub	a4,a6,a6
    800006bc:	00002117          	auipc	sp,0x2
    800006c0:	05210113          	addi	sp,sp,82 # 8000270e <_end+0xfe>
    800006c4:	c0c00593          	li	a1,-1012
    800006c8:	03294cb3          	div	s9,s2,s2
    800006cc:	c5311223          	sh	s3,-956(sp)
    800006d0:	017bb233          	sltu	tp,s7,s7
    800006d4:	05500093          	li	ra,85
    800006d8:	00001897          	auipc	a7,0x1
    800006dc:	67a88893          	addi	a7,a7,1658 # 80001d52 <fromhost+0xd12>
    800006e0:	413a8c3b          	subw	s8,s5,s3
    800006e4:	0010f633          	and	a2,ra,ra
    800006e8:	00100813          	li	a6,1
    800006ec:	03f81813          	slli	a6,a6,0x3f
    800006f0:	5ee00213          	li	tp,1518
    800006f4:	415adab3          	sra	s5,s5,s5
    800006f8:	5ef00d13          	li	s10,1519
    800006fc:	01084db3          	xor	s11,a6,a6
    80000700:	01398bbb          	addw	s7,s3,s3
    80000704:	014977b3          	and	a5,s2,s4
    80000708:	4156873b          	subw	a4,a3,s5
    8000070c:	1832b123          	sd	gp,386(t0)
    80000710:	029a9c33          	mulh	s8,s5,s1
    80000714:	01326fb3          	or	t6,tp,s3
    80000718:	02b58e33          	mul	t3,a1,a1
    8000071c:	221d0313          	addi	t1,s10,545
    80000720:	009481b3          	add	gp,s1,s1
    80000724:	00002517          	auipc	a0,0x2
    80000728:	b0350513          	addi	a0,a0,-1277 # 80002227 <test_memory+0x27>
    8000072c:	00425933          	srl	s2,tp,tp
    80000730:	09d56e83          	lwu	t4,157(a0)
    80000734:	7bb88da3          	sb	s11,1979(a7)
    80000738:	dd000d13          	li	s10,-560
    8000073c:	03ef413b          	divw	sp,t5,t5
    80000740:	01ad08b3          	add	a7,s10,s10
    80000744:	61000213          	li	tp,1552
    80000748:	8ae00593          	li	a1,-1874
    8000074c:	024d7f33          	remu	t5,s10,tp
    80000750:	4c748393          	addi	t2,s1,1223
    80000754:	00b5de33          	srl	t3,a1,a1
    80000758:	b1200a93          	li	s5,-1262
    8000075c:	fff00c93          	li	s9,-1
    80000760:	5cd00d93          	li	s11,1485
    80000764:	03ce1633          	mulh	a2,t3,t3
    80000768:	03baf33b          	remuw	t1,s5,s11
    8000076c:	02e730b3          	mulhu	ra,a4,a4
    80000770:	00002297          	auipc	t0,0x2
    80000774:	38e28293          	addi	t0,t0,910 # 80002afe <_end+0x4ee>
    80000778:	00002197          	auipc	gp,0x2
    8000077c:	dfe18193          	addi	gp,gp,-514 # 80002576 <test_memory+0x376>
    80000780:	6a500913          	li	s2,1701
    80000784:	e3a19703          	lh	a4,-454(gp) # 80002c4a <_end+0x63a>
    80000788:	0231d9bb          	divuw	s3,gp,gp
    8000078c:	010cccb3          	xor	s9,s9,a6
    80000790:	0210d4bb          	divuw	s1,ra,ra
    80000794:	01226533          	or	a0,tp,s2
    80000798:	01f4d79b          	srliw	a5,s1,0x1f
    8000079c:	0195f433          	and	s0,a1,s9
    800007a0:	a5e2de83          	lhu	t4,-1442(t0)
    800007a4:	01e4d693          	srli	a3,s1,0x1e
    800007a8:	34900a93          	li	s5,841
    800007ac:	40d00093          	li	ra,1037
    800007b0:	23d3819b          	addiw	gp,t2,573
    800007b4:	42a00293          	li	t0,1066
    800007b8:	76d28213          	addi	tp,t0,1901
    800007bc:	00030713          	mv	a4,t1
    800007c0:	02841133          	mulh	sp,s0,s0
    800007c4:	00002f97          	auipc	t6,0x2
    800007c8:	117f8f93          	addi	t6,t6,279 # 800028db <_end+0x2cb>
    800007cc:	93200393          	li	t2,-1742
    800007d0:	3bb00793          	li	a5,955
    800007d4:	00634db3          	xor	s11,t1,t1
    800007d8:	01046b33          	or	s6,s0,a6
    800007dc:	00002897          	auipc	a7,0x2
    800007e0:	3de88893          	addi	a7,a7,990 # 80002bba <_end+0x5aa>
    800007e4:	4ca00b93          	li	s7,1226
    800007e8:	1c428063          	beq	t0,tp,800009a8 <crash_forward>
    800007ec:	9f2fb2a3          	sd	s2,-1563(t6)
    800007f0:	2168b493          	sltiu	s1,a7,534
    800007f4:	1b644a63          	blt	s0,s6,800009a8 <crash_forward>
    800007f8:	71d00a13          	li	s4,1821
    800007fc:	13508d13          	addi	s10,ra,309
    80000800:	e0338593          	addi	a1,t2,-509
    80000804:	035ab633          	mulhu	a2,s5,s5
    80000808:	00002e97          	auipc	t4,0x2
    8000080c:	e27e8e93          	addi	t4,t4,-473 # 8000262f <_end+0x1f>
    80000810:	84689f03          	lh	t5,-1978(a7)
    80000814:	00070313          	mv	t1,a4
    80000818:	18b5c863          	blt	a1,a1,800009a8 <crash_forward>
    8000081c:	00001f97          	auipc	t6,0x1
    80000820:	447f8f93          	addi	t6,t6,1095 # 80001c63 <fromhost+0xc23>
    80000824:	f0400193          	li	gp,-252
    80000828:	00001817          	auipc	a6,0x1
    8000082c:	4a980813          	addi	a6,a6,1193 # 80001cd1 <fromhost+0xc91>
    80000830:	76f82a83          	lw	s5,1903(a6)
    80000834:	be8e8e23          	sb	s0,-1028(t4)
    80000838:	cea00613          	li	a2,-790
    8000083c:	23700493          	li	s1,567
    80000840:	5ebfa4a3          	sw	a1,1513(t6)
    80000844:	3c1a0913          	addi	s2,s4,961
    80000848:	e2300f13          	li	t5,-477
    8000084c:	000065b3          	or	a1,zero,zero
    80000850:	7e8b8c13          	addi	s8,s7,2024
    80000854:	32300293          	li	t0,803
    80000858:	00379133          	sll	sp,a5,gp
    8000085c:	03ef73b3          	remu	t2,t5,t5
    80000860:	a8e00213          	li	tp,-1394
    80000864:	cfd00513          	li	a0,-771
    80000868:	a7500313          	li	t1,-1419
    8000086c:	02843f33          	mulhu	t5,s0,s0
    80000870:	00cd8ab3          	add	s5,s11,a2
    80000874:	02566b33          	rem	s6,a2,t0
    80000878:	00a51db3          	sll	s11,a0,a0
    8000087c:	f8923e13          	sltiu	t3,tp,-119
    80000880:	74500693          	li	a3,1861
    80000884:	bed00193          	li	gp,-1043
    80000888:	0294ccbb          	divw	s9,s1,s1
    8000088c:	f0c00293          	li	t0,-244
    80000890:	f9500093          	li	ra,-107
    80000894:	2ab00893          	li	a7,683
    80000898:	c9f00593          	li	a1,-865
    8000089c:	00d689b3          	add	s3,a3,a3
    800008a0:	02b5e93b          	remw	s2,a1,a1
    800008a4:	0051bc33          	sltu	s8,gp,t0
    800008a8:	02634fbb          	divw	t6,t1,t1
    800008ac:	00058493          	mv	s1,a1
    800008b0:	00048d93          	mv	s11,s1
    800008b4:	000c0d13          	mv	s10,s8
    800008b8:	00cb8ebb          	addw	t4,s7,a2
    800008bc:	4d000b93          	li	s7,1232
    800008c0:	00100613          	li	a2,1
    800008c4:	cd120413          	addi	s0,tp,-815 # fffffffffffffcd1 <__global_pointer$+0xffffffff7fffcec1>
    800008c8:	00000113          	li	sp,0
    800008cc:	4110d733          	sra	a4,ra,a7
    800008d0:	00000793          	li	a5,0
    800008d4:	0c820a63          	beq	tp,s0,800009a8 <crash_forward>
    800008d8:	03f61613          	slli	a2,a2,0x3f
    800008dc:	e5200b13          	li	s6,-430
    800008e0:	036bda3b          	divuw	s4,s7,s6
    800008e4:	000d0813          	mv	a6,s10
    800008e8:	8bb4c6e3          	blt	s1,s11,80000194 <crash_backward>
    800008ec:	fff00f13          	li	t5,-1
    800008f0:	0b0d1c63          	bne	s10,a6,800009a8 <crash_forward>
    800008f4:	00cf4f33          	xor	t5,t5,a2
    800008f8:	01eb7ab3          	and	s5,s6,t5
    800008fc:	00cae3b3          	or	t2,s5,a2
    80000900:	887acae3          	blt	s5,t2,80000194 <crash_backward>
    80000904:	0040006f          	j	80000908 <reg_dump>

0000000080000908 <reg_dump>:
    80000908:	00002097          	auipc	ra,0x2
    8000090c:	cf808093          	addi	ra,ra,-776 # 80002600 <loop_count>
    80000910:	0000a103          	lw	sp,0(ra)
    80000914:	fff10193          	addi	gp,sp,-1
    80000918:	0030a023          	sw	gp,0(ra)
    8000091c:	920110e3          	bnez	sp,8000023c <pseg_0>
    80000920:	00001097          	auipc	ra,0x1
    80000924:	7e008093          	addi	ra,ra,2016 # 80002100 <begin_signature>
    80000928:	0000b023          	sd	zero,0(ra)
    8000092c:	0020b823          	sd	sp,16(ra)
    80000930:	0030bc23          	sd	gp,24(ra)
    80000934:	0240b023          	sd	tp,32(ra)
    80000938:	0250b423          	sd	t0,40(ra)
    8000093c:	0260b823          	sd	t1,48(ra)
    80000940:	0270bc23          	sd	t2,56(ra)
    80000944:	0480b023          	sd	s0,64(ra)
    80000948:	0490b423          	sd	s1,72(ra)
    8000094c:	04a0b823          	sd	a0,80(ra)
    80000950:	04b0bc23          	sd	a1,88(ra)
    80000954:	06c0b023          	sd	a2,96(ra)
    80000958:	06d0b423          	sd	a3,104(ra)
    8000095c:	06e0b823          	sd	a4,112(ra)
    80000960:	06f0bc23          	sd	a5,120(ra)
    80000964:	0900b023          	sd	a6,128(ra)
    80000968:	0910b423          	sd	a7,136(ra)
    8000096c:	0920b823          	sd	s2,144(ra)
    80000970:	0930bc23          	sd	s3,152(ra)
    80000974:	0b40b023          	sd	s4,160(ra)
    80000978:	0b50b423          	sd	s5,168(ra)
    8000097c:	0b60b823          	sd	s6,176(ra)
    80000980:	0b70bc23          	sd	s7,184(ra)
    80000984:	0d80b023          	sd	s8,192(ra)
    80000988:	0d90b423          	sd	s9,200(ra)
    8000098c:	0da0b823          	sd	s10,208(ra)
    80000990:	0db0bc23          	sd	s11,216(ra)
    80000994:	0fc0b023          	sd	t3,224(ra)
    80000998:	0fd0b423          	sd	t4,232(ra)
    8000099c:	0fe0b823          	sd	t5,240(ra)
    800009a0:	0ff0bc23          	sd	t6,248(ra)
    800009a4:	0200006f          	j	800009c4 <test_end>

00000000800009a8 <crash_forward>:
    800009a8:	0ff0000f          	fence
    800009ac:	00018063          	beqz	gp,800009ac <crash_forward+0x4>
    800009b0:	00119193          	slli	gp,gp,0x1
    800009b4:	0011e193          	ori	gp,gp,1
    800009b8:	05d00893          	li	a7,93
    800009bc:	00018513          	mv	a0,gp
    800009c0:	00000073          	ecall

00000000800009c4 <test_end>:
    800009c4:	0ff0000f          	fence
    800009c8:	00100193          	li	gp,1
    800009cc:	05d00893          	li	a7,93
    800009d0:	00000513          	li	a0,0
    800009d4:	00000073          	ecall
    800009d8:	c0001073          	unimp
	...

Disassembly of section .tohost:

0000000080001000 <tohost>:
	...

0000000080001040 <fromhost>:
	...

Disassembly of section .data:

0000000080002000 <hidden_data>:
    80002000:	3e076a97          	auipc	s5,0x3e076
    80002004:	e63e                	sd	a5,264(sp)
    80002006:	c211                	beqz	a2,8000200a <reg_x1_init+0x2>

0000000080002008 <reg_x1_init>:
	...

0000000080002010 <reg_x2_init>:
    80002010:	4aba                	lw	s5,140(sp)
    80002012:	0419                	addi	s0,s0,6
    80002014:	b7cd                	j	80001ff6 <fromhost+0xfb6>
    80002016:	92d9                	srli	a3,a3,0x36

0000000080002018 <reg_x3_init>:
    80002018:	c01e                	sw	t2,0(sp)
    8000201a:	22ee                	fld	ft5,216(sp)
    8000201c:	0639                	addi	a2,a2,14
    8000201e:	a3be                	fsd	fa5,448(sp)

0000000080002020 <reg_x4_init>:
    80002020:	4139                	li	sp,14
    80002022:	000e                	c.slli	zero,0x3
    80002024:	3ed4                	fld	fa3,184(a3)
    80002026:	3e90                	fld	fa2,56(a3)

0000000080002028 <reg_x5_init>:
    80002028:	7c11                	lui	s8,0xfffe4
    8000202a:	e9a8                	sd	a0,80(a1)
    8000202c:	37693c43          	fmadd.q	fs8,fs2,fs6,ft6,rup

0000000080002030 <reg_x6_init>:
    80002030:	8c6a                	mv	s8,s10
    80002032:	8488d96b          	0x8488d96b
    80002036:	d0a4                	sw	s1,96(s1)

0000000080002038 <reg_x7_init>:
    80002038:	0006                	c.slli	zero,0x1
    8000203a:	0000                	unimp
    8000203c:	0000                	unimp
	...

0000000080002040 <reg_x8_init>:
    80002040:	0132e927          	0x132e927
    80002044:	ef0d                	bnez	a4,8000207e <reg_x15_init+0x6>
    80002046:	b8b2                	fsd	fa2,112(sp)

0000000080002048 <reg_x9_init>:
    80002048:	ffff                	0xffff
    8000204a:	ffff                	0xffff
    8000204c:	ffff                	0xffff
    8000204e:	ffff                	0xffff

0000000080002050 <reg_x10_init>:
    80002050:	ffff                	0xffff
    80002052:	ffff                	0xffff
    80002054:	ffff                	0xffff
    80002056:	ffff                	0xffff

0000000080002058 <reg_x11_init>:
    80002058:	ff85                	bnez	a5,80001f90 <fromhost+0xf50>
    8000205a:	ffff                	0xffff
    8000205c:	ffff                	0xffff
    8000205e:	ffff                	0xffff

0000000080002060 <reg_x12_init>:
    80002060:	ff81                	bnez	a5,80001f78 <fromhost+0xf38>
    80002062:	ffff                	0xffff
    80002064:	ffff                	0xffff
    80002066:	ffff                	0xffff

0000000080002068 <reg_x13_init>:
    80002068:	2252eff7          	0x2252eff7
    8000206c:	bd8c                	fsd	fa1,56(a1)
    8000206e:	5f20                	lw	s0,120(a4)

0000000080002070 <reg_x14_init>:
    80002070:	0002                	c.slli64	zero
    80002072:	0000                	unimp
    80002074:	0000                	unimp
	...

0000000080002078 <reg_x15_init>:
    80002078:	4929                	li	s2,10
    8000207a:	87e1                	srai	a5,a5,0x18
    8000207c:	2ac6                	fld	fs5,80(sp)
    8000207e:	0489                	addi	s1,s1,2

0000000080002080 <reg_x16_init>:
    80002080:	ceca41bf d2d116af 	0xd2d116afceca41bf

0000000080002088 <reg_x17_init>:
    80002088:	0004                	0x4
    8000208a:	0000                	unimp
    8000208c:	0000                	unimp
	...

0000000080002090 <reg_x18_init>:
    80002090:	ee5c                	sd	a5,152(a2)
    80002092:	e076                	sd	t4,0(sp)
    80002094:	0243a8cf          	fnmadd.d	fa7,ft7,ft4,ft0,rdn

0000000080002098 <reg_x19_init>:
    80002098:	ff89                	bnez	a5,80001fb2 <fromhost+0xf72>
    8000209a:	ffff                	0xffff
    8000209c:	ffff                	0xffff
    8000209e:	ffff                	0xffff

00000000800020a0 <reg_x20_init>:
    800020a0:	ffff                	0xffff
    800020a2:	ffff                	0xffff
    800020a4:	ffff                	0xffff
    800020a6:	ffff                	0xffff

00000000800020a8 <reg_x21_init>:
    800020a8:	8c91                	sub	s1,s1,a2
    800020aa:	0d8e                	slli	s11,s11,0x3
    800020ac:	d9c5                	beqz	a1,8000205c <reg_x11_init+0x4>
    800020ae:	          	lui	a0,0x56

00000000800020b0 <reg_x22_init>:
    800020b0:	0005                	c.nop	1
    800020b2:	0000                	unimp
    800020b4:	0000                	unimp
    800020b6:	0800                	addi	s0,sp,16

00000000800020b8 <reg_x23_init>:
    800020b8:	bcd72583          	lw	a1,-1075(a4)
    800020bc:	215f 7901       	0x87901215f

00000000800020c0 <reg_x24_init>:
    800020c0:	0008                	0x8
    800020c2:	0000                	unimp
    800020c4:	0000                	unimp
	...

00000000800020c8 <reg_x25_init>:
    800020c8:	0008                	0x8
    800020ca:	0000                	unimp
    800020cc:	0000                	unimp
    800020ce:	0800                	addi	s0,sp,16

00000000800020d0 <reg_x26_init>:
    800020d0:	ffff                	0xffff
    800020d2:	ffff                	0xffff
    800020d4:	ffff                	0xffff
    800020d6:	ffff                	0xffff

00000000800020d8 <reg_x27_init>:
    800020d8:	ff86                	sd	ra,504(sp)
    800020da:	ffff                	0xffff
    800020dc:	ffff                	0xffff
    800020de:	ffff                	0xffff

00000000800020e0 <reg_x28_init>:
    800020e0:	1315                	addi	t1,t1,-27
    800020e2:	0795                	addi	a5,a5,5
    800020e4:	a2a510b3          	0xa2a510b3

00000000800020e8 <reg_x29_init>:
    800020e8:	ffff                	0xffff
    800020ea:	ffff                	0xffff
    800020ec:	ffff                	0xffff
    800020ee:	ffff                	0xffff

00000000800020f0 <reg_x30_init>:
    800020f0:	0009                	c.nop	2
    800020f2:	0000                	unimp
    800020f4:	0000                	unimp
    800020f6:	0800                	addi	s0,sp,16

00000000800020f8 <reg_x31_init>:
    800020f8:	ffff8003          	lb	zero,-1(t6)
    800020fc:	ffff                	0xffff
    800020fe:	ffff                	0xffff

0000000080002100 <begin_signature>:
    80002100:	67cd                	lui	a5,0x13
    80002102:	3838                	fld	fa4,112(s0)
    80002104:	cd99                	beqz	a1,80002122 <reg_x4_output+0x2>
    80002106:	2ef0                	fld	fa2,216(a3)

0000000080002108 <reg_x1_output>:
    80002108:	f5d5                	bnez	a1,800020b4 <reg_x22_init+0x4>
    8000210a:	8244                	0x8244
    8000210c:	327e                	fld	ft4,504(sp)
    8000210e:	          	0xbe20672f

0000000080002110 <reg_x2_output>:
    80002110:	be20                	fsd	fs0,120(a2)
    80002112:	e45937ab          	0xe45937ab
    80002116:	4e72                	lw	t3,28(sp)

0000000080002118 <reg_x3_output>:
    80002118:	1331                	addi	t1,t1,-20
    8000211a:	5640b657          	0x5640b657
    8000211e:	          	0xec6fa0fb

0000000080002120 <reg_x4_output>:
    80002120:	b9e0ec6f          	jal	s8,7ff104be <_start-0xefb42>
    80002124:	7114                	ld	a3,32(a0)
    80002126:	8350                	0x8350

0000000080002128 <reg_x5_output>:
    80002128:	2cc030e7          	0x2cc030e7
    8000212c:	9e51                	0x9e51
    8000212e:	          	fmadd.d	ft0,fs9,fs1,ft3

0000000080002130 <reg_x6_output>:
    80002130:	1a9c                	addi	a5,sp,368
    80002132:	b764                	fsd	fs1,232(a4)
    80002134:	e955abf3          	csrrs	s7,0xe95,a1

0000000080002138 <reg_x7_output>:
    80002138:	0a4d0407          	0xa4d0407
    8000213c:	38ba                	fld	fa7,424(sp)
    8000213e:	dbd4                	sw	a3,52(a5)

0000000080002140 <reg_x8_output>:
    80002140:	adae                	fsd	fa1,216(sp)
    80002142:	5d30069b          	addiw	a3,zero,1491
    80002146:	b471                	j	80001bd2 <fromhost+0xb92>

0000000080002148 <reg_x9_output>:
    80002148:	bfff                	0xbfff
    8000214a:	6348                	ld	a0,128(a4)
    8000214c:	ed75                	bnez	a0,80002248 <test_memory+0x48>
    8000214e:	803e                	c.mv	zero,a5

0000000080002150 <reg_x10_output>:
    80002150:	52178dd3          	0x52178dd3
    80002154:	c8a0                	sw	s0,80(s1)
    80002156:	3159                	addiw	sp,sp,-10

0000000080002158 <reg_x11_output>:
    80002158:	f640                	sd	s0,168(a2)
    8000215a:	6c3c                	ld	a5,88(s0)
    8000215c:	861f ac33       	0x48a7ac33861f

0000000080002160 <reg_x12_output>:
    80002160:	c38048a7          	fsq	fs8,-975(zero) # fffffffffffffc31 <__global_pointer$+0xffffffff7fffce21>
    80002164:	3e91                	addiw	t4,t4,-28
    80002166:	4d5c                	lw	a5,28(a0)

0000000080002168 <reg_x13_output>:
    80002168:	4c21                	li	s8,8
    8000216a:	96dd                	srai	a3,a3,0x37
    8000216c:	0fca7ceb          	0xfca7ceb

0000000080002170 <reg_x14_output>:
    80002170:	93b6                	add	t2,t2,a3
    80002172:	9adf 65dd 1254      	0x125465dd9adf

0000000080002178 <reg_x15_output>:
    80002178:	2b04                	fld	fs1,16(a4)
    8000217a:	355e                	fld	fa0,496(sp)
    8000217c:	955726db          	0x955726db

0000000080002180 <reg_x16_output>:
    80002180:	ed8ff33f ae059336 	0xae059336ed8ff33f

0000000080002188 <reg_x17_output>:
    80002188:	80c3ceb7          	lui	t4,0x80c3c
    8000218c:	cd2a                	sw	a0,152(sp)
    8000218e:	b1f5                	j	80001e7a <fromhost+0xe3a>

0000000080002190 <reg_x18_output>:
    80002190:	08b9893b          	0x8b9893b
    80002194:	c1c4                	sw	s1,4(a1)
    80002196:	24e1                	addiw	s1,s1,24

0000000080002198 <reg_x19_output>:
    80002198:	4fa9561b          	0x4fa9561b
    8000219c:	6a0c                	ld	a1,16(a2)
    8000219e:	c65d                	beqz	a2,8000224c <test_memory+0x4c>

00000000800021a0 <reg_x20_output>:
    800021a0:	509d                	li	ra,-25
    800021a2:	bd1e                	fsd	ft7,184(sp)
    800021a4:	00ed                	addi	ra,ra,27
    800021a6:	          	jal	s9,7ffaa546 <_start-0x55aba>

00000000800021a8 <reg_x21_output>:
    800021a8:	ba0a                	fsd	ft2,304(sp)
    800021aa:	30d5                	addiw	ra,ra,-11
    800021ac:	fc9a                	sd	t1,120(sp)
    800021ae:	          	fmadd.s	fs9,fs4,fa3,fs1

00000000800021b0 <reg_x22_output>:
    800021b0:	48da                	lw	a7,148(sp)
    800021b2:	fd58                	sd	a4,184(a0)
    800021b4:	6b7a                	ld	s6,408(sp)
    800021b6:	8735                	srai	a4,a4,0xd

00000000800021b8 <reg_x23_output>:
    800021b8:	ce76                	sw	t4,28(sp)
    800021ba:	e1ee                	sd	s11,192(sp)
    800021bc:	a805                	j	800021ec <reg_x29_output+0x4>
    800021be:	9a1f        	0x48d055aa9a1f

00000000800021c0 <reg_x24_output>:
    800021c0:	55aa                	lw	a1,168(sp)
    800021c2:	48d0                	lw	a2,20(s1)
    800021c4:	e22cfbdb          	0xe22cfbdb

00000000800021c8 <reg_x25_output>:
    800021c8:	b1cd                	j	80001eaa <fromhost+0xe6a>
    800021ca:	8cf8                	0x8cf8
    800021cc:	1215                	addi	tp,tp,-27
    800021ce:	96fe                	add	a3,a3,t6

00000000800021d0 <reg_x26_output>:
    800021d0:	d710                	sw	a2,40(a4)
    800021d2:	f4dc                	sd	a5,168(s1)
    800021d4:	d1c1                	beqz	a1,80002154 <reg_x10_output+0x4>
    800021d6:	          	fmadd.q	ft10,fs1,fa0,fs1,rdn

00000000800021d8 <reg_x27_output>:
    800021d8:	4ea4                	lw	s1,88(a3)
    800021da:	c952                	sw	s4,144(sp)
    800021dc:	b4ce                	fsd	fs3,104(sp)
    800021de:	d9ce                	sw	s3,240(sp)

00000000800021e0 <reg_x28_output>:
    800021e0:	3d98                	fld	fa4,56(a1)
    800021e2:	bcf65ee3          	bge	a2,a5,80001dbe <fromhost+0xd7e>
    800021e6:	460a                	lw	a2,128(sp)

00000000800021e8 <reg_x29_output>:
    800021e8:	e4c5d393          	0xe4c5d393
    800021ec:	176e                	slli	a4,a4,0x3b
    800021ee:	e114                	sd	a3,0(a0)

00000000800021f0 <reg_x30_output>:
    800021f0:	1edf ce48 2168      	0x2168ce481edf
    800021f6:	6a1f        	0x714e455d6a1f

00000000800021f8 <reg_x31_output>:
    800021f8:	455d                	li	a0,23
    800021fa:	714e                	ld	sp,240(sp)
    800021fc:	22a0                	fld	fs0,64(a3)
    800021fe:	          	0x8e588abb

0000000080002200 <test_memory>:
    80002200:	8e58                	0x8e58
    80002202:	6fad                	lui	t6,0xb
    80002204:	888a                	mv	a7,sp
    80002206:	1ac6                	slli	s5,s5,0x31
    80002208:	8f54                	0x8f54
    8000220a:	daa1                	beqz	a3,8000215a <reg_x11_output+0x2>
    8000220c:	03ea                	slli	t2,t2,0x1a
    8000220e:	be4cde17          	auipc	t3,0xbe4cd
    80002212:	73d684b7          	lui	s1,0x73d68
    80002216:	1da1                	addi	s11,s11,-24
    80002218:	dda0b5fb          	0xdda0b5fb
    8000221c:	5469                	li	s0,-6
    8000221e:	2d22f2f3          	csrrci	t0,0x2d2,5
    80002222:	108c                	addi	a1,sp,96
    80002224:	44b6                	lw	s1,76(sp)
    80002226:	8e20                	0x8e20
    80002228:	0fec                	addi	a1,sp,988
    8000222a:	09c6                	slli	s3,s3,0x11
    8000222c:	76c1                	lui	a3,0xffff0
    8000222e:	5915                	li	s2,-27
    80002230:	e2e0                	sd	s0,192(a3)
    80002232:	4d84e1bf a8fc2abe 	0xa8fc2abe4d84e1bf
    8000223a:	604e03c3          	fmadd.s	ft7,ft8,ft4,fa2,rne
    8000223e:	8ba1                	andi	a5,a5,8
    80002240:	82f1                	srli	a3,a3,0x1c
    80002242:	92ad                	srli	a3,a3,0x2b
    80002244:	5fee                	lw	t6,248(sp)
    80002246:	9cb4                	0x9cb4
    80002248:	339c                	fld	fa5,32(a5)
    8000224a:	7f02                	ld	t5,32(sp)
    8000224c:	419f c265 3628      	0x3628c265419f
    80002252:	a974                	fsd	fa3,208(a0)
    80002254:	6c80                	ld	s0,24(s1)
    80002256:	0015                	c.nop	5
    80002258:	2c82                	fld	fs9,0(sp)
    8000225a:	c223e3d3          	fcvt.l.d	t2,ft7,unknown
    8000225e:	cb52                	sw	s4,148(sp)
    80002260:	b104                	fsd	fs1,32(a0)
    80002262:	656c                	ld	a1,200(a0)
    80002264:	077c                	addi	a5,sp,908
    80002266:	c65d                	beqz	a2,80002314 <test_memory+0x114>
    80002268:	502f1487          	0x502f1487
    8000226c:	c325                	beqz	a4,800022cc <test_memory+0xcc>
    8000226e:	da3567a3          	0xda3567a3
    80002272:	80f1                	srli	s1,s1,0x1c
    80002274:	05a0e6eb          	0x5a0e6eb
    80002278:	2b02e4d3          	0x2b02e4d3
    8000227c:	ddf5                	beqz	a1,80002278 <test_memory+0x78>
    8000227e:	d55f0d93          	addi	s11,t5,-683
    80002282:	802e                	c.mv	zero,a1
    80002284:	adf8                	fsd	fa4,216(a1)
    80002286:	21361013          	0x21361013
    8000228a:	5c9e                	lw	s9,228(sp)
    8000228c:	1168                	addi	a0,sp,172
    8000228e:	761d7877          	0x761d7877
    80002292:	587c                	lw	a5,116(s0)
    80002294:	997c                	0x997c
    80002296:	0b98                	addi	a4,sp,464
    80002298:	2cd9                	addiw	s9,s9,22
    8000229a:	8c05                	sub	s0,s0,s1
    8000229c:	5280                	lw	s0,32(a3)
    8000229e:	6089                	lui	ra,0x2
    800022a0:	5f48                	lw	a0,60(a4)
    800022a2:	dbf4                	sw	a3,116(a5)
    800022a4:	e1d4                	sd	a3,128(a1)
    800022a6:	450c                	lw	a1,8(a0)
    800022a8:	c515                	beqz	a0,800022d4 <test_memory+0xd4>
    800022aa:	8701                	c.srai64	a4
    800022ac:	4159f46f          	jal	s0,800a1ec0 <__global_pointer$+0x9f0b0>
    800022b0:	5278                	lw	a4,100(a2)
    800022b2:	7280                	ld	s0,32(a3)
    800022b4:	4fe4e5fb          	0x4fe4e5fb
    800022b8:	c6a2                	sw	s0,76(sp)
    800022ba:	6405                	lui	s0,0x1
    800022bc:	1bba                	slli	s7,s7,0x2e
    800022be:	ac71                	j	8000255a <test_memory+0x35a>
    800022c0:	73ca                	ld	t2,176(sp)
    800022c2:	1910                	addi	a2,sp,176
    800022c4:	73d4                	ld	a3,160(a5)
    800022c6:	2608                	fld	fa0,8(a2)
    800022c8:	a0f4                	fsd	fa3,192(s1)
    800022ca:	8792                	mv	a5,tp
    800022cc:	b0b8                	fsd	fa4,96(s1)
    800022ce:	24fc                	fld	fa5,200(s1)
    800022d0:	390b85e3          	beq	s7,a6,80002e5a <__global_pointer$+0x4a>
    800022d4:	c1c6                	sw	a7,192(sp)
    800022d6:	7eba                	ld	t4,424(sp)
    800022d8:	1be1                	addi	s7,s7,-8
    800022da:	b51a                	fsd	ft6,168(sp)
    800022dc:	8546                	mv	a0,a7
    800022de:	7c35                	lui	s8,0xfffed
    800022e0:	6235                	lui	tp,0xd
    800022e2:	c9b8                	sw	a4,80(a1)
    800022e4:	ed8c                	sd	a1,24(a1)
    800022e6:	53865b0f          	0x53865b0f
    800022ea:	a1b5cb73          	0xa1b5cb73
    800022ee:	a404                	fsd	fs1,8(s0)
    800022f0:	3180                	fld	fs0,32(a1)
    800022f2:	f390                	sd	a2,32(a5)
    800022f4:	144d                	addi	s0,s0,-13
    800022f6:	0e6b4c3b          	0xe6b4c3b
    800022fa:	f949                	bnez	a0,8000228c <test_memory+0x8c>
    800022fc:	ed01                	bnez	a0,80002314 <test_memory+0x114>
    800022fe:	289ca97b          	0x289ca97b
    80002302:	7e5d                	lui	t3,0xffff7
    80002304:	57ec                	lw	a1,108(a5)
    80002306:	891d                	andi	a0,a0,7
    80002308:	d1e5                	beqz	a1,800022e8 <test_memory+0xe8>
    8000230a:	b494                	fsd	fa3,40(s1)
    8000230c:	a448                	fsd	fa0,136(s0)
    8000230e:	3234                	fld	fa3,96(a2)
    80002310:	cd75                	beqz	a0,8000240c <test_memory+0x20c>
    80002312:	1701                	addi	a4,a4,-32
    80002314:	659a                	ld	a1,384(sp)
    80002316:	58bb662f          	0x58bb662f
    8000231a:	d38c                	sw	a1,32(a5)
    8000231c:	557a                	lw	a0,188(sp)
    8000231e:	51d9                	li	gp,-10
    80002320:	0855                	addi	a6,a6,21
    80002322:	9d01                	subw	a0,a0,s0
    80002324:	51b1                	li	gp,-20
    80002326:	e264                	sd	s1,192(a2)
    80002328:	500c                	lw	a1,32(s0)
    8000232a:	f39d                	bnez	a5,80002250 <test_memory+0x50>
    8000232c:	514c                	lw	a1,36(a0)
    8000232e:	af48                	fsd	fa0,152(a4)
    80002330:	8568                	0x8568
    80002332:	5a9f dcc4 863d      	0x863ddcc45a9f
    80002338:	7e70                	ld	a2,248(a2)
    8000233a:	2e6d                	addiw	t3,t3,27
    8000233c:	c872                	sw	t3,16(sp)
    8000233e:	c616                	sw	t0,12(sp)
    80002340:	2a7d                	addiw	s4,s4,31
    80002342:	75f040fb          	0x75f040fb
    80002346:	b95ce537          	lui	a0,0xb95ce
    8000234a:	080ca393          	slti	t2,s9,128
    8000234e:	190c                	addi	a1,sp,176
    80002350:	a50a                	fsd	ft2,136(sp)
    80002352:	f3fd                	bnez	a5,80002338 <test_memory+0x138>
    80002354:	5e2e8e77          	0x5e2e8e77
    80002358:	4cca                	lw	s9,144(sp)
    8000235a:	ea20                	sd	s0,80(a2)
    8000235c:	895f 97af 5472      	0x547297af895f
    80002362:	128fdcdb          	0x128fdcdb
    80002366:	c2c4                	sw	s1,4(a3)
    80002368:	b918                	fsd	fa4,48(a0)
    8000236a:	4551                	li	a0,20
    8000236c:	c8c9                	beqz	s1,800023fe <test_memory+0x1fe>
    8000236e:	1489737b          	0x1489737b
    80002372:	5d20                	lw	s0,120(a0)
    80002374:	1b78                	addi	a4,sp,444
    80002376:	f11c                	sd	a5,32(a0)
    80002378:	eb30                	sd	a2,80(a4)
    8000237a:	d63c                	sw	a5,104(a2)
    8000237c:	17ee                	slli	a5,a5,0x3b
    8000237e:	ac5783f3          	0xac5783f3
    80002382:	1c5f 2ecc 141e      	0x141e2ecc1c5f
    80002388:	52e8                	lw	a0,100(a3)
    8000238a:	b6fe                	fsd	ft11,360(sp)
    8000238c:	f2f2df37          	lui	t5,0xf2f2d
    80002390:	cfb7e51b          	0xcfb7e51b
    80002394:	9f19                	subw	a4,a4,a4
    80002396:	ada9                	j	800029f0 <_end+0x3e0>
    80002398:	7bac                	ld	a1,112(a5)
    8000239a:	027e557b          	0x27e557b
    8000239e:	bf75                	j	8000235a <test_memory+0x15a>
    800023a0:	90ae8d93          	addi	s11,t4,-1782 # ffffffff80c3b90a <__global_pointer$+0xffffffff00c38afa>
    800023a4:	e1b4                	sd	a3,64(a1)
    800023a6:	1956                	slli	s2,s2,0x35
    800023a8:	0b5a                	slli	s6,s6,0x16
    800023aa:	5d00ca13          	xori	s4,ra,1488
    800023ae:	2bb6                	fld	fs7,328(sp)
    800023b0:	ed7a                	sd	t5,152(sp)
    800023b2:	30d5                	addiw	ra,ra,-11
    800023b4:	edc8                	sd	a0,152(a1)
    800023b6:	4b6d4697          	auipc	a3,0x4b6d4
    800023ba:	889db413          	sltiu	s0,s11,-1911
    800023be:	0fb4                	addi	a3,sp,984
    800023c0:	6d52                	ld	s10,272(sp)
    800023c2:	0546                	slli	a0,a0,0x11
    800023c4:	f8ad                	bnez	s1,80002336 <test_memory+0x136>
    800023c6:	bb96                	fsd	ft5,496(sp)
    800023c8:	a05c                	fsd	fa5,128(s0)
    800023ca:	28ad                	addiw	a7,a7,11
    800023cc:	6441                	lui	s0,0x10
    800023ce:	6964                	ld	s1,208(a0)
    800023d0:	80a47663          	bgeu	s0,a0,800013dc <fromhost+0x39c>
    800023d4:	237e                	fld	ft6,472(sp)
    800023d6:	d854                	sw	a3,52(s0)
    800023d8:	9344                	0x9344
    800023da:	eb9f 0d96 3426      	0x34260d96eb9f
    800023e0:	cf02                	sw	zero,156(sp)
    800023e2:	f855                	bnez	s0,80002396 <test_memory+0x196>
    800023e4:	edec                	sd	a1,216(a1)
    800023e6:	51c4f077          	0x51c4f077
    800023ea:	d130                	sw	a2,96(a0)
    800023ec:	58124207          	flq	ft4,1409(tp) # d581 <_start-0x7fff2a7f>
    800023f0:	f716                	sd	t0,424(sp)
    800023f2:	01f9                	addi	gp,gp,30
    800023f4:	8251                	srli	a2,a2,0x14
    800023f6:	6359                	lui	t1,0x16
    800023f8:	c828                	sw	a0,80(s0)
    800023fa:	5ae449ab          	0x5ae449ab
    800023fe:	5b08                	lw	a0,48(a4)
    80002400:	48d8                	lw	a4,20(s1)
    80002402:	956d                	srai	a0,a0,0x3b
    80002404:	2eff                	0x2eff
    80002406:	ea15                	bnez	a2,8000243a <test_memory+0x23a>
    80002408:	b9c8                	fsd	fa0,176(a1)
    8000240a:	8d72                	mv	s10,t3
    8000240c:	58da                	lw	a7,180(sp)
    8000240e:	e1d9d823          	0xe1d9d823
    80002412:	35d6                	fld	fa1,368(sp)
    80002414:	0480a0e3          	0x480a0e3
    80002418:	7bb2                	ld	s7,296(sp)
    8000241a:	3049                	0x3049
    8000241c:	b2b2                	fsd	fa2,352(sp)
    8000241e:	9849c1af          	0x9849c1af
    80002422:	bdbd                	j	800022a0 <test_memory+0xa0>
    80002424:	b345                	j	800021c4 <reg_x24_output+0x4>
    80002426:	3586b48f          	0x3586b48f
    8000242a:	7105                	addi	sp,sp,-480
    8000242c:	db34                	sw	a3,112(a4)
    8000242e:	2d22                	fld	fs10,8(sp)
    80002430:	8075                	srli	s0,s0,0x1d
    80002432:	7720                	ld	s0,104(a4)
    80002434:	9d95e8ef          	jal	a7,7ff60e0c <_start-0x9f1f4>
    80002438:	cca1                	beqz	s1,80002490 <test_memory+0x290>
    8000243a:	f251                	bnez	a2,800023be <test_memory+0x1be>
    8000243c:	b264                	fsd	fs1,224(a2)
    8000243e:	2b30                	fld	fa2,80(a4)
    80002440:	c691                	beqz	a3,8000244c <test_memory+0x24c>
    80002442:	e2721d53          	0xe2721d53
    80002446:	7efd                	lui	t4,0xfffff
    80002448:	dd7e                	sw	t6,184(sp)
    8000244a:	9848                	0x9848
    8000244c:	55fc                	lw	a5,108(a1)
    8000244e:	b72a                	fsd	fa0,424(sp)
    80002450:	7b2ae0b7          	lui	ra,0x7b2ae
    80002454:	d1d165c3          	fmadd.s	fa1,ft2,ft9,fs10,unknown
    80002458:	6758                	ld	a4,136(a4)
    8000245a:	9f34                	0x9f34
    8000245c:	8b950513          	addi	a0,a0,-1863 # ffffffffb95cd8b9 <__global_pointer$+0xffffffff395caaa9>
    80002460:	09055d2f          	0x9055d2f
    80002464:	cb0d                	beqz	a4,80002496 <test_memory+0x296>
    80002466:	d301                	beqz	a4,80002366 <test_memory+0x166>
    80002468:	0e12                	slli	t3,t3,0x4
    8000246a:	185e                	slli	a6,a6,0x37
    8000246c:	0b19                	addi	s6,s6,6
    8000246e:	0d9f d0f0 3be3      	0x3be3d0f00d9f
    80002474:	e2c1                	bnez	a3,800024f4 <test_memory+0x2f4>
    80002476:	5309                	li	t1,-30
    80002478:	6c76165b          	0x6c76165b
    8000247c:	e608                	sd	a0,8(a2)
    8000247e:	aa672103          	lw	sp,-1370(a4)
    80002482:	e4fe                	sd	t6,72(sp)
    80002484:	6b7fa8ef          	jal	a7,800fd33a <__global_pointer$+0xfa52a>
    80002488:	800d                	srli	s0,s0,0x3
    8000248a:	1bdc4e2b          	0x1bdc4e2b
    8000248e:	a150                	fsd	fa2,128(a0)
    80002490:	ec76                	sd	t4,24(sp)
    80002492:	d8b0                	sw	a2,112(s1)
    80002494:	59dc                	lw	a5,52(a1)
    80002496:	7dbd                	lui	s11,0xfffef
    80002498:	e2d6                	sd	s5,320(sp)
    8000249a:	4d40                	lw	s0,28(a0)
    8000249c:	7341                	lui	t1,0xffff0
    8000249e:	3788                	fld	fa0,40(a5)
    800024a0:	202515bf 302ebbce 	0x302ebbce202515bf
    800024a8:	f119                	bnez	a0,800023ae <test_memory+0x1ae>
    800024aa:	80ff                	0x80ff
    800024ac:	838c                	0x838c
    800024ae:	b821033f b221cb52 	0xb221cb52b821033f
    800024b6:	2b48                	fld	fa0,144(a4)
    800024b8:	c516                	sw	t0,136(sp)
    800024ba:	cff132a7          	fsd	ft11,-795(sp)
    800024be:	ff5f 8482 64bf      	0x64bf8482ff5f
    800024c4:	6da8                	ld	a0,88(a1)
    800024c6:	18fe                	slli	a7,a7,0x3f
    800024c8:	1b905c47          	fmsub.d	fs8,ft0,fs9,ft3,unknown
    800024cc:	8c9fe1eb          	0x8c9fe1eb
    800024d0:	665ececf          	fnmadd.q	ft9,ft9,ft5,fa2,rmm
    800024d4:	ce2d                	beqz	a2,8000254e <test_memory+0x34e>
    800024d6:	72e8                	ld	a0,224(a3)
    800024d8:	e50d                	bnez	a0,80002502 <test_memory+0x302>
    800024da:	617f                	0x617f
    800024dc:	16fe                	slli	a3,a3,0x3f
    800024de:	30f9                	addiw	ra,ra,-2
    800024e0:	ce40                	sw	s0,28(a2)
    800024e2:	7b16                	ld	s6,352(sp)
    800024e4:	c956                	sw	s5,144(sp)
    800024e6:	6189                	lui	gp,0x2
    800024e8:	9454c28b          	0x9454c28b
    800024ec:	15a4                	addi	s1,sp,744
    800024ee:	6bd1                	lui	s7,0x14
    800024f0:	1de0                	addi	s0,sp,764
    800024f2:	eaaff323          	0xeaaff323
    800024f6:	cb5e                	sw	s7,148(sp)
    800024f8:	6ad2                	ld	s5,272(sp)
    800024fa:	44f1                	li	s1,28
    800024fc:	1d84                	addi	s1,sp,752
    800024fe:	b511                	j	80002302 <test_memory+0x102>
    80002500:	414c                	lw	a1,4(a0)
    80002502:	7f00                	ld	s0,56(a4)
    80002504:	4105                	li	sp,1
    80002506:	833e8213          	addi	tp,t4,-1997 # ffffffffffffe833 <__global_pointer$+0xffffffff7fffba23>
    8000250a:	7c85                	lui	s9,0xfffe1
    8000250c:	a6e1                	j	800028d4 <_end+0x2c4>
    8000250e:	0965                	addi	s2,s2,25
    80002510:	31ba                	fld	ft3,424(sp)
    80002512:	ed04                	sd	s1,24(a0)
    80002514:	4cf0                	lw	a2,92(s1)
    80002516:	a052                	fsd	fs4,0(sp)
    80002518:	df1f 2721 0551      	0x5512721df1f
    8000251e:	2a94                	fld	fa3,16(a3)
    80002520:	373c                	fld	fa5,104(a4)
    80002522:	7584                	ld	s1,40(a1)
    80002524:	c4b4                	sw	a3,72(s1)
    80002526:	d8c2                	sw	a6,112(sp)
    80002528:	449a                	lw	s1,132(sp)
    8000252a:	01b6133b          	sllw	t1,a2,s11
    8000252e:	92464f7b          	0x92464f7b
    80002532:	c8a8                	sw	a0,80(s1)
    80002534:	f7c94147          	fmsub.q	ft2,fs2,ft8,ft10,rmm
    80002538:	1bd1                	addi	s7,s7,-12
    8000253a:	439a                	lw	t2,132(sp)
    8000253c:	9f68                	0x9f68
    8000253e:	ef2e                	sd	a1,408(sp)
    80002540:	b96d                	j	800021fa <reg_x31_output+0x2>
    80002542:	0412                	slli	s0,s0,0x4
    80002544:	28b6                	fld	fa7,328(sp)
    80002546:	cb20                	sw	s0,80(a4)
    80002548:	6c42                	ld	s8,16(sp)
    8000254a:	80b12873          	csrrs	a6,0x80b,sp
    8000254e:	9cee                	add	s9,s9,s11
    80002550:	2f71                	addiw	t5,t5,28
    80002552:	69a46d83          	lwu	s11,1690(s0) # 1069a <_start-0x7ffef966>
    80002556:	cc6c3553          	0xcc6c3553
    8000255a:	b949                	j	800021ec <reg_x29_output+0x4>
    8000255c:	9e7e                	add	t3,t3,t6
    8000255e:	42b9                	li	t0,14
    80002560:	357d                	addiw	a0,a0,-1
    80002562:	06f8                	addi	a4,sp,844
    80002564:	dc32                	sw	a2,56(sp)
    80002566:	27b76d03          	lwu	s10,635(a4)
    8000256a:	475411fb          	0x475411fb
    8000256e:	1539                	addi	a0,a0,-18
    80002570:	ddac                	sw	a1,120(a1)
    80002572:	088e                	slli	a7,a7,0x3
    80002574:	61bf5c07          	0x61bf5c07
    80002578:	7e95                	lui	t4,0xfffe5
    8000257a:	fc4a                	sd	s2,56(sp)
    8000257c:	997f                	0x997f
    8000257e:	38e8                	fld	fa0,240(s1)
    80002580:	090441cf          	fnmadd.s	ft3,fs0,fa6,ft1,rmm
    80002584:	efa6                	sd	s1,472(sp)
    80002586:	04e36777          	0x4e36777
    8000258a:	ec91f283          	0xec91f283
    8000258e:	8cfc                	0x8cfc
    80002590:	e26d                	bnez	a2,80002672 <_end+0x62>
    80002592:	274c                	fld	fa1,136(a4)
    80002594:	9105                	srli	a0,a0,0x21
    80002596:	9f75                	0x9f75
    80002598:	4295                	li	t0,5
    8000259a:	89c4                	0x89c4
    8000259c:	6fe6de0b          	0x6fe6de0b
    800025a0:	720a                	ld	tp,160(sp)
    800025a2:	2a94                	fld	fa3,16(a3)
    800025a4:	6b60                	ld	s0,208(a4)
    800025a6:	1a92ef43          	fmadd.d	ft10,ft5,fs1,ft3,unknown
    800025aa:	995d                	andi	a0,a0,-9
    800025ac:	f554                	sd	a3,168(a0)
    800025ae:	8a8a                	mv	s5,sp
    800025b0:	90ac                	0x90ac
    800025b2:	1a58                	addi	a4,sp,308
    800025b4:	a24a                	fsd	fs2,256(sp)
    800025b6:	9cd2                	add	s9,s9,s4
    800025b8:	dbdd                	beqz	a5,8000256e <test_memory+0x36e>
    800025ba:	ca95                	beqz	a3,800025ee <test_memory+0x3ee>
    800025bc:	12f2                	slli	t0,t0,0x3c
    800025be:	edcc                	sd	a1,152(a1)
    800025c0:	3b9a                	fld	fs7,416(sp)
    800025c2:	da75                	beqz	a2,800025b6 <test_memory+0x3b6>
    800025c4:	1819f603          	0x1819f603
    800025c8:	c0f4                	sw	a3,68(s1)
    800025ca:	1ef8cfa7          	fsq	fa5,511(a7)
    800025ce:	b0f1                	j	80001e9a <fromhost+0xe5a>
    800025d0:	7721f567          	0x7721f567
    800025d4:	d911                	beqz	a0,800024e8 <test_memory+0x2e8>
    800025d6:	e71a                	sd	t1,392(sp)
    800025d8:	817c                	0x817c
    800025da:	43a2                	lw	t2,8(sp)
    800025dc:	aabd                	j	8000275a <_end+0x14a>
    800025de:	1a12                	slli	s4,s4,0x24
    800025e0:	ea2e                	sd	a1,272(sp)
    800025e2:	df4a                	sw	s2,188(sp)
    800025e4:	cb08                	sw	a0,16(a4)
    800025e6:	b6a9                	j	80002130 <reg_x6_output>
    800025e8:	da1d                	beqz	a2,8000251e <test_memory+0x31e>
    800025ea:	fde6                	sd	s9,248(sp)
    800025ec:	79cd                	lui	s3,0xffff3
    800025ee:	7354                	ld	a3,160(a4)
    800025f0:	941e                	add	s0,s0,t2
    800025f2:	30a1                	addiw	ra,ra,-24
    800025f4:	0cad                	addi	s9,s9,11
    800025f6:	f9e1                	bnez	a1,800025c6 <test_memory+0x3c6>
    800025f8:	6ce72eab          	0x6ce72eab
    800025fc:	2624                	fld	fs1,72(a2)
    800025fe:	837a                	mv	t1,t5

0000000080002600 <loop_count>:
    80002600:	0040                	addi	s0,sp,4
	...

Disassembly of section .riscv.attributes:

0000000000000000 <.riscv.attributes>:
   0:	1e41                	addi	t3,t3,-16
   2:	0000                	unimp
   4:	7200                	ld	s0,32(a2)
   6:	7369                	lui	t1,0xffffa
   8:	01007663          	bgeu	zero,a6,14 <_start-0x7fffffec>
   c:	0014                	0x14
   e:	0000                	unimp
  10:	7205                	lui	tp,0xfffe1
  12:	3676                	fld	fa2,376(sp)
  14:	6934                	ld	a3,80(a0)
  16:	7032                	0x7032
  18:	5f30                	lw	a2,120(a4)
  1a:	326d                	addiw	tp,tp,-5
  1c:	3070                	fld	fa2,224(s0)
	...
