
build/test80:     file format elf64-littleriscv


Disassembly of section .text.init:

0000000080000000 <_start>:
    80000000:	05c0006f          	j	8000005c <reset_vector>

0000000080000004 <trap_vector>:
    80000004:	34202f73          	csrr	t5,mcause
    80000008:	00800f93          	li	t6,8
    8000000c:	03ff0a63          	beq	t5,t6,80000040 <write_tohost>
    80000010:	00900f93          	li	t6,9
    80000014:	03ff0663          	beq	t5,t6,80000040 <write_tohost>
    80000018:	00b00f93          	li	t6,11
    8000001c:	03ff0263          	beq	t5,t6,80000040 <write_tohost>
    80000020:	80000f17          	auipc	t5,0x80000
    80000024:	fe0f0f13          	addi	t5,t5,-32 # 0 <_start-0x80000000>
    80000028:	000f0463          	beqz	t5,80000030 <trap_vector+0x2c>
    8000002c:	000f0067          	jr	t5
    80000030:	34202f73          	csrr	t5,mcause
    80000034:	000f5463          	bgez	t5,8000003c <handle_exception>
    80000038:	0040006f          	j	8000003c <handle_exception>

000000008000003c <handle_exception>:
    8000003c:	5391e193          	ori	gp,gp,1337

0000000080000040 <write_tohost>:
    80000040:	00001f17          	auipc	t5,0x1
    80000044:	fc3f2023          	sw	gp,-64(t5) # 80001000 <tohost>
    80000048:	000902b7          	lui	t0,0x90
    8000004c:	0012829b          	addiw	t0,t0,1
    80000050:	00c29293          	slli	t0,t0,0xc
    80000054:	0002af83          	lw	t6,0(t0) # 90000 <_start-0x7ff70000>
    80000058:	fe9ff06f          	j	80000040 <write_tohost>

000000008000005c <reset_vector>:
    8000005c:	00000093          	li	ra,0
    80000060:	00000113          	li	sp,0
    80000064:	00000193          	li	gp,0
    80000068:	00000213          	li	tp,0
    8000006c:	00000293          	li	t0,0
    80000070:	00000313          	li	t1,0
    80000074:	00000393          	li	t2,0
    80000078:	00000413          	li	s0,0
    8000007c:	00000493          	li	s1,0
    80000080:	00000513          	li	a0,0
    80000084:	00000593          	li	a1,0
    80000088:	00000613          	li	a2,0
    8000008c:	00000693          	li	a3,0
    80000090:	00000713          	li	a4,0
    80000094:	00000793          	li	a5,0
    80000098:	00000813          	li	a6,0
    8000009c:	00000893          	li	a7,0
    800000a0:	00000913          	li	s2,0
    800000a4:	00000993          	li	s3,0
    800000a8:	00000a13          	li	s4,0
    800000ac:	00000a93          	li	s5,0
    800000b0:	00000b13          	li	s6,0
    800000b4:	00000b93          	li	s7,0
    800000b8:	00000c13          	li	s8,0
    800000bc:	00000c93          	li	s9,0
    800000c0:	00000d13          	li	s10,0
    800000c4:	00000d93          	li	s11,0
    800000c8:	00000e13          	li	t3,0
    800000cc:	00000e93          	li	t4,0
    800000d0:	00000f13          	li	t5,0
    800000d4:	00000f93          	li	t6,0
    800000d8:	f1402573          	csrr	a0,mhartid
    800000dc:	00051063          	bnez	a0,800000dc <reset_vector+0x80>
    800000e0:	00000297          	auipc	t0,0x0
    800000e4:	01028293          	addi	t0,t0,16 # 800000f0 <reset_vector+0x94>
    800000e8:	30529073          	csrw	mtvec,t0
    800000ec:	18005073          	csrwi	satp,0
    800000f0:	00000297          	auipc	t0,0x0
    800000f4:	02428293          	addi	t0,t0,36 # 80000114 <reset_vector+0xb8>
    800000f8:	30529073          	csrw	mtvec,t0
    800000fc:	0010029b          	addiw	t0,zero,1
    80000100:	03529293          	slli	t0,t0,0x35
    80000104:	fff28293          	addi	t0,t0,-1
    80000108:	3b029073          	csrw	pmpaddr0,t0
    8000010c:	01f00293          	li	t0,31
    80000110:	3a029073          	csrw	pmpcfg0,t0
    80000114:	30405073          	csrwi	mie,0
    80000118:	00000297          	auipc	t0,0x0
    8000011c:	01428293          	addi	t0,t0,20 # 8000012c <reset_vector+0xd0>
    80000120:	30529073          	csrw	mtvec,t0
    80000124:	30205073          	csrwi	medeleg,0
    80000128:	30305073          	csrwi	mideleg,0
    8000012c:	00000193          	li	gp,0
    80000130:	00000297          	auipc	t0,0x0
    80000134:	ed428293          	addi	t0,t0,-300 # 80000004 <trap_vector>
    80000138:	30529073          	csrw	mtvec,t0
    8000013c:	00100513          	li	a0,1
    80000140:	01f51513          	slli	a0,a0,0x1f
    80000144:	00055c63          	bgez	a0,8000015c <reset_vector+0x100>
    80000148:	0ff0000f          	fence
    8000014c:	00100193          	li	gp,1
    80000150:	05d00893          	li	a7,93
    80000154:	00000513          	li	a0,0
    80000158:	00000073          	ecall
    8000015c:	80000297          	auipc	t0,0x80000
    80000160:	ea428293          	addi	t0,t0,-348 # 0 <_start-0x80000000>
    80000164:	00028a63          	beqz	t0,80000178 <reset_vector+0x11c>
    80000168:	10529073          	csrw	stvec,t0
    8000016c:	0000b2b7          	lui	t0,0xb
    80000170:	1092829b          	addiw	t0,t0,265
    80000174:	30229073          	csrw	medeleg,t0
    80000178:	30005073          	csrwi	mstatus,0
    8000017c:	00000297          	auipc	t0,0x0
    80000180:	01428293          	addi	t0,t0,20 # 80000190 <reset_vector+0x134>
    80000184:	34129073          	csrw	mepc,t0
    80000188:	f1402573          	csrr	a0,mhartid
    8000018c:	30200073          	mret
    80000190:	0200006f          	j	800001b0 <test_start>

0000000080000194 <crash_backward>:
    80000194:	0ff0000f          	fence
    80000198:	00018063          	beqz	gp,80000198 <crash_backward+0x4>
    8000019c:	00119193          	slli	gp,gp,0x1
    800001a0:	0011e193          	ori	gp,gp,1
    800001a4:	05d00893          	li	a7,93
    800001a8:	00018513          	mv	a0,gp
    800001ac:	00000073          	ecall

00000000800001b0 <test_start>:
    800001b0:	00002f97          	auipc	t6,0x2
    800001b4:	e50f8f93          	addi	t6,t6,-432 # 80002000 <hidden_data>
    800001b8:	000fb003          	ld	zero,0(t6)
    800001bc:	008fb083          	ld	ra,8(t6)
    800001c0:	010fb103          	ld	sp,16(t6)
    800001c4:	018fb183          	ld	gp,24(t6)
    800001c8:	020fb203          	ld	tp,32(t6)
    800001cc:	028fb283          	ld	t0,40(t6)
    800001d0:	030fb303          	ld	t1,48(t6)
    800001d4:	038fb383          	ld	t2,56(t6)
    800001d8:	040fb403          	ld	s0,64(t6)
    800001dc:	048fb483          	ld	s1,72(t6)
    800001e0:	050fb503          	ld	a0,80(t6)
    800001e4:	058fb583          	ld	a1,88(t6)
    800001e8:	060fb603          	ld	a2,96(t6)
    800001ec:	068fb683          	ld	a3,104(t6)
    800001f0:	070fb703          	ld	a4,112(t6)
    800001f4:	078fb783          	ld	a5,120(t6)
    800001f8:	080fb803          	ld	a6,128(t6)
    800001fc:	088fb883          	ld	a7,136(t6)
    80000200:	090fb903          	ld	s2,144(t6)
    80000204:	098fb983          	ld	s3,152(t6)
    80000208:	0a0fba03          	ld	s4,160(t6)
    8000020c:	0a8fba83          	ld	s5,168(t6)
    80000210:	0b0fbb03          	ld	s6,176(t6)
    80000214:	0b8fbb83          	ld	s7,184(t6)
    80000218:	0c0fbc03          	ld	s8,192(t6)
    8000021c:	0c8fbc83          	ld	s9,200(t6)
    80000220:	0d0fbd03          	ld	s10,208(t6)
    80000224:	0d8fbd83          	ld	s11,216(t6)
    80000228:	0e0fbe03          	ld	t3,224(t6)
    8000022c:	0e8fbe83          	ld	t4,232(t6)
    80000230:	0f0fbf03          	ld	t5,240(t6)
    80000234:	0f8fbf83          	ld	t6,248(t6)
    80000238:	0040006f          	j	8000023c <pseg_0>

000000008000023c <pseg_0>:
    8000023c:	bf200913          	li	s2,-1038
    80000240:	029c0e33          	mul	t3,s8,s1
    80000244:	03290bb3          	mul	s7,s2,s2
    80000248:	03ef7ebb          	remuw	t4,t5,t5
    8000024c:	00100693          	li	a3,1
    80000250:	00002197          	auipc	gp,0x2
    80000254:	0ad18193          	addi	gp,gp,173 # 800022fd <test_memory+0xfd>
    80000258:	00002617          	auipc	a2,0x2
    8000025c:	e3660613          	addi	a2,a2,-458 # 8000208e <reg_x17_init+0x6>
    80000260:	d3400113          	li	sp,-716
    80000264:	e3600593          	li	a1,-458
    80000268:	02b5d233          	divu	tp,a1,a1
    8000026c:	00002797          	auipc	a5,0x2
    80000270:	89778793          	addi	a5,a5,-1897 # 80001b03 <fromhost+0xac3>
    80000274:	4110d73b          	sraw	a4,ra,a7
    80000278:	03f69693          	slli	a3,a3,0x3f
    8000027c:	01ef5a3b          	srlw	s4,t5,t5
    80000280:	3d700993          	li	s3,983
    80000284:	5dd00d13          	li	s10,1501
    80000288:	3a298f13          	addi	t5,s3,930
    8000028c:	02214ab3          	div	s5,sp,sp
    80000290:	e7f00413          	li	s0,-385
    80000294:	6e006a63          	bltu	zero,zero,80000988 <crash_forward>
    80000298:	acd00813          	li	a6,-1331
    8000029c:	af500493          	li	s1,-1291
    800002a0:	9a500e93          	li	t4,-1627
    800002a4:	6f3f6263          	bltu	t5,s3,80000988 <crash_forward>
    800002a8:	fcc00d93          	li	s11,-52
    800002ac:	f3f1ab03          	lw	s6,-193(gp) # 80002d4f <_end+0x73f>
    800002b0:	1b160623          	sb	a7,428(a2)
    800002b4:	00002517          	auipc	a0,0x2
    800002b8:	5ff50513          	addi	a0,a0,1535 # 800028b3 <_end+0x2a3>
    800002bc:	01dad3b3          	srl	t2,s5,t4
    800002c0:	fff00293          	li	t0,-1
    800002c4:	97b506a3          	sb	s11,-1683(a0)
    800002c8:	41bd08b3          	sub	a7,s10,s11
    800002cc:	1dc00913          	li	s2,476
    800002d0:	71f7d083          	lhu	ra,1823(a5)
    800002d4:	11500e13          	li	t3,277
    800002d8:	02915333          	divu	t1,sp,s1
    800002dc:	3ee00a93          	li	s5,1006
    800002e0:	86900593          	li	a1,-1943
    800002e4:	03040cbb          	mulw	s9,s0,a6
    800002e8:	00d2c2b3          	xor	t0,t0,a3
    800002ec:	55f00993          	li	s3,1375
    800002f0:	c7900d93          	li	s11,-903
    800002f4:	0051ffb3          	and	t6,gp,t0
    800002f8:	02b92233          	mulhsu	tp,s2,a1
    800002fc:	58900313          	li	t1,1417
    80000300:	01ffdb33          	srl	s6,t6,t6
    80000304:	032905b3          	mul	a1,s2,s2
    80000308:	013a973b          	sllw	a4,s5,s3
    8000030c:	00100613          	li	a2,1
    80000310:	63500a13          	li	s4,1589
    80000314:	021099b3          	mulh	s3,ra,ra
    80000318:	98200213          	li	tp,-1662
    8000031c:	f9e00093          	li	ra,-98
    80000320:	70730413          	addi	s0,t1,1799
    80000324:	00000113          	li	sp,0
    80000328:	2bb00893          	li	a7,699
    8000032c:	00002717          	auipc	a4,0x2
    80000330:	34a70713          	addi	a4,a4,842 # 80002676 <_end+0x66>
    80000334:	00000513          	li	a0,0
    80000338:	e8d00a93          	li	s5,-371
    8000033c:	01cebbb3          	sltu	s7,t4,t3
    80000340:	02120933          	mul	s2,tp,ra
    80000344:	babd8393          	addi	t2,s11,-1109
    80000348:	415a55bb          	sraw	a1,s4,s5
    8000034c:	00d86c33          	or	s8,a6,a3
    80000350:	00002997          	auipc	s3,0x2
    80000354:	75998993          	addi	s3,s3,1881 # 80002aa9 <_end+0x499>
    80000358:	c8b00d13          	li	s10,-885
    8000035c:	d6874b03          	lbu	s6,-664(a4)
    80000360:	00002217          	auipc	tp,0x2
    80000364:	c3520213          	addi	tp,tp,-971 # 80001f95 <fromhost+0xf55>
    80000368:	3d100e13          	li	t3,977
    8000036c:	00002117          	auipc	sp,0x2
    80000370:	04910113          	addi	sp,sp,73 # 800023b5 <test_memory+0x1b5>
    80000374:	c9e73f93          	sltiu	t6,a4,-866
    80000378:	03ad3cb3          	mulhu	s9,s10,s10
    8000037c:	1cc00a93          	li	s5,460
    80000380:	e9315b83          	lhu	s7,-365(sp)
    80000384:	f4700c13          	li	s8,-185
    80000388:	a3600f13          	li	t5,-1482
    8000038c:	68000593          	li	a1,1664
    80000390:	418e0eb3          	sub	t4,t3,s8
    80000394:	574235a3          	sd	s4,1387(tp) # 56b <_start-0x7ffffa95>
    80000398:	51700293          	li	t0,1303
    8000039c:	9209b7a3          	sd	zero,-1745(s3)
    800003a0:	00e76333          	or	t1,a4,a4
    800003a4:	40a5543b          	sraw	s0,a0,a0
    800003a8:	08000d93          	li	s11,128
    800003ac:	03f61613          	slli	a2,a2,0x3f
    800003b0:	00515bb3          	srl	s7,sp,t0
    800003b4:	00100113          	li	sp,1
    800003b8:	03e8b833          	mulhu	a6,a7,t5
    800003bc:	00002517          	auipc	a0,0x2
    800003c0:	a7750513          	addi	a0,a0,-1417 # 80001e33 <fromhost+0xdf3>
    800003c4:	00002717          	auipc	a4,0x2
    800003c8:	89570713          	addi	a4,a4,-1899 # 80001c59 <fromhost+0xc19>
    800003cc:	a7a78b13          	addi	s6,a5,-1414
    800003d0:	29300393          	li	t2,659
    800003d4:	03b2ea33          	rem	s4,t0,s11
    800003d8:	0244beb3          	mulhu	t4,s1,tp
    800003dc:	c3100213          	li	tp,-975
    800003e0:	03ffbbb3          	mulhu	s7,t6,t6
    800003e4:	00010693          	mv	a3,sp
    800003e8:	02bab933          	mulhu	s2,s5,a1
    800003ec:	00068093          	mv	ra,a3
    800003f0:	01c59d13          	slli	s10,a1,0x1c
    800003f4:	0242433b          	divw	t1,tp,tp
    800003f8:	22338f93          	addi	t6,t2,547
    800003fc:	00100d93          	li	s11,1
    80000400:	c5db899b          	addiw	s3,s7,-931
    80000404:	02211333          	mulh	t1,sp,sp
    80000408:	59f3d063          	bge	t2,t6,80000988 <crash_forward>
    8000040c:	03fd9d93          	slli	s11,s11,0x3f
    80000410:	23500b13          	li	s6,565
    80000414:	f7000593          	li	a1,-144
    80000418:	6e376403          	lwu	s0,1763(a4)
    8000041c:	016b4eb3          	xor	t4,s6,s6
    80000420:	67900a93          	li	s5,1657
    80000424:	fff00493          	li	s1,-1
    80000428:	61a00b93          	li	s7,1562
    8000042c:	037bdf3b          	divuw	t5,s7,s7
    80000430:	eca58213          	addi	tp,a1,-310
    80000434:	fff00813          	li	a6,-1
    80000438:	5fc532a3          	sd	t3,1509(a0)
    8000043c:	00c4c4b3          	xor	s1,s1,a2
    80000440:	54458463          	beq	a1,tp,80000988 <crash_forward>
    80000444:	01b84833          	xor	a6,a6,s11
    80000448:	e6200713          	li	a4,-414
    8000044c:	02844a3b          	divw	s4,s0,s0
    80000450:	0102f2b3          	and	t0,t0,a6
    80000454:	03295f33          	divu	t5,s2,s2
    80000458:	0118ba33          	sltu	s4,a7,a7
    8000045c:	bd018f93          	addi	t6,gp,-1072 # 800029e0 <_end+0x3d0>
    80000460:	03f11113          	slli	sp,sp,0x3f
    80000464:	01295d3b          	srlw	s10,s2,s2
    80000468:	d5500993          	li	s3,-683
    8000046c:	fff00e13          	li	t3,-1
    80000470:	45b00e93          	li	t4,1115
    80000474:	1ff00693          	li	a3,511
    80000478:	00100f93          	li	t6,1
    8000047c:	0c700b93          	li	s7,199
    80000480:	7d3b8b13          	addi	s6,s7,2003
    80000484:	0118c333          	xor	t1,a7,a7
    80000488:	03ff9f93          	slli	t6,t6,0x3f
    8000048c:	009b71b3          	and	gp,s6,s1
    80000490:	00c1e7b3          	or	a5,gp,a2
    80000494:	2d132f13          	slti	t5,t1,721
    80000498:	00d980bb          	addw	ra,s3,a3
    8000049c:	fff00213          	li	tp,-1
    800004a0:	4ef18463          	beq	gp,a5,80000988 <crash_forward>
    800004a4:	01b2e8b3          	or	a7,t0,s11
    800004a8:	01d7553b          	srlw	a0,a4,t4
    800004ac:	002e4e33          	xor	t3,t3,sp
    800004b0:	01f24233          	xor	tp,tp,t6
    800004b4:	ff700613          	li	a2,-9
    800004b8:	004875b3          	and	a1,a6,tp
    800004bc:	027c57bb          	divuw	a5,s8,t2
    800004c0:	00000313          	li	t1,0
    800004c4:	90c00493          	li	s1,-1780
    800004c8:	00c63db3          	sltu	s11,a2,a2
    800004cc:	00002a17          	auipc	s4,0x2
    800004d0:	6aaa0a13          	addi	s4,s4,1706 # 80002b76 <_end+0x566>
    800004d4:	01ccfcb3          	and	s9,s9,t3
    800004d8:	0023ec33          	or	s8,t2,sp
    800004dc:	65600393          	li	t2,1622
    800004e0:	98ea2703          	lw	a4,-1650(s4)
    800004e4:	cb8cf8e3          	bgeu	s9,s8,80000194 <crash_backward>
    800004e8:	55e00993          	li	s3,1374
    800004ec:	00000b13          	li	s6,0
    800004f0:	0073d433          	srl	s0,t2,t2
    800004f4:	2fb00c13          	li	s8,763
    800004f8:	0094df33          	srl	t5,s1,s1
    800004fc:	4bf00193          	li	gp,1215
    80000500:	c9636ae3          	bltu	t1,s6,80000194 <crash_backward>
    80000504:	00100713          	li	a4,1
    80000508:	00000293          	li	t0,0
    8000050c:	f8100f13          	li	t5,-127
    80000510:	da600693          	li	a3,-602
    80000514:	7e200893          	li	a7,2018
    80000518:	0139bbb3          	sltu	s7,s3,s3
    8000051c:	035ac933          	div	s2,s5,s5
    80000520:	01ffe4b3          	or	s1,t6,t6
    80000524:	00d6b533          	sltu	a0,a3,a3
    80000528:	003c2133          	slt	sp,s8,gp
    8000052c:	01f26d33          	or	s10,tp,t6
    80000530:	00002697          	auipc	a3,0x2
    80000534:	a5f68693          	addi	a3,a3,-1441 # 80001f8f <fromhost+0xf4f>
    80000538:	3d56d503          	lhu	a0,981(a3)
    8000053c:	44bd5663          	bge	s10,a1,80000988 <crash_forward>
    80000540:	03d3dabb          	divuw	s5,t2,t4
    80000544:	9fa00c93          	li	s9,-1542
    80000548:	00000813          	li	a6,0
    8000054c:	0129563b          	srlw	a2,s2,s2
    80000550:	df600313          	li	t1,-522
    80000554:	03f71713          	slli	a4,a4,0x3f
    80000558:	fff00d93          	li	s11,-1
    8000055c:	a8800b13          	li	s6,-1400
    80000560:	02b11bb3          	mulh	s7,sp,a1
    80000564:	60300213          	li	tp,1539
    80000568:	4302e063          	bltu	t0,a6,80000988 <crash_forward>
    8000056c:	00edcdb3          	xor	s11,s11,a4
    80000570:	01ef7433          	and	s0,t5,t5
    80000574:	00100c13          	li	s8,1
    80000578:	036363bb          	remw	t2,t1,s6
    8000057c:	8db00f93          	li	t6,-1829
    80000580:	411700b3          	sub	ra,a4,a7
    80000584:	03ffbab3          	mulhu	s5,t6,t6
    80000588:	00002997          	auipc	s3,0x2
    8000058c:	c5c98993          	addi	s3,s3,-932 # 800021e4 <reg_x28_output+0x4>
    80000590:	00002917          	auipc	s2,0x2
    80000594:	b7790913          	addi	s2,s2,-1161 # 80002107 <begin_signature+0x7>
    80000598:	42e00d13          	li	s10,1070
    8000059c:	03fc1c13          	slli	s8,s8,0x3f
    800005a0:	00000813          	li	a6,0
    800005a4:	00a52eb3          	slt	t4,a0,a0
    800005a8:	fff00613          	li	a2,-1
    800005ac:	00002b17          	auipc	s6,0x2
    800005b0:	415b0b13          	addi	s6,s6,1045 # 800029c1 <_end+0x3b1>
    800005b4:	a29b4303          	lbu	t1,-1495(s6)
    800005b8:	4049b683          	ld	a3,1028(s3)
    800005bc:	01a26533          	or	a0,tp,s10
    800005c0:	01b8fa33          	and	s4,a7,s11
    800005c4:	01864633          	xor	a2,a2,s8
    800005c8:	ec500413          	li	s0,-315
    800005cc:	03988e33          	mul	t3,a7,s9
    800005d0:	00ea67b3          	or	a5,s4,a4
    800005d4:	00cd75b3          	and	a1,s10,a2
    800005d8:	40218d33          	sub	s10,gp,sp
    800005dc:	fb900213          	li	tp,-71
    800005e0:	65600f93          	li	t6,1622
    800005e4:	b3f20693          	addi	a3,tp,-1217 # fffffffffffffb3f <__global_pointer$+0xffffffff7fffcd2f>
    800005e8:	00000a93          	li	s5,0
    800005ec:	028442bb          	divw	t0,s0,s0
    800005f0:	cff00b93          	li	s7,-769
    800005f4:	9fd00513          	li	a0,-1539
    800005f8:	0129533b          	srlw	t1,s2,s2
    800005fc:	b846fce3          	bgeu	a3,tp,80000194 <crash_backward>
    80000600:	417b813b          	subw	sp,s7,s7
    80000604:	40485393          	srai	t2,a6,0x4
    80000608:	00a55b3b          	srlw	s6,a0,a0
    8000060c:	00108a3b          	addw	s4,ra,ra
    80000610:	00002297          	auipc	t0,0x2
    80000614:	0e828293          	addi	t0,t0,232 # 800026f8 <_end+0xe8>
    80000618:	00002217          	auipc	tp,0x2
    8000061c:	57e20213          	addi	tp,tp,1406 # 80002b96 <_end+0x586>
    80000620:	96000113          	li	sp,-1696
    80000624:	25192483          	lw	s1,593(s2)
    80000628:	00002e97          	auipc	t4,0x2
    8000062c:	c02e8e93          	addi	t4,t4,-1022 # 8000222a <test_memory+0x2a>
    80000630:	03979d13          	slli	s10,a5,0x39
    80000634:	55200513          	li	a0,1362
    80000638:	03293433          	mulhu	s0,s2,s2
    8000063c:	02aab6b3          	mulhu	a3,s5,a0
    80000640:	0d6ece03          	lbu	t3,214(t4)
    80000644:	0184e1b3          	or	gp,s1,s8
    80000648:	d982bb03          	ld	s6,-616(t0)
    8000064c:	02a13bb3          	mulhu	s7,sp,a0
    80000650:	f6b00f13          	li	t5,-149
    80000654:	00313db3          	sltu	s11,sp,gp
    80000658:	00000793          	li	a5,0
    8000065c:	6f400513          	li	a0,1780
    80000660:	47200113          	li	sp,1138
    80000664:	e0d00693          	li	a3,-499
    80000668:	41ff84b3          	sub	s1,t6,t6
    8000066c:	027d2633          	mulhsu	a2,s10,t2
    80000670:	01efd0bb          	srlw	ra,t6,t5
    80000674:	faa68c13          	addi	s8,a3,-86
    80000678:	60d50413          	addi	s0,a0,1549
    8000067c:	b6000c93          	li	s9,-1184
    80000680:	3186e463          	bltu	a3,s8,80000988 <crash_forward>
    80000684:	69452593          	slti	a1,a0,1684
    80000688:	a2c00d13          	li	s10,-1492
    8000068c:	03200993          	li	s3,50
    80000690:	0278bab3          	mulhu	s5,a7,t2
    80000694:	bd200e13          	li	t3,-1070
    80000698:	6eb00913          	li	s2,1771
    8000069c:	032e7a3b          	remuw	s4,t3,s2
    800006a0:	2e857463          	bgeu	a0,s0,80000988 <crash_forward>
    800006a4:	8fb22d23          	sw	s11,-1798(tp) # fffffffffffff8fa <__global_pointer$+0xffffffff7fffcaea>
    800006a8:	93800713          	li	a4,-1736
    800006ac:	add00493          	li	s1,-1315
    800006b0:	00000e93          	li	t4,0
    800006b4:	00e72333          	slt	t1,a4,a4
    800006b8:	033ce8bb          	remw	a7,s9,s3
    800006bc:	aaf00093          	li	ra,-1361
    800006c0:	c4300b93          	li	s7,-957
    800006c4:	01ad1dbb          	sllw	s11,s10,s10
    800006c8:	03295cb3          	divu	s9,s2,s2
    800006cc:	add7c4e3          	blt	a5,t4,80000194 <crash_backward>
    800006d0:	017141b3          	xor	gp,sp,s7
    800006d4:	db800713          	li	a4,-584
    800006d8:	0139983b          	sllw	a6,s3,s3
    800006dc:	26400893          	li	a7,612
    800006e0:	32100413          	li	s0,801
    800006e4:	0318d333          	divu	t1,a7,a7
    800006e8:	41f00593          	li	a1,1055
    800006ec:	026323b3          	mulhsu	t2,t1,t1
    800006f0:	0073c7b3          	xor	a5,t2,t2
    800006f4:	bfb00b93          	li	s7,-1029
    800006f8:	00b5d63b          	srlw	a2,a1,a1
    800006fc:	037bb833          	mulhu	a6,s7,s7
    80000700:	00847b33          	and	s6,s0,s0
    80000704:	43200293          	li	t0,1074
    80000708:	010e533b          	srlw	t1,t3,a6
    8000070c:	025729b3          	mulhsu	s3,a4,t0
    80000710:	75000393          	li	t2,1872
    80000714:	00002e17          	auipc	t3,0x2
    80000718:	bf7e0e13          	addi	t3,t3,-1033 # 8000230b <test_memory+0x10b>
    8000071c:	72200f93          	li	t6,1826
    80000720:	0014bf33          	sltu	t5,s1,ra
    80000724:	c2000893          	li	a7,-992
    80000728:	00300d93          	li	s11,3
    8000072c:	25ef1e63          	bne	t5,t5,80000988 <crash_forward>
    80000730:	05200693          	li	a3,82
    80000734:	41e00293          	li	t0,1054
    80000738:	03bddeb3          	divu	t4,s11,s11
    8000073c:	02dfcc33          	div	s8,t6,a3
    80000740:	0cf00913          	li	s2,207
    80000744:	35028b13          	addi	s6,t0,848
    80000748:	02d8f0b3          	remu	ra,a7,a3
    8000074c:	03290a3b          	mulw	s4,s2,s2
    80000750:	00100713          	li	a4,1
    80000754:	03f71713          	slli	a4,a4,0x3f
    80000758:	00000413          	li	s0,0
    8000075c:	0161949b          	slliw	s1,gp,0x16
    80000760:	2b5e6203          	lwu	tp,693(t3)
    80000764:	017be5b3          	or	a1,s7,s7
    80000768:	a36286e3          	beq	t0,s6,80000194 <crash_backward>
    8000076c:	fff00993          	li	s3,-1
    80000770:	8ec00a93          	li	s5,-1812
    80000774:	00e9c9b3          	xor	s3,s3,a4
    80000778:	031381bb          	mulw	gp,t2,a7
    8000077c:	01001113          	slli	sp,zero,0x10
    80000780:	4168533b          	sraw	t1,a6,s6
    80000784:	00040813          	mv	a6,s0
    80000788:	a2600a13          	li	s4,-1498
    8000078c:	013e7cb3          	and	s9,t3,s3
    80000790:	6c300593          	li	a1,1731
    80000794:	07370793          	addi	a5,a4,115
    80000798:	02ba6233          	rem	tp,s4,a1
    8000079c:	d2600393          	li	t2,-730
    800007a0:	418e54bb          	sraw	s1,t3,s8
    800007a4:	3d600a13          	li	s4,982
    800007a8:	15200893          	li	a7,338
    800007ac:	82c00693          	li	a3,-2004
    800007b0:	00e66633          	or	a2,a2,a4
    800007b4:	0339de3b          	divuw	t3,s3,s3
    800007b8:	31ea0793          	addi	a5,s4,798
    800007bc:	0210fbbb          	remuw	s7,ra,ra
    800007c0:	9d47cae3          	blt	a5,s4,80000194 <crash_backward>
    800007c4:	6d600d93          	li	s11,1750
    800007c8:	0210ec3b          	remw	s8,ra,ra
    800007cc:	024dd5b3          	divu	a1,s11,tp
    800007d0:	0118df33          	srl	t5,a7,a7
    800007d4:	ceca8513          	addi	a0,s5,-788
    800007d8:	12426d13          	ori	s10,tp,292
    800007dc:	40d68133          	sub	sp,a3,a3
    800007e0:	9bbdeae3          	bltu	s11,s11,80000194 <crash_backward>
    800007e4:	4fa00493          	li	s1,1274
    800007e8:	01188b33          	add	s6,a7,a7
    800007ec:	0041561b          	srliw	a2,sp,0x4
    800007f0:	21d48593          	addi	a1,s1,541
    800007f4:	6a800413          	li	s0,1704
    800007f8:	1244ad13          	slti	s10,s1,292
    800007fc:	38f00513          	li	a0,911
    80000800:	f8800113          	li	sp,-120
    80000804:	413a5693          	srai	a3,s4,0x13
    80000808:	40250bb3          	sub	s7,a0,sp
    8000080c:	7bd00c93          	li	s9,1981
    80000810:	00002797          	auipc	a5,0x2
    80000814:	c4478793          	addi	a5,a5,-956 # 80002454 <test_memory+0x254>
    80000818:	5b700d13          	li	s10,1463
    8000081c:	03eb6bb3          	rem	s7,s6,t5
    80000820:	00002e97          	auipc	t4,0x2
    80000824:	ce0e8e93          	addi	t4,t4,-800 # 80002500 <test_memory+0x300>
    80000828:	fdb4c693          	xori	a3,s1,-37
    8000082c:	03b3c2b3          	div	t0,t2,s11
    80000830:	d2400513          	li	a0,-732
    80000834:	00a54133          	xor	sp,a0,a0
    80000838:	18f00313          	li	t1,399
    8000083c:	00840a3b          	addw	s4,s0,s0
    80000840:	00000593          	li	a1,0
    80000844:	03ad1633          	mulh	a2,s10,s10
    80000848:	019c9c3b          	sllw	s8,s9,s9
    8000084c:	c1a00713          	li	a4,-998
    80000850:	aa200b13          	li	s6,-1374
    80000854:	016b28b3          	slt	a7,s6,s6
    80000858:	00a6df13          	srli	t5,a3,0xa
    8000085c:	dbc00e13          	li	t3,-580
    80000860:	0207753b          	remuw	a0,a4,zero
    80000864:	00058d93          	mv	s11,a1
    80000868:	e0100193          	li	gp,-511
    8000086c:	80300213          	li	tp,-2045
    80000870:	93d00513          	li	a0,-1731
    80000874:	40d00c13          	li	s8,1037
    80000878:	023780a3          	sb	gp,33(a5)
    8000087c:	01850633          	add	a2,a0,s8
    80000880:	e4200493          	li	s1,-446
    80000884:	c8400c93          	li	s9,-892
    80000888:	3af00993          	li	s3,943
    8000088c:	72600f13          	li	t5,1830
    80000890:	0033193b          	sllw	s2,t1,gp
    80000894:	00001f97          	auipc	t6,0x1
    80000898:	401f8f93          	addi	t6,t6,1025 # 80001c95 <fromhost+0xc55>
    8000089c:	baa48113          	addi	sp,s1,-1110
    800008a0:	00d998b3          	sll	a7,s3,a3
    800008a4:	00002297          	auipc	t0,0x2
    800008a8:	95228293          	addi	t0,t0,-1710 # 800021f6 <reg_x30_output+0x6>
    800008ac:	01ec8d33          	add	s10,s9,t5
    800008b0:	41375ab3          	sra	s5,a4,s3
    800008b4:	033b7b33          	remu	s6,s6,s3
    800008b8:	404e5833          	sra	a6,t3,tp
    800008bc:	d8b00a13          	li	s4,-629
    800008c0:	18b29e23          	sh	a1,412(t0)
    800008c4:	42f00a93          	li	s5,1071
    800008c8:	4e400393          	li	t2,1252
    800008cc:	6f8f83a3          	sb	s8,1767(t6)
    800008d0:	32f00b93          	li	s7,815
    800008d4:	035aec3b          	remw	s8,s5,s5
    800008d8:	017a3433          	sltu	s0,s4,s7
    800008dc:	e78eb083          	ld	ra,-392(t4)
    800008e0:	ca100f13          	li	t5,-863
    800008e4:	0073c6b3          	xor	a3,t2,t2
    800008e8:	ca700813          	li	a6,-857
    800008ec:	010f0cb3          	add	s9,t5,a6
    800008f0:	02400133          	mul	sp,zero,tp
    800008f4:	0040006f          	j	800008f8 <reg_dump>

00000000800008f8 <reg_dump>:
    800008f8:	00002097          	auipc	ra,0x2
    800008fc:	d0808093          	addi	ra,ra,-760 # 80002600 <loop_count>
    80000900:	0000a103          	lw	sp,0(ra)
    80000904:	fff10193          	addi	gp,sp,-1
    80000908:	0030a023          	sw	gp,0(ra)
    8000090c:	920118e3          	bnez	sp,8000023c <pseg_0>
    80000910:	00001097          	auipc	ra,0x1
    80000914:	7f008093          	addi	ra,ra,2032 # 80002100 <begin_signature>
    80000918:	0000b023          	sd	zero,0(ra)
    8000091c:	0020b823          	sd	sp,16(ra)
    80000920:	0030bc23          	sd	gp,24(ra)
    80000924:	0240b023          	sd	tp,32(ra)
    80000928:	0260b823          	sd	t1,48(ra)
    8000092c:	0270bc23          	sd	t2,56(ra)
    80000930:	0480b023          	sd	s0,64(ra)
    80000934:	0490b423          	sd	s1,72(ra)
    80000938:	04a0b823          	sd	a0,80(ra)
    8000093c:	04b0bc23          	sd	a1,88(ra)
    80000940:	06c0b023          	sd	a2,96(ra)
    80000944:	06d0b423          	sd	a3,104(ra)
    80000948:	06e0b823          	sd	a4,112(ra)
    8000094c:	0900b023          	sd	a6,128(ra)
    80000950:	0910b423          	sd	a7,136(ra)
    80000954:	0920b823          	sd	s2,144(ra)
    80000958:	0930bc23          	sd	s3,152(ra)
    8000095c:	0b40b023          	sd	s4,160(ra)
    80000960:	0b50b423          	sd	s5,168(ra)
    80000964:	0b60b823          	sd	s6,176(ra)
    80000968:	0b70bc23          	sd	s7,184(ra)
    8000096c:	0d80b023          	sd	s8,192(ra)
    80000970:	0d90b423          	sd	s9,200(ra)
    80000974:	0da0b823          	sd	s10,208(ra)
    80000978:	0db0bc23          	sd	s11,216(ra)
    8000097c:	0fc0b023          	sd	t3,224(ra)
    80000980:	0fe0b823          	sd	t5,240(ra)
    80000984:	0200006f          	j	800009a4 <test_end>

0000000080000988 <crash_forward>:
    80000988:	0ff0000f          	fence
    8000098c:	00018063          	beqz	gp,8000098c <crash_forward+0x4>
    80000990:	00119193          	slli	gp,gp,0x1
    80000994:	0011e193          	ori	gp,gp,1
    80000998:	05d00893          	li	a7,93
    8000099c:	00018513          	mv	a0,gp
    800009a0:	00000073          	ecall

00000000800009a4 <test_end>:
    800009a4:	0ff0000f          	fence
    800009a8:	00100193          	li	gp,1
    800009ac:	05d00893          	li	a7,93
    800009b0:	00000513          	li	a0,0
    800009b4:	00000073          	ecall
    800009b8:	c0001073          	unimp
	...

Disassembly of section .tohost:

0000000080001000 <tohost>:
	...

0000000080001040 <fromhost>:
	...

Disassembly of section .data:

0000000080002000 <hidden_data>:
    80002000:	80000007          	0x80000007
    80002004:	ffff                	0xffff
    80002006:	ffff                	0xffff

0000000080002008 <reg_x1_init>:
    80002008:	ffff                	0xffff
    8000200a:	ffff                	0xffff
    8000200c:	ffff                	0xffff
    8000200e:	ffff                	0xffff

0000000080002010 <reg_x2_init>:
    80002010:	8006                	c.mv	zero,ra
    80002012:	ffff                	0xffff
    80002014:	ffff                	0xffff
    80002016:	ffff                	0xffff

0000000080002018 <reg_x3_init>:
    80002018:	0000                	unimp
    8000201a:	0000                	unimp
    8000201c:	0000                	unimp
    8000201e:	0800                	addi	s0,sp,16

0000000080002020 <reg_x4_init>:
    80002020:	0006                	c.slli	zero,0x1
    80002022:	0000                	unimp
    80002024:	0000                	unimp
    80002026:	0800                	addi	s0,sp,16

0000000080002028 <reg_x5_init>:
    80002028:	496bd3b3          	0x496bd3b3
    8000202c:	4401                	li	s0,0
    8000202e:	2dfd                	addiw	s11,s11,31

0000000080002030 <reg_x6_init>:
    80002030:	8ee2                	mv	t4,s8
    80002032:	5f65                	li	t5,-7
    80002034:	9115                	srli	a0,a0,0x25
    80002036:	8160                	0x8160

0000000080002038 <reg_x7_init>:
    80002038:	70c4                	ld	s1,160(s1)
    8000203a:	7a3a                	ld	s4,424(sp)
    8000203c:	db31b56b          	0xdb31b56b

0000000080002040 <reg_x8_init>:
    80002040:	0009                	c.nop	2
    80002042:	0000                	unimp
    80002044:	0000                	unimp
    80002046:	0800                	addi	s0,sp,16

0000000080002048 <reg_x9_init>:
    80002048:	5182                	lw	gp,32(sp)
    8000204a:	24f54483          	lbu	s1,591(a0)
    8000204e:	ad6e                	fsd	fs11,152(sp)

0000000080002050 <reg_x10_init>:
	...

0000000080002058 <reg_x11_init>:
    80002058:	da5a                	sw	s6,52(sp)
    8000205a:	5366                	lw	t1,120(sp)
    8000205c:	4c8d                	li	s9,3
    8000205e:	b37d                	j	80001e0c <fromhost+0xdcc>

0000000080002060 <reg_x12_init>:
	...

0000000080002068 <reg_x13_init>:
    80002068:	89d6                	mv	s3,s5
    8000206a:	3fd9                	addiw	t6,t6,-10
    8000206c:	584e                	lw	a6,240(sp)
    8000206e:	c055                	beqz	s0,80002112 <reg_x2_output+0x2>

0000000080002070 <reg_x14_init>:
    80002070:	80000007          	0x80000007
    80002074:	ffff                	0xffff
    80002076:	ffff                	0xffff

0000000080002078 <reg_x15_init>:
    80002078:	0008                	0x8
    8000207a:	0000                	unimp
    8000207c:	0000                	unimp
	...

0000000080002080 <reg_x16_init>:
    80002080:	ffff                	0xffff
    80002082:	ffff                	0xffff
    80002084:	ffff                	0xffff
    80002086:	ffff                	0xffff

0000000080002088 <reg_x17_init>:
    80002088:	ead6                	sd	s5,336(sp)
    8000208a:	0cf8                	addi	a4,sp,604
    8000208c:	11f74ccb          	fnmsub.s	fs9,fa4,ft11,ft2,rmm

0000000080002090 <reg_x18_init>:
    80002090:	665b3a07          	fld	fs4,1637(s6)
    80002094:	2595                	addiw	a1,a1,5
    80002096:	6bf8                	ld	a4,208(a5)

0000000080002098 <reg_x19_init>:
    80002098:	d14a                	sw	s2,160(sp)
    8000209a:	e39a                	sd	t1,448(sp)
    8000209c:	932e                	add	t1,t1,a1
    8000209e:	b055                	j	80001942 <fromhost+0x902>

00000000800020a0 <reg_x20_init>:
    800020a0:	a69d                	j	80002406 <test_memory+0x206>
    800020a2:	0801                	addi	a6,a6,0
    800020a4:	66f1                	lui	a3,0x1c
    800020a6:	f73d                	bnez	a4,80002014 <reg_x2_init+0x4>

00000000800020a8 <reg_x21_init>:
	...

00000000800020b0 <reg_x22_init>:
    800020b0:	a47e                	fsd	ft11,8(sp)
    800020b2:	88f5                	andi	s1,s1,29
    800020b4:	62c5                	lui	t0,0x11
    800020b6:	cb08                	sw	a0,16(a4)

00000000800020b8 <reg_x23_init>:
	...

00000000800020c0 <reg_x24_init>:
    800020c0:	dc5016bf d07a18eb 	0xd07a18ebdc5016bf

00000000800020c8 <reg_x25_init>:
    800020c8:	ff82                	sd	zero,504(sp)
    800020ca:	ffff                	0xffff
    800020cc:	ffff                	0xffff
    800020ce:	ffff                	0xffff

00000000800020d0 <reg_x26_init>:
    800020d0:	00000007          	0x7
    800020d4:	0000                	unimp
	...

00000000800020d8 <reg_x27_init>:
    800020d8:	ffff8007          	0xffff8007
    800020dc:	ffff                	0xffff
    800020de:	ffff                	0xffff

00000000800020e0 <reg_x28_init>:
    800020e0:	a8f2                	fsd	ft8,80(sp)
    800020e2:	32c9                	addiw	t0,t0,-14
    800020e4:	be7d                	j	80001ca2 <fromhost+0xc62>
    800020e6:	b64a                	fsd	fs2,296(sp)

00000000800020e8 <reg_x29_init>:
    800020e8:	ffff8003          	lb	zero,-1(t6)
    800020ec:	ffff                	0xffff
    800020ee:	ffff                	0xffff

00000000800020f0 <reg_x30_init>:
    800020f0:	0006                	c.slli	zero,0x1
    800020f2:	8000                	0x8000
    800020f4:	ffff                	0xffff
    800020f6:	ffff                	0xffff

00000000800020f8 <reg_x31_init>:
    800020f8:	72a2                	ld	t0,40(sp)
    800020fa:	750f27af          	0x750f27af
    800020fe:	19b1                	addi	s3,s3,-20

0000000080002100 <begin_signature>:
    80002100:	2704                	fld	fs1,8(a4)
    80002102:	43d0                	lw	a2,4(a5)
    80002104:	b85d                	j	800019ba <fromhost+0x97a>
    80002106:	641f        	0x8229b33f641f

0000000080002108 <reg_x1_output>:
    80002108:	8229b33f 3a54ab72 	0x3a54ab728229b33f

0000000080002110 <reg_x2_output>:
    80002110:	18b9                	addi	a7,a7,-18
    80002112:	8f9c                	0x8f9c
    80002114:	284a                	fld	fa6,144(sp)
    80002116:	0482                	c.slli64	s1

0000000080002118 <reg_x3_output>:
    80002118:	0e02                	c.slli64	t3
    8000211a:	a7c4                	fsd	fs1,136(a5)
    8000211c:	4667ba3b          	0x4667ba3b

0000000080002120 <reg_x4_output>:
    80002120:	57e1fc23          	0x57e1fc23
    80002124:	d308b8d3          	0xd308b8d3

0000000080002128 <reg_x5_output>:
    80002128:	b752                	fsd	fs4,424(sp)
    8000212a:	656c                	ld	a1,200(a0)
    8000212c:	a91d                	j	80002562 <test_memory+0x362>
    8000212e:	67c0                	ld	s0,136(a5)

0000000080002130 <reg_x6_output>:
    80002130:	7cd26e8b          	0x7cd26e8b
    80002134:	50b85d9b          	0x50b85d9b

0000000080002138 <reg_x7_output>:
    80002138:	9419                	srai	s0,s0,0x26
    8000213a:	eeb2                	sd	a2,344(sp)
    8000213c:	6695                	lui	a3,0x5
    8000213e:	          	0xf1958c5b

0000000080002140 <reg_x8_output>:
    80002140:	f195                	bnez	a1,80002064 <reg_x12_init+0x4>
    80002142:	6ddc2acf          	0x6ddc2acf
    80002146:	32f2                	fld	ft5,312(sp)

0000000080002148 <reg_x9_output>:
    80002148:	a3f1                	j	80002714 <_end+0x104>
    8000214a:	589e                	lw	a7,228(sp)
    8000214c:	643c                	ld	a5,72(s0)
    8000214e:	2f74                	fld	fa3,216(a4)

0000000080002150 <reg_x10_output>:
    80002150:	f07d                	bnez	s0,80002136 <reg_x6_output+0x6>
    80002152:	2634                	fld	fa3,72(a2)
    80002154:	53e4c433          	0x53e4c433

0000000080002158 <reg_x11_output>:
    80002158:	d20d                	beqz	a2,8000207a <reg_x15_init+0x2>
    8000215a:	33a0                	fld	fs0,96(a5)
    8000215c:	eca9                	bnez	s1,800021b6 <reg_x22_output+0x6>
    8000215e:	          	0x55a45843

0000000080002160 <reg_x12_output>:
    80002160:	55a4                	lw	s1,104(a1)
    80002162:	d31e                	sw	t2,164(sp)
    80002164:	4a3b87b3          	0x4a3b87b3

0000000080002168 <reg_x13_output>:
    80002168:	7058                	ld	a4,160(s0)
    8000216a:	88fe                	mv	a7,t6
    8000216c:	3b4464b3          	0x3b4464b3

0000000080002170 <reg_x14_output>:
    80002170:	f60b744b          	fnmsub.q	fs0,fs6,ft0,ft10
    80002174:	f244                	sd	s1,160(a2)
    80002176:	50fd                	li	ra,-1

0000000080002178 <reg_x15_output>:
    80002178:	c0de                	sw	s7,64(sp)
    8000217a:	950a                	add	a0,a0,sp
    8000217c:	ebe0                	sd	s0,208(a5)
    8000217e:	62fe                	ld	t0,472(sp)

0000000080002180 <reg_x16_output>:
    80002180:	4a9d                	li	s5,7
    80002182:	1fec                	addi	a1,sp,1020
    80002184:	a828                	fsd	fa0,80(s0)
    80002186:	bd40                	fsd	fs0,184(a0)

0000000080002188 <reg_x17_output>:
    80002188:	3914316b          	0x3914316b
    8000218c:	d51d101b          	0xd51d101b

0000000080002190 <reg_x18_output>:
    80002190:	5ff2                	lw	t6,60(sp)
    80002192:	74d95a43          	0x74d95a43
    80002196:	d6ed                	beqz	a3,80002180 <reg_x16_output>

0000000080002198 <reg_x19_output>:
    80002198:	2d71                	addiw	s10,s10,28
    8000219a:	88a01177          	0x88a01177
    8000219e:	a935                	j	800025da <test_memory+0x3da>

00000000800021a0 <reg_x20_output>:
    800021a0:	c351                	beqz	a4,80002224 <test_memory+0x24>
    800021a2:	f690                	sd	a2,40(a3)
    800021a4:	8118                	0x8118
    800021a6:	5d89                	li	s11,-30

00000000800021a8 <reg_x21_output>:
    800021a8:	aa2e                	fsd	fa1,272(sp)
    800021aa:	f7f1                	bnez	a5,80002176 <reg_x14_output+0x6>
    800021ac:	93b52c3b          	0x93b52c3b

00000000800021b0 <reg_x22_output>:
    800021b0:	238fee37          	lui	t3,0x238fe
    800021b4:	564a                	lw	a2,176(sp)
    800021b6:	7ee0                	ld	s0,248(a3)

00000000800021b8 <reg_x23_output>:
    800021b8:	d10e                	sw	gp,160(sp)
    800021ba:	7e60                	ld	s0,248(a2)
    800021bc:	96b9                	srai	a3,a3,0x2e
    800021be:	0fa4                	addi	s1,sp,984

00000000800021c0 <reg_x24_output>:
    800021c0:	8f96                	mv	t6,t0
    800021c2:	e32a                	sd	a0,384(sp)
    800021c4:	42fc                	lw	a5,68(a3)
    800021c6:	          	0x6c4d4d0b

00000000800021c8 <reg_x25_output>:
    800021c8:	6c4d                	lui	s8,0x13
    800021ca:	3cc4                	fld	fs1,184(s1)
    800021cc:	3195                	addiw	gp,gp,-27
    800021ce:	d91e                	sw	t2,176(sp)

00000000800021d0 <reg_x26_output>:
    800021d0:	8320                	0x8320
    800021d2:	399e                	fld	fs3,480(sp)
    800021d4:	f4c9                	bnez	s1,8000215e <reg_x11_output+0x6>
    800021d6:	68b1                	lui	a7,0xc

00000000800021d8 <reg_x27_output>:
    800021d8:	f9e0                	sd	s0,240(a1)
    800021da:	2cf9                	addiw	s9,s9,30
    800021dc:	93f5                	srli	a5,a5,0x3d
    800021de:	          	fnmadd.s	fa4,fs0,fa2,fa5,rne

00000000800021e0 <reg_x28_output>:
    800021e0:	78c4                	ld	s1,176(s1)
    800021e2:	8175                	srli	a0,a0,0x1d
    800021e4:	5b5d                	li	s6,-9
    800021e6:	44da                	lw	s1,148(sp)

00000000800021e8 <reg_x29_output>:
    800021e8:	8895                	andi	s1,s1,5
    800021ea:	6dd9695b          	0x6dd9695b
    800021ee:	331c                	fld	fa5,32(a4)

00000000800021f0 <reg_x30_output>:
    800021f0:	1078                	addi	a4,sp,44
    800021f2:	0cd1                	addi	s9,s9,20
    800021f4:	28d9                	addiw	a7,a7,22
    800021f6:	          	0xc378206b

00000000800021f8 <reg_x31_output>:
    800021f8:	c378                	sw	a4,68(a4)
    800021fa:	878c                	0x878c
    800021fc:	7290                	ld	a2,32(a3)
    800021fe:	1628                	addi	a0,sp,808

0000000080002200 <test_memory>:
    80002200:	6e39                	lui	t3,0xe
    80002202:	fb76                	sd	t4,432(sp)
    80002204:	1fe58357          	0x1fe58357
    80002208:	cf79                	beqz	a4,800022e6 <test_memory+0xe6>
    8000220a:	2882                	fld	fa7,0(sp)
    8000220c:	f670                	sd	a2,232(a2)
    8000220e:	0070                	addi	a2,sp,12
    80002210:	0a308a4f          	fnmadd.d	fs4,ft1,ft3,ft1,rne
    80002214:	bbd1                	j	80001fe8 <fromhost+0xfa8>
    80002216:	df4b3d0f          	0xdf4b3d0f
    8000221a:	c879                	beqz	s0,800022f0 <test_memory+0xf0>
    8000221c:	33bd                	addiw	t2,t2,-17
    8000221e:	6ff6                	ld	t6,344(sp)
    80002220:	c1d5                	beqz	a1,800022c4 <test_memory+0xc4>
    80002222:	3bd0                	fld	fa2,176(a5)
    80002224:	1e1f 8394 a18e      	0xa18e83941e1f
    8000222a:	1755                	addi	a4,a4,-11
    8000222c:	6af2                	ld	s5,280(sp)
    8000222e:	397f                	0x397f
    80002230:	6b78                	ld	a4,208(a4)
    80002232:	7a89                	lui	s5,0xfffe2
    80002234:	2e5d                	addiw	t3,t3,23
    80002236:	1634                	addi	a3,sp,808
    80002238:	4a17ed2f          	0x4a17ed2f
    8000223c:	5220                	lw	s0,96(a2)
    8000223e:	ba84                	fsd	fs1,48(a3)
    80002240:	747f                	0x747f
    80002242:	99d6                	add	s3,s3,s5
    80002244:	e776                	sd	t4,392(sp)
    80002246:	2161                	addiw	sp,sp,24
    80002248:	aaeb500f          	0xaaeb500f
    8000224c:	ddf987af          	0xddf987af
    80002250:	4a0a                	lw	s4,128(sp)
    80002252:	a1e4                	fsd	fs1,192(a1)
    80002254:	cefc                	sw	a5,92(a3)
    80002256:	6315                	lui	t1,0x5
    80002258:	63e2                	ld	t2,24(sp)
    8000225a:	d4f5                	beqz	s1,80002246 <test_memory+0x46>
    8000225c:	af64fc4f          	fnmadd.q	fs8,fs1,fs6,fs5
    80002260:	929e                	add	t0,t0,t2
    80002262:	b5a5                	j	800020ca <reg_x25_init+0x2>
    80002264:	f239                	bnez	a2,800021aa <reg_x21_output+0x2>
    80002266:	95d1                	srai	a1,a1,0x34
    80002268:	0d59                	addi	s10,s10,22
    8000226a:	4dff                	0x4dff
    8000226c:	547a882b          	0x547a882b
    80002270:	7be0                	ld	s0,240(a5)
    80002272:	a8cc                	fsd	fa1,144(s1)
    80002274:	2084                	fld	fs1,0(s1)
    80002276:	0983732f          	0x983732f
    8000227a:	1f59c03f a0a08cd0 	0xa0a08cd01f59c03f
    80002282:	f2e4                	sd	s1,224(a3)
    80002284:	f6d5                	bnez	a3,80002230 <test_memory+0x30>
    80002286:	5a52                	lw	s4,52(sp)
    80002288:	6d70                	ld	a2,216(a0)
    8000228a:	c475                	beqz	s0,80002376 <test_memory+0x176>
    8000228c:	599a                	lw	s3,164(sp)
    8000228e:	fc3c                	sd	a5,120(s0)
    80002290:	cb19                	beqz	a4,800022a6 <test_memory+0xa6>
    80002292:	d516                	sw	t0,168(sp)
    80002294:	f582909b          	0xf582909b
    80002298:	ae4cfc17          	auipc	s8,0xae4cf
    8000229c:	2e69413f 80f01776 	0x80f017762e69413f
    800022a4:	98eef1cb          	fnmsub.s	ft3,ft9,fa4,fs3
    800022a8:	7679                	lui	a2,0xffffe
    800022aa:	fce1                	bnez	s1,80002282 <test_memory+0x82>
    800022ac:	9d68                	0x9d68
    800022ae:	4c50                	lw	a2,28(s0)
    800022b0:	3a98                	fld	fa4,48(a3)
    800022b2:	dc1a                	sw	t1,56(sp)
    800022b4:	7e3c                	ld	a5,120(a2)
    800022b6:	f115                	bnez	a0,800021da <reg_x27_output+0x2>
    800022b8:	4a05                	li	s4,1
    800022ba:	2d98                	fld	fa4,24(a1)
    800022bc:	2b75                	addiw	s6,s6,29
    800022be:	35f6                	fld	fa1,376(sp)
    800022c0:	f116                	sd	t0,160(sp)
    800022c2:	278a                	fld	fa5,128(sp)
    800022c4:	1232                	slli	tp,tp,0x2c
    800022c6:	f1e0                	sd	s0,224(a1)
    800022c8:	413e                	lw	sp,204(sp)
    800022ca:	7bb49a6b          	0x7bb49a6b
    800022ce:	da851f07          	0xda851f07
    800022d2:	a48c                	fsd	fa1,8(s1)
    800022d4:	a6559037          	lui	zero,0xa6559
    800022d8:	8c9b1a9b          	0x8c9b1a9b
    800022dc:	6561                	lui	a0,0x18
    800022de:	e350                	sd	a2,128(a4)
    800022e0:	44f8                	lw	a4,76(s1)
    800022e2:	1f64                	addi	s1,sp,956
    800022e4:	f832                	sd	a2,48(sp)
    800022e6:	6c64                	ld	s1,216(s0)
    800022e8:	29ad                	addiw	s3,s3,11
    800022ea:	abba                	fsd	fa4,464(sp)
    800022ec:	45d0                	lw	a2,12(a1)
    800022ee:	336e                	fld	ft6,248(sp)
    800022f0:	acca                	fsd	fs2,88(sp)
    800022f2:	a276                	fsd	ft9,256(sp)
    800022f4:	5bb1                	li	s7,-20
    800022f6:	8e62                	mv	t3,s8
    800022f8:	bd5d6687          	0xbd5d6687
    800022fc:	1a1b7ee3          	bgeu	s6,ra,80002cb8 <_end+0x6a8>
    80002300:	f49a                	sd	t1,104(sp)
    80002302:	43891603          	lh	a2,1080(s2)
    80002306:	dd6e                	sw	s11,184(sp)
    80002308:	8f59                	or	a4,a4,a4
    8000230a:	35c4                	fld	fs1,168(a1)
    8000230c:	820fe8c3          	fmadd.d	fa7,ft11,ft0,fa6,unknown
    80002310:	9996                	add	s3,s3,t0
    80002312:	13ec                	addi	a1,sp,492
    80002314:	5aa1                	li	s5,-24
    80002316:	9275                	srli	a2,a2,0x3d
    80002318:	405e                	0x405e
    8000231a:	3bb0                	fld	fa2,112(a5)
    8000231c:	2acc                	fld	fa1,144(a3)
    8000231e:	9b0a                	add	s6,s6,sp
    80002320:	67fc                	ld	a5,200(a5)
    80002322:	1cf0                	addi	a2,sp,636
    80002324:	7209                	lui	tp,0xfffe2
    80002326:	07ff                	0x7ff
    80002328:	25f8                	fld	fa4,200(a1)
    8000232a:	2fc773a7          	0x2fc773a7
    8000232e:	bd61                	j	800021c6 <reg_x24_output+0x6>
    80002330:	73de                	ld	t2,496(sp)
    80002332:	c985                	beqz	a1,80002362 <test_memory+0x162>
    80002334:	3250                	fld	fa2,160(a2)
    80002336:	e2e2                	sd	s8,320(sp)
    80002338:	ad18                	fsd	fa4,24(a0)
    8000233a:	8759                	srai	a4,a4,0x16
    8000233c:	295d                	addiw	s2,s2,23
    8000233e:	a5bc                	fsd	fa5,72(a1)
    80002340:	5a25                	li	s4,-23
    80002342:	ac1f 0e16 9c5d      	0x9c5d0e16ac1f
    80002348:	eee5d5e3          	bge	a1,a4,80002232 <test_memory+0x32>
    8000234c:	d6ca                	sw	s2,108(sp)
    8000234e:	3982                	fld	fs3,32(sp)
    80002350:	d1bb0dd7          	0xd1bb0dd7
    80002354:	49e0                	lw	s0,84(a1)
    80002356:	8a69                	andi	a2,a2,26
    80002358:	0c92                	slli	s9,s9,0x4
    8000235a:	02d1e9b3          	rem	s3,gp,a3
    8000235e:	0f7f                	0xf7f
    80002360:	b59c                	fsd	fa5,40(a1)
    80002362:	2d2d1003          	lh	zero,722(s10)
    80002366:	0462                	slli	s0,s0,0x18
    80002368:	2c99                	addiw	s9,s9,6
    8000236a:	ddb8                	sw	a4,120(a1)
    8000236c:	6cf1                	lui	s9,0x1c
    8000236e:	5d7d8243          	0x5d7d8243
    80002372:	52a9                	li	t0,-22
    80002374:	f7d6b0c7          	fmsub.q	ft1,fa3,ft9,ft10,rup
    80002378:	ec7c120b          	0xec7c120b
    8000237c:	91d6                	add	gp,gp,s5
    8000237e:	80ef5a7b          	0x80ef5a7b
    80002382:	93ca                	add	t2,t2,s2
    80002384:	3e58                	fld	fa4,184(a2)
    80002386:	5d3c9c97          	auipc	s9,0x5d3c9
    8000238a:	07118743          	fmadd.q	fa4,ft3,fa7,ft0,rne
    8000238e:	b110198b          	0xb110198b
    80002392:	19dd                	addi	s3,s3,-9
    80002394:	5548                	lw	a0,44(a0)
    80002396:	4ca73d27          	fsd	fa0,1242(a4)
    8000239a:	1de4                	addi	s1,sp,764
    8000239c:	801a5e0b          	0x801a5e0b
    800023a0:	7898db2f          	0x7898db2f
    800023a4:	28bd                	addiw	a7,a7,15
    800023a6:	92e4                	0x92e4
    800023a8:	d112                	sw	tp,160(sp)
    800023aa:	c234c7e3          	blt	s1,gp,80001fd8 <fromhost+0xf98>
    800023ae:	339a                	fld	ft7,416(sp)
    800023b0:	f392                	sd	tp,480(sp)
    800023b2:	8b00ee27          	0x8b00ee27
    800023b6:	b0ae                	fsd	fa1,96(sp)
    800023b8:	7c0d3fef          	jal	t6,800d5b78 <__global_pointer$+0xd2d68>
    800023bc:	c684                	sw	s1,8(a3)
    800023be:	f0a8                	sd	a0,96(s1)
    800023c0:	0872                	slli	a6,a6,0x1c
    800023c2:	52dd                	li	t0,-9
    800023c4:	ba0d                	j	80001cf6 <fromhost+0xcb6>
    800023c6:	480524f7          	0x480524f7
    800023ca:	31e8                	fld	fa0,224(a1)
    800023cc:	161c                	addi	a5,sp,800
    800023ce:	c9ca                	sw	s2,208(sp)
    800023d0:	014a                	slli	sp,sp,0x12
    800023d2:	7ba0                	ld	s0,112(a5)
    800023d4:	e161                	bnez	a0,80002494 <test_memory+0x294>
    800023d6:	f1f5                	bnez	a1,800023ba <test_memory+0x1ba>
    800023d8:	28870c4f          	fnmadd.s	fs8,fa4,fs0,ft5,rne
    800023dc:	fc4a                	sd	s2,56(sp)
    800023de:	c188                	sw	a0,0(a1)
    800023e0:	8e50                	0x8e50
    800023e2:	b704                	fsd	fs1,40(a4)
    800023e4:	61be6513          	ori	a0,t3,1563
    800023e8:	8924                	0x8924
    800023ea:	b160                	fsd	fs0,224(a0)
    800023ec:	f7b6                	sd	a3,488(sp)
    800023ee:	0c4307ab          	0xc4307ab
    800023f2:	c651                	beqz	a2,8000247e <test_memory+0x27e>
    800023f4:	11514a2b          	0x11514a2b
    800023f8:	d289a797          	auipc	a5,0xd289a
    800023fc:	ccd9                	beqz	s1,8000249a <test_memory+0x29a>
    800023fe:	2276                	fld	ft4,344(sp)
    80002400:	37296067          	0x37296067
    80002404:	e282502f          	0xe282502f
    80002408:	a320                	fsd	fs0,64(a4)
    8000240a:	0be1                	addi	s7,s7,24
    8000240c:	cbae                	sw	a1,212(sp)
    8000240e:	e9c5                	bnez	a1,800024be <test_memory+0x2be>
    80002410:	10cd                	addi	ra,ra,-13
    80002412:	6c3d                	lui	s8,0xf
    80002414:	8ff9                	and	a5,a5,a4
    80002416:	be61                	j	80001fae <fromhost+0xf6e>
    80002418:	9ceca57b          	0x9ceca57b
    8000241c:	3ca4                	fld	fs1,120(s1)
    8000241e:	1cd8f9ab          	0x1cd8f9ab
    80002422:	9388                	0x9388
    80002424:	298eb3cf          	fnmadd.s	ft7,ft9,fs8,ft5,rup
    80002428:	bcd0                	fsd	fa2,184(s1)
    8000242a:	0f61                	addi	t5,t5,24
    8000242c:	e04228db          	0xe04228db
    80002430:	a3aa59fb          	0xa3aa59fb
    80002434:	1cb4                	addi	a3,sp,632
    80002436:	eeff                	0xeeff
    80002438:	231f9013          	0x231f9013
    8000243c:	f18e                	sd	gp,224(sp)
    8000243e:	f5e8                	sd	a0,232(a1)
    80002440:	a7d158c7          	fmsub.q	fa7,ft2,ft9,fs4,unknown
    80002444:	757088fb          	0x757088fb
    80002448:	75ad                	lui	a1,0xfffeb
    8000244a:	c58d                	beqz	a1,80002474 <test_memory+0x274>
    8000244c:	6acd                	lui	s5,0x13
    8000244e:	6b49                	lui	s6,0x12
    80002450:	1624                	addi	s1,sp,808
    80002452:	ceed                	beqz	a3,8000254c <test_memory+0x34c>
    80002454:	101e                	c.slli	zero,0x27
    80002456:	d05b6547          	fmsub.s	fa0,fs6,ft5,fs10,unknown
    8000245a:	a6a4                	fsd	fs1,72(a3)
    8000245c:	7cbb6d6f          	jal	s10,800b9426 <__global_pointer$+0xb6616>
    80002460:	fcde                	sd	s7,120(sp)
    80002462:	87ce0fa7          	0x87ce0fa7
    80002466:	e12e                	sd	a1,128(sp)
    80002468:	d656                	sw	s5,44(sp)
    8000246a:	8b38                	0x8b38
    8000246c:	f1ea1447          	fmsub.s	fs0,fs4,ft10,ft10,rtz
    80002470:	b31efb63          	bgeu	t4,a7,800017a6 <fromhost+0x766>
    80002474:	a648                	fsd	fa0,136(a2)
    80002476:	d8c4                	sw	s1,52(s1)
    80002478:	26b4                	fld	fa3,72(a3)
    8000247a:	5cd1                	li	s9,-12
    8000247c:	1896                	slli	a7,a7,0x25
    8000247e:	b1ca9a73          	csrrw	s4,mhpmcounter28,s5
    80002482:	b4de                	fsd	fs7,104(sp)
    80002484:	75f1                	lui	a1,0xffffc
    80002486:	9b12                	add	s6,s6,tp
    80002488:	d10d                	beqz	a0,800023aa <test_memory+0x1aa>
    8000248a:	7dcd                	lui	s11,0xffff3
    8000248c:	01c0                	addi	s0,sp,196
    8000248e:	fc1787bb          	0xfc1787bb
    80002492:	db76                	sw	t4,180(sp)
    80002494:	ee1c                	sd	a5,24(a2)
    80002496:	4bf0                	lw	a2,84(a5)
    80002498:	b361                	j	80002220 <test_memory+0x20>
    8000249a:	4ad1                	li	s5,20
    8000249c:	1c41                	addi	s8,s8,-16
    8000249e:	80a8                	0x80a8
    800024a0:	5cbd                	li	s9,-17
    800024a2:	7a46                	ld	s4,112(sp)
    800024a4:	c52a                	sw	a0,136(sp)
    800024a6:	d4dd                	beqz	s1,80002454 <test_memory+0x254>
    800024a8:	5239                	li	tp,-18
    800024aa:	4ada                	lw	s5,148(sp)
    800024ac:	6be1                	lui	s7,0x18
    800024ae:	f0a1                	bnez	s1,800023ee <test_memory+0x1ee>
    800024b0:	77330b63          	beq	t1,s3,80002c26 <_end+0x616>
    800024b4:	cfd6                	sw	s5,220(sp)
    800024b6:	4482                	lw	s1,0(sp)
    800024b8:	1c3a8f0b          	0x1c3a8f0b
    800024bc:	0d26                	slli	s10,s10,0x9
    800024be:	2f4e                	fld	ft10,208(sp)
    800024c0:	fe1fabeb          	0xfe1fabeb
    800024c4:	81cc                	0x81cc
    800024c6:	e0e2d183          	lhu	gp,-498(t0) # 10e0e <_start-0x7ffef1f2>
    800024ca:	101f ba0a f564      	0xf564ba0a101f
    800024d0:	0c45f1af          	0xc45f1af
    800024d4:	32496383          	lwu	t2,804(s2)
    800024d8:	f33e                	sd	a5,416(sp)
    800024da:	e69f 65ec 9ba2      	0x9ba265ece69f
    800024e0:	b30d                	j	80002202 <test_memory+0x2>
    800024e2:	ff81                	bnez	a5,800023fa <test_memory+0x1fa>
    800024e4:	9142                	add	sp,sp,a6
    800024e6:	1dc1                	addi	s11,s11,-16
    800024e8:	cf38                	sw	a4,88(a4)
    800024ea:	a4c6                	fsd	fa7,72(sp)
    800024ec:	06fa24cb          	fnmsub.q	fs1,fs4,fa5,ft0,rdn
    800024f0:	3125                	addiw	sp,sp,-23
    800024f2:	9786ad3b          	0x9786ad3b
    800024f6:	4d8a                	lw	s11,128(sp)
    800024f8:	f2ea                	sd	s10,352(sp)
    800024fa:	d1b2dafb          	0xd1b2dafb
    800024fe:	077f                	0x77f
    80002500:	97e1                	srai	a5,a5,0x38
    80002502:	408a4a47          	fmsub.s	fs4,fs4,fs0,fs0,rmm
    80002506:	fb0d9233          	0xfb0d9233
    8000250a:	5696                	lw	a3,100(sp)
    8000250c:	2870                	fld	fa2,208(s0)
    8000250e:	41b2                	lw	gp,12(sp)
    80002510:	fa35                	bnez	a2,80002484 <test_memory+0x284>
    80002512:	fd02                	sd	zero,184(sp)
    80002514:	271a                	fld	fa4,384(sp)
    80002516:	9b20                	0x9b20
    80002518:	c2e2                	sw	s8,68(sp)
    8000251a:	7be2                	ld	s7,56(sp)
    8000251c:	4689                	li	a3,2
    8000251e:	42e0                	lw	s0,68(a3)
    80002520:	2d574ea7          	fsq	fs5,733(a4)
    80002524:	22b4                	fld	fa3,64(a3)
    80002526:	1e5636b7          	lui	a3,0x1e563
    8000252a:	e058                	sd	a4,128(s0)
    8000252c:	c76e                	sw	s11,140(sp)
    8000252e:	1cb1                	addi	s9,s9,-20
    80002530:	3011                	0x3011
    80002532:	2f98                	fld	fa4,24(a5)
    80002534:	91cce0cb          	fnmsub.s	ft1,fs9,ft8,fs2,unknown
    80002538:	9260                	0x9260
    8000253a:	eff20dc7          	fmsub.q	fs11,ft4,ft11,ft9,rne
    8000253e:	66a54097          	auipc	ra,0x66a54
    80002542:	3f676753          	0x3f676753
    80002546:	8042                	c.mv	zero,a6
    80002548:	afad                	j	80002cc2 <_end+0x6b2>
    8000254a:	9cf720bb          	0x9cf720bb
    8000254e:	7561                	lui	a0,0xffff8
    80002550:	7d32                	ld	s10,296(sp)
    80002552:	62b2                	ld	t0,264(sp)
    80002554:	3cf5                	addiw	s9,s9,-3
    80002556:	1184                	addi	s1,sp,224
    80002558:	f37f                	0xf37f
    8000255a:	e9689cd3          	0xe9689cd3
    8000255e:	be92                	fsd	ft4,376(sp)
    80002560:	e6a5                	bnez	a3,800025c8 <test_memory+0x3c8>
    80002562:	2609                	addiw	a2,a2,2
    80002564:	ab7a915b          	0xab7a915b
    80002568:	52d2                	lw	t0,52(sp)
    8000256a:	e372                	sd	t3,384(sp)
    8000256c:	bf6c                	fsd	fa1,248(a4)
    8000256e:	31bc                	fld	fa5,96(a1)
    80002570:	77d1                	lui	a5,0xffff4
    80002572:	1df6                	slli	s11,s11,0x3d
    80002574:	444d                	li	s0,19
    80002576:	fa9e                	sd	t2,368(sp)
    80002578:	d3c0                	sw	s0,36(a5)
    8000257a:	c8d92213          	slti	tp,s2,-883
    8000257e:	c11f 3972 2d32      	0x2d323972c11f
    80002584:	d4e0                	sw	s0,108(s1)
    80002586:	27b2                	fld	fa5,264(sp)
    80002588:	d926                	sw	s1,176(sp)
    8000258a:	e04e                	sd	s3,0(sp)
    8000258c:	72e5                	lui	t0,0xffff9
    8000258e:	67a9                	lui	a5,0xa
    80002590:	8655d66f          	jal	a2,7ff5fdf4 <_start-0xa020c>
    80002594:	b831c65b          	0xb831c65b
    80002598:	0486                	slli	s1,s1,0x1
    8000259a:	07f8                	addi	a4,sp,972
    8000259c:	4810f923          	0x4810f923
    800025a0:	2a5f 794c a655      	0xa655794c2a5f
    800025a6:	1f21                	addi	t5,t5,-24
    800025a8:	d22e                	sw	a1,36(sp)
    800025aa:	ee98                	sd	a4,24(a3)
    800025ac:	d2c5abab          	0xd2c5abab
    800025b0:	b44d                	j	80002052 <reg_x10_init+0x2>
    800025b2:	d491                	beqz	s1,800024be <test_memory+0x2be>
    800025b4:	7e0edffb          	0x7e0edffb
    800025b8:	539a                	lw	t2,164(sp)
    800025ba:	8c71                	and	s0,s0,a2
    800025bc:	f3bee49b          	0xf3bee49b
    800025c0:	bbb1f1bf 2a6df0b1 	0x2a6df0b1bbb1f1bf
    800025c8:	ac16                	fsd	ft5,24(sp)
    800025ca:	4cf0                	lw	a2,92(s1)
    800025cc:	655160bf eb10e5f5 	0xeb10e5f5655160bf
    800025d4:	d1dd                	beqz	a1,8000257a <test_memory+0x37a>
    800025d6:	33a7d013          	0x33a7d013
    800025da:	4526                	lw	a0,72(sp)
    800025dc:	ef8c                	sd	a1,24(a5)
    800025de:	4734                	lw	a3,72(a4)
    800025e0:	516e                	lw	sp,248(sp)
    800025e2:	abfedd2f          	0xabfedd2f
    800025e6:	26ea                	fld	fa3,152(sp)
    800025e8:	c867642b          	0xc867642b
    800025ec:	ae50                	fsd	fa2,152(a2)
    800025ee:	ec20                	sd	s0,88(s0)
    800025f0:	7b7c5daf          	0x7b7c5daf
    800025f4:	2704                	fld	fs1,8(a4)
    800025f6:	25d6                	fld	fa1,336(sp)
    800025f8:	5884f4bf d41342af 	0xd41342af5884f4bf

0000000080002600 <loop_count>:
    80002600:	0040                	addi	s0,sp,4
	...

Disassembly of section .riscv.attributes:

0000000000000000 <.riscv.attributes>:
   0:	1e41                	addi	t3,t3,-16
   2:	0000                	unimp
   4:	7200                	ld	s0,32(a2)
   6:	7369                	lui	t1,0xffffa
   8:	01007663          	bgeu	zero,a6,14 <_start-0x7fffffec>
   c:	0014                	0x14
   e:	0000                	unimp
  10:	7205                	lui	tp,0xfffe1
  12:	3676                	fld	fa2,376(sp)
  14:	6934                	ld	a3,80(a0)
  16:	7032                	0x7032
  18:	5f30                	lw	a2,120(a4)
  1a:	326d                	addiw	tp,tp,-5
  1c:	3070                	fld	fa2,224(s0)
	...
