
build/test89:     file format elf64-littleriscv


Disassembly of section .text.init:

0000000080000000 <_start>:
    80000000:	05c0006f          	j	8000005c <reset_vector>

0000000080000004 <trap_vector>:
    80000004:	34202f73          	csrr	t5,mcause
    80000008:	00800f93          	li	t6,8
    8000000c:	03ff0a63          	beq	t5,t6,80000040 <write_tohost>
    80000010:	00900f93          	li	t6,9
    80000014:	03ff0663          	beq	t5,t6,80000040 <write_tohost>
    80000018:	00b00f93          	li	t6,11
    8000001c:	03ff0263          	beq	t5,t6,80000040 <write_tohost>
    80000020:	80000f17          	auipc	t5,0x80000
    80000024:	fe0f0f13          	addi	t5,t5,-32 # 0 <_start-0x80000000>
    80000028:	000f0463          	beqz	t5,80000030 <trap_vector+0x2c>
    8000002c:	000f0067          	jr	t5
    80000030:	34202f73          	csrr	t5,mcause
    80000034:	000f5463          	bgez	t5,8000003c <handle_exception>
    80000038:	0040006f          	j	8000003c <handle_exception>

000000008000003c <handle_exception>:
    8000003c:	5391e193          	ori	gp,gp,1337

0000000080000040 <write_tohost>:
    80000040:	00001f17          	auipc	t5,0x1
    80000044:	fc3f2023          	sw	gp,-64(t5) # 80001000 <tohost>
    80000048:	000902b7          	lui	t0,0x90
    8000004c:	0012829b          	addiw	t0,t0,1
    80000050:	00c29293          	slli	t0,t0,0xc
    80000054:	0002af83          	lw	t6,0(t0) # 90000 <_start-0x7ff70000>
    80000058:	fe9ff06f          	j	80000040 <write_tohost>

000000008000005c <reset_vector>:
    8000005c:	00000093          	li	ra,0
    80000060:	00000113          	li	sp,0
    80000064:	00000193          	li	gp,0
    80000068:	00000213          	li	tp,0
    8000006c:	00000293          	li	t0,0
    80000070:	00000313          	li	t1,0
    80000074:	00000393          	li	t2,0
    80000078:	00000413          	li	s0,0
    8000007c:	00000493          	li	s1,0
    80000080:	00000513          	li	a0,0
    80000084:	00000593          	li	a1,0
    80000088:	00000613          	li	a2,0
    8000008c:	00000693          	li	a3,0
    80000090:	00000713          	li	a4,0
    80000094:	00000793          	li	a5,0
    80000098:	00000813          	li	a6,0
    8000009c:	00000893          	li	a7,0
    800000a0:	00000913          	li	s2,0
    800000a4:	00000993          	li	s3,0
    800000a8:	00000a13          	li	s4,0
    800000ac:	00000a93          	li	s5,0
    800000b0:	00000b13          	li	s6,0
    800000b4:	00000b93          	li	s7,0
    800000b8:	00000c13          	li	s8,0
    800000bc:	00000c93          	li	s9,0
    800000c0:	00000d13          	li	s10,0
    800000c4:	00000d93          	li	s11,0
    800000c8:	00000e13          	li	t3,0
    800000cc:	00000e93          	li	t4,0
    800000d0:	00000f13          	li	t5,0
    800000d4:	00000f93          	li	t6,0
    800000d8:	f1402573          	csrr	a0,mhartid
    800000dc:	00051063          	bnez	a0,800000dc <reset_vector+0x80>
    800000e0:	00000297          	auipc	t0,0x0
    800000e4:	01028293          	addi	t0,t0,16 # 800000f0 <reset_vector+0x94>
    800000e8:	30529073          	csrw	mtvec,t0
    800000ec:	18005073          	csrwi	satp,0
    800000f0:	00000297          	auipc	t0,0x0
    800000f4:	02428293          	addi	t0,t0,36 # 80000114 <reset_vector+0xb8>
    800000f8:	30529073          	csrw	mtvec,t0
    800000fc:	0010029b          	addiw	t0,zero,1
    80000100:	03529293          	slli	t0,t0,0x35
    80000104:	fff28293          	addi	t0,t0,-1
    80000108:	3b029073          	csrw	pmpaddr0,t0
    8000010c:	01f00293          	li	t0,31
    80000110:	3a029073          	csrw	pmpcfg0,t0
    80000114:	30405073          	csrwi	mie,0
    80000118:	00000297          	auipc	t0,0x0
    8000011c:	01428293          	addi	t0,t0,20 # 8000012c <reset_vector+0xd0>
    80000120:	30529073          	csrw	mtvec,t0
    80000124:	30205073          	csrwi	medeleg,0
    80000128:	30305073          	csrwi	mideleg,0
    8000012c:	00000193          	li	gp,0
    80000130:	00000297          	auipc	t0,0x0
    80000134:	ed428293          	addi	t0,t0,-300 # 80000004 <trap_vector>
    80000138:	30529073          	csrw	mtvec,t0
    8000013c:	00100513          	li	a0,1
    80000140:	01f51513          	slli	a0,a0,0x1f
    80000144:	00055c63          	bgez	a0,8000015c <reset_vector+0x100>
    80000148:	0ff0000f          	fence
    8000014c:	00100193          	li	gp,1
    80000150:	05d00893          	li	a7,93
    80000154:	00000513          	li	a0,0
    80000158:	00000073          	ecall
    8000015c:	80000297          	auipc	t0,0x80000
    80000160:	ea428293          	addi	t0,t0,-348 # 0 <_start-0x80000000>
    80000164:	00028a63          	beqz	t0,80000178 <reset_vector+0x11c>
    80000168:	10529073          	csrw	stvec,t0
    8000016c:	0000b2b7          	lui	t0,0xb
    80000170:	1092829b          	addiw	t0,t0,265
    80000174:	30229073          	csrw	medeleg,t0
    80000178:	30005073          	csrwi	mstatus,0
    8000017c:	00000297          	auipc	t0,0x0
    80000180:	01428293          	addi	t0,t0,20 # 80000190 <reset_vector+0x134>
    80000184:	34129073          	csrw	mepc,t0
    80000188:	f1402573          	csrr	a0,mhartid
    8000018c:	30200073          	mret
    80000190:	0200006f          	j	800001b0 <test_start>

0000000080000194 <crash_backward>:
    80000194:	0ff0000f          	fence
    80000198:	00018063          	beqz	gp,80000198 <crash_backward+0x4>
    8000019c:	00119193          	slli	gp,gp,0x1
    800001a0:	0011e193          	ori	gp,gp,1
    800001a4:	05d00893          	li	a7,93
    800001a8:	00018513          	mv	a0,gp
    800001ac:	00000073          	ecall

00000000800001b0 <test_start>:
    800001b0:	00002f97          	auipc	t6,0x2
    800001b4:	e50f8f93          	addi	t6,t6,-432 # 80002000 <hidden_data>
    800001b8:	000fb003          	ld	zero,0(t6)
    800001bc:	008fb083          	ld	ra,8(t6)
    800001c0:	010fb103          	ld	sp,16(t6)
    800001c4:	018fb183          	ld	gp,24(t6)
    800001c8:	020fb203          	ld	tp,32(t6)
    800001cc:	028fb283          	ld	t0,40(t6)
    800001d0:	030fb303          	ld	t1,48(t6)
    800001d4:	038fb383          	ld	t2,56(t6)
    800001d8:	040fb403          	ld	s0,64(t6)
    800001dc:	048fb483          	ld	s1,72(t6)
    800001e0:	050fb503          	ld	a0,80(t6)
    800001e4:	058fb583          	ld	a1,88(t6)
    800001e8:	060fb603          	ld	a2,96(t6)
    800001ec:	068fb683          	ld	a3,104(t6)
    800001f0:	070fb703          	ld	a4,112(t6)
    800001f4:	078fb783          	ld	a5,120(t6)
    800001f8:	080fb803          	ld	a6,128(t6)
    800001fc:	088fb883          	ld	a7,136(t6)
    80000200:	090fb903          	ld	s2,144(t6)
    80000204:	098fb983          	ld	s3,152(t6)
    80000208:	0a0fba03          	ld	s4,160(t6)
    8000020c:	0a8fba83          	ld	s5,168(t6)
    80000210:	0b0fbb03          	ld	s6,176(t6)
    80000214:	0b8fbb83          	ld	s7,184(t6)
    80000218:	0c0fbc03          	ld	s8,192(t6)
    8000021c:	0c8fbc83          	ld	s9,200(t6)
    80000220:	0d0fbd03          	ld	s10,208(t6)
    80000224:	0d8fbd83          	ld	s11,216(t6)
    80000228:	0e0fbe03          	ld	t3,224(t6)
    8000022c:	0e8fbe83          	ld	t4,232(t6)
    80000230:	0f0fbf03          	ld	t5,240(t6)
    80000234:	0f8fbf83          	ld	t6,248(t6)
    80000238:	0040006f          	j	8000023c <pseg_0>

000000008000023c <pseg_0>:
    8000023c:	ee100293          	li	t0,-287
    80000240:	a1e00893          	li	a7,-1506
    80000244:	0010c233          	xor	tp,ra,ra
    80000248:	9e3f6593          	ori	a1,t5,-1565
    8000024c:	3ce00113          	li	sp,974
    80000250:	779ce063          	bltu	s9,s9,800009b0 <crash_forward>
    80000254:	00100793          	li	a5,1
    80000258:	00007cb3          	and	s9,zero,zero
    8000025c:	d6f00f93          	li	t6,-657
    80000260:	00000513          	li	a0,0
    80000264:	39a00613          	li	a2,922
    80000268:	43e25713          	srai	a4,tp,0x3e
    8000026c:	36400913          	li	s2,868
    80000270:	14700393          	li	t2,327
    80000274:	0273ddb3          	divu	s11,t2,t2
    80000278:	ffb28813          	addi	a6,t0,-5
    8000027c:	7e500993          	li	s3,2021
    80000280:	02f7f6bb          	remuw	a3,a5,a5
    80000284:	41210b33          	sub	s6,sp,s2
    80000288:	03f79793          	slli	a5,a5,0x3f
    8000028c:	00000d13          	li	s10,0
    80000290:	73a54063          	blt	a0,s10,800009b0 <crash_forward>
    80000294:	78c00f13          	li	t5,1932
    80000298:	06660093          	addi	ra,a2,102
    8000029c:	82100c13          	li	s8,-2015
    800002a0:	1ff00e13          	li	t3,511
    800002a4:	d7700413          	li	s0,-649
    800002a8:	fff00a13          	li	s4,-1
    800002ac:	03ef04bb          	mulw	s1,t5,t5
    800002b0:	70160063          	beq	a2,ra,800009b0 <crash_forward>
    800002b4:	0388e1bb          	remw	gp,a7,s8
    800002b8:	6f02ec63          	bltu	t0,a6,800009b0 <crash_forward>
    800002bc:	03c98bb3          	mul	s7,s3,t3
    800002c0:	028fdeb3          	divu	t4,t6,s0
    800002c4:	00fa4a33          	xor	s4,s4,a5
    800002c8:	0140fab3          	and	s5,ra,s4
    800002cc:	30100393          	li	t2,769
    800002d0:	7bc00f93          	li	t6,1980
    800002d4:	80b00713          	li	a4,-2037
    800002d8:	0349713b          	remuw	sp,s2,s4
    800002dc:	0073a4b3          	slt	s1,t2,t2
    800002e0:	7c500693          	li	a3,1989
    800002e4:	002af1b3          	and	gp,s5,sp
    800002e8:	01d6e9b3          	or	s3,a3,t4
    800002ec:	00f9e333          	or	t1,s3,a5
    800002f0:	00df8ebb          	addw	t4,t6,a3
    800002f4:	02528233          	mul	tp,t0,t0
    800002f8:	00003517          	auipc	a0,0x3
    800002fc:	92150513          	addi	a0,a0,-1759 # 80002c19 <_end+0x609>
    80000300:	0a900293          	li	t0,169
    80000304:	db800613          	li	a2,-584
    80000308:	00002d97          	auipc	s11,0x2
    8000030c:	98fd8d93          	addi	s11,s11,-1649 # 80001c97 <fromhost+0xc57>
    80000310:	fad00b93          	li	s7,-83
    80000314:	b3700813          	li	a6,-1225
    80000318:	a8f00f13          	li	t5,-1393
    8000031c:	02c735b3          	mulhu	a1,a4,a2
    80000320:	036b50b3          	divu	ra,s6,s6
    80000324:	00002897          	auipc	a7,0x2
    80000328:	12e88893          	addi	a7,a7,302 # 80002452 <test_memory+0x252>
    8000032c:	9a4529a3          	sw	tp,-1613(a0)
    80000330:	41ebd93b          	sraw	s2,s7,t5
    80000334:	02528e33          	mul	t3,t0,t0
    80000338:	00002d17          	auipc	s10,0x2
    8000033c:	3a9d0d13          	addi	s10,s10,937 # 800026e1 <_end+0xd1>
    80000340:	666ac863          	blt	s5,t1,800009b0 <crash_forward>
    80000344:	03087cb3          	remu	s9,a6,a6
    80000348:	0339db33          	divu	s6,s3,s3
    8000034c:	ae600f93          	li	t6,-1306
    80000350:	02a50bb3          	mul	s7,a0,a0
    80000354:	418c07b3          	sub	a5,s8,s8
    80000358:	02633cb3          	mulhu	s9,t1,t1
    8000035c:	5d900593          	li	a1,1497
    80000360:	00002917          	auipc	s2,0x2
    80000364:	90290913          	addi	s2,s2,-1790 # 80001c62 <fromhost+0xc22>
    80000368:	6e000313          	li	t1,1760
    8000036c:	20300e93          	li	t4,515
    80000370:	02bffe3b          	remuw	t3,t6,a1
    80000374:	1e700b13          	li	s6,487
    80000378:	b5100f13          	li	t5,-1199
    8000037c:	24000493          	li	s1,576
    80000380:	0aa8a403          	lw	s0,170(a7)
    80000384:	5df00693          	li	a3,1503
    80000388:	00058093          	mv	ra,a1
    8000038c:	00633733          	sltu	a4,t1,t1
    80000390:	6c392d23          	sw	gp,1754(s2)
    80000394:	603d9c03          	lh	s8,1539(s11)
    80000398:	c8600393          	li	t2,-890
    8000039c:	37e00813          	li	a6,894
    800003a0:	00d6c1b3          	xor	gp,a3,a3
    800003a4:	94f00c93          	li	s9,-1713
    800003a8:	039cb7b3          	mulhu	a5,s9,s9
    800003ac:	016b59b3          	srl	s3,s6,s6
    800003b0:	01ce52b3          	srl	t0,t3,t3
    800003b4:	00008513          	mv	a0,ra
    800003b8:	010e823b          	addw	tp,t4,a6
    800003bc:	41ef5a3b          	sraw	s4,t5,t5
    800003c0:	bb5d0ea3          	sb	s5,-1091(s10)
    800003c4:	0274e13b          	remw	sp,s1,t2
    800003c8:	23300613          	li	a2,563
    800003cc:	81200193          	li	gp,-2030
    800003d0:	33600493          	li	s1,822
    800003d4:	02cb5abb          	divuw	s5,s6,a2
    800003d8:	00002117          	auipc	sp,0x2
    800003dc:	22810113          	addi	sp,sp,552 # 80002600 <loop_count>
    800003e0:	01bc5cb3          	srl	s9,s8,s11
    800003e4:	6f100593          	li	a1,1777
    800003e8:	00100d13          	li	s10,1
    800003ec:	20d00613          	li	a2,525
    800003f0:	e0816b83          	lwu	s7,-504(sp)
    800003f4:	d3700b13          	li	s6,-713
    800003f8:	01e79413          	slli	s0,a5,0x1e
    800003fc:	00000293          	li	t0,0
    80000400:	00e8d73b          	srlw	a4,a7,a4
    80000404:	416600bb          	subw	ra,a2,s6
    80000408:	00000e13          	li	t3,0
    8000040c:	00002317          	auipc	t1,0x2
    80000410:	b5230313          	addi	t1,t1,-1198 # 80001f5e <fromhost+0xf1e>
    80000414:	0391b933          	mulhu	s2,gp,s9
    80000418:	418c553b          	sraw	a0,s8,s8
    8000041c:	af300793          	li	a5,-1293
    80000420:	50000a93          	li	s5,1280
    80000424:	015abcb3          	sltu	s9,s5,s5
    80000428:	53e1b813          	sltiu	a6,gp,1342
    8000042c:	40800a13          	li	s4,1032
    80000430:	26b58d93          	addi	s11,a1,619
    80000434:	d7b5d0e3          	bge	a1,s11,80000194 <crash_backward>
    80000438:	64833523          	sd	s0,1610(t1)
    8000043c:	b6700413          	li	s0,-1177
    80000440:	00002817          	auipc	a6,0x2
    80000444:	13f80813          	addi	a6,a6,319 # 8000257f <test_memory+0x37f>
    80000448:	52100713          	li	a4,1313
    8000044c:	000b8213          	mv	tp,s7
    80000450:	00020693          	mv	a3,tp
    80000454:	02f4d3b3          	divu	t2,s1,a5
    80000458:	84a00093          	li	ra,-1974
    8000045c:	034dd5b3          	divu	a1,s11,s4
    80000460:	03fd1d13          	slli	s10,s10,0x3f
    80000464:	00185b03          	lhu	s6,1(a6)
    80000468:	00fb1933          	sll	s2,s6,a5
    8000046c:	00e74633          	xor	a2,a4,a4
    80000470:	00142133          	slt	sp,s0,ra
    80000474:	00002a97          	auipc	s5,0x2
    80000478:	1eba8a93          	addi	s5,s5,491 # 8000265f <_end+0x4f>
    8000047c:	01fe36b3          	sltu	a3,t3,t6
    80000480:	fff00f93          	li	t6,-1
    80000484:	f4a66593          	ori	a1,a2,-182
    80000488:	8e200093          	li	ra,-1822
    8000048c:	fa000c93          	li	s9,-96
    80000490:	40318ebb          	subw	t4,gp,gp
    80000494:	01afcfb3          	xor	t6,t6,s10
    80000498:	01f3f8b3          	and	a7,t2,t6
    8000049c:	5ee00313          	li	t1,1518
    800004a0:	014a0c33          	add	s8,s4,s4
    800004a4:	0273e133          	rem	sp,t2,t2
    800004a8:	bb300793          	li	a5,-1101
    800004ac:	cee744e3          	blt	a4,a4,80000194 <crash_backward>
    800004b0:	73b00e93          	li	t4,1851
    800004b4:	00d20a33          	add	s4,tp,a3
    800004b8:	00100413          	li	s0,1
    800004bc:	03f41413          	slli	s0,s0,0x3f
    800004c0:	024214b3          	mulh	s1,tp,tp
    800004c4:	00002997          	auipc	s3,0x2
    800004c8:	1d298993          	addi	s3,s3,466 # 80002696 <_end+0x86>
    800004cc:	01a8ef33          	or	t5,a7,s10
    800004d0:	fff00693          	li	a3,-1
    800004d4:	b9799423          	sh	s7,-1144(s3)
    800004d8:	52000593          	li	a1,1312
    800004dc:	0086c6b3          	xor	a3,a3,s0
    800004e0:	02635db3          	divu	s11,t1,t1
    800004e4:	914bb613          	sltiu	a2,s7,-1772
    800004e8:	f69ab503          	ld	a0,-151(s5)
    800004ec:	00d27733          	and	a4,tp,a3
    800004f0:	4de8f063          	bgeu	a7,t5,800009b0 <crash_forward>
    800004f4:	19600d93          	li	s11,406
    800004f8:	019e163b          	sllw	a2,t3,s9
    800004fc:	42e2df13          	srai	t5,t0,0x2e
    80000500:	00b5ec33          	or	s8,a1,a1
    80000504:	00100913          	li	s2,1
    80000508:	e3800e13          	li	t3,-456
    8000050c:	00002a17          	auipc	s4,0x2
    80000510:	2c2a0a13          	addi	s4,s4,706 # 800027ce <_end+0x1be>
    80000514:	72e00893          	li	a7,1838
    80000518:	03ced13b          	divuw	sp,t4,t3
    8000051c:	03f91913          	slli	s2,s2,0x3f
    80000520:	03139513          	slli	a0,t2,0x31
    80000524:	01b8dabb          	srlw	s5,a7,s11
    80000528:	b6f00d13          	li	s10,-1169
    8000052c:	6f900493          	li	s1,1785
    80000530:	01bdd33b          	srlw	t1,s11,s11
    80000534:	85cc8b93          	addi	s7,s9,-1956
    80000538:	0094a9b3          	slt	s3,s1,s1
    8000053c:	40f08233          	sub	tp,ra,a5
    80000540:	c57ccae3          	blt	s9,s7,80000194 <crash_backward>
    80000544:	a82a1183          	lh	gp,-1406(s4)
    80000548:	0085e2b3          	or	t0,a1,s0
    8000054c:	fff00813          	li	a6,-1
    80000550:	01284833          	xor	a6,a6,s2
    80000554:	010873b3          	and	t2,a6,a6
    80000558:	01a8afb3          	slt	t6,a7,s10
    8000055c:	0123eb33          	or	s6,t2,s2
    80000560:	011c10bb          	sllw	ra,s8,a7
    80000564:	01ebdc93          	srli	s9,s7,0x1e
    80000568:	03f2eeb3          	rem	t4,t0,t6
    8000056c:	01bdc633          	xor	a2,s11,s11
    80000570:	00553b33          	sltu	s6,a0,t0
    80000574:	95a00c13          	li	s8,-1702
    80000578:	038c5d33          	divu	s10,s8,s8
    8000057c:	00100a13          	li	s4,1
    80000580:	0210fcb3          	remu	s9,ra,ra
    80000584:	03fa1a13          	slli	s4,s4,0x3f
    80000588:	03d965b3          	rem	a1,s2,t4
    8000058c:	fff00693          	li	a3,-1
    80000590:	00100c13          	li	s8,1
    80000594:	00048493          	mv	s1,s1
    80000598:	01bddabb          	srlw	s5,s11,s11
    8000059c:	40070933          	sub	s2,a4,zero
    800005a0:	b5a00b93          	li	s7,-1190
    800005a4:	00002997          	auipc	s3,0x2
    800005a8:	0ec98993          	addi	s3,s3,236 # 80002690 <_end+0x80>
    800005ac:	017b883b          	addw	a6,s7,s7
    800005b0:	038571b3          	remu	gp,a0,s8
    800005b4:	f189d783          	lhu	a5,-232(s3)
    800005b8:	bedda393          	slti	t2,s11,-1043
    800005bc:	02cfa2b3          	mulhsu	t0,t6,a2
    800005c0:	00038393          	mv	t2,t2
    800005c4:	34100b93          	li	s7,833
    800005c8:	0146c6b3          	xor	a3,a3,s4
    800005cc:	00048f13          	mv	t5,s1
    800005d0:	41ad0533          	sub	a0,s10,s10
    800005d4:	02fb4fbb          	divw	t6,s6,a5
    800005d8:	00038613          	mv	a2,t2
    800005dc:	41ad52bb          	sraw	t0,s10,s10
    800005e0:	00002917          	auipc	s2,0x2
    800005e4:	34090913          	addi	s2,s2,832 # 80002920 <_end+0x310>
    800005e8:	03fc1c13          	slli	s8,s8,0x3f
    800005ec:	fff00d13          	li	s10,-1
    800005f0:	00002c97          	auipc	s9,0x2
    800005f4:	ca2c8c93          	addi	s9,s9,-862 # 80002292 <test_memory+0x92>
    800005f8:	a2100713          	li	a4,-1503
    800005fc:	017b99bb          	sllw	s3,s7,s7
    80000600:	e4900593          	li	a1,-439
    80000604:	00d3f433          	and	s0,t2,a3
    80000608:	014c6e33          	or	t3,s8,s4
    8000060c:	00002a97          	auipc	s5,0x2
    80000610:	8ffa8a93          	addi	s5,s5,-1793 # 80001f0b <fromhost+0xecb>
    80000614:	b9c470e3          	bgeu	s0,t3,80000194 <crash_backward>
    80000618:	6c000813          	li	a6,1728
    8000061c:	410580b3          	sub	ra,a1,a6
    80000620:	d0600113          	li	sp,-762
    80000624:	9dc92183          	lw	gp,-1572(s2)
    80000628:	1dac9783          	lh	a5,474(s9)
    8000062c:	41600d93          	li	s11,1046
    80000630:	018d4d33          	xor	s10,s10,s8
    80000634:	c0bf2213          	slti	tp,t5,-1013
    80000638:	00002617          	auipc	a2,0x2
    8000063c:	89460613          	addi	a2,a2,-1900 # 80001ecc <fromhost+0xe8c>
    80000640:	b0200093          	li	ra,-1278
    80000644:	dd900993          	li	s3,-551
    80000648:	3c800413          	li	s0,968
    8000064c:	0339e6bb          	remw	a3,s3,s3
    80000650:	56e62e23          	sw	a4,1404(a2)
    80000654:	00678bb3          	add	s7,a5,t1
    80000658:	fc9ca537          	lui	a0,0xfc9ca
    8000065c:	54000193          	li	gp,1344
    80000660:	571a91a3          	sh	a7,1379(s5)
    80000664:	01a2fb33          	and	s6,t0,s10
    80000668:	f3c08e13          	addi	t3,ra,-196
    8000066c:	1d100593          	li	a1,465
    80000670:	0185eeb3          	or	t4,a1,s8
    80000674:	abf00293          	li	t0,-1345
    80000678:	02b5e23b          	remw	tp,a1,a1
    8000067c:	f1afc213          	xori	tp,t6,-230
    80000680:	da200513          	li	a0,-606
    80000684:	022778b3          	remu	a7,a4,sp
    80000688:	85600e13          	li	t3,-1962
    8000068c:	05300813          	li	a6,83
    80000690:	e5900593          	li	a1,-423
    80000694:	03bd833b          	mulw	t1,s11,s11
    80000698:	31db0c63          	beq	s6,t4,800009b0 <crash_forward>
    8000069c:	003443b3          	xor	t2,s0,gp
    800006a0:	a6e00493          	li	s1,-1426
    800006a4:	03b5c6bb          	divw	a3,a1,s11
    800006a8:	00100793          	li	a5,1
    800006ac:	05400f13          	li	t5,84
    800006b0:	00002117          	auipc	sp,0x2
    800006b4:	27c10113          	addi	sp,sp,636 # 8000292c <_end+0x31c>
    800006b8:	03e4ea33          	rem	s4,s1,t5
    800006bc:	03f79793          	slli	a5,a5,0x3f
    800006c0:	94350093          	addi	ra,a0,-1725 # fffffffffc9c9943 <__global_pointer$+0xffffffff7c9c6b33>
    800006c4:	9dd28f93          	addi	t6,t0,-1571
    800006c8:	fff00a93          	li	s5,-1
    800006cc:	0309e93b          	remw	s2,s3,a6
    800006d0:	00facab3          	xor	s5,s5,a5
    800006d4:	0155f633          	and	a2,a1,s5
    800006d8:	ddc00893          	li	a7,-548
    800006dc:	3f200b13          	li	s6,1010
    800006e0:	1b300693          	li	a3,435
    800006e4:	00ac4fb3          	xor	t6,s8,a0
    800006e8:	03497d3b          	remuw	s10,s2,s4
    800006ec:	00169a33          	sll	s4,a3,ra
    800006f0:	94600e93          	li	t4,-1722
    800006f4:	016b1f33          	sll	t5,s6,s6
    800006f8:	0d000313          	li	t1,208
    800006fc:	c9214203          	lbu	tp,-878(sp)
    80000700:	026343bb          	divw	t2,t1,t1
    80000704:	84400493          	li	s1,-1980
    80000708:	04a74093          	xori	ra,a4,74
    8000070c:	02be4bb3          	div	s7,t3,a1
    80000710:	d81d019b          	addiw	gp,s10,-639
    80000714:	00100813          	li	a6,1
    80000718:	01dea2b3          	slt	t0,t4,t4
    8000071c:	00fe171b          	slliw	a4,t3,0xf
    80000720:	02b5843b          	mulw	s0,a1,a1
    80000724:	02d6fdbb          	remuw	s11,a3,a3
    80000728:	00002417          	auipc	s0,0x2
    8000072c:	de440413          	addi	s0,s0,-540 # 8000250c <test_memory+0x30c>
    80000730:	00100093          	li	ra,1
    80000734:	08845b83          	lhu	s7,136(s0)
    80000738:	02217f33          	remu	t5,sp,sp
    8000073c:	73100113          	li	sp,1841
    80000740:	00feecb3          	or	s9,t4,a5
    80000744:	0098d9b3          	srl	s3,a7,s1
    80000748:	40210ebb          	subw	t4,sp,sp
    8000074c:	a4cce4e3          	bltu	s9,a2,80000194 <crash_backward>
    80000750:	03f81813          	slli	a6,a6,0x3f
    80000754:	fff00513          	li	a0,-1
    80000758:	00002217          	auipc	tp,0x2
    8000075c:	3ad20213          	addi	tp,tp,941 # 80002b05 <_end+0x4f5>
    80000760:	03f09093          	slli	ra,ra,0x3f
    80000764:	fff00693          	li	a3,-1
    80000768:	00002317          	auipc	t1,0x2
    8000076c:	49330313          	addi	t1,t1,1171 # 80002bfb <_end+0x5eb>
    80000770:	00100a13          	li	s4,1
    80000774:	017fe4b3          	or	s1,t6,s7
    80000778:	82d30283          	lb	t0,-2003(t1)
    8000077c:	02b017b3          	mulh	a5,zero,a1
    80000780:	00100b93          	li	s7,1
    80000784:	00100613          	li	a2,1
    80000788:	42a1de13          	srai	t3,gp,0x2a
    8000078c:	01054533          	xor	a0,a0,a6
    80000790:	8c000293          	li	t0,-1856
    80000794:	03f61613          	slli	a2,a2,0x3f
    80000798:	00078b13          	mv	s6,a5
    8000079c:	00aafc33          	and	s8,s5,a0
    800007a0:	01a2f8b3          	and	a7,t0,s10
    800007a4:	03fb9b93          	slli	s7,s7,0x3f
    800007a8:	fa828793          	addi	a5,t0,-88
    800007ac:	037bcab3          	div	s5,s7,s7
    800007b0:	93424183          	lbu	gp,-1740(tp) # fffffffffffff934 <__global_pointer$+0xffffffff7fffcb24>
    800007b4:	fff00413          	li	s0,-1
    800007b8:	0016c6b3          	xor	a3,a3,ra
    800007bc:	94800493          	li	s1,-1720
    800007c0:	fff00113          	li	sp,-1
    800007c4:	010c6933          	or	s2,s8,a6
    800007c8:	3bf00e13          	li	t3,959
    800007cc:	03fa1a13          	slli	s4,s4,0x3f
    800007d0:	000b0593          	mv	a1,s6
    800007d4:	1cf2ce63          	blt	t0,a5,800009b0 <crash_forward>
    800007d8:	00d1f3b3          	and	t2,gp,a3
    800007dc:	fff00713          	li	a4,-1
    800007e0:	01474733          	xor	a4,a4,s4
    800007e4:	01744433          	xor	s0,s0,s7
    800007e8:	001dedb3          	or	s11,s11,ra
    800007ec:	5b500213          	li	tp,1461
    800007f0:	00c14133          	xor	sp,sp,a2
    800007f4:	00100513          	li	a0,1
    800007f8:	99b3fee3          	bgeu	t2,s11,80000194 <crash_backward>
    800007fc:	002df9b3          	and	s3,s11,sp
    80000800:	51500893          	li	a7,1301
    80000804:	008ffeb3          	and	t4,t6,s0
    80000808:	017eecb3          	or	s9,t4,s7
    8000080c:	00e17fb3          	and	t6,sp,a4
    80000810:	41868db3          	sub	s11,a3,s8
    80000814:	013cd79b          	srliw	a5,s9,0x13
    80000818:	03f51513          	slli	a0,a0,0x3f
    8000081c:	01c4833b          	addw	t1,s1,t3
    80000820:	f7358b93          	addi	s7,a1,-141
    80000824:	75f00b93          	li	s7,1887
    80000828:	e1d00693          	li	a3,-483
    8000082c:	01496d33          	or	s10,s2,s4
    80000830:	01800393          	li	t2,24
    80000834:	00c9ef33          	or	t5,s3,a2
    80000838:	f0300313          	li	t1,-253
    8000083c:	02d6debb          	divuw	t4,a3,a3
    80000840:	038c02bb          	mulw	t0,s8,s8
    80000844:	fff00a93          	li	s5,-1
    80000848:	0073c1b3          	xor	gp,t2,t2
    8000084c:	ff900193          	li	gp,-7
    80000850:	017b97b3          	sll	a5,s7,s7
    80000854:	95fd60e3          	bltu	s10,t6,80000194 <crash_backward>
    80000858:	00002417          	auipc	s0,0x2
    8000085c:	0d440413          	addi	s0,s0,212 # 8000292c <_end+0x31c>
    80000860:	cee00293          	li	t0,-786
    80000864:	cf200e93          	li	t4,-782
    80000868:	0112183b          	sllw	a6,tp,a7
    8000086c:	01def5b3          	and	a1,t4,t4
    80000870:	cac42c83          	lw	s9,-852(s0)
    80000874:	93e980e3          	beq	s3,t5,80000194 <crash_backward>
    80000878:	00aacab3          	xor	s5,s5,a0
    8000087c:	019389bb          	addw	s3,t2,s9
    80000880:	8f200493          	li	s1,-1806
    80000884:	93100713          	li	a4,-1743
    80000888:	9ec00413          	li	s0,-1556
    8000088c:	7f600c93          	li	s9,2038
    80000890:	015b7933          	and	s2,s6,s5
    80000894:	00a96c33          	or	s8,s2,a0
    80000898:	00002217          	auipc	tp,0x2
    8000089c:	a6420213          	addi	tp,tp,-1436 # 800022fc <test_memory+0xfc>
    800008a0:	b9800b93          	li	s7,-1128
    800008a4:	037405b3          	mul	a1,s0,s7
    800008a8:	029350bb          	divuw	ra,t1,s1
    800008ac:	f2400d13          	li	s10,-220
    800008b0:	017b9e3b          	sllw	t3,s7,s7
    800008b4:	57f00113          	li	sp,1407
    800008b8:	03ad17b3          	mulh	a5,s10,s10
    800008bc:	77a00e93          	li	t4,1914
    800008c0:	00090913          	mv	s2,s2
    800008c4:	93070893          	addi	a7,a4,-1744
    800008c8:	02841c33          	mulh	s8,s0,s0
    800008cc:	00090e13          	mv	t3,s2
    800008d0:	ee200813          	li	a6,-286
    800008d4:	09610f13          	addi	t5,sp,150
    800008d8:	0108563b          	srlw	a2,a6,a6
    800008dc:	01dcea33          	or	s4,s9,t4
    800008e0:	20822f83          	lw	t6,520(tp) # 208 <_start-0x7ffffdf8>
    800008e4:	020aadb3          	mulhsu	s11,s5,zero
    800008e8:	32100d13          	li	s10,801
    800008ec:	03bdf433          	remu	s0,s11,s11
    800008f0:	00216b33          	or	s6,sp,sp
    800008f4:	aa900313          	li	t1,-1367
    800008f8:	53100593          	li	a1,1329
    800008fc:	c0218693          	addi	a3,gp,-1022 # 80002a12 <_end+0x402>
    80000900:	0ad1c863          	blt	gp,a3,800009b0 <crash_forward>
    80000904:	405283b3          	sub	t2,t0,t0
    80000908:	41ad04b3          	sub	s1,s10,s10
    8000090c:	02b340bb          	divw	ra,t1,a1
    80000910:	0040006f          	j	80000914 <reg_dump>

0000000080000914 <reg_dump>:
    80000914:	00002097          	auipc	ra,0x2
    80000918:	cec08093          	addi	ra,ra,-788 # 80002600 <loop_count>
    8000091c:	0000a103          	lw	sp,0(ra)
    80000920:	fff10193          	addi	gp,sp,-1
    80000924:	0030a023          	sw	gp,0(ra)
    80000928:	90011ae3          	bnez	sp,8000023c <pseg_0>
    8000092c:	00001097          	auipc	ra,0x1
    80000930:	7d408093          	addi	ra,ra,2004 # 80002100 <begin_signature>
    80000934:	0000b023          	sd	zero,0(ra)
    80000938:	0020b823          	sd	sp,16(ra)
    8000093c:	0030bc23          	sd	gp,24(ra)
    80000940:	0250b423          	sd	t0,40(ra)
    80000944:	0260b823          	sd	t1,48(ra)
    80000948:	0270bc23          	sd	t2,56(ra)
    8000094c:	0480b023          	sd	s0,64(ra)
    80000950:	0490b423          	sd	s1,72(ra)
    80000954:	04a0b823          	sd	a0,80(ra)
    80000958:	04b0bc23          	sd	a1,88(ra)
    8000095c:	06c0b023          	sd	a2,96(ra)
    80000960:	06d0b423          	sd	a3,104(ra)
    80000964:	06e0b823          	sd	a4,112(ra)
    80000968:	06f0bc23          	sd	a5,120(ra)
    8000096c:	0900b023          	sd	a6,128(ra)
    80000970:	0910b423          	sd	a7,136(ra)
    80000974:	0920b823          	sd	s2,144(ra)
    80000978:	0930bc23          	sd	s3,152(ra)
    8000097c:	0b40b023          	sd	s4,160(ra)
    80000980:	0b50b423          	sd	s5,168(ra)
    80000984:	0b60b823          	sd	s6,176(ra)
    80000988:	0b70bc23          	sd	s7,184(ra)
    8000098c:	0d80b023          	sd	s8,192(ra)
    80000990:	0d90b423          	sd	s9,200(ra)
    80000994:	0da0b823          	sd	s10,208(ra)
    80000998:	0db0bc23          	sd	s11,216(ra)
    8000099c:	0fc0b023          	sd	t3,224(ra)
    800009a0:	0fd0b423          	sd	t4,232(ra)
    800009a4:	0fe0b823          	sd	t5,240(ra)
    800009a8:	0ff0bc23          	sd	t6,248(ra)
    800009ac:	0200006f          	j	800009cc <test_end>

00000000800009b0 <crash_forward>:
    800009b0:	0ff0000f          	fence
    800009b4:	00018063          	beqz	gp,800009b4 <crash_forward+0x4>
    800009b8:	00119193          	slli	gp,gp,0x1
    800009bc:	0011e193          	ori	gp,gp,1
    800009c0:	05d00893          	li	a7,93
    800009c4:	00018513          	mv	a0,gp
    800009c8:	00000073          	ecall

00000000800009cc <test_end>:
    800009cc:	0ff0000f          	fence
    800009d0:	00100193          	li	gp,1
    800009d4:	05d00893          	li	a7,93
    800009d8:	00000513          	li	a0,0
    800009dc:	00000073          	ecall
    800009e0:	c0001073          	unimp
	...

Disassembly of section .tohost:

0000000080001000 <tohost>:
	...

0000000080001040 <fromhost>:
	...

Disassembly of section .data:

0000000080002000 <hidden_data>:
    80002000:	ffff                	0xffff
    80002002:	ffff                	0xffff
    80002004:	ffff                	0xffff
    80002006:	ffff                	0xffff

0000000080002008 <reg_x1_init>:
    80002008:	0004                	0x4
    8000200a:	0000                	unimp
    8000200c:	0000                	unimp
	...

0000000080002010 <reg_x2_init>:
    80002010:	1405                	addi	s0,s0,-31
    80002012:	0b32                	slli	s6,s6,0xc
    80002014:	15898623          	sb	s8,332(s3)

0000000080002018 <reg_x3_init>:
    80002018:	e8375153          	0xe8375153
    8000201c:	d182                	sw	zero,224(sp)
    8000201e:	74f0                	ld	a2,232(s1)

0000000080002020 <reg_x4_init>:
    80002020:	a96a                	fsd	fs10,144(sp)
    80002022:	3f42                	fld	ft10,48(sp)
    80002024:	b0f8                	fsd	fa4,224(s1)
    80002026:	          	lui	s3,0xff80e

0000000080002028 <reg_x5_init>:
    80002028:	ff80                	sd	s0,56(a5)
    8000202a:	ffff                	0xffff
    8000202c:	ffff                	0xffff
    8000202e:	ffff                	0xffff

0000000080002030 <reg_x6_init>:
    80002030:	0b44                	addi	s1,sp,404
    80002032:	3ec9                	addiw	t4,t4,-14
    80002034:	a4f6                	fsd	ft9,72(sp)
    80002036:	ec25                	bnez	s0,800020ae <reg_x21_init+0x6>

0000000080002038 <reg_x7_init>:
    80002038:	8004                	0x8004
    8000203a:	ffff                	0xffff
    8000203c:	ffff                	0xffff
    8000203e:	ffff                	0xffff

0000000080002040 <reg_x8_init>:
    80002040:	c435                	beqz	s0,800020ac <reg_x21_init+0x4>
    80002042:	b56e                	fsd	fs11,168(sp)
    80002044:	c705                	beqz	a4,8000206c <reg_x13_init+0x4>
    80002046:	e922                	sd	s0,144(sp)

0000000080002048 <reg_x9_init>:
    80002048:	5c63b833          	0x5c63b833
    8000204c:	0525                	addi	a0,a0,9
    8000204e:	10f6                	slli	ra,ra,0x3d

0000000080002050 <reg_x10_init>:
    80002050:	8006                	c.mv	zero,ra
    80002052:	ffff                	0xffff
    80002054:	ffff                	0xffff
    80002056:	ffff                	0xffff

0000000080002058 <reg_x11_init>:
	...

0000000080002060 <reg_x12_init>:
	...

0000000080002068 <reg_x13_init>:
    80002068:	0001                	nop
    8000206a:	0000                	unimp
    8000206c:	0000                	unimp
	...

0000000080002070 <reg_x14_init>:
    80002070:	7796                	ld	a5,352(sp)
    80002072:	678bc647          	fmsub.q	fa2,fs7,fs8,fa2,rmm
    80002076:	211e                	fld	ft2,448(sp)

0000000080002078 <reg_x15_init>:
	...

0000000080002080 <reg_x16_init>:
    80002080:	aa5a3d33          	0xaa5a3d33
    80002084:	c016                	sw	t0,0(sp)
    80002086:	          	0xd9c12e77

0000000080002088 <reg_x17_init>:
    80002088:	d9c1                	beqz	a1,80002018 <reg_x3_init>
    8000208a:	5830                	lw	a2,112(s0)
    8000208c:	7ca6                	ld	s9,104(sp)
    8000208e:	2b09                	addiw	s6,s6,2

0000000080002090 <reg_x18_init>:
    80002090:	ff89                	bnez	a5,80001faa <fromhost+0xf6a>
    80002092:	edde                	sd	s7,216(sp)
    80002094:	6f4d                	lui	t5,0x13
    80002096:	fb6a                	sd	s10,432(sp)

0000000080002098 <reg_x19_init>:
    80002098:	0001                	nop
    8000209a:	0000                	unimp
    8000209c:	0000                	unimp
	...

00000000800020a0 <reg_x20_init>:
    800020a0:	91c935c7          	fmsub.s	fa1,fs2,ft8,fs2,rup
    800020a4:	2139                	addiw	sp,sp,14
    800020a6:	f182                	sd	zero,224(sp)

00000000800020a8 <reg_x21_init>:
    800020a8:	0002                	c.slli64	zero
    800020aa:	0000                	unimp
    800020ac:	0000                	unimp
	...

00000000800020b0 <reg_x22_init>:
    800020b0:	ffffff83          	0xffffff83
    800020b4:	ffff                	0xffff
    800020b6:	ffff                	0xffff

00000000800020b8 <reg_x23_init>:
    800020b8:	8dd4                	0x8dd4
    800020ba:	5460                	lw	s0,108(s0)
    800020bc:	6ad1                	lui	s5,0x14
    800020be:	          	0xffff7d33

00000000800020c0 <reg_x24_init>:
    800020c0:	ffff                	0xffff
    800020c2:	ffff                	0xffff
    800020c4:	ffff                	0xffff
    800020c6:	ffff                	0xffff

00000000800020c8 <reg_x25_init>:
    800020c8:	ffff                	0xffff
    800020ca:	ffff                	0xffff
    800020cc:	ffff                	0xffff
    800020ce:	ffff                	0xffff

00000000800020d0 <reg_x26_init>:
    800020d0:	8009                	srli	s0,s0,0x2
    800020d2:	ffff                	0xffff
    800020d4:	ffff                	0xffff
    800020d6:	ffff                	0xffff

00000000800020d8 <reg_x27_init>:
	...

00000000800020e0 <reg_x28_init>:
    800020e0:	ffff                	0xffff
    800020e2:	ffff                	0xffff
    800020e4:	ffff                	0xffff
    800020e6:	ffff                	0xffff

00000000800020e8 <reg_x29_init>:
    800020e8:	0008                	0x8
    800020ea:	8000                	0x8000
    800020ec:	ffff                	0xffff
    800020ee:	ffff                	0xffff

00000000800020f0 <reg_x30_init>:
    800020f0:	0004                	0x4
    800020f2:	8000                	0x8000
    800020f4:	ffff                	0xffff
    800020f6:	ffff                	0xffff

00000000800020f8 <reg_x31_init>:
    800020f8:	ffff                	0xffff
    800020fa:	ffff                	0xffff
    800020fc:	ffff                	0xffff
    800020fe:	ffff                	0xffff

0000000080002100 <begin_signature>:
    80002100:	1155697b          	0x1155697b
    80002104:	6686                	ld	a3,64(sp)
    80002106:	8b4d                	andi	a4,a4,19

0000000080002108 <reg_x1_output>:
    80002108:	8d58                	0x8d58
    8000210a:	5d5d                	li	s10,-9
    8000210c:	6ec6                	ld	t4,80(sp)
    8000210e:	50d5                	li	ra,-11

0000000080002110 <reg_x2_output>:
    80002110:	ad82b2a3          	sd	s8,-1339(t0)
    80002114:	f016                	sd	t0,32(sp)
    80002116:	f6a6                	sd	s1,360(sp)

0000000080002118 <reg_x3_output>:
    80002118:	0e58                	addi	a4,sp,788
    8000211a:	67f0                	ld	a2,200(a5)
    8000211c:	8456                	mv	s0,s5
    8000211e:	ae62                	fsd	fs8,280(sp)

0000000080002120 <reg_x4_output>:
    80002120:	d998                	sw	a4,48(a1)
    80002122:	667091bb          	0x667091bb
    80002126:	65d6                	ld	a1,336(sp)

0000000080002128 <reg_x5_output>:
    80002128:	e82a05bb          	0xe82a05bb
    8000212c:	e851                	bnez	s0,800021c0 <reg_x24_output>
    8000212e:	  	0x4daa4bdca3577e3f

0000000080002130 <reg_x6_output>:
    80002130:	4bdca357          	0x4bdca357
    80002134:	4daa                	lw	s11,136(sp)
    80002136:	583c                	lw	a5,112(s0)

0000000080002138 <reg_x7_output>:
    80002138:	12609513          	0x12609513
    8000213c:	2a6a                	fld	fs4,152(sp)
    8000213e:	b7fa                	fsd	ft10,488(sp)

0000000080002140 <reg_x8_output>:
    80002140:	0844                	addi	s1,sp,20
    80002142:	02205c6b          	0x2205c6b
    80002146:	da66                	sw	s9,52(sp)

0000000080002148 <reg_x9_output>:
    80002148:	109d                	addi	ra,ra,-25
    8000214a:	9132                	add	sp,sp,a2
    8000214c:	4d9f 7a4d       	0x79817a4d4d9f

0000000080002150 <reg_x10_output>:
    80002150:	7981                	lui	s3,0xfffe0
    80002152:	0d25                	addi	s10,s10,9
    80002154:	4e99                	li	t4,6
    80002156:	90f0                	0x90f0

0000000080002158 <reg_x11_output>:
    80002158:	b6b5                	j	80001cc4 <fromhost+0xc84>
    8000215a:	2415                	addiw	s0,s0,5
    8000215c:	c509                	beqz	a0,80002166 <reg_x12_output+0x6>
    8000215e:	f971                	bnez	a0,80002132 <reg_x6_output+0x2>

0000000080002160 <reg_x12_output>:
    80002160:	a782                	fsd	ft0,456(sp)
    80002162:	729f c0ab 117a      	0x117ac0ab729f

0000000080002168 <reg_x13_output>:
    80002168:	efeaea8b          	0xefeaea8b
    8000216c:	71b5f8d3          	0x71b5f8d3

0000000080002170 <reg_x14_output>:
    80002170:	9de1                	0x9de1
    80002172:	a2cc                	fsd	fa1,128(a3)
    80002174:	5f5d                	li	t5,-9
    80002176:	1451                	addi	s0,s0,-12

0000000080002178 <reg_x15_output>:
    80002178:	c234e617          	auipc	a2,0xc234e
    8000217c:	978a                	add	a5,a5,sp
    8000217e:	f4bc                	sd	a5,104(s1)

0000000080002180 <reg_x16_output>:
    80002180:	486e                	lw	a6,216(sp)
    80002182:	e8ee                	sd	s11,80(sp)
    80002184:	a80e                	fsd	ft3,16(sp)
    80002186:	5ba8                	lw	a0,112(a5)

0000000080002188 <reg_x17_output>:
    80002188:	174a                	slli	a4,a4,0x32
    8000218a:	3798b10b          	0x3798b10b
    8000218e:	be78                	fsd	fa4,248(a2)

0000000080002190 <reg_x18_output>:
    80002190:	b58a                	fsd	ft2,232(sp)
    80002192:	f596464f          	0xf596464f
    80002196:	c4a1                	beqz	s1,800021de <reg_x27_output+0x6>

0000000080002198 <reg_x19_output>:
    80002198:	9c85                	subw	s1,s1,s1
    8000219a:	1d95                	addi	s11,s11,-27
    8000219c:	59810d0b          	0x59810d0b

00000000800021a0 <reg_x20_output>:
    800021a0:	a9b4                	fsd	fa3,80(a1)
    800021a2:	8fb0                	0x8fb0
    800021a4:	b5aa                	fsd	fa0,232(sp)
    800021a6:	810c                	0x810c

00000000800021a8 <reg_x21_output>:
    800021a8:	944e                	add	s0,s0,s3
    800021aa:	6070                	ld	a2,192(s0)
    800021ac:	b79a                	fsd	ft6,488(sp)
    800021ae:	30e9                	addiw	ra,ra,-6

00000000800021b0 <reg_x22_output>:
    800021b0:	5864                	lw	s1,116(s0)
    800021b2:	769e                	ld	a3,480(sp)
    800021b4:	1085                	addi	ra,ra,-31
    800021b6:	          	0x3441493b

00000000800021b8 <reg_x23_output>:
    800021b8:	3441                	addiw	s0,s0,-16
    800021ba:	75c8                	ld	a0,168(a1)
    800021bc:	6ce9                	lui	s9,0x1a
    800021be:	7c84                	ld	s1,56(s1)

00000000800021c0 <reg_x24_output>:
    800021c0:	655e5617          	auipc	a2,0x655e5
    800021c4:	a186e6c3          	fmadd.s	fa3,fa3,fs8,fs4,unknown

00000000800021c8 <reg_x25_output>:
    800021c8:	35aadb43          	0x35aadb43
    800021cc:	030a                	slli	t1,t1,0x2
    800021ce:	7bda                	ld	s7,432(sp)

00000000800021d0 <reg_x26_output>:
    800021d0:	30ce17ab          	0x30ce17ab
    800021d4:	718e498f          	0x718e498f

00000000800021d8 <reg_x27_output>:
    800021d8:	92fe                	add	t0,t0,t6
    800021da:	d32d                	beqz	a4,8000213c <reg_x7_output+0x4>
    800021dc:	9f45                	0x9f45
    800021de:	3828                	fld	fa0,112(s0)

00000000800021e0 <reg_x28_output>:
    800021e0:	92ec                	0x92ec
    800021e2:	c6ea                	sw	s10,76(sp)
    800021e4:	d0ff                	0xd0ff
    800021e6:	e1fc                	sd	a5,192(a1)

00000000800021e8 <reg_x29_output>:
    800021e8:	b488                	fsd	fa0,40(s1)
    800021ea:	05d2                	slli	a1,a1,0x14
    800021ec:	0d1d                	addi	s10,s10,7
    800021ee:	0ed8                	addi	a4,sp,852

00000000800021f0 <reg_x30_output>:
    800021f0:	d46e                	sw	s11,40(sp)
    800021f2:	7fd8                	ld	a4,184(a5)
    800021f4:	74c0                	ld	s0,168(s1)
    800021f6:	2329                	addiw	t1,t1,10

00000000800021f8 <reg_x31_output>:
    800021f8:	a465                	j	800024a0 <test_memory+0x2a0>
    800021fa:	db69                	beqz	a4,800021cc <reg_x25_output+0x4>
    800021fc:	018a                	slli	gp,gp,0x2
    800021fe:	e02e                	sd	a1,0(sp)

0000000080002200 <test_memory>:
    80002200:	9e9c                	0x9e9c
    80002202:	fb81                	bnez	a5,80002112 <reg_x2_output+0x2>
    80002204:	caed                	beqz	a3,800022f6 <test_memory+0xf6>
    80002206:	a926                	fsd	fs1,144(sp)
    80002208:	6899d9af          	0x6899d9af
    8000220c:	ce8c                	sw	a1,24(a3)
    8000220e:	39ec                	fld	fa1,240(a1)
    80002210:	6611                	lui	a2,0x4
    80002212:	3c5f d145 fb5d      	0xfb5dd1453c5f
    80002218:	82baa493          	slti	s1,s5,-2005
    8000221c:	4ae1                	li	s5,24
    8000221e:	3f26472b          	0x3f26472b
    80002222:	a47d4a3f 67ff3ca9 	0x67ff3ca9a47d4a3f
    8000222a:	31bc                	fld	fa5,96(a1)
    8000222c:	f215                	bnez	a2,80002150 <reg_x10_output>
    8000222e:	ce5c                	sw	a5,28(a2)
    80002230:	3aaa90cb          	fnmsub.d	ft1,fs5,fa0,ft7,rtz
    80002234:	c9f1                	beqz	a1,80002308 <test_memory+0x108>
    80002236:	7f6c                	ld	a1,248(a4)
    80002238:	3a99                	addiw	s5,s5,-26
    8000223a:	63ff                	0x63ff
    8000223c:	706d80bb          	0x706d80bb
    80002240:	a09a                	fsd	ft6,64(sp)
    80002242:	41b8                	lw	a4,64(a1)
    80002244:	ef81                	bnez	a5,8000225c <test_memory+0x5c>
    80002246:	257e                	fld	fa0,472(sp)
    80002248:	22f2                	fld	ft5,280(sp)
    8000224a:	9b3e                	add	s6,s6,a5
    8000224c:	90f8                	0x90f8
    8000224e:	4c299043          	0x4c299043
    80002252:	f264                	sd	s1,224(a2)
    80002254:	45b8                	lw	a4,72(a1)
    80002256:	705c                	ld	a5,160(s0)
    80002258:	387562fb          	0x387562fb
    8000225c:	fb49                	bnez	a4,800021ee <reg_x29_output+0x6>
    8000225e:	6d31                	lui	s10,0xc
    80002260:	839f 3a73 d832      	0xd8323a73839f
    80002266:	e0ed                	bnez	s1,80002348 <test_memory+0x148>
    80002268:	e01d86b7          	lui	a3,0xe01d8
    8000226c:	ff7c                	sd	a5,248(a4)
    8000226e:	5989b517          	auipc	a0,0x5989b
    80002272:	8837e0c3          	fmadd.s	ft1,fa5,ft3,fa7,unknown
    80002276:	99d4                	0x99d4
    80002278:	2a32                	fld	fs4,264(sp)
    8000227a:	3f7c                	fld	fa5,248(a4)
    8000227c:	106c7a03          	0x106c7a03
    80002280:	bbee                	fsd	fs11,496(sp)
    80002282:	66a4                	ld	s1,72(a3)
    80002284:	8dad                	xor	a1,a1,a1
    80002286:	0996                	slli	s3,s3,0x5
    80002288:	aab1                	j	800023e4 <test_memory+0x1e4>
    8000228a:	9266                	add	tp,tp,s9
    8000228c:	a968                	fsd	fa0,208(a0)
    8000228e:	5b70                	lw	a2,116(a4)
    80002290:	2aa0                	fld	fs0,80(a3)
    80002292:	a22b8323          	sb	sp,-1498(s7)
    80002296:	3da9                	addiw	s11,s11,-22
    80002298:	372a                	fld	fa4,168(sp)
    8000229a:	65e2                	ld	a1,24(sp)
    8000229c:	988b4823          	0x988b4823
    800022a0:	fed4                	sd	a3,184(a3)
    800022a2:	3a70f2cf          	fnmadd.d	ft5,ft1,ft7,ft7
    800022a6:	5252                	lw	tp,52(sp)
    800022a8:	f3f6                	sd	t4,480(sp)
    800022aa:	fe8baacf          	fnmadd.q	fs5,fs7,fs0,ft11,rdn
    800022ae:	6094                	ld	a3,0(s1)
    800022b0:	17f4                	addi	a3,sp,1004
    800022b2:	cd42                	sw	a6,152(sp)
    800022b4:	71f6                	ld	gp,376(sp)
    800022b6:	0ff2                	slli	t6,t6,0x1c
    800022b8:	25c4                	fld	fs1,136(a1)
    800022ba:	7129a38b          	0x7129a38b
    800022be:	01b42aeb          	0x1b42aeb
    800022c2:	8ce1d423          	0x8ce1d423
    800022c6:	62e9                	lui	t0,0x1a
    800022c8:	97d0                	0x97d0
    800022ca:	2b4a                	fld	fs6,144(sp)
    800022cc:	6f36                	ld	t5,328(sp)
    800022ce:	38b0                	fld	fa2,112(s1)
    800022d0:	6b9fe763          	bltu	t6,s9,8000297e <_end+0x36e>
    800022d4:	341f 91cf b155      	0xb15591cf341f
    800022da:	5575                	li	a0,-3
    800022dc:	055a                	slli	a0,a0,0x16
    800022de:	e88300ef          	jal	ra,7ff32966 <_start-0xcd69a>
    800022e2:	e2a5                	bnez	a3,80002342 <test_memory+0x142>
    800022e4:	cfc8                	sw	a0,28(a5)
    800022e6:	ee40e4e3          	bltu	ra,tp,800021ce <reg_x25_output+0x6>
    800022ea:	3130                	fld	fa2,96(a0)
    800022ec:	78bc                	ld	a5,112(s1)
    800022ee:	76b8                	ld	a4,104(a3)
    800022f0:	f7b6a29b          	0xf7b6a29b
    800022f4:	a3cd                	j	800028d6 <_end+0x2c6>
    800022f6:	7b41                	lui	s6,0xffff0
    800022f8:	af25                	j	80002a30 <_end+0x420>
    800022fa:	516c                	lw	a1,100(a0)
    800022fc:	6e3a                	ld	t3,392(sp)
    800022fe:	044a72e7          	0x44a72e7
    80002302:	92d1c69b          	0x92d1c69b
    80002306:	d4f0                	sw	a2,108(s1)
    80002308:	9476                	add	s0,s0,t4
    8000230a:	7efc                	ld	a5,248(a3)
    8000230c:	8157c1f7          	0x8157c1f7
    80002310:	bd9f 8107 ab51      	0xab518107bd9f
    80002316:	ceb8                	sw	a4,88(a3)
    80002318:	d8f2                	sw	t3,112(sp)
    8000231a:	0fec                	addi	a1,sp,988
    8000231c:	d316                	sw	t0,164(sp)
    8000231e:	a145                	j	800027be <_end+0x1ae>
    80002320:	e1a8                	sd	a0,64(a1)
    80002322:	e30c11a7          	0xe30c11a7
    80002326:	7bad                	lui	s7,0xfffeb
    80002328:	5f5a                	lw	t5,180(sp)
    8000232a:	d8ae                	sw	a1,112(sp)
    8000232c:	47c4                	lw	s1,12(a5)
    8000232e:	8a70                	0x8a70
    80002330:	8d48                	0x8d48
    80002332:	a49e7337          	lui	t1,0xa49e7
    80002336:	2331                	addiw	t1,t1,12
    80002338:	676a                	ld	a4,152(sp)
    8000233a:	9009                	srli	s0,s0,0x22
    8000233c:	8d7c                	0x8d7c
    8000233e:	a74d58c3          	fmadd.q	fa7,fs10,fs4,fs4,unknown
    80002342:	95a1                	srai	a1,a1,0x28
    80002344:	136c                	addi	a1,sp,428
    80002346:	46cd                	li	a3,19
    80002348:	09521e07          	0x9521e07
    8000234c:	3f069987          	0x3f069987
    80002350:	0dc2                	slli	s11,s11,0x10
    80002352:	eeb1                	bnez	a3,800023ae <test_memory+0x1ae>
    80002354:	ac1129c7          	0xac1129c7
    80002358:	7cb4                	ld	a3,120(s1)
    8000235a:	8859                	andi	s0,s0,22
    8000235c:	adc0                	fsd	fs0,152(a1)
    8000235e:	f274                	sd	a3,224(a2)
    80002360:	c480                	sw	s0,8(s1)
    80002362:	ac16                	fsd	ft5,24(sp)
    80002364:	19d8154b          	fnmsub.s	fa0,fa6,ft9,ft3,rtz
    80002368:	2c4a                	fld	fs8,144(sp)
    8000236a:	0b48                	addi	a0,sp,404
    8000236c:	25a2                	fld	fa1,8(sp)
    8000236e:	cda8                	sw	a0,88(a1)
    80002370:	1e8bf90b          	0x1e8bf90b
    80002374:	7589                	lui	a1,0xfffe2
    80002376:	8815                	andi	s0,s0,5
    80002378:	5ee8                	lw	a0,124(a3)
    8000237a:	0f38                	addi	a4,sp,920
    8000237c:	8f7a                	mv	t5,t5
    8000237e:	5cf6                	lw	s9,124(sp)
    80002380:	ef9a                	sd	t1,472(sp)
    80002382:	60e4aaef          	jal	s5,8004c990 <__global_pointer$+0x49b80>
    80002386:	9419                	srai	s0,s0,0x26
    80002388:	983ed527          	0x983ed527
    8000238c:	95fd                	srai	a1,a1,0x3f
    8000238e:	d19e                	sw	t2,224(sp)
    80002390:	f3af2d77          	0xf3af2d77
    80002394:	eb0453bf 23e28292 	0x23e28292eb0453bf
    8000239c:	7e04                	ld	s1,56(a2)
    8000239e:	302c                	fld	fa1,96(s0)
    800023a0:	7489                	lui	s1,0xfffe2
    800023a2:	33c2                	fld	ft7,48(sp)
    800023a4:	6dd9                	lui	s11,0x16
    800023a6:	3768                	fld	fa0,232(a4)
    800023a8:	8555                	srai	a0,a0,0x15
    800023aa:	5905                	li	s2,-31
    800023ac:	3c8a                	fld	fs9,160(sp)
    800023ae:	6982                	ld	s3,0(sp)
    800023b0:	642e                	ld	s0,200(sp)
    800023b2:	f269                	bnez	a2,80002374 <test_memory+0x174>
    800023b4:	a1ee                	fsd	fs11,192(sp)
    800023b6:	c7f6                	sw	t4,204(sp)
    800023b8:	69396533          	0x69396533
    800023bc:	68fc                	ld	a5,208(s1)
    800023be:	a93c                	fsd	fa5,80(a0)
    800023c0:	d34e                	sw	s3,164(sp)
    800023c2:	64ad                	lui	s1,0xb
    800023c4:	51dcbbab          	0x51dcbbab
    800023c8:	cdbd                	beqz	a1,80002446 <test_memory+0x246>
    800023ca:	8fb508a3          	sb	s11,-1807(a0) # d989cb5f <__global_pointer$+0x59899d4f>
    800023ce:	3ffd                	addiw	t6,t6,-1
    800023d0:	37ad                	addiw	a5,a5,-21
    800023d2:	6cfa                	ld	s9,408(sp)
    800023d4:	5fbc                	lw	a5,120(a5)
    800023d6:	37c0bc63          	0x37c0bc63
    800023da:	f238                	sd	a4,96(a2)
    800023dc:	a8c5                	j	800024cc <test_memory+0x2cc>
    800023de:	b0bd                	j	80001c4c <fromhost+0xc0c>
    800023e0:	ae7f                	0xae7f
    800023e2:	32de                	fld	ft5,496(sp)
    800023e4:	0aa96a43          	fmadd.d	fs4,fs2,fa0,ft1,unknown
    800023e8:	35fe                	fld	fa1,504(sp)
    800023ea:	215e                	fld	ft2,464(sp)
    800023ec:	95d3b6f7          	0x95d3b6f7
    800023f0:	7a41                	lui	s4,0xffff0
    800023f2:	9ac5                	andi	a3,a3,-15
    800023f4:	4f71                	li	t5,28
    800023f6:	1e4c                	addi	a1,sp,820
    800023f8:	5921                	li	s2,-24
    800023fa:	d30a3763          	0xd30a3763
    800023fe:	09c6994b          	fnmsub.s	fs2,fa3,ft8,ft1,rtz
    80002402:	6011                	c.lui	zero,0x4
    80002404:	f8a3626f          	jal	tp,7ff38b8e <_start-0xc7472>
    80002408:	deec                	sw	a1,124(a3)
    8000240a:	1592                	slli	a1,a1,0x24
    8000240c:	2746                	fld	fa4,80(sp)
    8000240e:	6c7c                	ld	a5,216(s0)
    80002410:	792adc8f          	0x792adc8f
    80002414:	267d                	addiw	a2,a2,31
    80002416:	3a2e                	fld	fs4,232(sp)
    80002418:	2bbca0b3          	0x2bbca0b3
    8000241c:	18ef9f33          	0x18ef9f33
    80002420:	d860                	sw	s0,116(s0)
    80002422:	0e5c8dab          	0xe5c8dab
    80002426:	3734                	fld	fa3,104(a4)
    80002428:	f50d                	bnez	a0,80002352 <test_memory+0x152>
    8000242a:	4fa0a997          	auipc	s3,0x4fa0a
    8000242e:	c8e5                	beqz	s1,8000251e <test_memory+0x31e>
    80002430:	483be40f          	0x483be40f
    80002434:	4df2                	lw	s11,28(sp)
    80002436:	ff96                	sd	t0,504(sp)
    80002438:	ef0678c7          	fmsub.q	fa7,fa2,fa6,ft9
    8000243c:	daee                	sw	s11,116(sp)
    8000243e:	db9e1c0f          	0xdb9e1c0f
    80002442:	a222e94f          	fnmadd.d	fs2,ft5,ft2,fs4,unknown
    80002446:	04ba                	slli	s1,s1,0xe
    80002448:	bf05f31b          	0xbf05f31b
    8000244c:	5588                	lw	a0,40(a1)
    8000244e:	a630                	fsd	fa2,72(a2)
    80002450:	318c                	fld	fa1,32(a1)
    80002452:	c2ca                	sw	s2,68(sp)
    80002454:	95803303          	ld	t1,-1704(zero) # fffffffffffff958 <__global_pointer$+0xffffffff7fffcb48>
    80002458:	c921                	beqz	a0,800024a8 <test_memory+0x2a8>
    8000245a:	ca5f 6eb1 74dc      	0x74dc6eb1ca5f
    80002460:	cff3d167          	0xcff3d167
    80002464:	939df437          	lui	s0,0x939df
    80002468:	b484                	fsd	fs1,40(s1)
    8000246a:	e182c517          	auipc	a0,0xe182c
    8000246e:	17a59877          	0x17a59877
    80002472:	e688                	sd	a0,8(a3)
    80002474:	91dc278f          	0x91dc278f
    80002478:	b179                	j	80002106 <begin_signature+0x6>
    8000247a:	fb82                	sd	zero,496(sp)
    8000247c:	7231                	lui	tp,0xfffec
    8000247e:	1665                	addi	a2,a2,-7
    80002480:	f2b4                	sd	a3,96(a3)
    80002482:	e5f68de7          	jalr	s11,-417(a3) # ffffffffe01d7e5f <__global_pointer$+0xffffffff601d504f>
    80002486:	dd90                	sw	a2,56(a1)
    80002488:	57ed                	li	a5,-5
    8000248a:	0d0a                	slli	s10,s10,0x2
    8000248c:	4ff3fb97          	auipc	s7,0x4ff3f
    80002490:	8150                	0x8150
    80002492:	3e35                	addiw	t3,t3,-19
    80002494:	d292                	sw	tp,100(sp)
    80002496:	d9e1                	beqz	a1,80002466 <test_memory+0x266>
    80002498:	13fd                	addi	t2,t2,-1
    8000249a:	5230                	lw	a2,96(a2)
    8000249c:	50ec                	lw	a1,100(s1)
    8000249e:	7ed0                	ld	a2,184(a3)
    800024a0:	135ac213          	xori	tp,s5,309
    800024a4:	f6cb5c23          	0xf6cb5c23
    800024a8:	74a6f1ab          	0x74a6f1ab
    800024ac:	f7d4                	sd	a3,168(a5)
    800024ae:	250c                	fld	fa1,8(a0)
    800024b0:	2852                	fld	fa6,272(sp)
    800024b2:	30ae2513          	slti	a0,t3,778
    800024b6:	8310                	0x8310
    800024b8:	efcd                	bnez	a5,80002572 <test_memory+0x372>
    800024ba:	ca91                	beqz	a3,800024ce <test_memory+0x2ce>
    800024bc:	fe9d                	bnez	a3,800023fa <test_memory+0x1fa>
    800024be:	305c                	fld	fa5,160(s0)
    800024c0:	2a26                	fld	fs4,72(sp)
    800024c2:	0e39                	addi	t3,t3,14
    800024c4:	c75e                	sw	s7,140(sp)
    800024c6:	9539                	srai	a0,a0,0x2e
    800024c8:	0e48                	addi	a0,sp,788
    800024ca:	3460                	fld	fs0,232(s0)
    800024cc:	72ca                	ld	t0,176(sp)
    800024ce:	1bc7962f          	0x1bc7962f
    800024d2:	6816                	ld	a6,320(sp)
    800024d4:	24a8                	fld	fa0,72(s1)
    800024d6:	66fd                	lui	a3,0x1f
    800024d8:	8b7e                	mv	s6,t6
    800024da:	1e9e                	slli	t4,t4,0x27
    800024dc:	9d2d3bcb          	0x9d2d3bcb
    800024e0:	ec21                	bnez	s0,80002538 <test_memory+0x338>
    800024e2:	3cb05b83          	lhu	s7,971(zero) # 3cb <_start-0x7ffffc35>
    800024e6:	3de5                	addiw	s11,s11,-7
    800024e8:	0504                	addi	s1,sp,640
    800024ea:	21ad                	addiw	gp,gp,11
    800024ec:	5e0e                	lw	t3,224(sp)
    800024ee:	96a02873          	csrr	a6,0x96a
    800024f2:	fe95                	bnez	a3,8000242e <test_memory+0x22e>
    800024f4:	7e5697eb          	0x7e5697eb
    800024f8:	6f98                	ld	a4,24(a5)
    800024fa:	bfc6                	fsd	fa7,504(sp)
    800024fc:	ea39                	bnez	a2,80002552 <test_memory+0x352>
    800024fe:	b5ff                	0xb5ff
    80002500:	5e4e                	lw	t3,240(sp)
    80002502:	2b74                	fld	fa3,208(a4)
    80002504:	d1161e07          	0xd1161e07
    80002508:	1a51                	addi	s4,s4,-12
    8000250a:	618d                	lui	gp,0x3
    8000250c:	1cb9                	addi	s9,s9,-18
    8000250e:	6c68                	ld	a0,216(s0)
    80002510:	2620                	fld	fs0,72(a2)
    80002512:	516d                	li	sp,-5
    80002514:	81b72b07          	flw	fs6,-2021(a4)
    80002518:	3118                	fld	fa4,32(a0)
    8000251a:	7176c977          	0x7176c977
    8000251e:	6052                	0x6052
    80002520:	7a8c                	ld	a1,48(a3)
    80002522:	850a                	mv	a0,sp
    80002524:	52b0                	lw	a2,96(a3)
    80002526:	7256fbf3          	csrrci	s7,0x725,13
    8000252a:	5a5c                	lw	a5,52(a2)
    8000252c:	afe9                	j	80002d06 <_end+0x6f6>
    8000252e:	205f0097          	auipc	ra,0x205f0
    80002532:	accd                	j	80002824 <_end+0x214>
    80002534:	762a                	ld	a2,168(sp)
    80002536:	c130                	sw	a2,64(a0)
    80002538:	443d0bef          	jal	s7,800d317a <__global_pointer$+0xd036a>
    8000253c:	3351                	addiw	t1,t1,-12
    8000253e:	749a                	ld	s1,416(sp)
    80002540:	3ccc                	fld	fa1,184(s1)
    80002542:	0ede                	slli	t4,t4,0x17
    80002544:	6ca00fe3          	beq	zero,a0,80003422 <__global_pointer$+0x612>
    80002548:	d36e                	sw	s11,164(sp)
    8000254a:	af64                	fsd	fs1,216(a4)
    8000254c:	f33e                	sd	a5,416(sp)
    8000254e:	4b92                	lw	s7,4(sp)
    80002550:	06336ac7          	fmsub.q	fs5,ft6,ft3,ft0,unknown
    80002554:	9dacd9af          	0x9dacd9af
    80002558:	4d80                	lw	s0,24(a1)
    8000255a:	808d                	srli	s1,s1,0x3
    8000255c:	1059                	c.nop	-10
    8000255e:	8988                	0x8988
    80002560:	244e5193          	0x244e5193
    80002564:	3136                	fld	ft2,360(sp)
    80002566:	841a                	mv	s0,t1
    80002568:	38a6                	fld	fa7,104(sp)
    8000256a:	33d4                	fld	fa3,160(a5)
    8000256c:	e960                	sd	s0,208(a0)
    8000256e:	4f98                	lw	a4,24(a5)
    80002570:	909a                	add	ra,ra,t1
    80002572:	3546                	fld	fa0,112(sp)
    80002574:	de8d                	beqz	a3,800024ae <test_memory+0x2ae>
    80002576:	918a                	add	gp,gp,sp
    80002578:	8f26                	mv	t5,s1
    8000257a:	fc6b6783          	lwu	a5,-58(s6) # fffffffffffeffc6 <__global_pointer$+0xffffffff7ffed1b6>
    8000257e:	147cbd87          	fld	fs11,327(s9) # 1a147 <_start-0x7ffe5eb9>
    80002582:	4766                	lw	a4,88(sp)
    80002584:	2124                	fld	fs1,64(a0)
    80002586:	3442a75b          	0x3442a75b
    8000258a:	18750e03          	lb	t3,391(a0) # 6182e5f1 <_start-0x1e7d1a0f>
    8000258e:	29696a2b          	0x29696a2b
    80002592:	1b8d                	addi	s7,s7,-29
    80002594:	401426e3          	0x401426e3
    80002598:	c0ac                	sw	a1,64(s1)
    8000259a:	a31d5f1b          	0xa31d5f1b
    8000259e:	e3ee                	sd	s11,448(sp)
    800025a0:	f114deb3          	0xf114deb3
    800025a4:	518e                	lw	gp,224(sp)
    800025a6:	3f7d                	addiw	t5,t5,-1
    800025a8:	2238                	fld	fa4,64(a2)
    800025aa:	b735                	j	800024d6 <test_memory+0x2d6>
    800025ac:	f6a9                	bnez	a3,800024f6 <test_memory+0x2f6>
    800025ae:	0a20                	addi	s0,sp,280
    800025b0:	8f9e                	mv	t6,t2
    800025b2:	ee71fc3b          	0xee71fc3b
    800025b6:	95b1                	srai	a1,a1,0x2c
    800025b8:	c6b302d3          	0xc6b302d3
    800025bc:	f7871c4f          	fnmadd.q	fs8,fa4,fs8,ft10,rtz
    800025c0:	a57a                	fsd	ft10,136(sp)
    800025c2:	9a90                	0x9a90
    800025c4:	443a                	lw	s0,140(sp)
    800025c6:	eee8                	sd	a0,216(a3)
    800025c8:	1f3c2ab3          	0x1f3c2ab3
    800025cc:	66b2                	ld	a3,264(sp)
    800025ce:	670c                	ld	a1,8(a4)
    800025d0:	e6f4                	sd	a3,200(a3)
    800025d2:	7291                	lui	t0,0xfffe4
    800025d4:	1b22                	slli	s6,s6,0x28
    800025d6:	9d01                	subw	a0,a0,s0
    800025d8:	1fd951cf          	fnmadd.q	ft3,fs2,ft9,ft3,unknown
    800025dc:	b0a8                	fsd	fa0,96(s1)
    800025de:	7872                	ld	a6,312(sp)
    800025e0:	e8a8                	sd	a0,80(s1)
    800025e2:	9bfd                	andi	a5,a5,-1
    800025e4:	234e                	fld	ft6,208(sp)
    800025e6:	7fc5                	lui	t6,0xffff1
    800025e8:	1491                	addi	s1,s1,-28
    800025ea:	4440feab          	0x4440feab
    800025ee:	0d01                	addi	s10,s10,0
    800025f0:	72f9                	lui	t0,0xffffe
    800025f2:	0a84                	addi	s1,sp,336
    800025f4:	dd7c                	sw	a5,124(a0)
    800025f6:	ffca4f27          	fsq	ft8,-2(s4) # fffffffffffefffe <__global_pointer$+0xffffffff7ffed1ee>
    800025fa:	aebd                	j	80002978 <_end+0x368>
    800025fc:	ae0a                	fsd	ft2,280(sp)
    800025fe:	678c                	ld	a1,8(a5)

0000000080002600 <loop_count>:
    80002600:	0040                	addi	s0,sp,4
	...

Disassembly of section .riscv.attributes:

0000000000000000 <.riscv.attributes>:
   0:	1e41                	addi	t3,t3,-16
   2:	0000                	unimp
   4:	7200                	ld	s0,32(a2)
   6:	7369                	lui	t1,0xffffa
   8:	01007663          	bgeu	zero,a6,14 <_start-0x7fffffec>
   c:	0014                	0x14
   e:	0000                	unimp
  10:	7205                	lui	tp,0xfffe1
  12:	3676                	fld	fa2,376(sp)
  14:	6934                	ld	a3,80(a0)
  16:	7032                	0x7032
  18:	5f30                	lw	a2,120(a4)
  1a:	326d                	addiw	tp,tp,-5
  1c:	3070                	fld	fa2,224(s0)
	...
