
build/test49:     file format elf64-littleriscv


Disassembly of section .text.init:

0000000080000000 <_start>:
    80000000:	05c0006f          	j	8000005c <reset_vector>

0000000080000004 <trap_vector>:
    80000004:	34202f73          	csrr	t5,mcause
    80000008:	00800f93          	li	t6,8
    8000000c:	03ff0a63          	beq	t5,t6,80000040 <write_tohost>
    80000010:	00900f93          	li	t6,9
    80000014:	03ff0663          	beq	t5,t6,80000040 <write_tohost>
    80000018:	00b00f93          	li	t6,11
    8000001c:	03ff0263          	beq	t5,t6,80000040 <write_tohost>
    80000020:	80000f17          	auipc	t5,0x80000
    80000024:	fe0f0f13          	addi	t5,t5,-32 # 0 <_start-0x80000000>
    80000028:	000f0463          	beqz	t5,80000030 <trap_vector+0x2c>
    8000002c:	000f0067          	jr	t5
    80000030:	34202f73          	csrr	t5,mcause
    80000034:	000f5463          	bgez	t5,8000003c <handle_exception>
    80000038:	0040006f          	j	8000003c <handle_exception>

000000008000003c <handle_exception>:
    8000003c:	5391e193          	ori	gp,gp,1337

0000000080000040 <write_tohost>:
    80000040:	00001f17          	auipc	t5,0x1
    80000044:	fc3f2023          	sw	gp,-64(t5) # 80001000 <tohost>
    80000048:	000902b7          	lui	t0,0x90
    8000004c:	0012829b          	addiw	t0,t0,1
    80000050:	00c29293          	slli	t0,t0,0xc
    80000054:	0002af83          	lw	t6,0(t0) # 90000 <_start-0x7ff70000>
    80000058:	fe9ff06f          	j	80000040 <write_tohost>

000000008000005c <reset_vector>:
    8000005c:	00000093          	li	ra,0
    80000060:	00000113          	li	sp,0
    80000064:	00000193          	li	gp,0
    80000068:	00000213          	li	tp,0
    8000006c:	00000293          	li	t0,0
    80000070:	00000313          	li	t1,0
    80000074:	00000393          	li	t2,0
    80000078:	00000413          	li	s0,0
    8000007c:	00000493          	li	s1,0
    80000080:	00000513          	li	a0,0
    80000084:	00000593          	li	a1,0
    80000088:	00000613          	li	a2,0
    8000008c:	00000693          	li	a3,0
    80000090:	00000713          	li	a4,0
    80000094:	00000793          	li	a5,0
    80000098:	00000813          	li	a6,0
    8000009c:	00000893          	li	a7,0
    800000a0:	00000913          	li	s2,0
    800000a4:	00000993          	li	s3,0
    800000a8:	00000a13          	li	s4,0
    800000ac:	00000a93          	li	s5,0
    800000b0:	00000b13          	li	s6,0
    800000b4:	00000b93          	li	s7,0
    800000b8:	00000c13          	li	s8,0
    800000bc:	00000c93          	li	s9,0
    800000c0:	00000d13          	li	s10,0
    800000c4:	00000d93          	li	s11,0
    800000c8:	00000e13          	li	t3,0
    800000cc:	00000e93          	li	t4,0
    800000d0:	00000f13          	li	t5,0
    800000d4:	00000f93          	li	t6,0
    800000d8:	f1402573          	csrr	a0,mhartid
    800000dc:	00051063          	bnez	a0,800000dc <reset_vector+0x80>
    800000e0:	00000297          	auipc	t0,0x0
    800000e4:	01028293          	addi	t0,t0,16 # 800000f0 <reset_vector+0x94>
    800000e8:	30529073          	csrw	mtvec,t0
    800000ec:	18005073          	csrwi	satp,0
    800000f0:	00000297          	auipc	t0,0x0
    800000f4:	02428293          	addi	t0,t0,36 # 80000114 <reset_vector+0xb8>
    800000f8:	30529073          	csrw	mtvec,t0
    800000fc:	0010029b          	addiw	t0,zero,1
    80000100:	03529293          	slli	t0,t0,0x35
    80000104:	fff28293          	addi	t0,t0,-1
    80000108:	3b029073          	csrw	pmpaddr0,t0
    8000010c:	01f00293          	li	t0,31
    80000110:	3a029073          	csrw	pmpcfg0,t0
    80000114:	30405073          	csrwi	mie,0
    80000118:	00000297          	auipc	t0,0x0
    8000011c:	01428293          	addi	t0,t0,20 # 8000012c <reset_vector+0xd0>
    80000120:	30529073          	csrw	mtvec,t0
    80000124:	30205073          	csrwi	medeleg,0
    80000128:	30305073          	csrwi	mideleg,0
    8000012c:	00000193          	li	gp,0
    80000130:	00000297          	auipc	t0,0x0
    80000134:	ed428293          	addi	t0,t0,-300 # 80000004 <trap_vector>
    80000138:	30529073          	csrw	mtvec,t0
    8000013c:	00100513          	li	a0,1
    80000140:	01f51513          	slli	a0,a0,0x1f
    80000144:	00055c63          	bgez	a0,8000015c <reset_vector+0x100>
    80000148:	0ff0000f          	fence
    8000014c:	00100193          	li	gp,1
    80000150:	05d00893          	li	a7,93
    80000154:	00000513          	li	a0,0
    80000158:	00000073          	ecall
    8000015c:	80000297          	auipc	t0,0x80000
    80000160:	ea428293          	addi	t0,t0,-348 # 0 <_start-0x80000000>
    80000164:	00028a63          	beqz	t0,80000178 <reset_vector+0x11c>
    80000168:	10529073          	csrw	stvec,t0
    8000016c:	0000b2b7          	lui	t0,0xb
    80000170:	1092829b          	addiw	t0,t0,265
    80000174:	30229073          	csrw	medeleg,t0
    80000178:	30005073          	csrwi	mstatus,0
    8000017c:	00000297          	auipc	t0,0x0
    80000180:	01428293          	addi	t0,t0,20 # 80000190 <reset_vector+0x134>
    80000184:	34129073          	csrw	mepc,t0
    80000188:	f1402573          	csrr	a0,mhartid
    8000018c:	30200073          	mret
    80000190:	0200006f          	j	800001b0 <test_start>

0000000080000194 <crash_backward>:
    80000194:	0ff0000f          	fence
    80000198:	00018063          	beqz	gp,80000198 <crash_backward+0x4>
    8000019c:	00119193          	slli	gp,gp,0x1
    800001a0:	0011e193          	ori	gp,gp,1
    800001a4:	05d00893          	li	a7,93
    800001a8:	00018513          	mv	a0,gp
    800001ac:	00000073          	ecall

00000000800001b0 <test_start>:
    800001b0:	00002f97          	auipc	t6,0x2
    800001b4:	e50f8f93          	addi	t6,t6,-432 # 80002000 <hidden_data>
    800001b8:	000fb003          	ld	zero,0(t6)
    800001bc:	008fb083          	ld	ra,8(t6)
    800001c0:	010fb103          	ld	sp,16(t6)
    800001c4:	018fb183          	ld	gp,24(t6)
    800001c8:	020fb203          	ld	tp,32(t6)
    800001cc:	028fb283          	ld	t0,40(t6)
    800001d0:	030fb303          	ld	t1,48(t6)
    800001d4:	038fb383          	ld	t2,56(t6)
    800001d8:	040fb403          	ld	s0,64(t6)
    800001dc:	048fb483          	ld	s1,72(t6)
    800001e0:	050fb503          	ld	a0,80(t6)
    800001e4:	058fb583          	ld	a1,88(t6)
    800001e8:	060fb603          	ld	a2,96(t6)
    800001ec:	068fb683          	ld	a3,104(t6)
    800001f0:	070fb703          	ld	a4,112(t6)
    800001f4:	078fb783          	ld	a5,120(t6)
    800001f8:	080fb803          	ld	a6,128(t6)
    800001fc:	088fb883          	ld	a7,136(t6)
    80000200:	090fb903          	ld	s2,144(t6)
    80000204:	098fb983          	ld	s3,152(t6)
    80000208:	0a0fba03          	ld	s4,160(t6)
    8000020c:	0a8fba83          	ld	s5,168(t6)
    80000210:	0b0fbb03          	ld	s6,176(t6)
    80000214:	0b8fbb83          	ld	s7,184(t6)
    80000218:	0c0fbc03          	ld	s8,192(t6)
    8000021c:	0c8fbc83          	ld	s9,200(t6)
    80000220:	0d0fbd03          	ld	s10,208(t6)
    80000224:	0d8fbd83          	ld	s11,216(t6)
    80000228:	0e0fbe03          	ld	t3,224(t6)
    8000022c:	0e8fbe83          	ld	t4,232(t6)
    80000230:	0f0fbf03          	ld	t5,240(t6)
    80000234:	0f8fbf83          	ld	t6,248(t6)
    80000238:	0040006f          	j	8000023c <pseg_0>

000000008000023c <pseg_0>:
    8000023c:	a7e00893          	li	a7,-1410
    80000240:	00000213          	li	tp,0
    80000244:	00000093          	li	ra,0
    80000248:	00002b17          	auipc	s6,0x2
    8000024c:	1a4b0b13          	addi	s6,s6,420 # 800023ec <test_memory+0x1ec>
    80000250:	0197c933          	xor	s2,a5,s9
    80000254:	f40040e3          	bltz	zero,80000194 <crash_backward>
    80000258:	c4400813          	li	a6,-956
    8000025c:	4118813b          	subw	sp,a7,a7
    80000260:	00002e17          	auipc	t3,0x2
    80000264:	381e0e13          	addi	t3,t3,897 # 800025e1 <test_memory+0x3e1>
    80000268:	022b5cbb          	divuw	s9,s6,sp
    8000026c:	e8500393          	li	t2,-379
    80000270:	00003517          	auipc	a0,0x3
    80000274:	8fc50513          	addi	a0,a0,-1796 # 80002b6c <_end+0x55c>
    80000278:	00100093          	li	ra,1
    8000027c:	46500d13          	li	s10,1125
    80000280:	4073d333          	sra	t1,t2,t2
    80000284:	8f700693          	li	a3,-1801
    80000288:	00003717          	auipc	a4,0x3
    8000028c:	90870713          	addi	a4,a4,-1784 # 80002b90 <_end+0x580>
    80000290:	03f09093          	slli	ra,ra,0x3f
    80000294:	1ed00593          	li	a1,493
    80000298:	f27e1b83          	lh	s7,-217(t3)
    8000029c:	41f28933          	sub	s2,t0,t6
    800002a0:	00c65fbb          	srlw	t6,a2,a2
    800002a4:	01ad21b3          	slt	gp,s10,s10
    800002a8:	a3d00a93          	li	s5,-1475
    800002ac:	9fa55983          	lhu	s3,-1542(a0)
    800002b0:	00068413          	mv	s0,a3
    800002b4:	01a00393          	li	t2,26
    800002b8:	41ca09bb          	subw	s3,s4,t3
    800002bc:	f9068f13          	addi	t5,a3,-112
    800002c0:	018c87bb          	addw	a5,s9,s8
    800002c4:	54438313          	addi	t1,t2,1348
    800002c8:	96273c23          	sd	sp,-1672(a4)
    800002cc:	e64b2a23          	sw	tp,-396(s6)
    800002d0:	0140fcb3          	and	s9,ra,s4
    800002d4:	038e6533          	rem	a0,t3,s8
    800002d8:	4f600493          	li	s1,1270
    800002dc:	fff00893          	li	a7,-1
    800002e0:	6e63d863          	bge	t2,t1,800009d0 <crash_forward>
    800002e4:	03e5eeb3          	rem	t4,a1,t5
    800002e8:	018c0b3b          	addw	s6,s8,s8
    800002ec:	d1a00c93          	li	s9,-742
    800002f0:	00002917          	auipc	s2,0x2
    800002f4:	40b90913          	addi	s2,s2,1035 # 800026fb <_end+0xeb>
    800002f8:	e4300f13          	li	t5,-445
    800002fc:	ca400393          	li	t2,-860
    80000300:	01deefb3          	or	t6,t4,t4
    80000304:	0273b533          	mulhu	a0,t2,t2
    80000308:	c7191983          	lh	s3,-911(s2)
    8000030c:	0041a3b3          	slt	t2,gp,tp
    80000310:	25900713          	li	a4,601
    80000314:	00008193          	mv	gp,ra
    80000318:	0355f633          	remu	a2,a1,s5
    8000031c:	40985c33          	sra	s8,a6,s1
    80000320:	b5e00513          	li	a0,-1186
    80000324:	00002297          	auipc	t0,0x2
    80000328:	c9e28293          	addi	t0,t0,-866 # 80001fc2 <fromhost+0xf82>
    8000032c:	03ef07bb          	mulw	a5,t5,t5
    80000330:	86600b13          	li	s6,-1946
    80000334:	00040d93          	mv	s11,s0
    80000338:	02a56fbb          	remw	t6,a0,a0
    8000033c:	0018c8b3          	xor	a7,a7,ra
    80000340:	01167133          	and	sp,a2,a7
    80000344:	00001333          	sll	t1,zero,zero
    80000348:	70500693          	li	a3,1797
    8000034c:	00166233          	or	tp,a2,ra
    80000350:	00018d13          	mv	s10,gp
    80000354:	419cde3b          	sraw	t3,s9,s9
    80000358:	40d70bb3          	sub	s7,a4,a3
    8000035c:	66410a63          	beq	sp,tp,800009d0 <crash_forward>
    80000360:	67a19863          	bne	gp,s10,800009d0 <crash_forward>
    80000364:	016b0ebb          	addw	t4,s6,s6
    80000368:	32228a03          	lb	s4,802(t0)
    8000036c:	00000313          	li	t1,0
    80000370:	33c00393          	li	t2,828
    80000374:	4f400113          	li	sp,1268
    80000378:	02068e33          	mul	t3,a3,zero
    8000037c:	90900e93          	li	t4,-1783
    80000380:	cb100693          	li	a3,-847
    80000384:	a1500213          	li	tp,-1515
    80000388:	45400993          	li	s3,1108
    8000038c:	f5700b93          	li	s7,-169
    80000390:	1ff00c93          	li	s9,511
    80000394:	8e800493          	li	s1,-1816
    80000398:	5a838713          	addi	a4,t2,1448
    8000039c:	02d6da3b          	divuw	s4,a3,a3
    800003a0:	037ef433          	remu	s0,t4,s7
    800003a4:	bfc47d93          	andi	s11,s0,-1028
    800003a8:	4c900c13          	li	s8,1225
    800003ac:	00210fb3          	add	t6,sp,sp
    800003b0:	59900b13          	li	s6,1433
    800003b4:	5bf00813          	li	a6,1471
    800003b8:	32900413          	li	s0,809
    800003bc:	40920ab3          	sub	s5,tp,s1
    800003c0:	02840bb3          	mul	s7,s0,s0
    800003c4:	215c8893          	addi	a7,s9,533
    800003c8:	e80d3e93          	sltiu	t4,s10,-384
    800003cc:	ae600593          	li	a1,-1306
    800003d0:	00000293          	li	t0,0
    800003d4:	00100093          	li	ra,1
    800003d8:	acc00193          	li	gp,-1332
    800003dc:	da300513          	li	a0,-605
    800003e0:	03f09093          	slli	ra,ra,0x3f
    800003e4:	c0500793          	li	a5,-1019
    800003e8:	02a86d33          	rem	s10,a6,a0
    800003ec:	fff00e13          	li	t3,-1
    800003f0:	023b763b          	remuw	a2,s6,gp
    800003f4:	0189993b          	sllw	s2,s3,s8
    800003f8:	00002117          	auipc	sp,0x2
    800003fc:	78d10113          	addi	sp,sp,1933 # 80002b85 <_end+0x575>
    80000400:	00002217          	auipc	tp,0x2
    80000404:	63920213          	addi	tp,tp,1593 # 80002a39 <_end+0x429>
    80000408:	01425413          	srli	s0,tp,0x14
    8000040c:	001e4e33          	xor	t3,t3,ra
    80000410:	af100b93          	li	s7,-1295
    80000414:	98b13f83          	ld	t6,-1653(sp)
    80000418:	01cff6b3          	and	a3,t6,t3
    8000041c:	ab400493          	li	s1,-1356
    80000420:	0016ea33          	or	s4,a3,ra
    80000424:	add22da3          	sw	t4,-1317(tp) # fffffffffffffadb <__global_pointer$+0xffffffff7fffcccb>
    80000428:	40f5df33          	sra	t5,a1,a5
    8000042c:	409bd3bb          	sraw	t2,s7,s1
    80000430:	d74682e3          	beq	a3,s4,80000194 <crash_backward>
    80000434:	24000f93          	li	t6,576
    80000438:	82600c93          	li	s9,-2010
    8000043c:	01291933          	sll	s2,s2,s2
    80000440:	1db00e93          	li	t4,475
    80000444:	84300793          	li	a5,-1981
    80000448:	02ed6f33          	rem	t5,s10,a4
    8000044c:	da400713          	li	a4,-604
    80000450:	00002617          	auipc	a2,0x2
    80000454:	86c60613          	addi	a2,a2,-1940 # 80001cbc <fromhost+0xc7c>
    80000458:	03dc91b3          	mulh	gp,s9,t4
    8000045c:	de400593          	li	a1,-540
    80000460:	02b75e3b          	divuw	t3,a4,a1
    80000464:	017518b3          	sll	a7,a0,s7
    80000468:	0073f833          	and	a6,t2,t2
    8000046c:	55c63683          	ld	a3,1372(a2)
    80000470:	650f8413          	addi	s0,t6,1616
    80000474:	00002a17          	auipc	s4,0x2
    80000478:	117a0a13          	addi	s4,s4,279 # 8000258b <test_memory+0x38b>
    8000047c:	fa4a4d83          	lbu	s11,-92(s4)
    80000480:	009481b3          	add	gp,s1,s1
    80000484:	03ce5ebb          	divuw	t4,t3,t3
    80000488:	1a400b93          	li	s7,420
    8000048c:	40d9da9b          	sraiw	s5,s3,0xd
    80000490:	bbc00813          	li	a6,-1092
    80000494:	00000f13          	li	t5,0
    80000498:	36800993          	li	s3,872
    8000049c:	03085e33          	divu	t3,a6,a6
    800004a0:	00100313          	li	t1,1
    800004a4:	02f7fc3b          	remuw	s8,a5,a5
    800004a8:	80400513          	li	a0,-2044
    800004ac:	038c65b3          	rem	a1,s8,s8
    800004b0:	8a500093          	li	ra,-1883
    800004b4:	02e764b3          	rem	s1,a4,a4
    800004b8:	03f31313          	slli	t1,t1,0x3f
    800004bc:	02f78b33          	mul	s6,a5,a5
    800004c0:	02a9b3b3          	mulhu	t2,s3,a0
    800004c4:	b0cf4913          	xori	s2,t5,-1268
    800004c8:	8a108693          	addi	a3,ra,-1887
    800004cc:	00002897          	auipc	a7,0x2
    800004d0:	e6c88893          	addi	a7,a7,-404 # 80002338 <test_memory+0x138>
    800004d4:	b1a00c13          	li	s8,-1254
    800004d8:	3fc00d93          	li	s11,1020
    800004dc:	ee900b13          	li	s6,-279
    800004e0:	00109ebb          	sllw	t4,ra,ra
    800004e4:	aa500a93          	li	s5,-1371
    800004e8:	037be233          	rem	tp,s7,s7
    800004ec:	fff00293          	li	t0,-1
    800004f0:	415b0a3b          	subw	s4,s6,s5
    800004f4:	00000713          	li	a4,0
    800004f8:	1118c603          	lbu	a2,273(a7)
    800004fc:	b2300e93          	li	t4,-1245
    80000500:	0001a3b3          	sltz	t2,gp
    80000504:	00100213          	li	tp,1
    80000508:	00000c93          	li	s9,0
    8000050c:	03f21213          	slli	tp,tp,0x3f
    80000510:	01bc0533          	add	a0,s8,s11
    80000514:	00002417          	auipc	s0,0x2
    80000518:	7a940413          	addi	s0,s0,1961 # 80002cbd <_end+0x6ad>
    8000051c:	0062c2b3          	xor	t0,t0,t1
    80000520:	00000993          	li	s3,0
    80000524:	87341803          	lh	a6,-1933(s0)
    80000528:	00000913          	li	s2,0
    8000052c:	b4300593          	li	a1,-1213
    80000530:	65f00493          	li	s1,1631
    80000534:	c72990e3          	bne	s3,s2,80000194 <crash_backward>
    80000538:	4095d7bb          	sraw	a5,a1,s1
    8000053c:	fff00a93          	li	s5,-1
    80000540:	00000193          	li	gp,0
    80000544:	016b78b3          	and	a7,s6,s6
    80000548:	48371463          	bne	a4,gp,800009d0 <crash_forward>
    8000054c:	98e00093          	li	ra,-1650
    80000550:	a9000993          	li	s3,-1392
    80000554:	0010dbb3          	srl	s7,ra,ra
    80000558:	005b7133          	and	sp,s6,t0
    8000055c:	00d6adb3          	slt	s11,a3,a3
    80000560:	c8c98613          	addi	a2,s3,-884
    80000564:	00002417          	auipc	s0,0x2
    80000568:	a6640413          	addi	s0,s0,-1434 # 80001fca <fromhost+0xf8a>
    8000056c:	00002f97          	auipc	t6,0x2
    80000570:	849f8f93          	addi	t6,t6,-1975 # 80001db5 <fromhost+0xd75>
    80000574:	00002197          	auipc	gp,0x2
    80000578:	30418193          	addi	gp,gp,772 # 80002878 <_end+0x268>
    8000057c:	0320f93b          	remuw	s2,ra,s2
    80000580:	038c68b3          	rem	a7,s8,s8
    80000584:	bace8b13          	addi	s6,t4,-1108
    80000588:	006d6d33          	or	s10,s10,t1
    8000058c:	6fa00493          	li	s1,1786
    80000590:	00002597          	auipc	a1,0x2
    80000594:	dac58593          	addi	a1,a1,-596 # 8000233c <test_memory+0x13c>
    80000598:	6baf9ba3          	sh	s10,1719(t6)
    8000059c:	ec600813          	li	a6,-314
    800005a0:	d5f00693          	li	a3,-673
    800005a4:	004acab3          	xor	s5,s5,tp
    800005a8:	00002d97          	auipc	s11,0x2
    800005ac:	9c2d8d93          	addi	s11,s11,-1598 # 80001f6a <fromhost+0xf2a>
    800005b0:	9c21d783          	lhu	a5,-1598(gp) # 800027d2 <_end+0x1c2>
    800005b4:	ff500293          	li	t0,-11
    800005b8:	02d85c3b          	divuw	s8,a6,a3
    800005bc:	0273893b          	mulw	s2,t2,t2
    800005c0:	cc867f93          	andi	t6,a2,-824
    800005c4:	01bad513          	srli	a0,s5,0x1b
    800005c8:	bddb76e3          	bgeu	s6,t4,80000194 <crash_backward>
    800005cc:	4084013b          	subw	sp,s0,s0
    800005d0:	40c75f1b          	sraiw	t5,a4,0xc
    800005d4:	f2c5b703          	ld	a4,-212(a1)
    800005d8:	41e2d8bb          	sraw	a7,t0,t5
    800005dc:	0252dcbb          	divuw	s9,t0,t0
    800005e0:	00002197          	auipc	gp,0x2
    800005e4:	d2418193          	addi	gp,gp,-732 # 80002304 <test_memory+0x104>
    800005e8:	029480bb          	mulw	ra,s1,s1
    800005ec:	12700713          	li	a4,295
    800005f0:	23200793          	li	a5,562
    800005f4:	52e41383          	lh	t2,1326(s0)
    800005f8:	015e7e33          	and	t3,t3,s5
    800005fc:	bd300c93          	li	s9,-1069
    80000600:	0194d333          	srl	t1,s1,s9
    80000604:	020258b3          	divu	a7,tp,zero
    80000608:	479dcb83          	lbu	s7,1145(s11)
    8000060c:	00002597          	auipc	a1,0x2
    80000610:	00058593          	mv	a1,a1
    80000614:	00002117          	auipc	sp,0x2
    80000618:	5ad10113          	addi	sp,sp,1453 # 80002bc1 <_end+0x5b1>
    8000061c:	e5e5d283          	lhu	t0,-418(a1) # 8000246a <test_memory+0x26a>
    80000620:	02c348bb          	divw	a7,t1,a2
    80000624:	8a1103a3          	sb	ra,-1881(sp)
    80000628:	0f41a823          	sw	s4,240(gp) # 80002f00 <__global_pointer$+0xf0>
    8000062c:	0339c833          	div	a6,s3,s3
    80000630:	0397753b          	remuw	a0,a4,s9
    80000634:	020b1b93          	slli	s7,s6,0x20
    80000638:	03fe46b3          	div	a3,t3,t6
    8000063c:	006252b3          	srl	t0,tp,t1
    80000640:	07100d93          	li	s11,113
    80000644:	001233b3          	sltu	t2,tp,ra
    80000648:	34400713          	li	a4,836
    8000064c:	004a6a33          	or	s4,s4,tp
    80000650:	12e00c13          	li	s8,302
    80000654:	00bde1b3          	or	gp,s11,a1
    80000658:	36211c63          	bne	sp,sp,800009d0 <crash_forward>
    8000065c:	5c100513          	li	a0,1473
    80000660:	1a650813          	addi	a6,a0,422
    80000664:	00002a97          	auipc	s5,0x2
    80000668:	b2aa8a93          	addi	s5,s5,-1238 # 8000218e <reg_x17_output+0x6>
    8000066c:	e9900493          	li	s1,-359
    80000670:	ad300093          	li	ra,-1325
    80000674:	00100693          	li	a3,1
    80000678:	10400c93          	li	s9,260
    8000067c:	02def9b3          	remu	s3,t4,a3
    80000680:	9a308e93          	addi	t4,ra,-1629
    80000684:	41975133          	sra	sp,a4,s9
    80000688:	02a53933          	mulhu	s2,a0,a0
    8000068c:	00001e97          	auipc	t4,0x1
    80000690:	3a8e8e93          	addi	t4,t4,936 # 80001a34 <fromhost+0x9f4>
    80000694:	09aaae03          	lw	t3,154(s5)
    80000698:	edc00d13          	li	s10,-292
    8000069c:	7d8eae23          	sw	s8,2012(t4)
    800006a0:	85d30a37          	lui	s4,0x85d30
    800006a4:	038c7b3b          	remuw	s6,s8,s8
    800006a8:	f5200f93          	li	t6,-174
    800006ac:	41a7d63b          	sraw	a2,a5,s10
    800006b0:	31700713          	li	a4,791
    800006b4:	dcb00c93          	li	s9,-565
    800006b8:	41500893          	li	a7,1045
    800006bc:	001df433          	and	s0,s11,ra
    800006c0:	01ffbf33          	sltu	t5,t6,t6
    800006c4:	03f69693          	slli	a3,a3,0x3f
    800006c8:	e4300213          	li	tp,-445
    800006cc:	024739b3          	mulhu	s3,a4,tp
    800006d0:	00002097          	auipc	ra,0x2
    800006d4:	f3d08093          	addi	ra,ra,-195 # 8000260d <loop_count+0xd>
    800006d8:	1f288b93          	addi	s7,a7,498
    800006dc:	0294c33b          	divw	t1,s1,s1
    800006e0:	31e00993          	li	s3,798
    800006e4:	0139e2b3          	or	t0,s3,s3
    800006e8:	41c70fb3          	sub	t6,a4,t3
    800006ec:	e85c8113          	addi	sp,s9,-379
    800006f0:	fff00393          	li	t2,-1
    800006f4:	60300213          	li	tp,1539
    800006f8:	c1c00513          	li	a0,-996
    800006fc:	00000d13          	li	s10,0
    80000700:	d1f00813          	li	a6,-737
    80000704:	00000a13          	li	s4,0
    80000708:	00100c93          	li	s9,1
    8000070c:	03022433          	mulhsu	s0,tp,a6
    80000710:	03fc9c93          	slli	s9,s9,0x3f
    80000714:	00002117          	auipc	sp,0x2
    80000718:	d7d10113          	addi	sp,sp,-643 # 80002491 <test_memory+0x291>
    8000071c:	00100713          	li	a4,1
    80000720:	03f71713          	slli	a4,a4,0x3f
    80000724:	00d3c3b3          	xor	t2,t2,a3
    80000728:	e6315483          	lhu	s1,-413(sp)
    8000072c:	fff00613          	li	a2,-1
    80000730:	fff00293          	li	t0,-1
    80000734:	007775b3          	and	a1,a4,t2
    80000738:	294d6c63          	bltu	s10,s4,800009d0 <crash_forward>
    8000073c:	00d5e1b3          	or	gp,a1,a3
    80000740:	2978f863          	bgeu	a7,s7,800009d0 <crash_forward>
    80000744:	cf70aa83          	lw	s5,-777(ra)
    80000748:	0192c2b3          	xor	t0,t0,s9
    8000074c:	3cf00893          	li	a7,975
    80000750:	00100b93          	li	s7,1
    80000754:	00e64633          	xor	a2,a2,a4
    80000758:	00002c17          	auipc	s8,0x2
    8000075c:	d91c0c13          	addi	s8,s8,-623 # 800024e9 <test_memory+0x2e9>
    80000760:	40b40ab3          	sub	s5,s0,a1
    80000764:	00c6fb33          	and	s6,a3,a2
    80000768:	03fb9b93          	slli	s7,s7,0x3f
    8000076c:	fff00413          	li	s0,-1
    80000770:	00a9d7bb          	srlw	a5,s3,a0
    80000774:	013e931b          	slliw	t1,t4,0x13
    80000778:	91500e93          	li	t4,-1771
    8000077c:	403a5213          	srai	tp,s4,0x3
    80000780:	f66c2da3          	sw	t1,-133(s8)
    80000784:	01744433          	xor	s0,s0,s7
    80000788:	09000093          	li	ra,144
    8000078c:	0218813b          	mulw	sp,a7,ra
    80000790:	00ededb3          	or	s11,s11,a4
    80000794:	00507fb3          	and	t6,zero,t0
    80000798:	416ad49b          	sraiw	s1,s5,0x16
    8000079c:	019fee33          	or	t3,t6,s9
    800007a0:	02c61233          	mulh	tp,a2,a2
    800007a4:	53a00793          	li	a5,1338
    800007a8:	9fcfc6e3          	blt	t6,t3,80000194 <crash_backward>
    800007ac:	0085f833          	and	a6,a1,s0
    800007b0:	56f00c13          	li	s8,1391
    800007b4:	0294d73b          	divuw	a4,s1,s1
    800007b8:	27e00593          	li	a1,638
    800007bc:	a4800a93          	li	s5,-1464
    800007c0:	01786d33          	or	s10,a6,s7
    800007c4:	0387d533          	divu	a0,a5,s8
    800007c8:	b0ba8a13          	addi	s4,s5,-1269
    800007cc:	9b600913          	li	s2,-1610
    800007d0:	00100793          	li	a5,1
    800007d4:	9d4a80e3          	beq	s5,s4,80000194 <crash_backward>
    800007d8:	03de81bb          	mulw	gp,t4,t4
    800007dc:	c3400393          	li	t2,-972
    800007e0:	40b586b3          	sub	a3,a1,a1
    800007e4:	0135d9b3          	srl	s3,a1,s3
    800007e8:	f2d00a13          	li	s4,-211
    800007ec:	6f500713          	li	a4,1781
    800007f0:	00100893          	li	a7,1
    800007f4:	f8c00113          	li	sp,-116
    800007f8:	038c5333          	divu	t1,s8,s8
    800007fc:	02a56bb3          	rem	s7,a0,a0
    80000800:	2e200193          	li	gp,738
    80000804:	02ea5abb          	divuw	s5,s4,a4
    80000808:	00100c93          	li	s9,1
    8000080c:	4f900693          	li	a3,1273
    80000810:	00100993          	li	s3,1
    80000814:	00738fbb          	addw	t6,t2,t2
    80000818:	03f79793          	slli	a5,a5,0x3f
    8000081c:	012e9f3b          	sllw	t5,t4,s2
    80000820:	fff00c13          	li	s8,-1
    80000824:	03fc9c93          	slli	s9,s9,0x3f
    80000828:	002152b3          	srl	t0,sp,sp
    8000082c:	03f99993          	slli	s3,s3,0x3f
    80000830:	03f89893          	slli	a7,a7,0x3f
    80000834:	00a83433          	sltu	s0,a6,a0
    80000838:	fff00313          	li	t1,-1
    8000083c:	fff00213          	li	tp,-1
    80000840:	fff00613          	li	a2,-1
    80000844:	01334333          	xor	t1,t1,s3
    80000848:	01964633          	xor	a2,a2,s9
    8000084c:	01124233          	xor	tp,tp,a7
    80000850:	00100f13          	li	t5,1
    80000854:	5d900713          	li	a4,1497
    80000858:	0063f833          	and	a6,t2,t1
    8000085c:	60a00b93          	li	s7,1546
    80000860:	0130ed33          	or	s10,ra,s3
    80000864:	00457e33          	and	t3,a0,tp
    80000868:	40d185b3          	sub	a1,gp,a3
    8000086c:	017be433          	or	s0,s7,s7
    80000870:	00fc4c33          	xor	s8,s8,a5
    80000874:	03ff1f13          	slli	t5,t5,0x3f
    80000878:	fff00a13          	li	s4,-1
    8000087c:	011e64b3          	or	s1,t3,a7
    80000880:	01ea4a33          	xor	s4,s4,t5
    80000884:	0145f2b3          	and	t0,a1,s4
    80000888:	00cbfdb3          	and	s11,s7,a2
    8000088c:	00100f93          	li	t6,1
    80000890:	56800813          	li	a6,1384
    80000894:	4108033b          	subw	t1,a6,a6
    80000898:	0188fb33          	and	s6,a7,s8
    8000089c:	01e2e133          	or	sp,t0,t5
    800008a0:	17570a93          	addi	s5,a4,373
    800008a4:	03ff9f93          	slli	t6,t6,0x3f
    800008a8:	fff00393          	li	t2,-1
    800008ac:	00fb6533          	or	a0,s6,a5
    800008b0:	8eeae2e3          	bltu	s5,a4,80000194 <crash_backward>
    800008b4:	12a00593          	li	a1,298
    800008b8:	019a60b3          	or	ra,s4,s9
    800008bc:	0291f6bb          	remuw	a3,gp,s1
    800008c0:	03ce4333          	div	t1,t3,t3
    800008c4:	60700213          	li	tp,1543
    800008c8:	10a00b93          	li	s7,266
    800008cc:	008364b3          	or	s1,t1,s0
    800008d0:	87c00693          	li	a3,-1924
    800008d4:	037bde33          	divu	t3,s7,s7
    800008d8:	6a900a93          	li	s5,1705
    800008dc:	0245b9b3          	mulhu	s3,a1,tp
    800008e0:	b9068313          	addi	t1,a3,-1136
    800008e4:	53bc049b          	addiw	s1,s8,1339
    800008e8:	ab600d13          	li	s10,-1354
    800008ec:	8aab04e3          	beq	s6,a0,80000194 <crash_backward>
    800008f0:	01aad73b          	srlw	a4,s5,s10
    800008f4:	1e300413          	li	s0,483
    800008f8:	38800893          	li	a7,904
    800008fc:	3e740193          	addi	gp,s0,999
    80000900:	88516ae3          	bltu	sp,t0,80000194 <crash_backward>
    80000904:	0c340663          	beq	s0,gp,800009d0 <crash_forward>
    80000908:	88d376e3          	bgeu	t1,a3,80000194 <crash_backward>
    8000090c:	01f3c3b3          	xor	t2,t2,t6
    80000910:	007bfeb3          	and	t4,s7,t2
    80000914:	0118c833          	xor	a6,a7,a7
    80000918:	03ce64bb          	remw	s1,t3,t3
    8000091c:	01f0e933          	or	s2,ra,t6
    80000920:	8a100e13          	li	t3,-1887
    80000924:	5e000a93          	li	s5,1504
    80000928:	035e4733          	div	a4,t3,s5
    8000092c:	0040006f          	j	80000930 <reg_dump>

0000000080000930 <reg_dump>:
    80000930:	00002097          	auipc	ra,0x2
    80000934:	cd008093          	addi	ra,ra,-816 # 80002600 <loop_count>
    80000938:	0000a103          	lw	sp,0(ra)
    8000093c:	fff10193          	addi	gp,sp,-1
    80000940:	0030a023          	sw	gp,0(ra)
    80000944:	8e011ce3          	bnez	sp,8000023c <pseg_0>
    80000948:	00001097          	auipc	ra,0x1
    8000094c:	7b808093          	addi	ra,ra,1976 # 80002100 <begin_signature>
    80000950:	0000b023          	sd	zero,0(ra)
    80000954:	0020b823          	sd	sp,16(ra)
    80000958:	0030bc23          	sd	gp,24(ra)
    8000095c:	0240b023          	sd	tp,32(ra)
    80000960:	0250b423          	sd	t0,40(ra)
    80000964:	0260b823          	sd	t1,48(ra)
    80000968:	0270bc23          	sd	t2,56(ra)
    8000096c:	0480b023          	sd	s0,64(ra)
    80000970:	0490b423          	sd	s1,72(ra)
    80000974:	04a0b823          	sd	a0,80(ra)
    80000978:	04b0bc23          	sd	a1,88(ra)
    8000097c:	06c0b023          	sd	a2,96(ra)
    80000980:	06d0b423          	sd	a3,104(ra)
    80000984:	06e0b823          	sd	a4,112(ra)
    80000988:	06f0bc23          	sd	a5,120(ra)
    8000098c:	0900b023          	sd	a6,128(ra)
    80000990:	0910b423          	sd	a7,136(ra)
    80000994:	0920b823          	sd	s2,144(ra)
    80000998:	0930bc23          	sd	s3,152(ra)
    8000099c:	0b40b023          	sd	s4,160(ra)
    800009a0:	0b50b423          	sd	s5,168(ra)
    800009a4:	0b60b823          	sd	s6,176(ra)
    800009a8:	0b70bc23          	sd	s7,184(ra)
    800009ac:	0d80b023          	sd	s8,192(ra)
    800009b0:	0d90b423          	sd	s9,200(ra)
    800009b4:	0da0b823          	sd	s10,208(ra)
    800009b8:	0db0bc23          	sd	s11,216(ra)
    800009bc:	0fc0b023          	sd	t3,224(ra)
    800009c0:	0fd0b423          	sd	t4,232(ra)
    800009c4:	0fe0b823          	sd	t5,240(ra)
    800009c8:	0ff0bc23          	sd	t6,248(ra)
    800009cc:	0200006f          	j	800009ec <test_end>

00000000800009d0 <crash_forward>:
    800009d0:	0ff0000f          	fence
    800009d4:	00018063          	beqz	gp,800009d4 <crash_forward+0x4>
    800009d8:	00119193          	slli	gp,gp,0x1
    800009dc:	0011e193          	ori	gp,gp,1
    800009e0:	05d00893          	li	a7,93
    800009e4:	00018513          	mv	a0,gp
    800009e8:	00000073          	ecall

00000000800009ec <test_end>:
    800009ec:	0ff0000f          	fence
    800009f0:	00100193          	li	gp,1
    800009f4:	05d00893          	li	a7,93
    800009f8:	00000513          	li	a0,0
    800009fc:	00000073          	ecall
    80000a00:	c0001073          	unimp

Disassembly of section .tohost:

0000000080001000 <tohost>:
	...

0000000080001040 <fromhost>:
	...

Disassembly of section .data:

0000000080002000 <hidden_data>:
    80002000:	0009                	c.nop	2
    80002002:	8000                	0x8000
    80002004:	ffff                	0xffff
    80002006:	ffff                	0xffff

0000000080002008 <reg_x1_init>:
    80002008:	d05d                	beqz	s0,80001fae <fromhost+0xf6e>
    8000200a:	24cd                	addiw	s1,s1,19
    8000200c:	db7a                	sw	t5,180(sp)
    8000200e:	          	0xf9b7d0f

0000000080002010 <reg_x2_init>:
    80002010:	f9d80f9b          	addiw	t6,a6,-99
    80002014:	40ed                	li	ra,27
    80002016:	22fd                	addiw	t0,t0,31

0000000080002018 <reg_x3_init>:
    80002018:	ffff                	0xffff
    8000201a:	ffff                	0xffff
    8000201c:	ffff                	0xffff
    8000201e:	ffff                	0xffff

0000000080002020 <reg_x4_init>:
	...

0000000080002028 <reg_x5_init>:
    80002028:	8000                	0x8000
    8000202a:	ffff                	0xffff
    8000202c:	ffff                	0xffff
    8000202e:	ffff                	0xffff

0000000080002030 <reg_x6_init>:
    80002030:	8006                	c.mv	zero,ra
    80002032:	ffff                	0xffff
    80002034:	ffff                	0xffff
    80002036:	ffff                	0xffff

0000000080002038 <reg_x7_init>:
    80002038:	ffff                	0xffff
    8000203a:	ffff                	0xffff
    8000203c:	ffff                	0xffff
    8000203e:	ffff                	0xffff

0000000080002040 <reg_x8_init>:
    80002040:	ffff                	0xffff
    80002042:	ffff                	0xffff
    80002044:	ffff                	0xffff
    80002046:	ffff                	0xffff

0000000080002048 <reg_x9_init>:
    80002048:	ffff                	0xffff
    8000204a:	ffff                	0xffff
    8000204c:	ffff                	0xffff
    8000204e:	ffff                	0xffff

0000000080002050 <reg_x10_init>:
    80002050:	8005                	srli	s0,s0,0x1
    80002052:	ffff                	0xffff
    80002054:	ffff                	0xffff
    80002056:	ffff                	0xffff

0000000080002058 <reg_x11_init>:
    80002058:	ffff                	0xffff
    8000205a:	ffff                	0xffff
    8000205c:	ffff                	0xffff
    8000205e:	ffff                	0xffff

0000000080002060 <reg_x12_init>:
    80002060:	bdca6b87          	0xbdca6b87
    80002064:	e2d0                	sd	a2,128(a3)
    80002066:	096a                	slli	s2,s2,0x1a

0000000080002068 <reg_x13_init>:
	...

0000000080002070 <reg_x14_init>:
    80002070:	0002                	c.slli64	zero
    80002072:	0000                	unimp
    80002074:	0000                	unimp
    80002076:	0800                	addi	s0,sp,16

0000000080002078 <reg_x15_init>:
	...

0000000080002080 <reg_x16_init>:
    80002080:	6ac53fef          	jal	t6,8005572c <__global_pointer$+0x5291c>
    80002084:	71c1                	lui	gp,0xffff0
    80002086:	          	0xeab2f9af

0000000080002088 <reg_x17_init>:
    80002088:	eab2                	sd	a2,336(sp)
    8000208a:	a668                	fsd	fa0,200(a2)
    8000208c:	f005a077          	0xf005a077

0000000080002090 <reg_x18_init>:
    80002090:	ff80                	sd	s0,56(a5)
    80002092:	ffff                	0xffff
    80002094:	ffff                	0xffff
    80002096:	ffff                	0xffff

0000000080002098 <reg_x19_init>:
    80002098:	8005                	srli	s0,s0,0x1
    8000209a:	ffff                	0xffff
    8000209c:	ffff                	0xffff
    8000209e:	ffff                	0xffff

00000000800020a0 <reg_x20_init>:
    800020a0:	ffda                	sd	s6,504(sp)
    800020a2:	d3123743          	fmadd.d	fa4,ft4,fa7,fs10,rup
    800020a6:	          	0x7927

00000000800020a8 <reg_x21_init>:
	...

00000000800020b0 <reg_x22_init>:
	...

00000000800020b8 <reg_x23_init>:
    800020b8:	ffff                	0xffff
    800020ba:	ffff                	0xffff
    800020bc:	ffff                	0xffff
    800020be:	ffff                	0xffff

00000000800020c0 <reg_x24_init>:
    800020c0:	bff4                	fsd	fa3,248(a5)
    800020c2:	e0e9                	bnez	s1,80002184 <reg_x16_output+0x4>
    800020c4:	46c44f87          	flq	ft11,1132(s0)

00000000800020c8 <reg_x25_init>:
    800020c8:	8ffd                	and	a5,a5,a5
    800020ca:	eba1                	bnez	a5,8000211a <reg_x3_output+0x2>
    800020cc:	5a86                	lw	s5,96(sp)
    800020ce:	25a5                	addiw	a1,a1,9

00000000800020d0 <reg_x26_init>:
    800020d0:	c9d8                	sw	a4,20(a1)
    800020d2:	4781                	li	a5,0
    800020d4:	72f9                	lui	t0,0xffffe
    800020d6:	9949                	andi	a0,a0,-14

00000000800020d8 <reg_x27_init>:
    800020d8:	58f8                	lw	a4,116(s1)
    800020da:	f728                	sd	a0,104(a4)
    800020dc:	8c92                	mv	s9,tp
    800020de:	b639                	j	80001bec <fromhost+0xbac>

00000000800020e0 <reg_x28_init>:
	...

00000000800020e8 <reg_x29_init>:
    800020e8:	de54                	sw	a3,60(a2)
    800020ea:	e7cc                	sd	a1,136(a5)
    800020ec:	7378                	ld	a4,224(a4)
    800020ee:	          	0xf36008bb

00000000800020f0 <reg_x30_init>:
    800020f0:	f360                	sd	s0,224(a4)
    800020f2:	f2da                	sd	s6,352(sp)
    800020f4:	ee3c                	sd	a5,88(a2)
    800020f6:	          	0x897c3bd7

00000000800020f8 <reg_x31_init>:
    800020f8:	897c                	0x897c
    800020fa:	f996                	sd	t0,240(sp)
    800020fc:	8be6                	mv	s7,s9
    800020fe:	07c6                	slli	a5,a5,0x11

0000000080002100 <begin_signature>:
    80002100:	e7b0                	sd	a2,72(a5)
    80002102:	3a02                	fld	fs4,32(sp)
    80002104:	ffae                	sd	a1,504(sp)
    80002106:	98e8                	0x98e8

0000000080002108 <reg_x1_output>:
    80002108:	0aa1                	addi	s5,s5,8
    8000210a:	0c9a                	slli	s9,s9,0x6
    8000210c:	1702                	slli	a4,a4,0x20
    8000210e:	e346                	sd	a7,384(sp)

0000000080002110 <reg_x2_output>:
    80002110:	ea50                	sd	a2,144(a2)
    80002112:	c70d                	beqz	a4,8000213c <reg_x7_output+0x4>
    80002114:	4d4a                	lw	s10,144(sp)
    80002116:	e630                	sd	a2,72(a2)

0000000080002118 <reg_x3_output>:
    80002118:	6006a367          	0x6006a367
    8000211c:	237a                	fld	ft6,408(sp)
    8000211e:	4b32                	lw	s6,12(sp)

0000000080002120 <reg_x4_output>:
    80002120:	1add                	addi	s5,s5,-9
    80002122:	3335                	addiw	t1,t1,-19
    80002124:	90f61907          	0x90f61907

0000000080002128 <reg_x5_output>:
    80002128:	b70d                	j	8000204a <reg_x9_init+0x2>
    8000212a:	6d74                	ld	a3,216(a0)
    8000212c:	dae8                	sw	a0,116(a3)
    8000212e:	e37a                	sd	t5,384(sp)

0000000080002130 <reg_x6_output>:
    80002130:	7f8a                	ld	t6,160(sp)
    80002132:	1956abd7          	0x1956abd7
    80002136:	c9bc                	sw	a5,80(a1)

0000000080002138 <reg_x7_output>:
    80002138:	458a                	lw	a1,128(sp)
    8000213a:	9b39                	andi	a4,a4,-18
    8000213c:	1cfc                	addi	a5,sp,636
    8000213e:	4298                	lw	a4,0(a3)

0000000080002140 <reg_x8_output>:
    80002140:	4d08                	lw	a0,24(a0)
    80002142:	7b3ce2eb          	0x7b3ce2eb
    80002146:	07f9                	addi	a5,a5,30

0000000080002148 <reg_x9_output>:
    80002148:	4f20                	lw	s0,88(a4)
    8000214a:	cdd4                	sw	a3,28(a1)
    8000214c:	02ac                	addi	a1,sp,328
    8000214e:	df09                	beqz	a4,80002068 <reg_x13_init>

0000000080002150 <reg_x10_output>:
    80002150:	a829                	j	8000216a <reg_x13_output+0x2>
    80002152:	e024                	sd	s1,64(s0)
    80002154:	7401                	lui	s0,0xfffe0
    80002156:	47d0                	lw	a2,12(a5)

0000000080002158 <reg_x11_output>:
    80002158:	a89c                	fsd	fa5,16(s1)
    8000215a:	a1e6                	fsd	fs9,192(sp)
    8000215c:	a8fd                	j	8000225a <test_memory+0x5a>
    8000215e:	a9fd                	j	8000265c <_end+0x4c>

0000000080002160 <reg_x12_output>:
    80002160:	ca945dc7          	fmsub.d	fs11,fs0,fs1,fs9,unknown
    80002164:	ba20                	fsd	fs0,112(a2)
    80002166:	3b1e                	fld	fs6,480(sp)

0000000080002168 <reg_x13_output>:
    80002168:	96fa4fdb          	0x96fa4fdb
    8000216c:	5522                	lw	a0,40(sp)
    8000216e:	bf52                	fsd	fs4,440(sp)

0000000080002170 <reg_x14_output>:
    80002170:	c99fb4e3          	0xc99fb4e3
    80002174:	1985                	addi	s3,s3,-31
    80002176:	de68                	sw	a0,124(a2)

0000000080002178 <reg_x15_output>:
    80002178:	0490                	addi	a2,sp,576
    8000217a:	20dd                	addiw	ra,ra,23
    8000217c:	45c9                	li	a1,18
    8000217e:	c710                	sw	a2,8(a4)

0000000080002180 <reg_x16_output>:
    80002180:	bf10                	fsd	fa2,56(a4)
    80002182:	c6a0                	sw	s0,72(a3)
    80002184:	0e5996f7          	0xe5996f7

0000000080002188 <reg_x17_output>:
    80002188:	2945                	addiw	s2,s2,17
    8000218a:	cb05                	beqz	a4,800021ba <reg_x23_output+0x2>
    8000218c:	c5ae                	sw	a1,200(sp)
    8000218e:	4319                	li	t1,6

0000000080002190 <reg_x18_output>:
    80002190:	cb11                	beqz	a4,800021a4 <reg_x20_output+0x4>
    80002192:	1390                	addi	a2,sp,480
    80002194:	d6d2                	sw	s4,108(sp)
    80002196:	2396                	fld	ft7,320(sp)

0000000080002198 <reg_x19_output>:
    80002198:	309f 8a75 537b      	0x537b8a75309f
    8000219e:	8fec                	0x8fec

00000000800021a0 <reg_x20_output>:
    800021a0:	ddc1                	beqz	a1,80002138 <reg_x7_output>
    800021a2:	ad14                	fsd	fa3,24(a0)
    800021a4:	baf8                	fsd	fa4,240(a3)
    800021a6:	d76a                	sw	s10,172(sp)

00000000800021a8 <reg_x21_output>:
    800021a8:	1ae5                	addi	s5,s5,-7
    800021aa:	f712                	sd	tp,424(sp)
    800021ac:	62bcf2cb          	fnmsub.d	ft5,fs9,fa1,fa2

00000000800021b0 <reg_x22_output>:
    800021b0:	015e5533          	srl	a0,t3,s5
    800021b4:	6c09                	lui	s8,0x2
    800021b6:	          	0xc7c2900f

00000000800021b8 <reg_x23_output>:
    800021b8:	c7c2                	sw	a6,204(sp)
    800021ba:	21a5                	addiw	gp,gp,9
    800021bc:	e6dffa8b          	0xe6dffa8b

00000000800021c0 <reg_x24_output>:
    800021c0:	1a19                	addi	s4,s4,-26
    800021c2:	47d0                	lw	a2,12(a5)
    800021c4:	41d1                	li	gp,20
    800021c6:	edd1                	bnez	a1,80002262 <test_memory+0x62>

00000000800021c8 <reg_x25_output>:
    800021c8:	204a                	fld	ft0,144(sp)
    800021ca:	d00e                	sw	gp,32(sp)
    800021cc:	f485                	bnez	s1,800020f4 <reg_x30_init+0x4>
    800021ce:	b9ae                	fsd	fa1,240(sp)

00000000800021d0 <reg_x26_output>:
    800021d0:	0369                	addi	t1,t1,26
    800021d2:	3f00997b          	0x3f00997b
    800021d6:	          	andi	t4,s5,1491

00000000800021d8 <reg_x27_output>:
    800021d8:	5d3a                	lw	s10,172(sp)
    800021da:	11a6                	slli	gp,gp,0x29
    800021dc:	2c34623f  	0x168a503d2c34623f

00000000800021e0 <reg_x28_output>:
    800021e0:	503d                	c.li	zero,-17
    800021e2:	168a                	slli	a3,a3,0x22
    800021e4:	1421                	addi	s0,s0,-24
    800021e6:	          	0xed83c273

00000000800021e8 <reg_x29_output>:
    800021e8:	db07ed83          	lwu	s11,-592(a5)
    800021ec:	7aff                	0x7aff
    800021ee:	be0e                	fsd	ft3,312(sp)

00000000800021f0 <reg_x30_output>:
    800021f0:	5bfa                	lw	s7,188(sp)
    800021f2:	ddc492e3          	bne	s1,t3,80001fb6 <fromhost+0xf76>
    800021f6:	c5b5                	beqz	a1,80002262 <test_memory+0x62>

00000000800021f8 <reg_x31_output>:
    800021f8:	c109                	beqz	a0,800021fa <reg_x31_output+0x2>
    800021fa:	ee14                	sd	a3,24(a2)
    800021fc:	3731                	addiw	a4,a4,-20
    800021fe:	          	0xf0b46277

0000000080002200 <test_memory>:
    80002200:	f0b4                	sd	a3,96(s1)
    80002202:	02c9                	addi	t0,t0,18
    80002204:	11ff                	0x11ff
    80002206:	1106                	slli	sp,sp,0x21
    80002208:	0a14fba7          	0xa14fba7
    8000220c:	3cee                	fld	fs9,248(sp)
    8000220e:	1071                	c.nop	-4
    80002210:	dbd1                	beqz	a5,800021a4 <reg_x20_output+0x4>
    80002212:	518c                	lw	a1,32(a1)
    80002214:	5114                	lw	a3,32(a0)
    80002216:	d49e                	sw	t2,104(sp)
    80002218:	5476                	lw	s0,124(sp)
    8000221a:	c3ce                	sw	s3,196(sp)
    8000221c:	76fe81d3          	0x76fe81d3
    80002220:	7654a8eb          	0x7654a8eb
    80002224:	0d71                	addi	s10,s10,28
    80002226:	3484                	fld	fs1,40(s1)
    80002228:	871ba54f          	fnmadd.q	fa0,fs7,fa7,fa6,rdn
    8000222c:	b61a                	fsd	ft6,296(sp)
    8000222e:	973e                	add	a4,a4,a5
    80002230:	a868a6fb          	0xa868a6fb
    80002234:	3ede                	fld	ft9,496(sp)
    80002236:	e6b0                	sd	a2,72(a3)
    80002238:	6e8d                	lui	t4,0x3
    8000223a:	cce8f6ef          	jal	a3,7ff91708 <_start-0x6e8f8>
    8000223e:	fda0                	sd	s0,120(a1)
    80002240:	12dc9bb3          	0x12dc9bb3
    80002244:	94f5                	srai	s1,s1,0x3d
    80002246:	5317c733          	0x5317c733
    8000224a:	fe14                	sd	a3,56(a2)
    8000224c:	35e4                	fld	fs1,232(a1)
    8000224e:	6a34                	ld	a3,80(a2)
    80002250:	c92a                	sw	a0,144(sp)
    80002252:	dccd89db          	0xdccd89db
    80002256:	b546                	fsd	fa7,168(sp)
    80002258:	d09d                	beqz	s1,8000217e <reg_x15_output+0x6>
    8000225a:	86aa                	mv	a3,a0
    8000225c:	9c08                	0x9c08
    8000225e:	29bed3db          	0x29bed3db
    80002262:	9fec                	0x9fec
    80002264:	7e0f8dfb          	0x7e0f8dfb
    80002268:	b820                	fsd	fs0,112(s0)
    8000226a:	3dbb9893          	0x3dbb9893
    8000226e:	cbec                	sw	a1,84(a5)
    80002270:	0635                	addi	a2,a2,13
    80002272:	b2bc49cf          	fnmadd.d	fs3,fs8,fa1,fs6,rmm
    80002276:	2ab809eb          	0x2ab809eb
    8000227a:	321ef3eb          	0x321ef3eb
    8000227e:	ace2                	fsd	fs8,88(sp)
    80002280:	4a25                	li	s4,9
    80002282:	a252                	fsd	fs4,256(sp)
    80002284:	9f69                	0x9f69
    80002286:	1e919e97          	auipc	t4,0x1e919
    8000228a:	84b0                	0x84b0
    8000228c:	2fa6                	fld	ft11,72(sp)
    8000228e:	3a969083          	lh	ra,937(a3)
    80002292:	96b8                	0x96b8
    80002294:	2d36                	fld	fs10,328(sp)
    80002296:	b036b6b3          	0xb036b6b3
    8000229a:	f3f0                	sd	a2,224(a5)
    8000229c:	a7ea                	fsd	fs10,456(sp)
    8000229e:	7d4e                	ld	s10,240(sp)
    800022a0:	72e5                	lui	t0,0xffff9
    800022a2:	7691                	lui	a3,0xfffe4
    800022a4:	6c18                	ld	a4,24(s0)
    800022a6:	c4118553          	0xc4118553
    800022aa:	4cbe5193          	0x4cbe5193
    800022ae:	4bea59b3          	0x4bea59b3
    800022b2:	0000d93f bc32c5a9 	0xbc32c5a90000d93f
    800022ba:	4c5c                	lw	a5,28(s0)
    800022bc:	5280                	lw	s0,32(a3)
    800022be:	115d1a6f          	jal	s4,800d3bd2 <__global_pointer$+0xd0dc2>
    800022c2:	9d52b613          	sltiu	a2,t0,-1579
    800022c6:	7292                	ld	t0,288(sp)
    800022c8:	a44e464f          	0xa44e464f
    800022cc:	03b0                	addi	a2,sp,456
    800022ce:	0202                	c.slli64	tp
    800022d0:	a975                	j	8000278c <_end+0x17c>
    800022d2:	3c60                	fld	fs0,248(s0)
    800022d4:	5892                	lw	a7,36(sp)
    800022d6:	a376                	fsd	ft9,384(sp)
    800022d8:	b25d860b          	0xb25d860b
    800022dc:	79c5                	lui	s3,0xffff1
    800022de:	266a                	fld	fa2,152(sp)
    800022e0:	92d1                	srli	a3,a3,0x34
    800022e2:	2521                	addiw	a0,a0,8
    800022e4:	bd5a                	fsd	fs6,184(sp)
    800022e6:	1f7b3a33          	0x1f7b3a33
    800022ea:	8f3ec7b7          	lui	a5,0x8f3ec
    800022ee:	69d8                	ld	a4,144(a1)
    800022f0:	3a2f5c9b          	0x3a2f5c9b
    800022f4:	a4abe093          	ori	ra,s7,-1462
    800022f8:	e5e5                	bnez	a1,800023e0 <test_memory+0x1e0>
    800022fa:	5ef94aeb          	0x5ef94aeb
    800022fe:	8fb2                	mv	t6,a2
    80002300:	fcea                	sd	s10,120(sp)
    80002302:	65ea                	ld	a1,152(sp)
    80002304:	827be1e3          	bltu	s7,t2,80001b26 <fromhost+0xae6>
    80002308:	32ca                	fld	ft5,176(sp)
    8000230a:	e4c06273          	csrrsi	tp,0xe4c,0
    8000230e:	9aa1                	andi	a3,a3,-24
    80002310:	a968                	fsd	fa0,208(a0)
    80002312:	2b98                	fld	fa4,16(a5)
    80002314:	9064                	0x9064
    80002316:	0859                	addi	a6,a6,22
    80002318:	2926                	fld	fs2,72(sp)
    8000231a:	764d                	lui	a2,0xffff3
    8000231c:	9328                	0x9328
    8000231e:	16347f83          	0x16347f83
    80002322:	330e                	fld	ft6,224(sp)
    80002324:	2696                	fld	fa3,320(sp)
    80002326:	f549                	bnez	a0,800022b0 <test_memory+0xb0>
    80002328:	68f5                	lui	a7,0x1d
    8000232a:	f29c2e6f          	jal	t3,7ffc5252 <_start-0x3adae>
    8000232e:	3f09dd47          	fmsub.q	fs10,fs3,fa6,ft7,unknown
    80002332:	519703cb          	fnmsub.s	ft7,fa4,fs9,fa0,rne
    80002336:	85de                	mv	a1,s7
    80002338:	f6f9                	bnez	a3,80002306 <test_memory+0x106>
    8000233a:	e54a                	sd	s2,136(sp)
    8000233c:	9db6                	add	s11,s11,a3
    8000233e:	1e9f9067          	0x1e9f9067
    80002342:	f274                	sd	a3,224(a2)
    80002344:	f790                	sd	a2,40(a5)
    80002346:	2629                	addiw	a2,a2,10
    80002348:	5cba                	lw	s9,172(sp)
    8000234a:	e562                	sd	s8,136(sp)
    8000234c:	2ed1                	addiw	t4,t4,20
    8000234e:	f2aa                	sd	a0,352(sp)
    80002350:	f851                	bnez	s0,800022e4 <test_memory+0xe4>
    80002352:	71721223          	sh	s7,1796(tp) # 704 <_start-0x7ffff8fc>
    80002356:	8719                	srai	a4,a4,0x6
    80002358:	44ce                	lw	s1,208(sp)
    8000235a:	f2dc92d3          	0xf2dc92d3
    8000235e:	8af5                	andi	a3,a3,29
    80002360:	17ff                	0x17ff
    80002362:	0779                	addi	a4,a4,30
    80002364:	2be2                	fld	fs7,24(sp)
    80002366:	175af723          	0x175af723
    8000236a:	7571b627          	fsd	fs7,1868(gp) # ffffffffffff074c <__global_pointer$+0xffffffff7ffed93c>
    8000236e:	2c3515e7          	0x2c3515e7
    80002372:	5fc2                	lw	t6,48(sp)
    80002374:	e371                	bnez	a4,80002438 <test_memory+0x238>
    80002376:	5ad86b67          	0x5ad86b67
    8000237a:	20f2                	fld	ft1,280(sp)
    8000237c:	b44d3a27          	fsd	ft4,-1196(s10)
    80002380:	9e8c                	0x9e8c
    80002382:	69a4                	ld	s1,80(a1)
    80002384:	f010                	sd	a2,32(s0)
    80002386:	f52e                	sd	a1,168(sp)
    80002388:	dd1a                	sw	t1,184(sp)
    8000238a:	7f02                	ld	t5,32(sp)
    8000238c:	d1953723          	sd	s9,-754(a0)
    80002390:	8e50                	0x8e50
    80002392:	0025                	c.nop	9
    80002394:	931753c3          	fmadd.d	ft7,fa4,fa7,fs2,unknown
    80002398:	e88d                	bnez	s1,800023ca <test_memory+0x1ca>
    8000239a:	4458                	lw	a4,12(s0)
    8000239c:	eefee4f3          	csrrsi	s1,0xeef,29
    800023a0:	ab755163          	bge	a0,s7,80001642 <fromhost+0x602>
    800023a4:	8092                	mv	ra,tp
    800023a6:	7cbe                	ld	s9,488(sp)
    800023a8:	09c2                	slli	s3,s3,0x10
    800023aa:	b928                	fsd	fa0,112(a0)
    800023ac:	f79d                	bnez	a5,800022da <test_memory+0xda>
    800023ae:	fa3d                	bnez	a2,80002324 <test_memory+0x124>
    800023b0:	9f60                	0x9f60
    800023b2:	09c87677          	0x9c87677
    800023b6:	7e39                	lui	t3,0xfffee
    800023b8:	292a                	fld	fs2,136(sp)
    800023ba:	5de0                	lw	s0,124(a1)
    800023bc:	14f6                	slli	s1,s1,0x3d
    800023be:	cb028c67          	jalr	s8,-848(t0) # ffffffffffff8cb0 <__global_pointer$+0xffffffff7fff5ea0>
    800023c2:	cb00                	sw	s0,16(a4)
    800023c4:	b456                	fsd	fs5,40(sp)
    800023c6:	75c8                	ld	a0,168(a1)
    800023c8:	fd21                	bnez	a0,80002320 <test_memory+0x120>
    800023ca:	1c307a07          	0x1c307a07
    800023ce:	51c1                	li	gp,-16
    800023d0:	2362adc7          	fmsub.d	fs11,ft5,fs6,ft4,rdn
    800023d4:	9a99                	andi	a3,a3,-26
    800023d6:	fcfe                	sd	t6,120(sp)
    800023d8:	182d                	addi	a6,a6,-21
    800023da:	1dbe                	slli	s11,s11,0x2f
    800023dc:	b1aad2b7          	lui	t0,0xb1aad
    800023e0:	29d0                	fld	fa2,144(a1)
    800023e2:	dc6a                	sw	s10,56(sp)
    800023e4:	573d                	li	a4,-17
    800023e6:	17861e2f          	0x17861e2f
    800023ea:	2f46                	fld	ft10,80(sp)
    800023ec:	0a3c                	addi	a5,sp,280
    800023ee:	706e                	0x706e
    800023f0:	8998660b          	0x8998660b
    800023f4:	6b7f                	0x6b7f
    800023f6:	4b0a                	lw	s6,128(sp)
    800023f8:	b5d9                	j	800022be <test_memory+0xbe>
    800023fa:	9411105b          	0x9411105b
    800023fe:	a0d6                	fsd	fs5,64(sp)
    80002400:	dc712893          	slti	a7,sp,-569
    80002404:	5499                	li	s1,-26
    80002406:	a885                	j	80002476 <test_memory+0x276>
    80002408:	c648                	sw	a0,12(a2)
    8000240a:	c25d                	beqz	a2,800024b0 <test_memory+0x2b0>
    8000240c:	95b6                	add	a1,a1,a3
    8000240e:	91f4                	0x91f4
    80002410:	f356                	sd	s5,416(sp)
    80002412:	1969                	addi	s2,s2,-6
    80002414:	f25e047b          	0xf25e047b
    80002418:	5bb5                	li	s7,-19
    8000241a:	40ff                	0x40ff
    8000241c:	12b5                	addi	t0,t0,-19
    8000241e:	c6f70bd7          	0xc6f70bd7
    80002422:	b1b6bf9b          	0xb1b6bf9b
    80002426:	6c7f                	0x6c7f
    80002428:	a040                	fsd	fs0,128(s0)
    8000242a:	a14d                	j	800028cc <_end+0x2bc>
    8000242c:	bfaa                	fsd	fa0,504(sp)
    8000242e:	cd84                	sw	s1,24(a1)
    80002430:	aff6                	fsd	ft9,472(sp)
    80002432:	32bd1e13          	0x32bd1e13
    80002436:	7dd0                	ld	a2,184(a1)
    80002438:	210d                	addiw	sp,sp,3
    8000243a:	b2bd                	j	80001da8 <fromhost+0xd68>
    8000243c:	72a5                	lui	t0,0xfffe9
    8000243e:	d446                	sw	a7,40(sp)
    80002440:	820e                	mv	tp,gp
    80002442:	20bc                	fld	fa5,64(s1)
    80002444:	059b584f          	0x59b584f
    80002448:	924a                	add	tp,tp,s2
    8000244a:	c1d9                	beqz	a1,800024d0 <test_memory+0x2d0>
    8000244c:	11b7c4b3          	0x11b7c4b3
    80002450:	65de                	ld	a1,464(sp)
    80002452:	599e                	lw	s3,228(sp)
    80002454:	fb2e                	sd	a1,432(sp)
    80002456:	5634                	lw	a3,104(a2)
    80002458:	4f70                	lw	a2,92(a4)
    8000245a:	4c5f b8bb 4047      	0x4047b8bb4c5f
    80002460:	c7d71ccb          	fnmsub.q	fs9,fa4,ft9,fs8,rtz
    80002464:	03c1b113          	sltiu	sp,gp,60
    80002468:	1bc8                	addi	a0,sp,500
    8000246a:	1536                	slli	a0,a0,0x2d
    8000246c:	7b86                	ld	s7,96(sp)
    8000246e:	f61c                	sd	a5,40(a2)
    80002470:	1f24                	addi	s1,sp,952
    80002472:	d678                	sw	a4,108(a2)
    80002474:	5ce5                	li	s9,-7
    80002476:	a0a1                	j	800024be <test_memory+0x2be>
    80002478:	e730                	sd	a2,72(a4)
    8000247a:	f838                	sd	a4,112(s0)
    8000247c:	911f b9ea f886      	0xf886b9ea911f
    80002482:	a0a5                	j	800024ea <test_memory+0x2ea>
    80002484:	0e28                	addi	a0,sp,792
    80002486:	c0f6                	sw	t4,64(sp)
    80002488:	9b1e                	add	s6,s6,t2
    8000248a:	0a2e                	slli	s4,s4,0xb
    8000248c:	0365                	addi	t1,t1,25
    8000248e:	1581                	addi	a1,a1,-32
    80002490:	8681                	c.srai64	a3
    80002492:	7826                	ld	a6,104(sp)
    80002494:	e3b6                	sd	a3,448(sp)
    80002496:	9774                	0x9774
    80002498:	33e5                	addiw	t2,t2,-7
    8000249a:	2514                	fld	fa3,8(a0)
    8000249c:	65d5                	lui	a1,0x15
    8000249e:	a3d1                	j	80002a62 <_end+0x452>
    800024a0:	9e41fd7b          	0x9e41fd7b
    800024a4:	e5a8                	sd	a0,72(a1)
    800024a6:	8655                	srai	a2,a2,0x15
    800024a8:	ac18aa37          	lui	s4,0xac18a
    800024ac:	c2aa                	sw	a0,68(sp)
    800024ae:	d7d42d53          	0xd7d42d53
    800024b2:	deb4                	sw	a3,120(a3)
    800024b4:	0a9e                	slli	s5,s5,0x7
    800024b6:	70eaa313          	slti	t1,s5,1806
    800024ba:	c52c89af          	0xc52c89af
    800024be:	134aab13          	slti	s6,s5,308
    800024c2:	dc1f77af          	0xdc1f77af
    800024c6:	69f5                	lui	s3,0x1d
    800024c8:	8aff                	0x8aff
    800024ca:	a526                	fsd	fs1,136(sp)
    800024cc:	b544                	fsd	fs1,168(a0)
    800024ce:	afb5                	j	80002c4a <_end+0x63a>
    800024d0:	609f 42bf 6e58      	0x6e5842bf609f
    800024d6:	6a76                	ld	s4,344(sp)
    800024d8:	7ddf 0879 1851      	0x185108797ddf
    800024de:	29794397          	auipc	t2,0x29794
    800024e2:	9f0c1f4f          	fnmadd.q	ft10,fs8,fa6,fs3,rtz
    800024e6:	3665                	addiw	a2,a2,-7
    800024e8:	a3e6                	fsd	fs9,448(sp)
    800024ea:	eaea                	sd	s10,336(sp)
    800024ec:	0b36                	slli	s6,s6,0xd
    800024ee:	cf18                	sw	a4,24(a4)
    800024f0:	9088                	0x9088
    800024f2:	0a3e                	slli	s4,s4,0xf
    800024f4:	cfcc                	sw	a1,28(a5)
    800024f6:	a3252f07          	flw	ft10,-1486(a0)
    800024fa:	d580                	sw	s0,40(a1)
    800024fc:	a9ba                	fsd	fa4,208(sp)
    800024fe:	cfeda957          	0xcfeda957
    80002502:	557d                	li	a0,-1
    80002504:	8f65                	and	a4,a4,s1
    80002506:	3be4                	fld	fs1,240(a5)
    80002508:	241e0c63          	beq	t3,ra,80002760 <_end+0x150>
    8000250c:	1714                	addi	a3,sp,928
    8000250e:	4b7f                	0x4b7f
    80002510:	99da                	add	s3,s3,s6
    80002512:	e699f873          	csrrci	a6,0xe69,19
    80002516:	0a62                	slli	s4,s4,0x18
    80002518:	6665                	lui	a2,0x19
    8000251a:	8cc5                	or	s1,s1,s1
    8000251c:	fbba                	sd	a4,496(sp)
    8000251e:	5f75d65b          	0x5f75d65b
    80002522:	bcd6                	fsd	fs5,120(sp)
    80002524:	3c11                	addiw	s8,s8,-28
    80002526:	2291                	addiw	t0,t0,4
    80002528:	e6fc296f          	jal	s2,7ffc5396 <_start-0x3ac6a>
    8000252c:	8c85                	sub	s1,s1,s1
    8000252e:	72c4                	ld	s1,160(a3)
    80002530:	a201                	j	80002630 <_end+0x20>
    80002532:	0598                	addi	a4,sp,704
    80002534:	0394                	addi	a3,sp,448
    80002536:	6f0a0ff3          	0x6f0a0ff3
    8000253a:	6ef4bb63          	0x6ef4bb63
    8000253e:	5a4c                	lw	a1,52(a2)
    80002540:	64e6b23f b41dac71 	0xb41dac7164e6b23f
    80002548:	5a06                	lw	s4,96(sp)
    8000254a:	c7c5                	beqz	a5,800025f2 <test_memory+0x3f2>
    8000254c:	d6730ecb          	fnmsub.q	ft9,ft6,ft7,fs10,rne
    80002550:	8211                	srli	a2,a2,0x4
    80002552:	1d36                	slli	s10,s10,0x2d
    80002554:	8340                	0x8340
    80002556:	e791                	bnez	a5,80002562 <test_memory+0x362>
    80002558:	7ac2                	ld	s5,48(sp)
    8000255a:	7a42                	ld	s4,48(sp)
    8000255c:	38e1                	addiw	a7,a7,-8
    8000255e:	e5e9                	bnez	a1,80002628 <_end+0x18>
    80002560:	6c61                	lui	s8,0x18
    80002562:	d650                	sw	a2,44(a2)
    80002564:	1ad27acf          	fnmadd.d	fs5,ft4,fa3,ft3
    80002568:	b3aa                	fsd	fa0,480(sp)
    8000256a:	cf3a                	sw	a4,156(sp)
    8000256c:	0f36                	slli	t5,t5,0xd
    8000256e:	3315                	addiw	t1,t1,-27
    80002570:	1740                	addi	s0,sp,932
    80002572:	3c42                	fld	fs8,48(sp)
    80002574:	105a                	c.slli	zero,0x36
    80002576:	3190                	fld	fa2,32(a1)
    80002578:	6200                	ld	s0,0(a2)
    8000257a:	1d41                	addi	s10,s10,-16
    8000257c:	aa4a                	fsd	fs2,272(sp)
    8000257e:	a9d8                	fsd	fa4,144(a1)
    80002580:	d451                	beqz	s0,8000250c <test_memory+0x30c>
    80002582:	499a                	lw	s3,132(sp)
    80002584:	bef6                	fsd	ft9,376(sp)
    80002586:	42ea                	lw	t0,152(sp)
    80002588:	cedf 5924 fbac      	0xfbac5924cedf
    8000258e:	e610                	sd	a2,8(a2)
    80002590:	2368                	fld	fa0,192(a4)
    80002592:	b64faa63          	0xb64faa63
    80002596:	e7d8                	sd	a4,136(a5)
    80002598:	2c7d                	addiw	s8,s8,31
    8000259a:	a60d                	j	800028bc <_end+0x2ac>
    8000259c:	5d87c5cf          	0x5d87c5cf
    800025a0:	3b6d                	addiw	s6,s6,-5
    800025a2:	c89ad837          	lui	a6,0xc89ad
    800025a6:	e292                	sd	tp,320(sp)
    800025a8:	a3b0                	fsd	fa2,64(a5)
    800025aa:	bd248b37          	lui	s6,0xbd248
    800025ae:	186c                	addi	a1,sp,60
    800025b0:	bd86                	fsd	ft1,248(sp)
    800025b2:	5406                	lw	s0,96(sp)
    800025b4:	c3c4                	sw	s1,4(a5)
    800025b6:	fb0d                	bnez	a4,800024e8 <test_memory+0x2e8>
    800025b8:	9e1635b3          	0x9e1635b3
    800025bc:	2665                	addiw	a2,a2,25
    800025be:	f675e017          	auipc	zero,0xf675e
    800025c2:	2579                	addiw	a0,a0,30
    800025c4:	2c13a9eb          	0x2c13a9eb
    800025c8:	7629                	lui	a2,0xfffea
    800025ca:	8ce5                	and	s1,s1,s1
    800025cc:	7612862f          	0x7612862f
    800025d0:	523e                	lw	tp,236(sp)
    800025d2:	9d1f 7d0d 9dd3      	0x9dd37d0d9d1f
    800025d8:	6161                	addi	sp,sp,80
    800025da:	3755                	addiw	a4,a4,-11
    800025dc:	35d4                	fld	fa3,168(a1)
    800025de:	ea8e                	sd	gp,336(sp)
    800025e0:	e60c                	sd	a1,8(a2)
    800025e2:	3389                	addiw	t2,t2,-30
    800025e4:	54f59207          	0x54f59207
    800025e8:	d2da                	sw	s6,100(sp)
    800025ea:	68f2                	ld	a7,280(sp)
    800025ec:	f16e                	sd	s11,160(sp)
    800025ee:	e270                	sd	a2,192(a2)
    800025f0:	3454                	fld	fa3,168(s0)
    800025f2:	5eb4                	lw	a3,120(a3)
    800025f4:	9eb8                	0x9eb8
    800025f6:	0bad                	addi	s7,s7,11
    800025f8:	600a                	0x600a
    800025fa:	b33617d3          	0xb33617d3
    800025fe:	37ce                	fld	fa5,240(sp)

0000000080002600 <loop_count>:
    80002600:	0040                	addi	s0,sp,4
	...

Disassembly of section .riscv.attributes:

0000000000000000 <.riscv.attributes>:
   0:	1e41                	addi	t3,t3,-16
   2:	0000                	unimp
   4:	7200                	ld	s0,32(a2)
   6:	7369                	lui	t1,0xffffa
   8:	01007663          	bgeu	zero,a6,14 <_start-0x7fffffec>
   c:	0014                	0x14
   e:	0000                	unimp
  10:	7205                	lui	tp,0xfffe1
  12:	3676                	fld	fa2,376(sp)
  14:	6934                	ld	a3,80(a0)
  16:	7032                	0x7032
  18:	5f30                	lw	a2,120(a4)
  1a:	326d                	addiw	tp,tp,-5
  1c:	3070                	fld	fa2,224(s0)
	...
