
build/test28:     file format elf64-littleriscv


Disassembly of section .text.init:

0000000080000000 <_start>:
    80000000:	05c0006f          	j	8000005c <reset_vector>

0000000080000004 <trap_vector>:
    80000004:	34202f73          	csrr	t5,mcause
    80000008:	00800f93          	li	t6,8
    8000000c:	03ff0a63          	beq	t5,t6,80000040 <write_tohost>
    80000010:	00900f93          	li	t6,9
    80000014:	03ff0663          	beq	t5,t6,80000040 <write_tohost>
    80000018:	00b00f93          	li	t6,11
    8000001c:	03ff0263          	beq	t5,t6,80000040 <write_tohost>
    80000020:	80000f17          	auipc	t5,0x80000
    80000024:	fe0f0f13          	addi	t5,t5,-32 # 0 <_start-0x80000000>
    80000028:	000f0463          	beqz	t5,80000030 <trap_vector+0x2c>
    8000002c:	000f0067          	jr	t5
    80000030:	34202f73          	csrr	t5,mcause
    80000034:	000f5463          	bgez	t5,8000003c <handle_exception>
    80000038:	0040006f          	j	8000003c <handle_exception>

000000008000003c <handle_exception>:
    8000003c:	5391e193          	ori	gp,gp,1337

0000000080000040 <write_tohost>:
    80000040:	00001f17          	auipc	t5,0x1
    80000044:	fc3f2023          	sw	gp,-64(t5) # 80001000 <tohost>
    80000048:	000902b7          	lui	t0,0x90
    8000004c:	0012829b          	addiw	t0,t0,1
    80000050:	00c29293          	slli	t0,t0,0xc
    80000054:	0002af83          	lw	t6,0(t0) # 90000 <_start-0x7ff70000>
    80000058:	fe9ff06f          	j	80000040 <write_tohost>

000000008000005c <reset_vector>:
    8000005c:	00000093          	li	ra,0
    80000060:	00000113          	li	sp,0
    80000064:	00000193          	li	gp,0
    80000068:	00000213          	li	tp,0
    8000006c:	00000293          	li	t0,0
    80000070:	00000313          	li	t1,0
    80000074:	00000393          	li	t2,0
    80000078:	00000413          	li	s0,0
    8000007c:	00000493          	li	s1,0
    80000080:	00000513          	li	a0,0
    80000084:	00000593          	li	a1,0
    80000088:	00000613          	li	a2,0
    8000008c:	00000693          	li	a3,0
    80000090:	00000713          	li	a4,0
    80000094:	00000793          	li	a5,0
    80000098:	00000813          	li	a6,0
    8000009c:	00000893          	li	a7,0
    800000a0:	00000913          	li	s2,0
    800000a4:	00000993          	li	s3,0
    800000a8:	00000a13          	li	s4,0
    800000ac:	00000a93          	li	s5,0
    800000b0:	00000b13          	li	s6,0
    800000b4:	00000b93          	li	s7,0
    800000b8:	00000c13          	li	s8,0
    800000bc:	00000c93          	li	s9,0
    800000c0:	00000d13          	li	s10,0
    800000c4:	00000d93          	li	s11,0
    800000c8:	00000e13          	li	t3,0
    800000cc:	00000e93          	li	t4,0
    800000d0:	00000f13          	li	t5,0
    800000d4:	00000f93          	li	t6,0
    800000d8:	f1402573          	csrr	a0,mhartid
    800000dc:	00051063          	bnez	a0,800000dc <reset_vector+0x80>
    800000e0:	00000297          	auipc	t0,0x0
    800000e4:	01028293          	addi	t0,t0,16 # 800000f0 <reset_vector+0x94>
    800000e8:	30529073          	csrw	mtvec,t0
    800000ec:	18005073          	csrwi	satp,0
    800000f0:	00000297          	auipc	t0,0x0
    800000f4:	02428293          	addi	t0,t0,36 # 80000114 <reset_vector+0xb8>
    800000f8:	30529073          	csrw	mtvec,t0
    800000fc:	0010029b          	addiw	t0,zero,1
    80000100:	03529293          	slli	t0,t0,0x35
    80000104:	fff28293          	addi	t0,t0,-1
    80000108:	3b029073          	csrw	pmpaddr0,t0
    8000010c:	01f00293          	li	t0,31
    80000110:	3a029073          	csrw	pmpcfg0,t0
    80000114:	30405073          	csrwi	mie,0
    80000118:	00000297          	auipc	t0,0x0
    8000011c:	01428293          	addi	t0,t0,20 # 8000012c <reset_vector+0xd0>
    80000120:	30529073          	csrw	mtvec,t0
    80000124:	30205073          	csrwi	medeleg,0
    80000128:	30305073          	csrwi	mideleg,0
    8000012c:	00000193          	li	gp,0
    80000130:	00000297          	auipc	t0,0x0
    80000134:	ed428293          	addi	t0,t0,-300 # 80000004 <trap_vector>
    80000138:	30529073          	csrw	mtvec,t0
    8000013c:	00100513          	li	a0,1
    80000140:	01f51513          	slli	a0,a0,0x1f
    80000144:	00055c63          	bgez	a0,8000015c <reset_vector+0x100>
    80000148:	0ff0000f          	fence
    8000014c:	00100193          	li	gp,1
    80000150:	05d00893          	li	a7,93
    80000154:	00000513          	li	a0,0
    80000158:	00000073          	ecall
    8000015c:	80000297          	auipc	t0,0x80000
    80000160:	ea428293          	addi	t0,t0,-348 # 0 <_start-0x80000000>
    80000164:	00028a63          	beqz	t0,80000178 <reset_vector+0x11c>
    80000168:	10529073          	csrw	stvec,t0
    8000016c:	0000b2b7          	lui	t0,0xb
    80000170:	1092829b          	addiw	t0,t0,265
    80000174:	30229073          	csrw	medeleg,t0
    80000178:	30005073          	csrwi	mstatus,0
    8000017c:	00000297          	auipc	t0,0x0
    80000180:	01428293          	addi	t0,t0,20 # 80000190 <reset_vector+0x134>
    80000184:	34129073          	csrw	mepc,t0
    80000188:	f1402573          	csrr	a0,mhartid
    8000018c:	30200073          	mret
    80000190:	0200006f          	j	800001b0 <test_start>

0000000080000194 <crash_backward>:
    80000194:	0ff0000f          	fence
    80000198:	00018063          	beqz	gp,80000198 <crash_backward+0x4>
    8000019c:	00119193          	slli	gp,gp,0x1
    800001a0:	0011e193          	ori	gp,gp,1
    800001a4:	05d00893          	li	a7,93
    800001a8:	00018513          	mv	a0,gp
    800001ac:	00000073          	ecall

00000000800001b0 <test_start>:
    800001b0:	00002f97          	auipc	t6,0x2
    800001b4:	e50f8f93          	addi	t6,t6,-432 # 80002000 <hidden_data>
    800001b8:	000fb003          	ld	zero,0(t6)
    800001bc:	008fb083          	ld	ra,8(t6)
    800001c0:	010fb103          	ld	sp,16(t6)
    800001c4:	018fb183          	ld	gp,24(t6)
    800001c8:	020fb203          	ld	tp,32(t6)
    800001cc:	028fb283          	ld	t0,40(t6)
    800001d0:	030fb303          	ld	t1,48(t6)
    800001d4:	038fb383          	ld	t2,56(t6)
    800001d8:	040fb403          	ld	s0,64(t6)
    800001dc:	048fb483          	ld	s1,72(t6)
    800001e0:	050fb503          	ld	a0,80(t6)
    800001e4:	058fb583          	ld	a1,88(t6)
    800001e8:	060fb603          	ld	a2,96(t6)
    800001ec:	068fb683          	ld	a3,104(t6)
    800001f0:	070fb703          	ld	a4,112(t6)
    800001f4:	078fb783          	ld	a5,120(t6)
    800001f8:	080fb803          	ld	a6,128(t6)
    800001fc:	088fb883          	ld	a7,136(t6)
    80000200:	090fb903          	ld	s2,144(t6)
    80000204:	098fb983          	ld	s3,152(t6)
    80000208:	0a0fba03          	ld	s4,160(t6)
    8000020c:	0a8fba83          	ld	s5,168(t6)
    80000210:	0b0fbb03          	ld	s6,176(t6)
    80000214:	0b8fbb83          	ld	s7,184(t6)
    80000218:	0c0fbc03          	ld	s8,192(t6)
    8000021c:	0c8fbc83          	ld	s9,200(t6)
    80000220:	0d0fbd03          	ld	s10,208(t6)
    80000224:	0d8fbd83          	ld	s11,216(t6)
    80000228:	0e0fbe03          	ld	t3,224(t6)
    8000022c:	0e8fbe83          	ld	t4,232(t6)
    80000230:	0f0fbf03          	ld	t5,240(t6)
    80000234:	0f8fbf83          	ld	t6,248(t6)
    80000238:	0040006f          	j	8000023c <pseg_0>

000000008000023c <pseg_0>:
    8000023c:	df700a13          	li	s4,-521
    80000240:	1d900993          	li	s3,473
    80000244:	00529b3b          	sllw	s6,t0,t0
    80000248:	01b661b3          	or	gp,a2,s11
    8000024c:	00002917          	auipc	s2,0x2
    80000250:	e5e90913          	addi	s2,s2,-418 # 800020aa <reg_x21_init+0x2>
    80000254:	30700b93          	li	s7,775
    80000258:	00038713          	mv	a4,t2
    8000025c:	d9f00293          	li	t0,-609
    80000260:	4052debb          	sraw	t4,t0,t0
    80000264:	03ebfd3b          	remuw	s10,s7,t5
    80000268:	5ce00a93          	li	s5,1486
    8000026c:	c9d00693          	li	a3,-867
    80000270:	6f300113          	li	sp,1779
    80000274:	1b600613          	li	a2,438
    80000278:	15794483          	lbu	s1,343(s2)
    8000027c:	036b01b3          	mul	gp,s6,s6
    80000280:	e8d00f13          	li	t5,-371
    80000284:	00d698bb          	sllw	a7,a3,a3
    80000288:	e3fa0c13          	addi	s8,s4,-449
    8000028c:	14600213          	li	tp,326
    80000290:	0229e5bb          	remw	a1,s3,sp
    80000294:	92800793          	li	a5,-1752
    80000298:	00070c93          	mv	s9,a4
    8000029c:	15a00b13          	li	s6,346
    800002a0:	729b0313          	addi	t1,s6,1833
    800002a4:	00f61433          	sll	s0,a2,a5
    800002a8:	015bc833          	xor	a6,s7,s5
    800002ac:	01c753b3          	srl	t2,a4,t3
    800002b0:	6dd00513          	li	a0,1757
    800002b4:	68b00e13          	li	t3,1675
    800002b8:	03c56fbb          	remw	t6,a0,t3
    800002bc:	024f0db3          	mul	s11,t5,tp
    800002c0:	42d00213          	li	tp,1069
    800002c4:	b3300c13          	li	s8,-1229
    800002c8:	00002f97          	auipc	t6,0x2
    800002cc:	ddaf8f93          	addi	t6,t6,-550 # 800020a2 <reg_x20_init+0x2>
    800002d0:	2c2f9e83          	lh	t4,706(t6)
    800002d4:	9be00b93          	li	s7,-1602
    800002d8:	017b9133          	sll	sp,s7,s7
    800002dc:	8b700c93          	li	s9,-1865
    800002e0:	24f00893          	li	a7,591
    800002e4:	03423733          	mulhu	a4,tp,s4
    800002e8:	e7f00f13          	li	t5,-385
    800002ec:	03821b33          	mulh	s6,tp,s8
    800002f0:	1ae00913          	li	s2,430
    800002f4:	17400593          	li	a1,372
    800002f8:	7cc00a13          	li	s4,1996
    800002fc:	145a7613          	andi	a2,s4,325
    80000300:	eab00413          	li	s0,-341
    80000304:	e57f0993          	addi	s3,t5,-425
    80000308:	7d100a93          	li	s5,2001
    8000030c:	a7400193          	li	gp,-1420
    80000310:	00100e13          	li	t3,1
    80000314:	03fe1e13          	slli	t3,t3,0x3f
    80000318:	023443bb          	divw	t2,s0,gp
    8000031c:	015487bb          	addw	a5,s1,s5
    80000320:	414c86bb          	subw	a3,s9,s4
    80000324:	84800d93          	li	s11,-1976
    80000328:	01b914b3          	sll	s1,s2,s11
    8000032c:	14400693          	li	a3,324
    80000330:	02b1cdb3          	div	s11,gp,a1
    80000334:	02d6ecbb          	remw	s9,a3,a3
    80000338:	02bfd93b          	divuw	s2,t6,a1
    8000033c:	001a1a1b          	slliw	s4,s4,0x1
    80000340:	00b89333          	sll	t1,a7,a1
    80000344:	00070393          	mv	t2,a4
    80000348:	78000113          	li	sp,1920
    8000034c:	00038993          	mv	s3,t2
    80000350:	5f33e863          	bltu	t2,s3,80000940 <crash_forward>
    80000354:	40a557bb          	sraw	a5,a0,a0
    80000358:	b7600e93          	li	t4,-1162
    8000035c:	30400093          	li	ra,772
    80000360:	00211fbb          	sllw	t6,sp,sp
    80000364:	fff00293          	li	t0,-1
    80000368:	4021023b          	subw	tp,sp,sp
    8000036c:	00000c13          	li	s8,0
    80000370:	41e68633          	sub	a2,a3,t5
    80000374:	001add33          	srl	s10,s5,ra
    80000378:	00000493          	li	s1,0
    8000037c:	01c2c2b3          	xor	t0,t0,t3
    80000380:	0058f833          	and	a6,a7,t0
    80000384:	03de9733          	mulh	a4,t4,t4
    80000388:	e09c66e3          	bltu	s8,s1,80000194 <crash_backward>
    8000038c:	2e700f13          	li	t5,743
    80000390:	03eed43b          	divuw	s0,t4,t5
    80000394:	01c86533          	or	a0,a6,t3
    80000398:	30400213          	li	tp,772
    8000039c:	50c00793          	li	a5,1292
    800003a0:	01809f1b          	slliw	t5,ra,0x18
    800003a4:	b5500193          	li	gp,-1195
    800003a8:	02f7b4b3          	mulhu	s1,a5,a5
    800003ac:	00002697          	auipc	a3,0x2
    800003b0:	d7368693          	addi	a3,a3,-653 # 8000211f <reg_x3_output+0x7>
    800003b4:	0a400593          	li	a1,164
    800003b8:	34500513          	li	a0,837
    800003bc:	01149413          	slli	s0,s1,0x11
    800003c0:	40d302bb          	subw	t0,t1,a3
    800003c4:	9a500c93          	li	s9,-1627
    800003c8:	00002497          	auipc	s1,0x2
    800003cc:	cf848493          	addi	s1,s1,-776 # 800020c0 <reg_x24_init>
    800003d0:	91800f93          	li	t6,-1768
    800003d4:	7f700613          	li	a2,2039
    800003d8:	039cfeb3          	remu	t4,s9,s9
    800003dc:	40e25d1b          	sraiw	s10,tp,0xe
    800003e0:	d9600293          	li	t0,-618
    800003e4:	b2818a93          	addi	s5,gp,-1240 # 80002938 <_end+0x328>
    800003e8:	03ffd13b          	divuw	sp,t6,t6
    800003ec:	4f24a023          	sw	s2,1248(s1)
    800003f0:	00100413          	li	s0,1
    800003f4:	06420b13          	addi	s6,tp,100 # 64 <_start-0x7fffff9c>
    800003f8:	d83adee3          	bge	s5,gp,80000194 <crash_backward>
    800003fc:	03f41413          	slli	s0,s0,0x3f
    80000400:	016e9c3b          	sllw	s8,t4,s6
    80000404:	fff00793          	li	a5,-1
    80000408:	1cffa813          	slti	a6,t6,463
    8000040c:	68a60e13          	addi	t3,a2,1674
    80000410:	02b50893          	addi	a7,a0,43
    80000414:	00b5b333          	sltu	t1,a1,a1
    80000418:	54627913          	andi	s2,tp,1350
    8000041c:	1816b703          	ld	a4,385(a3)
    80000420:	00002497          	auipc	s1,0x2
    80000424:	fb848493          	addi	s1,s1,-72 # 800023d8 <test_memory+0x1d8>
    80000428:	00002997          	auipc	s3,0x2
    8000042c:	40198993          	addi	s3,s3,1025 # 80002829 <_end+0x219>
    80000430:	004985bb          	addw	a1,s3,tp
    80000434:	50a8e663          	bltu	a7,a0,80000940 <crash_forward>
    80000438:	0087c7b3          	xor	a5,a5,s0
    8000043c:	95760e93          	addi	t4,a2,-1705
    80000440:	c079ba03          	ld	s4,-1017(s3)
    80000444:	fba00093          	li	ra,-70
    80000448:	de300a93          	li	s5,-541
    8000044c:	418083b3          	sub	t2,ra,s8
    80000450:	cd900f93          	li	t6,-807
    80000454:	00000313          	li	t1,0
    80000458:	e804a183          	lw	gp,-384(s1)
    8000045c:	037bacb3          	mulhsu	s9,s7,s7
    80000460:	01ffb833          	sltu	a6,t6,t6
    80000464:	0012bbb3          	sltu	s7,t0,ra
    80000468:	4dc60c63          	beq	a2,t3,80000940 <crash_forward>
    8000046c:	00fffdb3          	and	s11,t6,a5
    80000470:	008def33          	or	t5,s11,s0
    80000474:	00000d13          	li	s10,0
    80000478:	01914c33          	xor	s8,sp,s9
    8000047c:	00002697          	auipc	a3,0x2
    80000480:	72868693          	addi	a3,a3,1832 # 80002ba4 <_end+0x594>
    80000484:	015aa133          	slt	sp,s5,s5
    80000488:	16400993          	li	s3,356
    8000048c:	7c600413          	li	s0,1990
    80000490:	6d300e93          	li	t4,1747
    80000494:	9d46b703          	ld	a4,-1580(a3)
    80000498:	4b5a9463          	bne	s5,s5,80000940 <crash_forward>
    8000049c:	018c1833          	sll	a6,s8,s8
    800004a0:	bc600393          	li	t2,-1082
    800004a4:	c1800793          	li	a5,-1000
    800004a8:	02f7f63b          	remuw	a2,a5,a5
    800004ac:	00100e13          	li	t3,1
    800004b0:	90900b13          	li	s6,-1783
    800004b4:	03fe1e13          	slli	t3,t3,0x3f
    800004b8:	0273a2b3          	mulhsu	t0,t2,t2
    800004bc:	65900213          	li	tp,1625
    800004c0:	01f05133          	srl	sp,zero,t6
    800004c4:	c86f7813          	andi	a6,t5,-890
    800004c8:	b7600c93          	li	s9,-1162
    800004cc:	75200c13          	li	s8,1874
    800004d0:	41820fb3          	sub	t6,tp,s8
    800004d4:	4ee00293          	li	t0,1262
    800004d8:	69b00d13          	li	s10,1691
    800004dc:	40f7dab3          	sra	s5,a5,a5
    800004e0:	01a9e1b3          	or	gp,s3,s10
    800004e4:	f61c8a13          	addi	s4,s9,-159
    800004e8:	1e600113          	li	sp,486
    800004ec:	c4a00893          	li	a7,-950
    800004f0:	3e600513          	li	a0,998
    800004f4:	40a4593b          	sraw	s2,s0,a0
    800004f8:	0126d233          	srl	tp,a3,s2
    800004fc:	c8f7ece3          	bltu	a5,a5,80000194 <crash_backward>
    80000500:	b8400413          	li	s0,-1148
    80000504:	003b6233          	or	tp,s6,gp
    80000508:	fff00b93          	li	s7,-1
    8000050c:	0052d633          	srl	a2,t0,t0
    80000510:	00088993          	mv	s3,a7
    80000514:	408c5713          	srai	a4,s8,0x8
    80000518:	1bffcc13          	xori	s8,t6,447
    8000051c:	00a68abb          	addw	s5,a3,a0
    80000520:	00001297          	auipc	t0,0x1
    80000524:	69828293          	addi	t0,t0,1688 # 80001bb8 <fromhost+0xb78>
    80000528:	66c2aa03          	lw	s4,1644(t0)
    8000052c:	e3000493          	li	s1,-464
    80000530:	df100793          	li	a5,-527
    80000534:	68600613          	li	a2,1670
    80000538:	011b1db3          	sll	s11,s6,a7
    8000053c:	01cbcbb3          	xor	s7,s7,t3
    80000540:	00215d33          	srl	s10,sp,sp
    80000544:	00002317          	auipc	t1,0x2
    80000548:	b6c30313          	addi	t1,t1,-1172 # 800020b0 <reg_x22_init>
    8000054c:	00c65fbb          	srlw	t6,a2,a2
    80000550:	000a0213          	mv	tp,s4
    80000554:	40a32223          	sw	a0,1028(t1)
    80000558:	02847933          	remu	s2,s0,s0
    8000055c:	3eb59263          	bne	a1,a1,80000940 <crash_forward>
    80000560:	ccb78813          	addi	a6,a5,-821
    80000564:	00020513          	mv	a0,tp
    80000568:	01c8d19b          	srliw	gp,a7,0x1c
    8000056c:	017075b3          	and	a1,zero,s7
    80000570:	00098393          	mv	t2,s3
    80000574:	22d60c93          	addi	s9,a2,557
    80000578:	01c5ef33          	or	t5,a1,t3
    8000057c:	00a576b3          	and	a3,a0,a0
    80000580:	3d965063          	bge	a2,s9,80000940 <crash_forward>
    80000584:	c0bf68e3          	bltu	t5,a1,80000194 <crash_backward>
    80000588:	029e80bb          	mulw	ra,t4,s1
    8000058c:	00002317          	auipc	t1,0x2
    80000590:	df030313          	addi	t1,t1,-528 # 8000237c <test_memory+0x17c>
    80000594:	00100193          	li	gp,1
    80000598:	71700093          	li	ra,1815
    8000059c:	03f19193          	slli	gp,gp,0x3f
    800005a0:	01399833          	sll	a6,s3,s3
    800005a4:	00420b33          	add	s6,tp,tp
    800005a8:	1f033e23          	sd	a6,508(t1)
    800005ac:	40e70c3b          	subw	s8,a4,a4
    800005b0:	007387bb          	addw	a5,t2,t2
    800005b4:	a9500e13          	li	t3,-1387
    800005b8:	01ded633          	srl	a2,t4,t4
    800005bc:	00002d17          	auipc	s10,0x2
    800005c0:	4d0d0d13          	addi	s10,s10,1232 # 80002a8c <_end+0x47c>
    800005c4:	03ce6433          	rem	s0,t3,t3
    800005c8:	fff00393          	li	t2,-1
    800005cc:	13800b93          	li	s7,312
    800005d0:	0057c733          	xor	a4,a5,t0
    800005d4:	eec14113          	xori	sp,sp,-276
    800005d8:	0f400f93          	li	t6,244
    800005dc:	54e00293          	li	t0,1358
    800005e0:	03ff86bb          	mulw	a3,t6,t6
    800005e4:	0033c3b3          	xor	t2,t2,gp
    800005e8:	03ce7c3b          	remuw	s8,t3,t3
    800005ec:	95d00e13          	li	t3,-1699
    800005f0:	007279b3          	and	s3,tp,t2
    800005f4:	22b00a93          	li	s5,555
    800005f8:	7d700113          	li	sp,2007
    800005fc:	0052da33          	srl	s4,t0,t0
    80000600:	01508f3b          	addw	t5,ra,s5
    80000604:	00001317          	auipc	t1,0x1
    80000608:	59030313          	addi	t1,t1,1424 # 80001b94 <fromhost+0xb54>
    8000060c:	0bd00713          	li	a4,189
    80000610:	92f00493          	li	s1,-1745
    80000614:	00002617          	auipc	a2,0x2
    80000618:	c6b60613          	addi	a2,a2,-917 # 8000227f <test_memory+0x7f>
    8000061c:	32004263          	bltz	zero,80000940 <crash_forward>
    80000620:	02227eb3          	remu	t4,tp,sp
    80000624:	03ce783b          	remuw	a6,t3,t3
    80000628:	b4e00793          	li	a5,-1202
    8000062c:	e9600c13          	li	s8,-362
    80000630:	00002b17          	auipc	s6,0x2
    80000634:	36bb0b13          	addi	s6,s6,875 # 8000299b <_end+0x38b>
    80000638:	24760f83          	lb	t6,583(a2)
    8000063c:	003e6cb3          	or	s9,t3,gp
    80000640:	02e1743b          	remuw	s0,sp,a4
    80000644:	0d48029b          	addiw	t0,a6,212
    80000648:	9dfb0823          	sb	t6,-1584(s6)
    8000064c:	035a9ab3          	mulh	s5,s5,s5
    80000650:	0294cdb3          	div	s11,s1,s1
    80000654:	2f99c663          	blt	s3,s9,80000940 <crash_forward>
    80000658:	79030683          	lb	a3,1936(t1)
    8000065c:	0187de3b          	srlw	t3,a5,s8
    80000660:	6e800a13          	li	s4,1768
    80000664:	67ea0813          	addi	a6,s4,1662
    80000668:	b6cd5203          	lhu	tp,-1172(s10)
    8000066c:	4eeb8513          	addi	a0,s7,1262
    80000670:	84600893          	li	a7,-1978
    80000674:	81b00593          	li	a1,-2021
    80000678:	8b300093          	li	ra,-1869
    8000067c:	5c400e93          	li	t4,1476
    80000680:	00b8d93b          	srlw	s2,a7,a1
    80000684:	03d0ff33          	remu	t5,ra,t4
    80000688:	00002c97          	auipc	s9,0x2
    8000068c:	e7cc8c93          	addi	s9,s9,-388 # 80002504 <test_memory+0x304>
    80000690:	41a45593          	srai	a1,s0,0x1a
    80000694:	6af00413          	li	s0,1711
    80000698:	026e783b          	remuw	a6,t3,t1
    8000069c:	62a00e13          	li	t3,1578
    800006a0:	00002f97          	auipc	t6,0x2
    800006a4:	3b1f8f93          	addi	t6,t6,945 # 80002a51 <_end+0x441>
    800006a8:	a67fbfa3          	sd	t2,-1409(t6)
    800006ac:	fccca283          	lw	t0,-52(s9)
    800006b0:	00100513          	li	a0,1
    800006b4:	ddf00c13          	li	s8,-545
    800006b8:	03f51513          	slli	a0,a0,0x3f
    800006bc:	02f3c9b3          	div	s3,t2,a5
    800006c0:	03deceb3          	div	t4,t4,t4
    800006c4:	fff00d93          	li	s11,-1
    800006c8:	00841933          	sll	s2,s0,s0
    800006cc:	025f2333          	mulhsu	t1,t5,t0
    800006d0:	00002a17          	auipc	s4,0x2
    800006d4:	bdba0a13          	addi	s4,s4,-1061 # 800022ab <test_memory+0xab>
    800006d8:	a0700613          	li	a2,-1529
    800006dc:	e5700b93          	li	s7,-425
    800006e0:	9f100393          	li	t2,-1551
    800006e4:	d4000d13          	li	s10,-704
    800006e8:	76d00793          	li	a5,1901
    800006ec:	63e00813          	li	a6,1598
    800006f0:	8e300293          	li	t0,-1821
    800006f4:	0230f133          	remu	sp,ra,gp
    800006f8:	0273db3b          	divuw	s6,t2,t2
    800006fc:	00adcdb3          	xor	s11,s11,a0
    80000700:	fd1a2183          	lw	gp,-47(s4)
    80000704:	037b90b3          	mulh	ra,s7,s7
    80000708:	00528433          	add	s0,t0,t0
    8000070c:	02f67ab3          	remu	s5,a2,a5
    80000710:	016b75b3          	and	a1,s6,s6
    80000714:	419bd89b          	sraiw	a7,s7,0x19
    80000718:	038e2733          	mulhsu	a4,t3,s8
    8000071c:	44a00313          	li	t1,1098
    80000720:	0268493b          	divw	s2,a6,t1
    80000724:	01bb7f33          	and	t5,s6,s11
    80000728:	32700413          	li	s0,807
    8000072c:	fa400793          	li	a5,-92
    80000730:	03ad54b3          	divu	s1,s10,s10
    80000734:	9ee00093          	li	ra,-1554
    80000738:	d3200893          	li	a7,-718
    8000073c:	c7600613          	li	a2,-906
    80000740:	40f40c33          	sub	s8,s0,a5
    80000744:	98d00313          	li	t1,-1651
    80000748:	00002197          	auipc	gp,0x2
    8000074c:	ae618193          	addi	gp,gp,-1306 # 8000222e <test_memory+0x2e>
    80000750:	00a6e233          	or	tp,a3,a0
    80000754:	00002717          	auipc	a4,0x2
    80000758:	4fe70713          	addi	a4,a4,1278 # 80002c52 <_end+0x642>
    8000075c:	00c08933          	add	s2,ra,a2
    80000760:	006312b3          	sll	t0,t1,t1
    80000764:	b2c00593          	li	a1,-1236
    80000768:	015d7833          	and	a6,s10,s5
    8000076c:	00856433          	or	s0,a0,s0
    80000770:	03d5fb33          	remu	s6,a1,t4
    80000774:	40e752b3          	sra	t0,a4,a4
    80000778:	004346b3          	xor	a3,t1,tp
    8000077c:	90d00c13          	li	s8,-1779
    80000780:	41a00813          	li	a6,1050
    80000784:	c0200413          	li	s0,-1022
    80000788:	d4c40293          	addi	t0,s0,-692
    8000078c:	d8200093          	li	ra,-638
    80000790:	01086233          	or	tp,a6,a6
    80000794:	00001917          	auipc	s2,0x1
    80000798:	5e290913          	addi	s2,s2,1506 # 80001d76 <fromhost+0xd36>
    8000079c:	01188e33          	add	t3,a7,a7
    800007a0:	03268db3          	mul	s11,a3,s2
    800007a4:	50a94503          	lbu	a0,1290(s2)
    800007a8:	e9c00613          	li	a2,-356
    800007ac:	00c63333          	sltu	t1,a2,a2
    800007b0:	47900493          	li	s1,1145
    800007b4:	02109d33          	mulh	s10,ra,ra
    800007b8:	00948f33          	add	t5,s1,s1
    800007bc:	038c07b3          	mul	a5,s8,s8
    800007c0:	00001e97          	auipc	t4,0x1
    800007c4:	762e8e93          	addi	t4,t4,1890 # 80001f22 <fromhost+0xee2>
    800007c8:	94572523          	sw	t0,-1718(a4)
    800007cc:	452e9383          	lh	t2,1106(t4)
    800007d0:	f5b00a13          	li	s4,-165
    800007d4:	3701cb83          	lbu	s7,880(gp) # 80003180 <__global_pointer$+0x370>
    800007d8:	00001117          	auipc	sp,0x1
    800007dc:	4af10113          	addi	sp,sp,1199 # 80001c87 <fromhost+0xc47>
    800007e0:	7e111aa3          	sh	ra,2037(sp)
    800007e4:	00002997          	auipc	s3,0x2
    800007e8:	e0798993          	addi	s3,s3,-505 # 800025eb <test_memory+0x3eb>
    800007ec:	01459abb          	sllw	s5,a1,s4
    800007f0:	00001c97          	auipc	s9,0x1
    800007f4:	71ac8c93          	addi	s9,s9,1818 # 80001f0a <fromhost+0xeca>
    800007f8:	ee19af83          	lw	t6,-287(s3)
    800007fc:	5d5c80a3          	sb	s5,1473(s9)
    80000800:	00100c13          	li	s8,1
    80000804:	02424dbb          	divw	s11,tp,tp
    80000808:	00002b97          	auipc	s7,0x2
    8000080c:	967b8b93          	addi	s7,s7,-1689 # 8000216f <reg_x13_output+0x7>
    80000810:	be800c93          	li	s9,-1048
    80000814:	13a00593          	li	a1,314
    80000818:	57a00d93          	li	s11,1402
    8000081c:	0339843b          	mulw	s0,s3,s3
    80000820:	31f00513          	li	a0,799
    80000824:	d1f00893          	li	a7,-737
    80000828:	de200713          	li	a4,-542
    8000082c:	c0200093          	li	ra,-1022
    80000830:	e8a08e13          	addi	t3,ra,-374
    80000834:	03fc1c13          	slli	s8,s8,0x3f
    80000838:	00000693          	li	a3,0
    8000083c:	fff00193          	li	gp,-1
    80000840:	02b5d23b          	divuw	tp,a1,a1
    80000844:	0181c1b3          	xor	gp,gp,s8
    80000848:	5ff00293          	li	t0,1535
    8000084c:	480b8a03          	lb	s4,1152(s7)
    80000850:	01bdcb33          	xor	s6,s11,s11
    80000854:	ea700a93          	li	s5,-345
    80000858:	0ae00f13          	li	t5,174
    8000085c:	00000793          	li	a5,0
    80000860:	02e8b133          	mulhu	sp,a7,a4
    80000864:	eb3a8313          	addi	t1,s5,-333
    80000868:	0033feb3          	and	t4,t2,gp
    8000086c:	50600d13          	li	s10,1286
    80000870:	03ad793b          	remuw	s2,s10,s10
    80000874:	89500993          	li	s3,-1899
    80000878:	012950bb          	srlw	ra,s2,s2
    8000087c:	02554fbb          	divw	t6,a0,t0
    80000880:	018ee3b3          	or	t2,t4,s8
    80000884:	013ca4b3          	slt	s1,s9,s3
    80000888:	54200593          	li	a1,1346
    8000088c:	8e300813          	li	a6,-1821
    80000890:	0af6e863          	bltu	a3,a5,80000940 <crash_forward>
    80000894:	010f163b          	sllw	a2,t5,a6
    80000898:	e5300e13          	li	t3,-429
    8000089c:	03c5c233          	div	tp,a1,t3
    800008a0:	0040006f          	j	800008a4 <reg_dump>

00000000800008a4 <reg_dump>:
    800008a4:	00002097          	auipc	ra,0x2
    800008a8:	d5c08093          	addi	ra,ra,-676 # 80002600 <loop_count>
    800008ac:	0000a103          	lw	sp,0(ra)
    800008b0:	fff10193          	addi	gp,sp,-1
    800008b4:	0030a023          	sw	gp,0(ra)
    800008b8:	980112e3          	bnez	sp,8000023c <pseg_0>
    800008bc:	00002097          	auipc	ra,0x2
    800008c0:	84408093          	addi	ra,ra,-1980 # 80002100 <begin_signature>
    800008c4:	0000b023          	sd	zero,0(ra)
    800008c8:	0020b823          	sd	sp,16(ra)
    800008cc:	0030bc23          	sd	gp,24(ra)
    800008d0:	0240b023          	sd	tp,32(ra)
    800008d4:	0250b423          	sd	t0,40(ra)
    800008d8:	0260b823          	sd	t1,48(ra)
    800008dc:	0270bc23          	sd	t2,56(ra)
    800008e0:	0480b023          	sd	s0,64(ra)
    800008e4:	0490b423          	sd	s1,72(ra)
    800008e8:	04a0b823          	sd	a0,80(ra)
    800008ec:	04b0bc23          	sd	a1,88(ra)
    800008f0:	06c0b023          	sd	a2,96(ra)
    800008f4:	06d0b423          	sd	a3,104(ra)
    800008f8:	06e0b823          	sd	a4,112(ra)
    800008fc:	06f0bc23          	sd	a5,120(ra)
    80000900:	0900b023          	sd	a6,128(ra)
    80000904:	0910b423          	sd	a7,136(ra)
    80000908:	0920b823          	sd	s2,144(ra)
    8000090c:	0930bc23          	sd	s3,152(ra)
    80000910:	0b40b023          	sd	s4,160(ra)
    80000914:	0b50b423          	sd	s5,168(ra)
    80000918:	0b60b823          	sd	s6,176(ra)
    8000091c:	0d80b023          	sd	s8,192(ra)
    80000920:	0d90b423          	sd	s9,200(ra)
    80000924:	0da0b823          	sd	s10,208(ra)
    80000928:	0db0bc23          	sd	s11,216(ra)
    8000092c:	0fc0b023          	sd	t3,224(ra)
    80000930:	0fd0b423          	sd	t4,232(ra)
    80000934:	0fe0b823          	sd	t5,240(ra)
    80000938:	0ff0bc23          	sd	t6,248(ra)
    8000093c:	0200006f          	j	8000095c <test_end>

0000000080000940 <crash_forward>:
    80000940:	0ff0000f          	fence
    80000944:	00018063          	beqz	gp,80000944 <crash_forward+0x4>
    80000948:	00119193          	slli	gp,gp,0x1
    8000094c:	0011e193          	ori	gp,gp,1
    80000950:	05d00893          	li	a7,93
    80000954:	00018513          	mv	a0,gp
    80000958:	00000073          	ecall

000000008000095c <test_end>:
    8000095c:	0ff0000f          	fence
    80000960:	00100193          	li	gp,1
    80000964:	05d00893          	li	a7,93
    80000968:	00000513          	li	a0,0
    8000096c:	00000073          	ecall
    80000970:	c0001073          	unimp
	...

Disassembly of section .tohost:

0000000080001000 <tohost>:
	...

0000000080001040 <fromhost>:
	...

Disassembly of section .data:

0000000080002000 <hidden_data>:
    80002000:	ffff                	0xffff
    80002002:	ffff                	0xffff
    80002004:	ffff                	0xffff
    80002006:	ffff                	0xffff

0000000080002008 <reg_x1_init>:
    80002008:	0005                	c.nop	1
    8000200a:	0000                	unimp
    8000200c:	0000                	unimp
	...

0000000080002010 <reg_x2_init>:
    80002010:	5832                	lw	a6,44(sp)
    80002012:	06a1                	addi	a3,a3,8
    80002014:	111f9e93          	0x111f9e93

0000000080002018 <reg_x3_init>:
	...

0000000080002020 <reg_x4_init>:
    80002020:	d31ec327          	fsq	fa7,-730(t4)
    80002024:	5210                	lw	a2,32(a2)
    80002026:	a965                	j	800024de <test_memory+0x2de>

0000000080002028 <reg_x5_init>:
    80002028:	0004                	0x4
    8000202a:	0000                	unimp
    8000202c:	0000                	unimp
	...

0000000080002030 <reg_x6_init>:
    80002030:	164ce6af          	0x164ce6af
    80002034:	90dd                	srli	s1,s1,0x37
    80002036:	d14a                	sw	s2,160(sp)

0000000080002038 <reg_x7_init>:
    80002038:	ead6                	sd	s5,336(sp)
    8000203a:	7471                	lui	s0,0xffffc
    8000203c:	2f46                	fld	ft10,80(sp)
    8000203e:	d4e2                	sw	s8,104(sp)

0000000080002040 <reg_x8_init>:
    80002040:	94a4                	0x94a4
    80002042:	a405                	j	80002262 <test_memory+0x62>
    80002044:	f79d                	bnez	a5,80001f72 <fromhost+0xf32>
    80002046:	6865                	lui	a6,0x19

0000000080002048 <reg_x9_init>:
    80002048:	ffff                	0xffff
    8000204a:	ffff                	0xffff
    8000204c:	ffff                	0xffff
    8000204e:	ffff                	0xffff

0000000080002050 <reg_x10_init>:
    80002050:	e2d5                	bnez	a3,800020f4 <reg_x30_init+0x4>
    80002052:	4865                	li	a6,25
    80002054:	b6fb9af7          	0xb6fb9af7

0000000080002058 <reg_x11_init>:
    80002058:	a7ae                	fsd	fa1,456(sp)
    8000205a:	e2da                	sd	s6,320(sp)
    8000205c:	924a                	add	tp,tp,s2
    8000205e:	37d0                	fld	fa2,168(a5)

0000000080002060 <reg_x12_init>:
    80002060:	ff81                	bnez	a5,80001f78 <fromhost+0xf38>
    80002062:	ffff                	0xffff
    80002064:	ffff                	0xffff
    80002066:	ffff                	0xffff

0000000080002068 <reg_x13_init>:
    80002068:	0005                	c.nop	1
    8000206a:	0000                	unimp
    8000206c:	0000                	unimp
	...

0000000080002070 <reg_x14_init>:
    80002070:	3a64                	fld	fs1,240(a2)
    80002072:	801b41cf          	fnmadd.s	ft3,fs6,ft1,fa6,rmm
    80002076:	7fbe                	ld	t6,488(sp)

0000000080002078 <reg_x15_init>:
    80002078:	0004                	0x4
    8000207a:	0000                	unimp
    8000207c:	0000                	unimp
	...

0000000080002080 <reg_x16_init>:
    80002080:	8008                	0x8008
    80002082:	ffff                	0xffff
    80002084:	ffff                	0xffff
    80002086:	ffff                	0xffff

0000000080002088 <reg_x17_init>:
    80002088:	ffff                	0xffff
    8000208a:	ffff                	0xffff
    8000208c:	ffff                	0xffff
    8000208e:	ffff                	0xffff

0000000080002090 <reg_x18_init>:
    80002090:	0001                	nop
    80002092:	8000                	0x8000
    80002094:	ffff                	0xffff
    80002096:	ffff                	0xffff

0000000080002098 <reg_x19_init>:
    80002098:	2207937b          	0x2207937b
    8000209c:	6421                	lui	s0,0x8
    8000209e:	17f6                	slli	a5,a5,0x3d

00000000800020a0 <reg_x20_init>:
    800020a0:	0004                	0x4
    800020a2:	0000                	unimp
    800020a4:	0000                	unimp
	...

00000000800020a8 <reg_x21_init>:
    800020a8:	e69d0ea7          	0xe69d0ea7
    800020ac:	99e0                	0x99e0
    800020ae:	a745                	j	8000284e <_end+0x23e>

00000000800020b0 <reg_x22_init>:
    800020b0:	6fa58d93          	addi	s11,a1,1786
    800020b4:	292b11a7          	0x292b11a7

00000000800020b8 <reg_x23_init>:
	...

00000000800020c0 <reg_x24_init>:
    800020c0:	7920                	ld	s0,112(a0)
    800020c2:	312e                	fld	ft2,232(sp)
    800020c4:	050d                	addi	a0,a0,3
    800020c6:	1af9                	addi	s5,s5,-2

00000000800020c8 <reg_x25_init>:
    800020c8:	ffff                	0xffff
    800020ca:	ffff                	0xffff
    800020cc:	ffff                	0xffff
    800020ce:	ffff                	0xffff

00000000800020d0 <reg_x26_init>:
	...

00000000800020d8 <reg_x27_init>:
    800020d8:	fe7f                	0xfe7f
    800020da:	1fce                	slli	t6,t6,0x33
    800020dc:	89b4bde7          	0x89b4bde7

00000000800020e0 <reg_x28_init>:
    800020e0:	c11f b8ba f174      	0xf174b8bac11f
    800020e6:	          	slti	s5,t1,0

00000000800020e8 <reg_x29_init>:
    800020e8:	80000003          	lb	zero,-2048(zero) # fffffffffffff800 <__global_pointer$+0xffffffff7fffc9f0>
    800020ec:	ffff                	0xffff
    800020ee:	ffff                	0xffff

00000000800020f0 <reg_x30_init>:
    800020f0:	8005                	srli	s0,s0,0x1
    800020f2:	ffff                	0xffff
    800020f4:	ffff                	0xffff
    800020f6:	ffff                	0xffff

00000000800020f8 <reg_x31_init>:
    800020f8:	3684bb8f          	0x3684bb8f
    800020fc:	f0fe                	sd	t6,96(sp)
    800020fe:	          	lhu	s2,647(tp) # 287 <_start-0x7ffffd79>

0000000080002100 <begin_signature>:
    80002100:	2872                	fld	fa6,280(sp)
    80002102:	14ae                	slli	s1,s1,0x2b
    80002104:	04c6                	slli	s1,s1,0x11
    80002106:	          	0x6f157eaf

0000000080002108 <reg_x1_output>:
    80002108:	6f15                	lui	t5,0x5
    8000210a:	814e                	mv	sp,s3
    8000210c:	9769                	srai	a4,a4,0x3a
    8000210e:	  	0xff662e30cf043bf

0000000080002110 <reg_x2_output>:
    80002110:	0cf0                	addi	a2,sp,604
    80002112:	0ff662e3          	bltu	a2,t6,800029f6 <_end+0x3e6>
    80002116:	ff52                	sd	s4,440(sp)

0000000080002118 <reg_x3_output>:
    80002118:	b524                	fsd	fs1,104(a0)
    8000211a:	d594                	sw	a3,40(a1)
    8000211c:	9d87783f  	0x9a6dce0b9d87783f

0000000080002120 <reg_x4_output>:
    80002120:	9a6dce0b          	0x9a6dce0b
    80002124:	93c0                	0x93c0
    80002126:	8ec1                	or	a3,a3,s0

0000000080002128 <reg_x5_output>:
    80002128:	129f 515b 33aa      	0x33aa515b129f
    8000212e:	900c                	0x900c

0000000080002130 <reg_x6_output>:
    80002130:	98f4                	0x98f4
    80002132:	9672cd07          	flq	fs10,-1689(t0)
    80002136:	6c95                	lui	s9,0x5

0000000080002138 <reg_x7_output>:
    80002138:	73a1                	lui	t2,0xfffe8
    8000213a:	e288                	sd	a0,0(a3)
    8000213c:	e2b2                	sd	a2,320(sp)
    8000213e:	3b24                	fld	fs1,112(a4)

0000000080002140 <reg_x8_output>:
    80002140:	cd0c                	sw	a1,24(a0)
    80002142:	5388371b          	0x5388371b
    80002146:	          	0x46f6393b

0000000080002148 <reg_x9_output>:
    80002148:	46f6                	lw	a3,92(sp)
    8000214a:	6388                	ld	a0,0(a5)
    8000214c:	3cdf 4087       	0x65ba40873cdf

0000000080002150 <reg_x10_output>:
    80002150:	65ba                	ld	a1,392(sp)
    80002152:	50c2                	lw	ra,48(sp)
    80002154:	85b7b84f          	0x85b7b84f

0000000080002158 <reg_x11_output>:
    80002158:	2e15                	addiw	t3,t3,5
    8000215a:	19a2                	slli	s3,s3,0x28
    8000215c:	1f6e                	slli	t5,t5,0x3b
    8000215e:	          	0xad7d60eb

0000000080002160 <reg_x12_output>:
    80002160:	ad7d                	j	8000281e <_end+0x20e>
    80002162:	9816                	add	a6,a6,t0
    80002164:	86c9                	srai	a3,a3,0x12
    80002166:	3402                	fld	fs0,32(sp)

0000000080002168 <reg_x13_output>:
    80002168:	384c                	fld	fa1,176(s0)
    8000216a:	4d08                	lw	a0,24(a0)
    8000216c:	c4e1                	beqz	s1,80002234 <test_memory+0x34>
    8000216e:	f648                	sd	a0,168(a2)

0000000080002170 <reg_x14_output>:
    80002170:	8e44                	0x8e44
    80002172:	40dd                	li	ra,23
    80002174:	42d8                	lw	a4,4(a3)
    80002176:	aa36                	fsd	fa3,272(sp)

0000000080002178 <reg_x15_output>:
    80002178:	1d3d                	addi	s10,s10,-17
    8000217a:	02b1                	addi	t0,t0,12
    8000217c:	70bd                	lui	ra,0xfffef
    8000217e:	0f44                	addi	s1,sp,916

0000000080002180 <reg_x16_output>:
    80002180:	12fd                	addi	t0,t0,-1
    80002182:	70d0                	ld	a2,160(s1)
    80002184:	4d95                	li	s11,5
    80002186:	          	jal	t6,8008942e <__global_pointer$+0x8661e>

0000000080002188 <reg_x17_output>:
    80002188:	2a88                	fld	fa0,16(a3)
    8000218a:	938e4777          	0x938e4777
    8000218e:	d7c2                	sw	a6,236(sp)

0000000080002190 <reg_x18_output>:
    80002190:	f813ee6b          	0xf813ee6b
    80002194:	d300                	sw	s0,32(a4)
    80002196:	7df6                	ld	s11,376(sp)

0000000080002198 <reg_x19_output>:
    80002198:	d8c9                	beqz	s1,8000212a <reg_x5_output+0x2>
    8000219a:	ab2e2e4b          	fnmsub.d	ft8,ft8,fs2,fs5,rdn
    8000219e:	          	fnmsub.d	ft1,fs9,fs3,ft3,rtz

00000000800021a0 <reg_x20_output>:
    800021a0:	1b3c                	addi	a5,sp,440
    800021a2:	03b5                	addi	t2,t2,13
    800021a4:	6ddf 1afc       	0x3bc41afc6ddf

00000000800021a8 <reg_x21_output>:
    800021a8:	3bc4                	fld	fs1,176(a5)
    800021aa:	6346dbdb          	0x6346dbdb
    800021ae:	          	auipc	t4,0xe95ab

00000000800021b0 <reg_x22_output>:
    800021b0:	e95a                	sd	s6,144(sp)
    800021b2:	e990                	sd	a2,16(a1)
    800021b4:	a5de                	fsd	fs7,200(sp)
    800021b6:	          	0xc1dfceeb

00000000800021b8 <reg_x23_output>:
    800021b8:	c1df 67f9 ba15      	0xba1567f9c1df
    800021be:	4b0a                	lw	s6,128(sp)

00000000800021c0 <reg_x24_output>:
    800021c0:	0c81                	addi	s9,s9,0
    800021c2:	4354                	lw	a3,4(a4)
    800021c4:	abfe                	fsd	ft11,464(sp)
    800021c6:	bf98                	fsd	fa4,56(a5)

00000000800021c8 <reg_x25_output>:
    800021c8:	f6d0                	sd	a2,168(a3)
    800021ca:	63e9                	lui	t2,0x1a
    800021cc:	2d70                	fld	fa2,216(a0)
    800021ce:	0d6d                	addi	s10,s10,27

00000000800021d0 <reg_x26_output>:
    800021d0:	8011                	srli	s0,s0,0x4
    800021d2:	4e32                	lw	t3,12(sp)
    800021d4:	f92d                	bnez	a0,80002146 <reg_x8_output+0x6>
    800021d6:	2f51                	addiw	t5,t5,20

00000000800021d8 <reg_x27_output>:
    800021d8:	3d96                	fld	fs11,352(sp)
    800021da:	3408cb2f          	0x3408cb2f
    800021de:	a1d5                	j	800026c2 <_end+0xb2>

00000000800021e0 <reg_x28_output>:
    800021e0:	5424                	lw	s1,104(s0)
    800021e2:	3819                	addiw	a6,a6,-26
    800021e4:	b330                	fsd	fa2,96(a4)
    800021e6:	5e9a                	lw	t4,164(sp)

00000000800021e8 <reg_x29_output>:
    800021e8:	b5ac                	fsd	fa1,104(a1)
    800021ea:	967d                	srai	a2,a2,0x3f
    800021ec:	86f2                	mv	a3,t3
    800021ee:	6c0c                	ld	a1,24(s0)

00000000800021f0 <reg_x30_output>:
    800021f0:	4687b7e3          	0x4687b7e3
    800021f4:	fbc9                	bnez	a5,80002186 <reg_x16_output+0x6>
    800021f6:	          	0xbf7c082b

00000000800021f8 <reg_x31_output>:
    800021f8:	bf7c                	fsd	fa5,248(a4)
    800021fa:	14a6                	slli	s1,s1,0x29
    800021fc:	ff65                	bnez	a4,800021f4 <reg_x30_output+0x4>
    800021fe:	7eb0                	ld	a2,120(a3)

0000000080002200 <test_memory>:
    80002200:	d515                	beqz	a0,8000212c <reg_x5_output+0x4>
    80002202:	c83d                	beqz	s0,80002278 <test_memory+0x78>
    80002204:	8e14                	0x8e14
    80002206:	6f99                	lui	t6,0x6
    80002208:	d411                	beqz	s0,80002114 <reg_x2_output+0x4>
    8000220a:	4764                	lw	s1,76(a4)
    8000220c:	0cbe                	slli	s9,s9,0xf
    8000220e:	605f 50f8 8ec5      	0x8ec550f8605f
    80002214:	f9d84e33          	0xf9d84e33
    80002218:	a411                	j	8000241c <test_memory+0x21c>
    8000221a:	70e0                	ld	s0,224(s1)
    8000221c:	06c8                	addi	a0,sp,836
    8000221e:	09ff                	0x9ff
    80002220:	8654                	0x8654
    80002222:	58c0                	lw	s0,52(s1)
    80002224:	29abaf2f          	0x29abaf2f
    80002228:	b1e9                	j	80001ef2 <fromhost+0xeb2>
    8000222a:	9df4                	0x9df4
    8000222c:	3b1ee03f 8f2acccc 	0x8f2acccc3b1ee03f
    80002234:	1315                	addi	t1,t1,-27
    80002236:	7ae9                	lui	s5,0xffffa
    80002238:	db49                	beqz	a4,800021ca <reg_x25_output+0x2>
    8000223a:	fd9497d3          	0xfd9497d3
    8000223e:	67d5                	lui	a5,0x15
    80002240:	6176                	ld	sp,344(sp)
    80002242:	ff85                	bnez	a5,8000217a <reg_x15_output+0x2>
    80002244:	8968                	0x8968
    80002246:	34ce                	fld	fs1,240(sp)
    80002248:	490a85d3          	0x490a85d3
    8000224c:	33f0                	fld	fa2,224(a5)
    8000224e:	1749                	addi	a4,a4,-14
    80002250:	c4ae                	sw	a1,72(sp)
    80002252:	a891                	j	800022a6 <test_memory+0xa6>
    80002254:	8fb8                	0x8fb8
    80002256:	c79c                	sw	a5,8(a5)
    80002258:	630e                	ld	t1,192(sp)
    8000225a:	3d19                	addiw	s10,s10,-26
    8000225c:	3474                	fld	fa3,232(s0)
    8000225e:	d6c1                	beqz	a3,800021e6 <reg_x28_output+0x6>
    80002260:	27f3a127          	fsw	ft11,610(t2) # 1a262 <_start-0x7ffe5d9e>
    80002264:	b88d                	j	80001ad6 <fromhost+0xa96>
    80002266:	6a78                	ld	a4,208(a2)
    80002268:	ffa0                	sd	s0,120(a5)
    8000226a:	e7c5a263          	0xe7c5a263
    8000226e:	bba5                	j	80001fe6 <fromhost+0xfa6>
    80002270:	9042                	c.add	zero,a6
    80002272:	1a21                	addi	s4,s4,-24
    80002274:	5c89                	li	s9,-30
    80002276:	5e99                	li	t4,-26
    80002278:	91bc                	0x91bc
    8000227a:	bb1c                	fsd	fa5,48(a4)
    8000227c:	7dce                	ld	s11,240(sp)
    8000227e:	62d5                	lui	t0,0x15
    80002280:	4fa2                	lw	t6,8(sp)
    80002282:	9cad                	addw	s1,s1,a1
    80002284:	ca18b9cb          	fnmsub.d	fs3,fa7,ft1,fs9,rup
    80002288:	bad9                	j	80001c5e <fromhost+0xc1e>
    8000228a:	4679                	li	a2,30
    8000228c:	35c0                	fld	fs0,168(a1)
    8000228e:	05f6                	slli	a1,a1,0x1d
    80002290:	3c00                	fld	fs0,56(s0)
    80002292:	c261                	beqz	a2,80002352 <test_memory+0x152>
    80002294:	2599                	addiw	a1,a1,6
    80002296:	79d0                	ld	a2,176(a1)
    80002298:	30a4                	fld	fs1,96(s1)
    8000229a:	671a                	ld	a4,384(sp)
    8000229c:	2256                	fld	ft4,336(sp)
    8000229e:	7bce                	ld	s7,240(sp)
    800022a0:	e23a253b          	0xe23a253b
    800022a4:	343a                	fld	fs0,424(sp)
    800022a6:	dc82                	sw	zero,120(sp)
    800022a8:	8136                	mv	sp,a3
    800022aa:	6145                	addi	sp,sp,48
    800022ac:	6e5f 279c cfb2      	0xcfb2279c6e5f
    800022b2:	4b21                	li	s6,8
    800022b4:	fb22                	sd	s0,432(sp)
    800022b6:	2ca4                	fld	fs1,88(s1)
    800022b8:	6689                	lui	a3,0x2
    800022ba:	2af8                	fld	fa4,208(a3)
    800022bc:	e57c                	sd	a5,200(a0)
    800022be:	b6d62123          	sw	a3,-1182(a2)
    800022c2:	d14fafbf 5d285f8b 	0x5d285f8bd14fafbf
    800022ca:	d39e                	sw	t2,228(sp)
    800022cc:	c526                	sw	s1,136(sp)
    800022ce:	63ce                	ld	t2,208(sp)
    800022d0:	e4fa                	sd	t5,72(sp)
    800022d2:	04fa                	slli	s1,s1,0x1e
    800022d4:	31fa                	fld	ft3,440(sp)
    800022d6:	12c2                	slli	t0,t0,0x30
    800022d8:	7225                	lui	tp,0xfffe9
    800022da:	d941                	beqz	a0,8000226a <test_memory+0x6a>
    800022dc:	19f6                	slli	s3,s3,0x3d
    800022de:	0350                	addi	a2,sp,388
    800022e0:	f46c                	sd	a1,232(s0)
    800022e2:	1c20                	addi	s0,sp,568
    800022e4:	a569                	j	8000296e <_end+0x35e>
    800022e6:	395f 7c50 6014      	0x60147c50395f
    800022ec:	2d22                	fld	fs10,8(sp)
    800022ee:	8dc92fa7          	fsw	ft8,-1825(s2)
    800022f2:	d420d453          	0xd420d453
    800022f6:	c536                	sw	a3,136(sp)
    800022f8:	34a5                	addiw	s1,s1,-23
    800022fa:	c6442ecb          	fnmsub.q	ft9,fs0,ft4,fs8,rdn
    800022fe:	edad                	bnez	a1,80002378 <test_memory+0x178>
    80002300:	f78d                	bnez	a5,8000222a <test_memory+0x2a>
    80002302:	c71e                	sw	t2,140(sp)
    80002304:	2844                	fld	fs1,144(s0)
    80002306:	6140                	ld	s0,128(a0)
    80002308:	e206                	sd	ra,256(sp)
    8000230a:	4176                	lw	sp,92(sp)
    8000230c:	455e                	lw	a0,212(sp)
    8000230e:	8ca2                	mv	s9,s0
    80002310:	8ae9                	andi	a3,a3,26
    80002312:	1731                	addi	a4,a4,-20
    80002314:	a139                	j	80002722 <_end+0x112>
    80002316:	9dc2                	add	s11,s11,a6
    80002318:	8c29                	xor	s0,s0,a0
    8000231a:	9cd5                	0x9cd5
    8000231c:	d91f 08aa 21d9      	0x21d908aad91f
    80002322:	df55                	beqz	a4,800022de <test_memory+0xde>
    80002324:	a1c3bd87          	fld	fs11,-1508(t2)
    80002328:	e86ce9d3          	0xe86ce9d3
    8000232c:	5569                	li	a0,-6
    8000232e:	365f d275 5848      	0x5848d275365f
    80002334:	9f08                	0x9f08
    80002336:	aa71                	j	800024d2 <test_memory+0x2d2>
    80002338:	7e46                	ld	t3,112(sp)
    8000233a:	c5a9                	beqz	a1,80002384 <test_memory+0x184>
    8000233c:	083b6e0f          	0x83b6e0f
    80002340:	8b86                	mv	s7,ra
    80002342:	672a                	ld	a4,136(sp)
    80002344:	cd3c                	sw	a5,88(a0)
    80002346:	d6c8                	sw	a0,44(a3)
    80002348:	20cd99f7          	0x20cd99f7
    8000234c:	59dd                	li	s3,-9
    8000234e:	665cc4b3          	0x665cc4b3
    80002352:	f905                	bnez	a0,80002282 <test_memory+0x82>
    80002354:	39f8                	fld	fa4,240(a1)
    80002356:	15e9                	addi	a1,a1,-6
    80002358:	0d033283          	ld	t0,208(t1)
    8000235c:	21da                	fld	ft3,400(sp)
    8000235e:	26c1                	addiw	a3,a3,16
    80002360:	c1dd                	beqz	a1,80002406 <test_memory+0x206>
    80002362:	8412                	mv	s0,tp
    80002364:	6c4a                	ld	s8,144(sp)
    80002366:	8fa4                	0x8fa4
    80002368:	c5e4                	sw	s1,76(a1)
    8000236a:	8a9e                	mv	s5,t2
    8000236c:	20ce                	fld	ft1,208(sp)
    8000236e:	3361                	addiw	t1,t1,-8
    80002370:	7ae1                	lui	s5,0xffff8
    80002372:	b989                	j	80001fc4 <fromhost+0xf84>
    80002374:	b308f597          	auipc	a1,0xb308f
    80002378:	bcdf bcd0 7709      	0x7709bcd0bcdf
    8000237e:	e0d8                	sd	a4,128(s1)
    80002380:	d5bd                	beqz	a1,800022ee <test_memory+0xee>
    80002382:	9505f4b7          	lui	s1,0x9505f
    80002386:	cc4d                	beqz	s0,80002440 <test_memory+0x240>
    80002388:	00c0                	addi	s0,sp,68
    8000238a:	25e6                	fld	fa1,88(sp)
    8000238c:	765e                	ld	a2,496(sp)
    8000238e:	5908                	lw	a0,48(a0)
    80002390:	ed1d                	bnez	a0,800023ce <test_memory+0x1ce>
    80002392:	2ad9                	addiw	s5,s5,22
    80002394:	ad1a                	fsd	ft6,152(sp)
    80002396:	ccc0                	sw	s0,28(s1)
    80002398:	b849                	j	80001c2a <fromhost+0xbea>
    8000239a:	4a6e060f          	0x4a6e060f
    8000239e:	c2be                	sw	a5,68(sp)
    800023a0:	03e7ba17          	auipc	s4,0x3e7b
    800023a4:	efa1                	bnez	a5,800023fc <test_memory+0x1fc>
    800023a6:	e286                	sd	ra,320(sp)
    800023a8:	abb55fe7          	0xabb55fe7
    800023ac:	612a                	ld	sp,136(sp)
    800023ae:	b71e                	fsd	ft7,424(sp)
    800023b0:	097c                	addi	a5,sp,156
    800023b2:	63d1a4b3          	0x63d1a4b3
    800023b6:	d53e                	sw	a5,168(sp)
    800023b8:	94d3b127          	fsd	fa3,-1726(t2)
    800023bc:	5799                	li	a5,-26
    800023be:	f2703c3f 2ab46f5e 	0x2ab46f5ef2703c3f
    800023c6:	7649                	lui	a2,0xffff2
    800023c8:	921e0d67          	jalr	s10,-1759(t3)
    800023cc:	6ed9                	lui	t4,0x16
    800023ce:	b500                	fsd	fs0,40(a0)
    800023d0:	a23c                	fsd	fa5,64(a2)
    800023d2:	a5bd4dbf 5fd011d5 	0x5fd011d5a5bd4dbf
    800023da:	cd6485bf 91625c63 	0x91625c63cd6485bf
    800023e2:	c2ca                	sw	s2,68(sp)
    800023e4:	e3ba                	sd	a4,448(sp)
    800023e6:	aa83d6ef          	jal	a3,7ff3f68e <_start-0xc0972>
    800023ea:	e3f2                	sd	t3,448(sp)
    800023ec:	1095                	addi	ra,ra,-27
    800023ee:	c875                	beqz	s0,800024e2 <test_memory+0x2e2>
    800023f0:	75f1                	lui	a1,0xffffc
    800023f2:	222c                	fld	fa1,64(a2)
    800023f4:	eb4277f7          	0xeb4277f7
    800023f8:	b312                	fsd	ft4,416(sp)
    800023fa:	4a7a                	lw	s4,156(sp)
    800023fc:	f26a                	sd	s10,288(sp)
    800023fe:	8a48                	0x8a48
    80002400:	989b871b          	addiw	a4,s7,-1655
    80002404:	1f96                	slli	t6,t6,0x25
    80002406:	823100eb          	0x823100eb
    8000240a:	07898883          	lb	a7,120(s3)
    8000240e:	e604462b          	0xe604462b
    80002412:	a9d1                	j	800028e6 <_end+0x2d6>
    80002414:	1c29d943          	0x1c29d943
    80002418:	aaac                	fsd	fa1,80(a3)
    8000241a:	d98871ef          	jal	gp,7ff899b2 <_start-0x7664e>
    8000241e:	ccda                	sw	s6,88(sp)
    80002420:	3fdc                	fld	fa5,184(a5)
    80002422:	0b85                	addi	s7,s7,1
    80002424:	530c                	lw	a1,32(a4)
    80002426:	8b9cf9f7          	0x8b9cf9f7
    8000242a:	32be                	fld	ft5,488(sp)
    8000242c:	e169                	bnez	a0,800024ee <test_memory+0x2ee>
    8000242e:	9509                	srai	a0,a0,0x22
    80002430:	3c6dfd2f          	0x3c6dfd2f
    80002434:	d288                	sw	a0,32(a3)
    80002436:	91f9                	srli	a1,a1,0x3e
    80002438:	01d5                	addi	gp,gp,21
    8000243a:	5858                	lw	a4,52(s0)
    8000243c:	f7602663          	0xf7602663
    80002440:	64c1927b          	0x64c1927b
    80002444:	fb41                	bnez	a4,800023d4 <test_memory+0x1d4>
    80002446:	3c1d                	addiw	s8,s8,-25
    80002448:	3ca2                	fld	fs9,40(sp)
    8000244a:	f25d                	bnez	a2,800023f0 <test_memory+0x1f0>
    8000244c:	84e6                	mv	s1,s9
    8000244e:	4765                	li	a4,25
    80002450:	c602                	sw	zero,12(sp)
    80002452:	47a8                	lw	a0,72(a5)
    80002454:	768b174f          	fnmadd.q	fa4,fs6,fs0,fa4,rtz
    80002458:	a9b4                	fsd	fa3,80(a1)
    8000245a:	7a65                	lui	s4,0xffff9
    8000245c:	e1e0                	sd	s0,192(a1)
    8000245e:	1d09                	addi	s10,s10,-30
    80002460:	fee1                	bnez	a3,80002438 <test_memory+0x238>
    80002462:	c642bc73          	csrrc	s8,0xc64,t0
    80002466:	6a00                	ld	s0,16(a2)
    80002468:	2c56                	fld	fs8,336(sp)
    8000246a:	4d0a                	lw	s10,128(sp)
    8000246c:	ce3d                	beqz	a2,800024ea <test_memory+0x2ea>
    8000246e:	2d66                	fld	fs10,88(sp)
    80002470:	f162                	sd	s8,160(sp)
    80002472:	07dc                	addi	a5,sp,964
    80002474:	3646                	fld	fa2,112(sp)
    80002476:	8326                	mv	t1,s1
    80002478:	13e5                	addi	t2,t2,-7
    8000247a:	8610                	0x8610
    8000247c:	5eac                	lw	a1,120(a3)
    8000247e:	01f9                	addi	gp,gp,30
    80002480:	3c8d                	addiw	s9,s9,-29
    80002482:	d2c6                	sw	a7,100(sp)
    80002484:	4b80                	lw	s0,16(a5)
    80002486:	9531                	srai	a0,a0,0x2c
    80002488:	857f                	0x857f
    8000248a:	d8a8                	sw	a0,112(s1)
    8000248c:	3ba8                	fld	fa0,112(a5)
    8000248e:	cd04cc3b          	0xcd04cc3b
    80002492:	89de                	mv	s3,s7
    80002494:	6fce59bf 4ad04cfa 	0x4ad04cfa6fce59bf
    8000249c:	dc6e2db7          	lui	s11,0xdc6e2
    800024a0:	1910                	addi	a2,sp,176
    800024a2:	e198                	sd	a4,0(a1)
    800024a4:	5450                	lw	a2,44(s0)
    800024a6:	4918f597          	auipc	a1,0x4918f
    800024aa:	a9ea8b27          	0xa9ea8b27
    800024ae:	c5dd                	beqz	a1,8000255c <test_memory+0x35c>
    800024b0:	89f6                	mv	s3,t4
    800024b2:	9831993b          	0x9831993b
    800024b6:	e6f80bf3          	0xe6f80bf3
    800024ba:	5a55                	li	s4,-11
    800024bc:	22b1                	addiw	t0,t0,12
    800024be:	9d0e                	add	s10,s10,gp
    800024c0:	87dca68f          	0x87dca68f
    800024c4:	b469                	j	80001f4e <fromhost+0xf0e>
    800024c6:	60ce0f27          	0x60ce0f27
    800024ca:	578a                	lw	a5,160(sp)
    800024cc:	20ca                	fld	ft1,144(sp)
    800024ce:	a58a                	fsd	ft2,200(sp)
    800024d0:	73aad317          	auipc	t1,0x73aad
    800024d4:	4feed4b7          	lui	s1,0x4feed
    800024d8:	b3d6                	fsd	fs5,480(sp)
    800024da:	81fe                	mv	gp,t6
    800024dc:	21796893          	ori	a7,s2,535
    800024e0:	ba44                	fsd	fs1,176(a2)
    800024e2:	38fe                	fld	fa7,504(sp)
    800024e4:	b268                	fsd	fa0,224(a2)
    800024e6:	e96d                	bnez	a0,800025d8 <test_memory+0x3d8>
    800024e8:	8185                	srli	a1,a1,0x1
    800024ea:	af8d3b13          	sltiu	s6,s10,-1288
    800024ee:	352e                	fld	fa0,232(sp)
    800024f0:	b39a                	fsd	ft6,480(sp)
    800024f2:	b7ac                	fsd	fa1,104(a5)
    800024f4:	80e92f8b          	0x80e92f8b
    800024f8:	5001                	c.li	zero,-32
    800024fa:	a619449b          	0xa619449b
    800024fe:	289c                	fld	fa5,16(s1)
    80002500:	bafd                	j	80001efe <fromhost+0xebe>
    80002502:	cbe6                	sw	s9,212(sp)
    80002504:	2aa9004b          	fnmsub.d	ft0,fs2,fa0,ft5,rne
    80002508:	90b4ddd3          	0x90b4ddd3
    8000250c:	5982                	lw	s3,32(sp)
    8000250e:	cd87f86b          	0xcd87f86b
    80002512:	098d                	addi	s3,s3,3
    80002514:	0695                	addi	a3,a3,5
    80002516:	5311                	li	t1,-28
    80002518:	234a7cdb          	0x234a7cdb
    8000251c:	3241                	addiw	tp,tp,-16
    8000251e:	bf9c9c73          	csrrw	s8,0xbf9,s9
    80002522:	43f8de7b          	0x43f8de7b
    80002526:	9e82                	jalr	t4
    80002528:	a884                	fsd	fs1,16(s1)
    8000252a:	127b5c37          	lui	s8,0x127b5
    8000252e:	e03aa9f3          	csrrs	s3,0xe03,s5
    80002532:	85d7574b          	0x85d7574b
    80002536:	d03e                	sw	a5,32(sp)
    80002538:	d3754b37          	lui	s6,0xd3754
    8000253c:	58cd                	li	a7,-13
    8000253e:	fd95c92b          	0xfd95c92b
    80002542:	c3b9                	beqz	a5,80002588 <test_memory+0x388>
    80002544:	ee982fb7          	lui	t6,0xee982
    80002548:	6714                	ld	a3,8(a4)
    8000254a:	41c0                	lw	s0,4(a1)
    8000254c:	cb4c                	sw	a1,20(a4)
    8000254e:	a05f 9ee2 7914      	0x79149ee2a05f
    80002554:	c7fc                	sw	a5,76(a5)
    80002556:	ab69                	j	80002af0 <_end+0x4e0>
    80002558:	15df 7736 aec7      	0xaec7773615df
    8000255e:	65de                	ld	a1,464(sp)
    80002560:	9bb88773          	0x9bb88773
    80002564:	2ab4                	fld	fa3,80(a3)
    80002566:	14381967          	0x14381967
    8000256a:	8e4f099b          	addiw	s3,t5,-1820
    8000256e:	d703cfcb          	fnmsub.q	ft11,ft7,fa6,fs10,rmm
    80002572:	2958                	fld	fa4,144(a0)
    80002574:	86d2                	mv	a3,s4
    80002576:	9394                	0x9394
    80002578:	8cb44c0f          	0x8cb44c0f
    8000257c:	e75076f7          	0xe75076f7
    80002580:	06385b53          	fadd.q	fs6,fa6,ft3,unknown
    80002584:	897f                	0x897f
    80002586:	824d                	srli	a2,a2,0x13
    80002588:	1255                	addi	tp,tp,-11
    8000258a:	e379                	bnez	a4,80002650 <_end+0x40>
    8000258c:	abdf b5c0 e6f5      	0xe6f5b5c0abdf
    80002592:	f4ad                	bnez	s1,800024fc <test_memory+0x2fc>
    80002594:	0b095bcb          	fnmsub.d	fs7,fs2,fa6,ft1,unknown
    80002598:	903f0bf7          	0x903f0bf7
    8000259c:	166e                	slli	a2,a2,0x3b
    8000259e:	7164                	ld	s1,224(a0)
    800025a0:	9996c167          	0x9996c167
    800025a4:	4bae568b          	0x4bae568b
    800025a8:	178aee07          	0x178aee07
    800025ac:	f6e0                	sd	s0,232(a3)
    800025ae:	dd52                	sw	s4,184(sp)
    800025b0:	8462                	mv	s0,s8
    800025b2:	907ecef7          	0x907ecef7
    800025b6:	4212                	lw	tp,4(sp)
    800025b8:	8d3c                	0x8d3c
    800025ba:	3c30                	fld	fa2,120(s0)
    800025bc:	9900                	0x9900
    800025be:	e03d                	bnez	s0,80002624 <_end+0x14>
    800025c0:	fa74                	sd	a3,240(a2)
    800025c2:	e93c                	sd	a5,80(a0)
    800025c4:	aab2                	fsd	fa2,336(sp)
    800025c6:	0a74                	addi	a3,sp,284
    800025c8:	f09c                	sd	a5,32(s1)
    800025ca:	771f 1136 d174      	0xd1741136771f
    800025d0:	d2cc                	sw	a1,36(a3)
    800025d2:	7f267093          	andi	ra,a2,2034
    800025d6:	768a                	ld	a3,160(sp)
    800025d8:	e8e45b77          	0xe8e45b77
    800025dc:	45c1                	li	a1,16
    800025de:	ce3e                	sw	a5,28(sp)
    800025e0:	3e54                	fld	fa3,184(a2)
    800025e2:	95b06fe7          	0x95b06fe7
    800025e6:	c879                	beqz	s0,800026bc <_end+0xac>
    800025e8:	a9b58297          	auipc	t0,0xa9b58
    800025ec:	c848                	sw	a0,20(s0)
    800025ee:	43d4                	lw	a3,4(a5)
    800025f0:	ca05                	beqz	a2,80002620 <_end+0x10>
    800025f2:	831f7b83          	0x831f7b83
    800025f6:	60b463e7          	0x60b463e7
    800025fa:	ce4a                	sw	s2,28(sp)
    800025fc:	304f438f          	0x304f438f

0000000080002600 <loop_count>:
    80002600:	0040                	addi	s0,sp,4
	...

Disassembly of section .riscv.attributes:

0000000000000000 <.riscv.attributes>:
   0:	1e41                	addi	t3,t3,-16
   2:	0000                	unimp
   4:	7200                	ld	s0,32(a2)
   6:	7369                	lui	t1,0xffffa
   8:	01007663          	bgeu	zero,a6,14 <_start-0x7fffffec>
   c:	0014                	0x14
   e:	0000                	unimp
  10:	7205                	lui	tp,0xfffe1
  12:	3676                	fld	fa2,376(sp)
  14:	6934                	ld	a3,80(a0)
  16:	7032                	0x7032
  18:	5f30                	lw	a2,120(a4)
  1a:	326d                	addiw	tp,tp,-5
  1c:	3070                	fld	fa2,224(s0)
	...
