
build/test14:     file format elf64-littleriscv


Disassembly of section .text.init:

0000000080000000 <_start>:
    80000000:	05c0006f          	j	8000005c <reset_vector>

0000000080000004 <trap_vector>:
    80000004:	34202f73          	csrr	t5,mcause
    80000008:	00800f93          	li	t6,8
    8000000c:	03ff0a63          	beq	t5,t6,80000040 <write_tohost>
    80000010:	00900f93          	li	t6,9
    80000014:	03ff0663          	beq	t5,t6,80000040 <write_tohost>
    80000018:	00b00f93          	li	t6,11
    8000001c:	03ff0263          	beq	t5,t6,80000040 <write_tohost>
    80000020:	80000f17          	auipc	t5,0x80000
    80000024:	fe0f0f13          	addi	t5,t5,-32 # 0 <_start-0x80000000>
    80000028:	000f0463          	beqz	t5,80000030 <trap_vector+0x2c>
    8000002c:	000f0067          	jr	t5
    80000030:	34202f73          	csrr	t5,mcause
    80000034:	000f5463          	bgez	t5,8000003c <handle_exception>
    80000038:	0040006f          	j	8000003c <handle_exception>

000000008000003c <handle_exception>:
    8000003c:	5391e193          	ori	gp,gp,1337

0000000080000040 <write_tohost>:
    80000040:	00001f17          	auipc	t5,0x1
    80000044:	fc3f2023          	sw	gp,-64(t5) # 80001000 <tohost>
    80000048:	000902b7          	lui	t0,0x90
    8000004c:	0012829b          	addiw	t0,t0,1
    80000050:	00c29293          	slli	t0,t0,0xc
    80000054:	0002af83          	lw	t6,0(t0) # 90000 <_start-0x7ff70000>
    80000058:	fe9ff06f          	j	80000040 <write_tohost>

000000008000005c <reset_vector>:
    8000005c:	00000093          	li	ra,0
    80000060:	00000113          	li	sp,0
    80000064:	00000193          	li	gp,0
    80000068:	00000213          	li	tp,0
    8000006c:	00000293          	li	t0,0
    80000070:	00000313          	li	t1,0
    80000074:	00000393          	li	t2,0
    80000078:	00000413          	li	s0,0
    8000007c:	00000493          	li	s1,0
    80000080:	00000513          	li	a0,0
    80000084:	00000593          	li	a1,0
    80000088:	00000613          	li	a2,0
    8000008c:	00000693          	li	a3,0
    80000090:	00000713          	li	a4,0
    80000094:	00000793          	li	a5,0
    80000098:	00000813          	li	a6,0
    8000009c:	00000893          	li	a7,0
    800000a0:	00000913          	li	s2,0
    800000a4:	00000993          	li	s3,0
    800000a8:	00000a13          	li	s4,0
    800000ac:	00000a93          	li	s5,0
    800000b0:	00000b13          	li	s6,0
    800000b4:	00000b93          	li	s7,0
    800000b8:	00000c13          	li	s8,0
    800000bc:	00000c93          	li	s9,0
    800000c0:	00000d13          	li	s10,0
    800000c4:	00000d93          	li	s11,0
    800000c8:	00000e13          	li	t3,0
    800000cc:	00000e93          	li	t4,0
    800000d0:	00000f13          	li	t5,0
    800000d4:	00000f93          	li	t6,0
    800000d8:	f1402573          	csrr	a0,mhartid
    800000dc:	00051063          	bnez	a0,800000dc <reset_vector+0x80>
    800000e0:	00000297          	auipc	t0,0x0
    800000e4:	01028293          	addi	t0,t0,16 # 800000f0 <reset_vector+0x94>
    800000e8:	30529073          	csrw	mtvec,t0
    800000ec:	18005073          	csrwi	satp,0
    800000f0:	00000297          	auipc	t0,0x0
    800000f4:	02428293          	addi	t0,t0,36 # 80000114 <reset_vector+0xb8>
    800000f8:	30529073          	csrw	mtvec,t0
    800000fc:	0010029b          	addiw	t0,zero,1
    80000100:	03529293          	slli	t0,t0,0x35
    80000104:	fff28293          	addi	t0,t0,-1
    80000108:	3b029073          	csrw	pmpaddr0,t0
    8000010c:	01f00293          	li	t0,31
    80000110:	3a029073          	csrw	pmpcfg0,t0
    80000114:	30405073          	csrwi	mie,0
    80000118:	00000297          	auipc	t0,0x0
    8000011c:	01428293          	addi	t0,t0,20 # 8000012c <reset_vector+0xd0>
    80000120:	30529073          	csrw	mtvec,t0
    80000124:	30205073          	csrwi	medeleg,0
    80000128:	30305073          	csrwi	mideleg,0
    8000012c:	00000193          	li	gp,0
    80000130:	00000297          	auipc	t0,0x0
    80000134:	ed428293          	addi	t0,t0,-300 # 80000004 <trap_vector>
    80000138:	30529073          	csrw	mtvec,t0
    8000013c:	00100513          	li	a0,1
    80000140:	01f51513          	slli	a0,a0,0x1f
    80000144:	00055c63          	bgez	a0,8000015c <reset_vector+0x100>
    80000148:	0ff0000f          	fence
    8000014c:	00100193          	li	gp,1
    80000150:	05d00893          	li	a7,93
    80000154:	00000513          	li	a0,0
    80000158:	00000073          	ecall
    8000015c:	80000297          	auipc	t0,0x80000
    80000160:	ea428293          	addi	t0,t0,-348 # 0 <_start-0x80000000>
    80000164:	00028a63          	beqz	t0,80000178 <reset_vector+0x11c>
    80000168:	10529073          	csrw	stvec,t0
    8000016c:	0000b2b7          	lui	t0,0xb
    80000170:	1092829b          	addiw	t0,t0,265
    80000174:	30229073          	csrw	medeleg,t0
    80000178:	30005073          	csrwi	mstatus,0
    8000017c:	00000297          	auipc	t0,0x0
    80000180:	01428293          	addi	t0,t0,20 # 80000190 <reset_vector+0x134>
    80000184:	34129073          	csrw	mepc,t0
    80000188:	f1402573          	csrr	a0,mhartid
    8000018c:	30200073          	mret
    80000190:	0200006f          	j	800001b0 <test_start>

0000000080000194 <crash_backward>:
    80000194:	0ff0000f          	fence
    80000198:	00018063          	beqz	gp,80000198 <crash_backward+0x4>
    8000019c:	00119193          	slli	gp,gp,0x1
    800001a0:	0011e193          	ori	gp,gp,1
    800001a4:	05d00893          	li	a7,93
    800001a8:	00018513          	mv	a0,gp
    800001ac:	00000073          	ecall

00000000800001b0 <test_start>:
    800001b0:	00002f97          	auipc	t6,0x2
    800001b4:	e50f8f93          	addi	t6,t6,-432 # 80002000 <hidden_data>
    800001b8:	000fb003          	ld	zero,0(t6)
    800001bc:	008fb083          	ld	ra,8(t6)
    800001c0:	010fb103          	ld	sp,16(t6)
    800001c4:	018fb183          	ld	gp,24(t6)
    800001c8:	020fb203          	ld	tp,32(t6)
    800001cc:	028fb283          	ld	t0,40(t6)
    800001d0:	030fb303          	ld	t1,48(t6)
    800001d4:	038fb383          	ld	t2,56(t6)
    800001d8:	040fb403          	ld	s0,64(t6)
    800001dc:	048fb483          	ld	s1,72(t6)
    800001e0:	050fb503          	ld	a0,80(t6)
    800001e4:	058fb583          	ld	a1,88(t6)
    800001e8:	060fb603          	ld	a2,96(t6)
    800001ec:	068fb683          	ld	a3,104(t6)
    800001f0:	070fb703          	ld	a4,112(t6)
    800001f4:	078fb783          	ld	a5,120(t6)
    800001f8:	080fb803          	ld	a6,128(t6)
    800001fc:	088fb883          	ld	a7,136(t6)
    80000200:	090fb903          	ld	s2,144(t6)
    80000204:	098fb983          	ld	s3,152(t6)
    80000208:	0a0fba03          	ld	s4,160(t6)
    8000020c:	0a8fba83          	ld	s5,168(t6)
    80000210:	0b0fbb03          	ld	s6,176(t6)
    80000214:	0b8fbb83          	ld	s7,184(t6)
    80000218:	0c0fbc03          	ld	s8,192(t6)
    8000021c:	0c8fbc83          	ld	s9,200(t6)
    80000220:	0d0fbd03          	ld	s10,208(t6)
    80000224:	0d8fbd83          	ld	s11,216(t6)
    80000228:	0e0fbe03          	ld	t3,224(t6)
    8000022c:	0e8fbe83          	ld	t4,232(t6)
    80000230:	0f0fbf03          	ld	t5,240(t6)
    80000234:	0f8fbf83          	ld	t6,248(t6)
    80000238:	0040006f          	j	8000023c <pseg_0>

000000008000023c <pseg_0>:
    8000023c:	76cf7737          	lui	a4,0x76cf7
    80000240:	93d00c93          	li	s9,-1731
    80000244:	00100393          	li	t2,1
    80000248:	00100913          	li	s2,1
    8000024c:	036b62b3          	rem	t0,s6,s6
    80000250:	02000ab3          	mul	s5,zero,zero
    80000254:	b2b00693          	li	a3,-1237
    80000258:	43000f13          	li	t5,1072
    8000025c:	03f39393          	slli	t2,t2,0x3f
    80000260:	00002797          	auipc	a5,0x2
    80000264:	79278793          	addi	a5,a5,1938 # 800029f2 <_end+0x3e2>
    80000268:	19500d93          	li	s11,405
    8000026c:	03f91913          	slli	s2,s2,0x3f
    80000270:	94168113          	addi	sp,a3,-1727
    80000274:	00100f93          	li	t6,1
    80000278:	018c5e33          	srl	t3,s8,s8
    8000027c:	87f00813          	li	a6,-1921
    80000280:	03ff9f93          	slli	t6,t6,0x3f
    80000284:	fff00193          	li	gp,-1
    80000288:	fff00e93          	li	t4,-1
    8000028c:	00002617          	auipc	a2,0x2
    80000290:	65060613          	addi	a2,a2,1616 # 800028dc <_end+0x2cc>
    80000294:	010d8a33          	add	s4,s11,a6
    80000298:	fff00593          	li	a1,-1
    8000029c:	01f1c1b3          	xor	gp,gp,t6
    800002a0:	d1561323          	sh	s5,-762(a2)
    800002a4:	0125c5b3          	xor	a1,a1,s2
    800002a8:	bf079b03          	lh	s6,-1040(a5)
    800002ac:	2db00893          	li	a7,731
    800002b0:	411f5bb3          	sra	s7,t5,a7
    800002b4:	3c500313          	li	t1,965
    800002b8:	006ccd33          	xor	s10,s9,t1
    800002bc:	00b4f433          	and	s0,s1,a1
    800002c0:	01246233          	or	tp,s0,s2
    800002c4:	007eceb3          	xor	t4,t4,t2
    800002c8:	68825c63          	bge	tp,s0,80000960 <crash_forward>
    800002cc:	402f513b          	sraw	sp,t5,sp
    800002d0:	8ce00793          	li	a5,-1842
    800002d4:	001a5bb3          	srl	s7,s4,ra
    800002d8:	0031fc33          	and	s8,gp,gp
    800002dc:	00002f17          	auipc	t5,0x2
    800002e0:	d97f0f13          	addi	t5,t5,-617 # 80002073 <reg_x14_init+0x3>
    800002e4:	e0400313          	li	t1,-508
    800002e8:	037bc133          	div	sp,s7,s7
    800002ec:	00100913          	li	s2,1
    800002f0:	473f5d83          	lhu	s11,1139(t5)
    800002f4:	00002e17          	auipc	t3,0x2
    800002f8:	e02e0e13          	addi	t3,t3,-510 # 800020f6 <reg_x30_init+0x6>
    800002fc:	01da79b3          	and	s3,s4,t4
    80000300:	03f91913          	slli	s2,s2,0x3f
    80000304:	fc500893          	li	a7,-59
    80000308:	01fb6bb3          	or	s7,s6,t6
    8000030c:	40a40833          	sub	a6,s0,a0
    80000310:	0079e533          	or	a0,s3,t2
    80000314:	fff00493          	li	s1,-1
    80000318:	0124c4b3          	xor	s1,s1,s2
    8000031c:	c1600d13          	li	s10,-1002
    80000320:	01fc60b3          	or	ra,s8,t6
    80000324:	03a892b3          	mulh	t0,a7,s10
    80000328:	63356c63          	bltu	a0,s3,80000960 <crash_forward>
    8000032c:	75b00b13          	li	s6,1883
    80000330:	4063023b          	subw	tp,t1,t1
    80000334:	2a2e01a3          	sb	sp,675(t3)
    80000338:	00002617          	auipc	a2,0x2
    8000033c:	f7560613          	addi	a2,a2,-139 # 800022ad <test_memory+0xad>
    80000340:	0062e733          	or	a4,t0,t1
    80000344:	058604a3          	sb	s8,73(a2)
    80000348:	00987433          	and	s0,a6,s1
    8000034c:	e41c74e3          	bgeu	s8,ra,80000194 <crash_backward>
    80000350:	5f900693          	li	a3,1529
    80000354:	02db5a3b          	divuw	s4,s6,a3
    80000358:	012265b3          	or	a1,tp,s2
    8000035c:	e2b47ce3          	bgeu	s0,a1,80000194 <crash_backward>
    80000360:	97400a93          	li	s5,-1676
    80000364:	0157acb3          	slt	s9,a5,s5
    80000368:	8c72811b          	addiw	sp,t0,-1849
    8000036c:	60e43f13          	sltiu	t5,s0,1550
    80000370:	00002497          	auipc	s1,0x2
    80000374:	54848493          	addi	s1,s1,1352 # 800028b8 <_end+0x2a8>
    80000378:	01c8ecb3          	or	s9,a7,t3
    8000037c:	00030993          	mv	s3,t1
    80000380:	019cda3b          	srlw	s4,s9,s9
    80000384:	00000093          	li	ra,0
    80000388:	5e500593          	li	a1,1509
    8000038c:	00098793          	mv	a5,s3
    80000390:	01ed189b          	slliw	a7,s10,0x1e
    80000394:	03141d13          	slli	s10,s0,0x31
    80000398:	00000313          	li	t1,0
    8000039c:	00002217          	auipc	tp,0x2
    800003a0:	ae020213          	addi	tp,tp,-1312 # 80001e7c <fromhost+0xe3c>
    800003a4:	02f773b3          	remu	t2,a4,a5
    800003a8:	efb00c13          	li	s8,-261
    800003ac:	031021b3          	mulhsu	gp,zero,a7
    800003b0:	00002517          	auipc	a0,0x2
    800003b4:	f7b50513          	addi	a0,a0,-133 # 8000232b <test_memory+0x12b>
    800003b8:	3d421283          	lh	t0,980(tp) # 3d4 <_start-0x7ffffc2c>
    800003bc:	00100b13          	li	s6,1
    800003c0:	28c00813          	li	a6,652
    800003c4:	5ee00613          	li	a2,1518
    800003c8:	df200413          	li	s0,-526
    800003cc:	9f949323          	sh	s9,-1562(s1)
    800003d0:	5860c863          	blt	ra,t1,80000960 <crash_forward>
    800003d4:	f17beb93          	ori	s7,s7,-233
    800003d8:	03fb1b13          	slli	s6,s6,0x3f
    800003dc:	03551ea3          	sh	s5,61(a0)
    800003e0:	00c63db3          	sltu	s11,a2,a2
    800003e4:	41f15e3b          	sraw	t3,sp,t6
    800003e8:	fff00f93          	li	t6,-1
    800003ec:	c18c0913          	addi	s2,s8,-1000
    800003f0:	025589bb          	mulw	s3,a1,t0
    800003f4:	55c00213          	li	tp,1372
    800003f8:	0285cab3          	div	s5,a1,s0
    800003fc:	00002097          	auipc	ra,0x2
    80000400:	50608093          	addi	ra,ra,1286 # 80002902 <_end+0x2f2>
    80000404:	03ad063b          	mulw	a2,s10,s10
    80000408:	4ba80e93          	addi	t4,a6,1210
    8000040c:	016fcfb3          	xor	t6,t6,s6
    80000410:	d9d802e3          	beq	a6,t4,80000194 <crash_backward>
    80000414:	025c0793          	addi	a5,s8,37
    80000418:	01f8f733          	and	a4,a7,t6
    8000041c:	008c1d1b          	slliw	s10,s8,0x8
    80000420:	40420bb3          	sub	s7,tp,tp
    80000424:	82300393          	li	t2,-2013
    80000428:	4052d2bb          	sraw	t0,t0,t0
    8000042c:	0168e6b3          	or	a3,a7,s6
    80000430:	a260b983          	ld	s3,-1498(ra)
    80000434:	1daa019b          	addiw	gp,s4,474
    80000438:	03defd3b          	remuw	s10,t4,t4
    8000043c:	00739a3b          	sllw	s4,t2,t2
    80000440:	d7600b93          	li	s7,-650
    80000444:	51897e63          	bgeu	s2,s8,80000960 <crash_forward>
    80000448:	a4500893          	li	a7,-1467
    8000044c:	0118be33          	sltu	t3,a7,a7
    80000450:	8f600b13          	li	s6,-1802
    80000454:	8a900813          	li	a6,-1879
    80000458:	ae900393          	li	t2,-1303
    8000045c:	dee80a93          	addi	s5,a6,-530
    80000460:	40738a33          	sub	s4,t2,t2
    80000464:	0010e5b3          	or	a1,ra,ra
    80000468:	4f586c63          	bltu	a6,s5,80000960 <crash_forward>
    8000046c:	039cceb3          	div	t4,s9,s9
    80000470:	bf100513          	li	a0,-1039
    80000474:	030851bb          	divuw	gp,a6,a6
    80000478:	016b6d33          	or	s10,s6,s6
    8000047c:	017bd6bb          	srlw	a3,s7,s7
    80000480:	57800613          	li	a2,1400
    80000484:	03297433          	remu	s0,s2,s2
    80000488:	53b60793          	addi	a5,a2,1339
    8000048c:	cab00993          	li	s3,-853
    80000490:	fe700493          	li	s1,-25
    80000494:	0139b2b3          	sltu	t0,s3,s3
    80000498:	4cf60463          	beq	a2,a5,80000960 <crash_forward>
    8000049c:	01a2e233          	or	tp,t0,s10
    800004a0:	00002c97          	auipc	s9,0x2
    800004a4:	f9ac8c93          	addi	s9,s9,-102 # 8000243a <test_memory+0x23a>
    800004a8:	00002097          	auipc	ra,0x2
    800004ac:	1f608093          	addi	ra,ra,502 # 8000269e <_end+0x8e>
    800004b0:	00000f13          	li	t5,0
    800004b4:	00957133          	and	sp,a0,s1
    800004b8:	de6ced83          	lwu	s11,-538(s9)
    800004bc:	00000313          	li	t1,0
    800004c0:	00002717          	auipc	a4,0x2
    800004c4:	ee770713          	addi	a4,a4,-281 # 800023a7 <test_memory+0x1a7>
    800004c8:	cca0bf83          	ld	t6,-822(ra)
    800004cc:	00000313          	li	t1,0
    800004d0:	81700c93          	li	s9,-2025
    800004d4:	41ff883b          	subw	a6,t6,t6
    800004d8:	00002397          	auipc	t2,0x2
    800004dc:	1c738393          	addi	t2,t2,455 # 8000269f <_end+0x8f>
    800004e0:	90400f13          	li	t5,-1788
    800004e4:	1f100613          	li	a2,497
    800004e8:	3cc00b13          	li	s6,972
    800004ec:	034a4ab3          	div	s5,s4,s4
    800004f0:	d213a983          	lw	s3,-735(t2)
    800004f4:	79000693          	li	a3,1936
    800004f8:	43a00e93          	li	t4,1082
    800004fc:	037bd8bb          	divuw	a7,s7,s7
    80000500:	036b62bb          	remw	t0,s6,s6
    80000504:	2bf60593          	addi	a1,a2,703
    80000508:	039cb7b3          	mulhu	a5,s9,s9
    8000050c:	00d68db3          	add	s11,a3,a3
    80000510:	fd8722a3          	sw	s8,-59(a4)
    80000514:	00000213          	li	tp,0
    80000518:	00100913          	li	s2,1
    8000051c:	03f91913          	slli	s2,s2,0x3f
    80000520:	90e00d13          	li	s10,-1778
    80000524:	fff00193          	li	gp,-1
    80000528:	0121c1b3          	xor	gp,gp,s2
    8000052c:	01af0c3b          	addw	s8,t5,s10
    80000530:	a6300e13          	li	t3,-1437
    80000534:	03defbbb          	remuw	s7,t4,t4
    80000538:	0038f533          	and	a0,a7,gp
    8000053c:	e8000413          	li	s0,-384
    80000540:	83e00293          	li	t0,-1986
    80000544:	012ce833          	or	a6,s9,s2
    80000548:	00000713          	li	a4,0
    8000054c:	65500593          	li	a1,1621
    80000550:	00000d93          	li	s11,0
    80000554:	ba400b93          	li	s7,-1116
    80000558:	ca600e93          	li	t4,-858
    8000055c:	00000393          	li	t2,0
    80000560:	14e00f13          	li	t5,334
    80000564:	00002a97          	auipc	s5,0x2
    80000568:	2d0a8a93          	addi	s5,s5,720 # 80002834 <_end+0x224>
    8000056c:	03eeffbb          	remuw	t6,t4,t5
    80000570:	029057bb          	divuw	a5,zero,s1
    80000574:	0252e233          	rem	tp,t0,t0
    80000578:	407558bb          	sraw	a7,a0,t2
    8000057c:	00002697          	auipc	a3,0x2
    80000580:	d5268693          	addi	a3,a3,-686 # 800022ce <test_memory+0xce>
    80000584:	16200a13          	li	s4,354
    80000588:	00000b13          	li	s6,0
    8000058c:	bc8a9983          	lh	s3,-1080(s5)
    80000590:	01ce513b          	srlw	sp,t3,t3
    80000594:	0023161b          	slliw	a2,t1,0x2
    80000598:	d7600e93          	li	t4,-650
    8000059c:	02a5763b          	remuw	a2,a0,a0
    800005a0:	4186023b          	subw	tp,a2,s8
    800005a4:	034424b3          	mulhsu	s1,s0,s4
    800005a8:	2f500f13          	li	t5,757
    800005ac:	98800293          	li	t0,-1656
    800005b0:	03ded8bb          	divuw	a7,t4,t4
    800005b4:	020bcc3b          	divw	s8,s7,zero
    800005b8:	00002797          	auipc	a5,0x2
    800005bc:	a6f78793          	addi	a5,a5,-1425 # 80002027 <reg_x4_init+0x7>
    800005c0:	00002097          	auipc	ra,0x2
    800005c4:	bad08093          	addi	ra,ra,-1107 # 8000216d <reg_x13_output+0x5>
    800005c8:	00a57233          	and	tp,a0,a0
    800005cc:	41d794a3          	sh	t4,1033(a5)
    800005d0:	35500893          	li	a7,853
    800005d4:	00100b13          	li	s6,1
    800005d8:	0163991b          	slliw	s2,t2,0x16
    800005dc:	ce800193          	li	gp,-792
    800005e0:	2bb68303          	lb	t1,699(a3)
    800005e4:	74f00d93          	li	s11,1871
    800005e8:	99500413          	li	s0,-1643
    800005ec:	343d8c93          	addi	s9,s11,835
    800005f0:	eb200813          	li	a6,-334
    800005f4:	d9300a13          	li	s4,-621
    800005f8:	0144563b          	srlw	a2,s0,s4
    800005fc:	29100213          	li	tp,657
    80000600:	003b853b          	addw	a0,s7,gp
    80000604:	40909fa3          	sh	s1,1055(ra)
    80000608:	67120c13          	addi	s8,tp,1649 # 671 <_start-0x7ffff98f>
    8000060c:	cfb00493          	li	s1,-773
    80000610:	c7780393          	addi	t2,a6,-905
    80000614:	ff200113          	li	sp,-14
    80000618:	00100a13          	li	s4,1
    8000061c:	00989eb3          	sll	t4,a7,s1
    80000620:	025f4ab3          	div	s5,t5,t0
    80000624:	87610f93          	addi	t6,sp,-1930
    80000628:	9e700313          	li	t1,-1561
    8000062c:	70558d13          	addi	s10,a1,1797
    80000630:	02a57f33          	remu	t5,a0,a0
    80000634:	83300893          	li	a7,-1997
    80000638:	026346b3          	div	a3,t1,t1
    8000063c:	02e6e2b3          	rem	t0,a3,a4
    80000640:	03fa1a13          	slli	s4,s4,0x3f
    80000644:	0118b3b3          	sltu	t2,a7,a7
    80000648:	005295bb          	sllw	a1,t0,t0
    8000064c:	03fb1b13          	slli	s6,s6,0x3f
    80000650:	304c4863          	blt	s8,tp,80000960 <crash_forward>
    80000654:	dbd00d13          	li	s10,-579
    80000658:	025280b3          	mul	ra,t0,t0
    8000065c:	fff00413          	li	s0,-1
    80000660:	b39dfae3          	bgeu	s11,s9,80000194 <crash_backward>
    80000664:	f8a00293          	li	t0,-118
    80000668:	01ad5333          	srl	t1,s10,s10
    8000066c:	ced00913          	li	s2,-787
    80000670:	034a78bb          	remuw	a7,s4,s4
    80000674:	c2400f13          	li	t5,-988
    80000678:	5f300d93          	li	s11,1523
    8000067c:	fff00993          	li	s3,-1
    80000680:	0169c9b3          	xor	s3,s3,s6
    80000684:	fff00c93          	li	s9,-1
    80000688:	08000c13          	li	s8,128
    8000068c:	01444433          	xor	s0,s0,s4
    80000690:	0294e8bb          	remw	a7,s1,s1
    80000694:	02415abb          	divuw	s5,sp,tp
    80000698:	2c006463          	bltu	zero,zero,80000960 <crash_forward>
    8000069c:	69e00393          	li	t2,1694
    800006a0:	75600813          	li	a6,1878
    800006a4:	aca00e93          	li	t4,-1334
    800006a8:	01d854b3          	srl	s1,a6,t4
    800006ac:	bb300113          	li	sp,-1101
    800006b0:	0086f633          	and	a2,a3,s0
    800006b4:	23e00093          	li	ra,574
    800006b8:	014a61b3          	or	gp,s4,s4
    800006bc:	033988b3          	mul	a7,s3,s3
    800006c0:	018dd233          	srl	tp,s11,s8
    800006c4:	97b00693          	li	a3,-1669
    800006c8:	69f00b93          	li	s7,1695
    800006cc:	019ce333          	or	t1,s9,s9
    800006d0:	013cfe33          	and	t3,s9,s3
    800006d4:	017f07b3          	add	a5,t5,s7
    800006d8:	02d6fd33          	remu	s10,a3,a3
    800006dc:	0013c5b3          	xor	a1,t2,ra
    800006e0:	40db05b3          	sub	a1,s6,a3
    800006e4:	02c65eb3          	divu	t4,a2,a2
    800006e8:	0307c6bb          	divw	a3,a5,a6
    800006ec:	00002097          	auipc	ra,0x2
    800006f0:	b7908093          	addi	ra,ra,-1159 # 80002265 <test_memory+0x65>
    800006f4:	01646733          	or	a4,s0,s6
    800006f8:	acd17813          	andi	a6,sp,-1331
    800006fc:	72800d93          	li	s11,1832
    80000700:	00a516bb          	sllw	a3,a0,a0
    80000704:	03bd8cbb          	mulw	s9,s11,s11
    80000708:	0073dabb          	srlw	s5,t2,t2
    8000070c:	24004a63          	bltz	zero,80000960 <crash_forward>
    80000710:	267a879b          	addiw	a5,s5,615
    80000714:	0022cfb3          	xor	t6,t0,sp
    80000718:	00098193          	mv	gp,s3
    8000071c:	03c00a13          	li	s4,60
    80000720:	038703b3          	mul	t2,a4,s8
    80000724:	38900493          	li	s1,905
    80000728:	00018413          	mv	s0,gp
    8000072c:	00425333          	srl	t1,tp,tp
    80000730:	034a2eb3          	mulhsu	t4,s4,s4
    80000734:	0a700f13          	li	t5,167
    80000738:	0329053b          	mulw	a0,s2,s2
    8000073c:	2e80a9a3          	sw	s0,755(ra)
    80000740:	23ad1063          	bne	s10,s10,80000960 <crash_forward>
    80000744:	0ec20b93          	addi	s7,tp,236 # ec <_start-0x7fffff14>
    80000748:	419c8d33          	sub	s10,s9,s9
    8000074c:	00002117          	auipc	sp,0x2
    80000750:	c5010113          	addi	sp,sp,-944 # 8000239c <test_memory+0x19c>
    80000754:	79200893          	li	a7,1938
    80000758:	020bde33          	divu	t3,s7,zero
    8000075c:	00100093          	li	ra,1
    80000760:	c2300813          	li	a6,-989
    80000764:	011f2c33          	slt	s8,t5,a7
    80000768:	12c13383          	ld	t2,300(sp)
    8000076c:	c9b14e13          	xori	t3,sp,-869
    80000770:	03f09093          	slli	ra,ra,0x3f
    80000774:	00002297          	auipc	t0,0x2
    80000778:	1ae28293          	addi	t0,t0,430 # 80002922 <_end+0x312>
    8000077c:	00078593          	mv	a1,a5
    80000780:	03ebea3b          	remw	s4,s7,t5
    80000784:	00002e97          	auipc	t4,0x2
    80000788:	428e8e93          	addi	t4,t4,1064 # 80002bac <_end+0x59c>
    8000078c:	00058613          	mv	a2,a1
    80000790:	0108573b          	srlw	a4,a6,a6
    80000794:	013997bb          	sllw	a5,s3,s3
    80000798:	f5f00b13          	li	s6,-161
    8000079c:	fff00f93          	li	t6,-1
    800007a0:	c7e2e903          	lwu	s2,-898(t0)
    800007a4:	5b648213          	addi	tp,s1,1462
    800007a8:	83cebd83          	ld	s11,-1988(t4)
    800007ac:	00001a97          	auipc	s5,0x1
    800007b0:	56ea8a93          	addi	s5,s5,1390 # 80001d1a <fromhost+0xcda>
    800007b4:	c0e00c93          	li	s9,-1010
    800007b8:	f61b0313          	addi	t1,s6,-159
    800007bc:	1a924263          	blt	tp,s1,80000960 <crash_forward>
    800007c0:	77100813          	li	a6,1905
    800007c4:	41ce5ebb          	sraw	t4,t3,t3
    800007c8:	34f00713          	li	a4,847
    800007cc:	00000c13          	li	s8,0
    800007d0:	01bdf133          	and	sp,s11,s11
    800007d4:	00002897          	auipc	a7,0x2
    800007d8:	97488893          	addi	a7,a7,-1676 # 80002148 <reg_x9_output>
    800007dc:	400e5e3b          	sraw	t3,t3,zero
    800007e0:	4828d583          	lhu	a1,1154(a7)
    800007e4:	02738f3b          	mulw	t5,t2,t2
    800007e8:	00000493          	li	s1,0
    800007ec:	74eae983          	lwu	s3,1870(s5)
    800007f0:	0248c5bb          	divw	a1,a7,tp
    800007f4:	02e7643b          	remw	s0,a4,a4
    800007f8:	001fcfb3          	xor	t6,t6,ra
    800007fc:	77e00693          	li	a3,1918
    80000800:	00dc8533          	add	a0,s9,a3
    80000804:	022147b3          	div	a5,sp,sp
    80000808:	01ff7d33          	and	s10,t5,t6
    8000080c:	58600213          	li	tp,1414
    80000810:	00002197          	auipc	gp,0x2
    80000814:	8f018193          	addi	gp,gp,-1808 # 80002100 <begin_signature>
    80000818:	02a2ba33          	mulhu	s4,t0,a0
    8000081c:	03086933          	rem	s2,a6,a6
    80000820:	15500c93          	li	s9,341
    80000824:	001d6bb3          	or	s7,s10,ra
    80000828:	00002897          	auipc	a7,0x2
    8000082c:	eca88893          	addi	a7,a7,-310 # 800026f2 <_end+0xe2>
    80000830:	21f50513          	addi	a0,a0,543
    80000834:	c7688e83          	lb	t4,-906(a7)
    80000838:	15c00913          	li	s2,348
    8000083c:	3ef00d93          	li	s11,1007
    80000840:	958c6ae3          	bltu	s8,s8,80000194 <crash_backward>
    80000844:	2b019383          	lh	t2,688(gp) # 800030c0 <__global_pointer$+0x2b0>
    80000848:	00000313          	li	t1,0
    8000084c:	00000793          	li	a5,0
    80000850:	00100113          	li	sp,1
    80000854:	7e300593          	li	a1,2019
    80000858:	00b5f6b3          	and	a3,a1,a1
    8000085c:	00001817          	auipc	a6,0x1
    80000860:	42c80813          	addi	a6,a6,1068 # 80001c88 <fromhost+0xc48>
    80000864:	aaf00993          	li	s3,-1361
    80000868:	2c790413          	addi	s0,s2,711
    8000086c:	03f11113          	slli	sp,sp,0x3f
    80000870:	96500a93          	li	s5,-1691
    80000874:	0210dd3b          	divuw	s10,ra,ra
    80000878:	026fabb3          	mulhsu	s7,t6,t1
    8000087c:	013c9733          	sll	a4,s9,s3
    80000880:	00002517          	auipc	a0,0x2
    80000884:	eed50513          	addi	a0,a0,-275 # 8000276d <_end+0x15d>
    80000888:	02f560bb          	remw	ra,a0,a5
    8000088c:	020004bb          	mulw	s1,zero,zero
    80000890:	84e00893          	li	a7,-1970
    80000894:	fff00293          	li	t0,-1
    80000898:	00002697          	auipc	a3,0x2
    8000089c:	ac868693          	addi	a3,a3,-1336 # 80002360 <test_memory+0x160>
    800008a0:	7ab00393          	li	t2,1963
    800008a4:	41b2563b          	sraw	a2,tp,s11
    800008a8:	0022c2b3          	xor	t0,t0,sp
    800008ac:	005c7f33          	and	t5,s8,t0
    800008b0:	65c83c23          	sd	t3,1624(a6)
    800008b4:	0024ee33          	or	t3,s1,sp
    800008b8:	4078da3b          	sraw	s4,a7,t2
    800008bc:	937a8b13          	addi	s6,s5,-1737
    800008c0:	1a9689a3          	sb	s1,435(a3)
    800008c4:	da755f83          	lhu	t6,-601(a0)
    800008c8:	09cf4c63          	blt	t5,t3,80000960 <crash_forward>
    800008cc:	0040006f          	j	800008d0 <reg_dump>

00000000800008d0 <reg_dump>:
    800008d0:	00002097          	auipc	ra,0x2
    800008d4:	d3008093          	addi	ra,ra,-720 # 80002600 <loop_count>
    800008d8:	0000a103          	lw	sp,0(ra)
    800008dc:	fff10193          	addi	gp,sp,-1
    800008e0:	0030a023          	sw	gp,0(ra)
    800008e4:	94011ce3          	bnez	sp,8000023c <pseg_0>
    800008e8:	00002097          	auipc	ra,0x2
    800008ec:	81808093          	addi	ra,ra,-2024 # 80002100 <begin_signature>
    800008f0:	0000b023          	sd	zero,0(ra)
    800008f4:	0020b823          	sd	sp,16(ra)
    800008f8:	0240b023          	sd	tp,32(ra)
    800008fc:	0250b423          	sd	t0,40(ra)
    80000900:	0260b823          	sd	t1,48(ra)
    80000904:	0270bc23          	sd	t2,56(ra)
    80000908:	0480b023          	sd	s0,64(ra)
    8000090c:	0490b423          	sd	s1,72(ra)
    80000910:	04b0bc23          	sd	a1,88(ra)
    80000914:	06c0b023          	sd	a2,96(ra)
    80000918:	06e0b823          	sd	a4,112(ra)
    8000091c:	06f0bc23          	sd	a5,120(ra)
    80000920:	0910b423          	sd	a7,136(ra)
    80000924:	0920b823          	sd	s2,144(ra)
    80000928:	0930bc23          	sd	s3,152(ra)
    8000092c:	0b40b023          	sd	s4,160(ra)
    80000930:	0b50b423          	sd	s5,168(ra)
    80000934:	0b60b823          	sd	s6,176(ra)
    80000938:	0b70bc23          	sd	s7,184(ra)
    8000093c:	0d80b023          	sd	s8,192(ra)
    80000940:	0d90b423          	sd	s9,200(ra)
    80000944:	0da0b823          	sd	s10,208(ra)
    80000948:	0db0bc23          	sd	s11,216(ra)
    8000094c:	0fc0b023          	sd	t3,224(ra)
    80000950:	0fd0b423          	sd	t4,232(ra)
    80000954:	0fe0b823          	sd	t5,240(ra)
    80000958:	0ff0bc23          	sd	t6,248(ra)
    8000095c:	0200006f          	j	8000097c <test_end>

0000000080000960 <crash_forward>:
    80000960:	0ff0000f          	fence
    80000964:	00018063          	beqz	gp,80000964 <crash_forward+0x4>
    80000968:	00119193          	slli	gp,gp,0x1
    8000096c:	0011e193          	ori	gp,gp,1
    80000970:	05d00893          	li	a7,93
    80000974:	00018513          	mv	a0,gp
    80000978:	00000073          	ecall

000000008000097c <test_end>:
    8000097c:	0ff0000f          	fence
    80000980:	00100193          	li	gp,1
    80000984:	05d00893          	li	a7,93
    80000988:	00000513          	li	a0,0
    8000098c:	00000073          	ecall
    80000990:	c0001073          	unimp
	...

Disassembly of section .tohost:

0000000080001000 <tohost>:
	...

0000000080001040 <fromhost>:
	...

Disassembly of section .data:

0000000080002000 <hidden_data>:
    80002000:	47b8                	lw	a4,72(a5)
    80002002:	bbc7132f          	0xbbc7132f
    80002006:	0d5a                	slli	s10,s10,0x16

0000000080002008 <reg_x1_init>:
    80002008:	8b7e                	mv	s6,t6
    8000200a:	dc46                	sw	a7,56(sp)
    8000200c:	6768                	ld	a0,200(a4)
    8000200e:	e2a8                	sd	a0,64(a3)

0000000080002010 <reg_x2_init>:
    80002010:	4114ec5b          	0x4114ec5b
    80002014:	54c4                	lw	s1,44(s1)
    80002016:	64ae                	ld	s1,200(sp)

0000000080002018 <reg_x3_init>:
    80002018:	b87d                	j	800018d6 <fromhost+0x896>
    8000201a:	ee621c47          	fmsub.q	fs8,ft4,ft6,ft9,rtz
    8000201e:	6181                	0x6181

0000000080002020 <reg_x4_init>:
    80002020:	0005                	c.nop	1
    80002022:	0000                	unimp
    80002024:	0000                	unimp
	...

0000000080002028 <reg_x5_init>:
    80002028:	ffff                	0xffff
    8000202a:	ffff                	0xffff
    8000202c:	ffff                	0xffff
    8000202e:	ffff                	0xffff

0000000080002030 <reg_x6_init>:
    80002030:	1d12                	slli	s10,s10,0x24
    80002032:	1576                	slli	a0,a0,0x3d
    80002034:	1b00                	addi	s0,sp,432
    80002036:	9751                	srai	a4,a4,0x34

0000000080002038 <reg_x7_init>:
    80002038:	a74a                	fsd	fs2,392(sp)
    8000203a:	c376                	sw	t4,132(sp)
    8000203c:	7cb1                	lui	s9,0xfffec
    8000203e:	f16e                	sd	s11,160(sp)

0000000080002040 <reg_x8_init>:
    80002040:	ed6c                	sd	a1,216(a0)
    80002042:	2b70                	fld	fa2,208(a4)
    80002044:	5089                	li	ra,-30
    80002046:	fe8d                	bnez	a3,80001f80 <fromhost+0xf40>

0000000080002048 <reg_x9_init>:
    80002048:	bbb4                	fsd	fa3,112(a5)
    8000204a:	5f9a877b          	0x5f9a877b
    8000204e:	d47f                	0xd47f

0000000080002050 <reg_x10_init>:
    80002050:	c82d                	beqz	s0,800020c2 <reg_x24_init+0x2>
    80002052:	9d5f 5637 fdd0      	0xfdd056379d5f

0000000080002058 <reg_x11_init>:
    80002058:	8001                	c.srli64	s0
    8000205a:	ffff                	0xffff
    8000205c:	ffff                	0xffff
    8000205e:	ffff                	0xffff

0000000080002060 <reg_x12_init>:
    80002060:	ff81                	bnez	a5,80001f78 <fromhost+0xf38>
    80002062:	ffff                	0xffff
    80002064:	ffff                	0xffff
    80002066:	ffff                	0xffff

0000000080002068 <reg_x13_init>:
    80002068:	ff82                	sd	zero,504(sp)
    8000206a:	ffff                	0xffff
    8000206c:	ffff                	0xffff
    8000206e:	ffff                	0xffff

0000000080002070 <reg_x14_init>:
    80002070:	ffff8003          	lb	zero,-1(t6)
    80002074:	ffff                	0xffff
    80002076:	ffff                	0xffff

0000000080002078 <reg_x15_init>:
    80002078:	8006                	c.mv	zero,ra
    8000207a:	ffff                	0xffff
    8000207c:	ffff                	0xffff
    8000207e:	ffff                	0xffff

0000000080002080 <reg_x16_init>:
    80002080:	ffffff83          	0xffffff83
    80002084:	ffff                	0xffff
    80002086:	ffff                	0xffff

0000000080002088 <reg_x17_init>:
    80002088:	451e                	lw	a0,196(sp)
    8000208a:	e76f140f          	0xe76f140f
    8000208e:	24fc                	fld	fa5,200(s1)

0000000080002090 <reg_x18_init>:
    80002090:	ebad                	bnez	a5,80002102 <begin_signature+0x2>
    80002092:	fa990cbf  	0xffff728cfa990cbf

0000000080002098 <reg_x19_init>:
    80002098:	ffff                	0xffff
    8000209a:	ffff                	0xffff
    8000209c:	ffff                	0xffff
    8000209e:	ffff                	0xffff

00000000800020a0 <reg_x20_init>:
    800020a0:	4aa51b4f          	fnmadd.d	fs6,fa0,fa0,fs1,rtz
    800020a4:	c6e9                	beqz	a3,8000216e <reg_x13_output+0x6>
    800020a6:	          	0xff86f29b

00000000800020a8 <reg_x21_init>:
    800020a8:	ff86                	sd	ra,504(sp)
    800020aa:	ffff                	0xffff
    800020ac:	ffff                	0xffff
    800020ae:	ffff                	0xffff

00000000800020b0 <reg_x22_init>:
    800020b0:	f190                	sd	a2,32(a1)
    800020b2:	2738                	fld	fa4,72(a4)
    800020b4:	1cfa                	slli	s9,s9,0x3e
    800020b6:	2a65                	addiw	s4,s4,25

00000000800020b8 <reg_x23_init>:
    800020b8:	ffff                	0xffff
    800020ba:	ffff                	0xffff
    800020bc:	ffff                	0xffff
    800020be:	ffff                	0xffff

00000000800020c0 <reg_x24_init>:
    800020c0:	646290a7          	0x646290a7
    800020c4:	0229                	addi	tp,tp,10
    800020c6:	          	auipc	a7,0x2c

00000000800020c8 <reg_x25_init>:
    800020c8:	0002                	c.slli64	zero
    800020ca:	0000                	unimp
    800020cc:	0000                	unimp
	...

00000000800020d0 <reg_x26_init>:
    800020d0:	bb28                	fsd	fa0,112(a4)
    800020d2:	8050                	0x8050
    800020d4:	e298                	sd	a4,0(a3)
    800020d6:	e1fe                	sd	t6,192(sp)

00000000800020d8 <reg_x27_init>:
    800020d8:	0468                	addi	a0,sp,524
    800020da:	2d7ed1f7          	0x2d7ed1f7
    800020de:	37ba                	fld	fa5,424(sp)

00000000800020e0 <reg_x28_init>:
    800020e0:	6e36                	ld	t3,328(sp)
    800020e2:	4038                	lw	a4,64(s0)
    800020e4:	56c7245b          	0x56c7245b

00000000800020e8 <reg_x29_init>:
    800020e8:	0009                	c.nop	2
    800020ea:	0000                	unimp
    800020ec:	0000                	unimp
	...

00000000800020f0 <reg_x30_init>:
    800020f0:	5af35213          	0x5af35213
    800020f4:	6e76                	ld	t3,344(sp)
    800020f6:	          	fnmsub.s	fs0,fa3,ft0,ft0,rne

00000000800020f8 <reg_x31_init>:
    800020f8:	0006                	c.slli	zero,0x1
    800020fa:	8000                	0x8000
    800020fc:	ffff                	0xffff
    800020fe:	ffff                	0xffff

0000000080002100 <begin_signature>:
    80002100:	30dc26db          	0x30dc26db
    80002104:	953c                	0x953c
    80002106:	          	fmadd.d	fs1,ft1,fs9,fs1

0000000080002108 <reg_x1_output>:
    80002108:	4b90                	lw	a2,16(a5)
    8000210a:	475a                	lw	a4,148(sp)
    8000210c:	4c90                	lw	a2,24(s1)
    8000210e:	819f        	0xa5338411819f

0000000080002110 <reg_x2_output>:
    80002110:	8411                	srai	s0,s0,0x4
    80002112:	41d6a533          	0x41d6a533
    80002116:	0499                	addi	s1,s1,6

0000000080002118 <reg_x3_output>:
    80002118:	b719b113          	sltiu	sp,s3,-1167
    8000211c:	dadd                	beqz	a3,800020d2 <reg_x26_init+0x2>
    8000211e:	4989                	li	s3,2

0000000080002120 <reg_x4_output>:
    80002120:	7ec1                	lui	t4,0xffff0
    80002122:	db9a                	sw	t1,244(sp)
    80002124:	ff59                	bnez	a4,800020c2 <reg_x24_init+0x2>
    80002126:	7c1d                	lui	s8,0xfffe7

0000000080002128 <reg_x5_output>:
    80002128:	4194                	lw	a3,0(a1)
    8000212a:	add2                	fsd	fs4,216(sp)
    8000212c:	931e                	add	t1,t1,t2
    8000212e:	291a                	fld	fs2,384(sp)

0000000080002130 <reg_x6_output>:
    80002130:	ae1c                	fsd	fa5,24(a2)
    80002132:	2424                	fld	fs1,72(s0)
    80002134:	6aac                	ld	a1,80(a3)
    80002136:	          	0x6e3f59fb

0000000080002138 <reg_x7_output>:
    80002138:	b44a6e3f fcbf6531 	0xfcbf6531b44a6e3f

0000000080002140 <reg_x8_output>:
    80002140:	a085                	j	800021a0 <reg_x20_output>
    80002142:	2248d333          	0x2248d333
    80002146:	          	0x25afa8f

0000000080002148 <reg_x9_output>:
    80002148:	025a                	slli	tp,tp,0x16
    8000214a:	a6de2ac3          	fmadd.q	fs5,ft8,fa3,fs4,rdn
    8000214e:	3802                	fld	fa6,32(sp)

0000000080002150 <reg_x10_output>:
    80002150:	f476                	sd	t4,40(sp)
    80002152:	0d74                	addi	a3,sp,668
    80002154:	37cf8433          	0x37cf8433

0000000080002158 <reg_x11_output>:
    80002158:	86a840cb          	fnmsub.q	ft1,fa6,fa0,fa6,rmm
    8000215c:	84de                	mv	s1,s7
    8000215e:	b548                	fsd	fa0,168(a0)

0000000080002160 <reg_x12_output>:
    80002160:	9ba4                	0x9ba4
    80002162:	e22e                	sd	a1,256(sp)
    80002164:	d729                	beqz	a4,800020ae <reg_x21_init+0x6>
    80002166:	7be9                	lui	s7,0xffffa

0000000080002168 <reg_x13_output>:
    80002168:	d5dd                	beqz	a1,80002116 <reg_x2_output+0x6>
    8000216a:	93f8                	0x93f8
    8000216c:	f141                	bnez	a0,800020ec <reg_x29_init+0x4>
    8000216e:	89c9                	andi	a1,a1,18

0000000080002170 <reg_x14_output>:
    80002170:	ac60                	fsd	fs0,216(s0)
    80002172:	9d69                	0x9d69
    80002174:	5319                	li	t1,-26
    80002176:	effd                	bnez	a5,80002274 <test_memory+0x74>

0000000080002178 <reg_x15_output>:
    80002178:	aa83a143          	fmadd.d	ft2,ft7,fs0,fs5,rdn
    8000217c:	a2f1                	j	80002348 <test_memory+0x148>
    8000217e:	3a1f        	0x99ae653f3a1f

0000000080002180 <reg_x16_output>:
    80002180:	99ae653f 5e99bcd3 	0x5e99bcd399ae653f

0000000080002188 <reg_x17_output>:
    80002188:	9c5c                	0x9c5c
    8000218a:	b9a9                	j	80001de4 <fromhost+0xda4>
    8000218c:	fa90                	sd	a2,48(a3)
    8000218e:	85c4                	0x85c4

0000000080002190 <reg_x18_output>:
    80002190:	46fd                	li	a3,31
    80002192:	cf0a                	sw	sp,156(sp)
    80002194:	88ff                	0x88ff
    80002196:	a8df        	0x346160b8a8df

0000000080002198 <reg_x19_output>:
    80002198:	60b8                	ld	a4,64(s1)
    8000219a:	3461                	addiw	s0,s0,-8
    8000219c:	e08c                	sd	a1,0(s1)
    8000219e:	          	0x689e5e23

00000000800021a0 <reg_x20_output>:
    800021a0:	689e                	ld	a7,448(sp)
    800021a2:	ba520543          	fmadd.d	fa0,ft4,ft5,fs7,rne
    800021a6:	e88a                	sd	sp,80(sp)

00000000800021a8 <reg_x21_output>:
    800021a8:	12da                	slli	t0,t0,0x36
    800021aa:	870e                	mv	a4,gp
    800021ac:	f068                	sd	a0,224(s0)
    800021ae:	          	lui	s10,0x69d52

00000000800021b0 <reg_x22_output>:
    800021b0:	69d5                	lui	s3,0x15
    800021b2:	67aa                	ld	a5,136(sp)
    800021b4:	eefc                	sd	a5,216(a3)
    800021b6:	1810                	addi	a2,sp,48

00000000800021b8 <reg_x23_output>:
    800021b8:	2193b53f 91e88562 	0x91e885622193b53f

00000000800021c0 <reg_x24_output>:
    800021c0:	a7a9                	j	8000290a <_end+0x2fa>
    800021c2:	642e                	ld	s0,200(sp)
    800021c4:	9f8e5163          	bge	t3,s8,800013a6 <fromhost+0x366>

00000000800021c8 <reg_x25_output>:
    800021c8:	279f ce2f 7c36      	0x7c36ce2f279f
    800021ce:	421e                	lw	tp,196(sp)

00000000800021d0 <reg_x26_output>:
    800021d0:	9756                	add	a4,a4,s5
    800021d2:	436e                	lw	t1,216(sp)
    800021d4:	6015                	c.lui	zero,0x5
    800021d6:	a8c4                	fsd	fs1,144(s1)

00000000800021d8 <reg_x27_output>:
    800021d8:	5672                	lw	a2,60(sp)
    800021da:	1938                	addi	a4,sp,184
    800021dc:	be40                	fsd	fs0,184(a2)
    800021de:	          	andi	s11,gp,1719

00000000800021e0 <reg_x28_output>:
    800021e0:	6b71                	lui	s6,0x1c
    800021e2:	eeb8                	sd	a4,88(a3)
    800021e4:	c0f8                	sw	a4,68(s1)
    800021e6:	0928                	addi	a0,sp,152

00000000800021e8 <reg_x29_output>:
    800021e8:	5eb5                	li	t4,-19
    800021ea:	cb59                	beqz	a4,80002280 <test_memory+0x80>
    800021ec:	e9c0                	sd	s0,144(a1)
    800021ee:	          	0x674ee5a7

00000000800021f0 <reg_x30_output>:
    800021f0:	674e                	ld	a4,208(sp)
    800021f2:	718d                	lui	gp,0xfffe3
    800021f4:	c63193c7          	fmsub.q	ft7,ft3,ft3,fs8,rtz

00000000800021f8 <reg_x31_output>:
    800021f8:	a9ed                	j	800026f2 <_end+0xe2>
    800021fa:	bf2d                	j	80002134 <reg_x6_output+0x4>
    800021fc:	ab80                	fsd	fs0,16(a5)
    800021fe:	3766                	fld	fa4,120(sp)

0000000080002200 <test_memory>:
    80002200:	84a5                	srai	s1,s1,0x9
    80002202:	207c                	fld	fa5,192(s0)
    80002204:	f7ba                	sd	a4,488(sp)
    80002206:	466b48ef          	jal	a7,800b666c <__global_pointer$+0xb385c>
    8000220a:	c8e8                	sw	a0,84(s1)
    8000220c:	9d9c                	0x9d9c
    8000220e:	32a1                	addiw	t0,t0,-24
    80002210:	054f4f73          	0x54f4f73
    80002214:	b884                	fsd	fs1,48(s1)
    80002216:	c9e0                	sw	s0,84(a1)
    80002218:	ffd2                	sd	s4,504(sp)
    8000221a:	9ad0                	0x9ad0
    8000221c:	bf98                	fsd	fa4,56(a5)
    8000221e:	e4c8                	sd	a0,136(s1)
    80002220:	1c1d                	addi	s8,s8,-25
    80002222:	7ace                	ld	s5,240(sp)
    80002224:	5682                	lw	a3,32(sp)
    80002226:	0fe6                	slli	t6,t6,0x19
    80002228:	fbd6                	sd	s5,496(sp)
    8000222a:	dbb6f05b          	0xdbb6f05b
    8000222e:	e549                	bnez	a0,800022b8 <test_memory+0xb8>
    80002230:	5f0efbdb          	0x5f0efbdb
    80002234:	de31                	beqz	a2,80002190 <reg_x18_output>
    80002236:	7cde                	ld	s9,496(sp)
    80002238:	df46                	sw	a7,188(sp)
    8000223a:	6d8c3b97          	auipc	s7,0x6d8c3
    8000223e:	b4f0                	fsd	fa2,232(s1)
    80002240:	34951353          	0x34951353
    80002244:	42df 727b bf4b      	0xbf4b727b42df
    8000224a:	41ea                	lw	gp,152(sp)
    8000224c:	1744ddcf          	fnmadd.q	fs11,fs1,fs4,ft2,unknown
    80002250:	3784                	fld	fs1,40(a5)
    80002252:	16bc                	addi	a5,sp,872
    80002254:	30a5                	addiw	ra,ra,-23
    80002256:	3225                	addiw	tp,tp,-23
    80002258:	62f1                	lui	t0,0x1c
    8000225a:	b5d6                	fsd	fs5,232(sp)
    8000225c:	2d832773          	csrrs	a4,0x2d8,t1
    80002260:	f4e5                	bnez	s1,80002248 <test_memory+0x48>
    80002262:	d746                	sw	a7,172(sp)
    80002264:	861b8993          	addi	s3,s7,-1951 # ed8c4a9b <__global_pointer$+0x6d8c1c8b>
    80002268:	e00098e7          	0xe00098e7
    8000226c:	73ae39f7          	0x73ae39f7
    80002270:	64cd                	lui	s1,0x13
    80002272:	022c9fa3          	sh	sp,63(s9) # fffffffffffec03f <__global_pointer$+0xffffffff7ffe922f>
    80002276:	3fbd                	addiw	t6,t6,-17
    80002278:	a582                	fsd	ft0,200(sp)
    8000227a:	ca44                	sw	s1,20(a2)
    8000227c:	acfd                	j	8000257a <test_memory+0x37a>
    8000227e:	b2c6                	fsd	fa7,352(sp)
    80002280:	7515                	lui	a0,0xfffe5
    80002282:	5add                	li	s5,-9
    80002284:	9116                	add	sp,sp,t0
    80002286:	0d071a7b          	0xd071a7b
    8000228a:	585f 991b 0c80      	0xc80991b585f
    80002290:	337b85fb          	0x337b85fb
    80002294:	036aa60b          	0x36aa60b
    80002298:	3e29                	addiw	t3,t3,-22
    8000229a:	0b15                	addi	s6,s6,5
    8000229c:	a9ed                	j	80002796 <_end+0x186>
    8000229e:	0e3d                	addi	t3,t3,15
    800022a0:	8249                	srli	a2,a2,0x12
    800022a2:	ecec                	sd	a1,216(s1)
    800022a4:	5c11                	li	s8,-28
    800022a6:	7e05                	lui	t3,0xfffe1
    800022a8:	e0d0                	sd	a2,128(s1)
    800022aa:	58ce                	lw	a7,240(sp)
    800022ac:	bd72                	fsd	ft8,184(sp)
    800022ae:	27cd                	addiw	a5,a5,19
    800022b0:	d5b5                	beqz	a1,8000221c <test_memory+0x1c>
    800022b2:	90fc                	0x90fc
    800022b4:	1af1                	addi	s5,s5,-4
    800022b6:	aee9                	j	80002690 <_end+0x80>
    800022b8:	19aecd1b          	0x19aecd1b
    800022bc:	a496                	fsd	ft5,72(sp)
    800022be:	77c9                	lui	a5,0xffff2
    800022c0:	3139e58b          	0x3139e58b
    800022c4:	5be5                	li	s7,-7
    800022c6:	0014                	0x14
    800022c8:	eea8                	sd	a0,88(a3)
    800022ca:	4995                	li	s3,5
    800022cc:	d90d                	beqz	a0,800021fe <reg_x31_output+0x6>
    800022ce:	f080                	sd	s0,32(s1)
    800022d0:	ef89                	bnez	a5,800022ea <test_memory+0xea>
    800022d2:	a081                	j	80002312 <test_memory+0x112>
    800022d4:	cf00858b          	0xcf00858b
    800022d8:	9812                	add	a6,a6,tp
    800022da:	a85a                	fsd	fs6,16(sp)
    800022dc:	3c62                	fld	fs8,56(sp)
    800022de:	ceac                	sw	a1,88(a3)
    800022e0:	7309                	lui	t1,0xfffe2
    800022e2:	7478                	ld	a4,232(s0)
    800022e4:	1322                	slli	t1,t1,0x28
    800022e6:	cee9                	beqz	a3,800023c0 <test_memory+0x1c0>
    800022e8:	9c230abb          	0x9c230abb
    800022ec:	f3a5344f          	fnmadd.d	fs0,fa0,fs10,ft10,rup
    800022f0:	8865                	andi	s0,s0,25
    800022f2:	1f75                	addi	t5,t5,-3
    800022f4:	7af4                	ld	a3,240(a3)
    800022f6:	e001                	bnez	s0,800022f6 <test_memory+0xf6>
    800022f8:	36ca                	fld	fa3,176(sp)
    800022fa:	437a                	lw	t1,156(sp)
    800022fc:	b850                	fsd	fa2,176(s0)
    800022fe:	4101                	li	sp,0
    80002300:	ca96                	sw	t0,84(sp)
    80002302:	fc08                	sd	a0,56(s0)
    80002304:	e27e880f          	0xe27e880f
    80002308:	38a1f777          	0x38a1f777
    8000230c:	b86b2473          	csrrs	s0,mhpmcounter6h,s6
    80002310:	b71e                	fsd	ft7,424(sp)
    80002312:	098e                	slli	s3,s3,0x3
    80002314:	1b3c                	addi	a5,sp,440
    80002316:	4f85496f          	jal	s2,8005680e <__global_pointer$+0x539fe>
    8000231a:	0616                	slli	a2,a2,0x5
    8000231c:	e571                	bnez	a0,800023e8 <test_memory+0x1e8>
    8000231e:	198e                	slli	s3,s3,0x23
    80002320:	a828                	fsd	fa0,80(s0)
    80002322:	57e1                	li	a5,-8
    80002324:	872a                	mv	a4,a0
    80002326:	6a10e0ab          	0x6a10e0ab
    8000232a:	5969                	li	s2,-6
    8000232c:	5201                	li	tp,-32
    8000232e:	8e65                	and	a2,a2,s1
    80002330:	ccec                	sw	a1,92(s1)
    80002332:	951d                	srai	a0,a0,0x27
    80002334:	fbe8                	sd	a0,240(a5)
    80002336:	c9e1                	beqz	a1,80002406 <test_memory+0x206>
    80002338:	6388                	ld	a0,0(a5)
    8000233a:	45d8                	lw	a4,12(a1)
    8000233c:	456a                	lw	a0,152(sp)
    8000233e:	ccfc                	sw	a5,92(s1)
    80002340:	c458                	sw	a4,12(s0)
    80002342:	5e01                	li	t3,-32
    80002344:	b59d                	j	800021aa <reg_x21_output+0x2>
    80002346:	4a39                	li	s4,14
    80002348:	1efd                	addi	t4,t4,-1
    8000234a:	4f75                	li	t5,29
    8000234c:	4f59                	li	t5,22
    8000234e:	e2b8                	sd	a4,64(a3)
    80002350:	bdec                	fsd	fa1,248(a1)
    80002352:	e2723deb          	0xe2723deb
    80002356:	b36d                	j	80002100 <begin_signature>
    80002358:	ab9c                	fsd	fa5,16(a5)
    8000235a:	f2c1                	bnez	a3,800022da <test_memory+0xda>
    8000235c:	8cf4                	0x8cf4
    8000235e:	a8d8                	fsd	fa4,144(s1)
    80002360:	44e5                	li	s1,25
    80002362:	410d                	li	sp,3
    80002364:	73cd                	lui	t2,0xffff3
    80002366:	cbdc                	sw	a5,20(a5)
    80002368:	fe79                	bnez	a2,80002346 <test_memory+0x146>
    8000236a:	1f5d                	addi	t5,t5,-9
    8000236c:	7f31                	lui	t5,0xfffec
    8000236e:	0a36                	slli	s4,s4,0xd
    80002370:	199d                	addi	s3,s3,-25
    80002372:	886e                	mv	a6,s11
    80002374:	58144ec3          	fmadd.s	ft9,fs0,ft1,fa1,rmm
    80002378:	048e                	slli	s1,s1,0x3
    8000237a:	df31                	beqz	a4,800022d6 <test_memory+0xd6>
    8000237c:	725f b7fc bd31      	0xbd31b7fc725f
    80002382:	05f8                	addi	a4,sp,716
    80002384:	8fd0                	0x8fd0
    80002386:	4131                	li	sp,12
    80002388:	a2825103          	lhu	sp,-1496(tp) # fffffffffffffa28 <__global_pointer$+0xffffffff7fffcc18>
    8000238c:	4b0d                	li	s6,3
    8000238e:	73a2                	ld	t2,40(sp)
    80002390:	9364                	0x9364
    80002392:	dd51                	beqz	a0,8000232e <test_memory+0x12e>
    80002394:	d5c0                	sw	s0,44(a1)
    80002396:	ad0d                	j	800029c8 <_end+0x3b8>
    80002398:	6509ebaf          	0x6509ebaf
    8000239c:	cc0c                	sw	a1,24(s0)
    8000239e:	8929                	andi	a0,a0,10
    800023a0:	bec2                	fsd	fa6,376(sp)
    800023a2:	c7f176e3          	bgeu	sp,t6,8000200e <reg_x1_init+0x6>
    800023a6:	d335                	beqz	a4,8000230a <test_memory+0x10a>
    800023a8:	03de                	slli	t2,t2,0x17
    800023aa:	dc50                	sw	a2,60(s0)
    800023ac:	a290a9cb          	fnmsub.d	fs3,ft1,fs1,fs4,rdn
    800023b0:	1b08                	addi	a0,sp,432
    800023b2:	1b9d                	addi	s7,s7,-25
    800023b4:	4bbc                	lw	a5,80(a5)
    800023b6:	7af4                	ld	a3,240(a3)
    800023b8:	8b54                	0x8b54
    800023ba:	e50e                	sd	gp,136(sp)
    800023bc:	feee                	sd	s11,376(sp)
    800023be:	85ff                	0x85ff
    800023c0:	f9c2                	sd	a6,240(sp)
    800023c2:	9384                	0x9384
    800023c4:	1d2e                	slli	s10,s10,0x2b
    800023c6:	fd929ed7          	0xfd929ed7
    800023ca:	7fe2                	ld	t6,56(sp)
    800023cc:	f61c                	sd	a5,40(a2)
    800023ce:	28a5                	addiw	a7,a7,9
    800023d0:	8536                	mv	a0,a3
    800023d2:	befe45ef          	jal	a1,7ffe6fc0 <_start-0x19040>
    800023d6:	d7576817          	auipc	a6,0xd7576
    800023da:	6dbe                	ld	s11,456(sp)
    800023dc:	719fbd13          	sltiu	s10,t6,1817
    800023e0:	ed80                	sd	s0,24(a1)
    800023e2:	69c9                	lui	s3,0x12
    800023e4:	7b8ef5bb          	0x7b8ef5bb
    800023e8:	8269                	srli	a2,a2,0x1a
    800023ea:	3669                	addiw	a2,a2,-6
    800023ec:	1501                	addi	a0,a0,-32
    800023ee:	c3fe1027          	0xc3fe1027
    800023f2:	fd99                	bnez	a1,80002310 <test_memory+0x110>
    800023f4:	4244                	lw	s1,4(a2)
    800023f6:	c988                	sw	a0,16(a1)
    800023f8:	b994                	fsd	fa3,48(a1)
    800023fa:	6f4e                	ld	t5,208(sp)
    800023fc:	1415                	addi	s0,s0,-27
    800023fe:	7798                	ld	a4,40(a5)
    80002400:	28ed                	addiw	a7,a7,27
    80002402:	338c                	fld	fa1,32(a5)
    80002404:	0f7d                	addi	t5,t5,31
    80002406:	cd2e                	sw	a1,152(sp)
    80002408:	1300a8f3          	csrrs	a7,0x130,ra
    8000240c:	ec52                	sd	s4,24(sp)
    8000240e:	d018                	sw	a4,32(s0)
    80002410:	af54                	fsd	fa3,152(a4)
    80002412:	87405497          	auipc	s1,0x87405
    80002416:	6e9e                	ld	t4,448(sp)
    80002418:	4e6d                	li	t3,27
    8000241a:	c285                	beqz	a3,8000243a <test_memory+0x23a>
    8000241c:	cba6                	sw	s1,212(sp)
    8000241e:	ecf6                	sd	t4,88(sp)
    80002420:	1b20                	addi	s0,sp,440
    80002422:	907e                	c.add	zero,t6
    80002424:	c744428f          	0xc744428f
    80002428:	de82                	sw	zero,124(sp)
    8000242a:	c4fa                	sw	t5,72(sp)
    8000242c:	ef68293b          	0xef68293b
    80002430:	5d90                	lw	a2,56(a1)
    80002432:	dda9                	beqz	a1,8000238c <test_memory+0x18c>
    80002434:	8a0d4913          	xori	s2,s10,-1888
    80002438:	70973147          	fmsub.s	ft2,fa4,fs1,fa4,rup
    8000243c:	140e                	slli	s0,s0,0x23
    8000243e:	8696                	mv	a3,t0
    80002440:	b5b173d3          	0xb5b173d3
    80002444:	13c1                	addi	t2,t2,-16
    80002446:	2bce                	fld	fs7,208(sp)
    80002448:	7bae                	ld	s7,232(sp)
    8000244a:	85c2                	mv	a1,a6
    8000244c:	56bc                	lw	a5,104(a3)
    8000244e:	0beef1d3          	fsub.d	ft3,ft9,ft10
    80002452:	86d9c80f          	0x86d9c80f
    80002456:	72c5                	lui	t0,0xffff1
    80002458:	9a4dd90b          	0x9a4dd90b
    8000245c:	510184a3          	sb	a6,1289(gp) # fffffffffffe3509 <__global_pointer$+0xffffffff7ffe06f9>
    80002460:	765913e3          	bne	s2,t0,800033c6 <__global_pointer$+0x5b6>
    80002464:	1715                	addi	a4,a4,-27
    80002466:	5a12                	lw	s4,36(sp)
    80002468:	73ca68d3          	0x73ca68d3
    8000246c:	442a                	lw	s0,136(sp)
    8000246e:	0691                	addi	a3,a3,4
    80002470:	42a9970f          	0x42a9970f
    80002474:	8e1e                	mv	t3,t2
    80002476:	04a63637          	lui	a2,0x4a63
    8000247a:	950e                	add	a0,a0,gp
    8000247c:	6a56                	ld	s4,336(sp)
    8000247e:	278c                	fld	fa1,8(a5)
    80002480:	1ba88dd3          	fdiv.d	fs11,fa7,fs10,rne
    80002484:	2241                	addiw	tp,tp,16
    80002486:	75d8                	ld	a4,168(a1)
    80002488:	d28e                	sw	gp,100(sp)
    8000248a:	083e                	slli	a6,a6,0xf
    8000248c:	bbaa                	fsd	fa0,496(sp)
    8000248e:	35ed                	addiw	a1,a1,-5
    80002490:	8376                	mv	t1,t4
    80002492:	5881                	li	a7,-32
    80002494:	d561                	beqz	a0,8000245c <test_memory+0x25c>
    80002496:	dcba                	sw	a4,120(sp)
    80002498:	3789                	addiw	a5,a5,-30
    8000249a:	6627d48f          	0x6627d48f
    8000249e:	364ac173          	0x364ac173
    800024a2:	4f2f1bf3          	csrrw	s7,0x4f2,t5
    800024a6:	8a64                	0x8a64
    800024a8:	ee44                	sd	s1,152(a2)
    800024aa:	88b79967          	0x88b79967
    800024ae:	7856                	ld	a6,368(sp)
    800024b0:	960c                	0x960c
    800024b2:	f6f6                	sd	t4,360(sp)
    800024b4:	a698                	fsd	fa4,8(a3)
    800024b6:	d026                	sw	s1,32(sp)
    800024b8:	4629                	li	a2,10
    800024ba:	8056                	c.mv	zero,s5
    800024bc:	5bad                	li	s7,-21
    800024be:	c490ad23          	sw	s1,-934(ra)
    800024c2:	e36c                	sd	a1,192(a4)
    800024c4:	ce7e                	sw	t6,28(sp)
    800024c6:	cfdf ce9b 67f0      	0x67f0ce9bcfdf
    800024cc:	cea4                	sw	s1,88(a3)
    800024ce:	3692                	fld	fa3,288(sp)
    800024d0:	fc9d                	bnez	s1,8000240e <test_memory+0x20e>
    800024d2:	d419                	beqz	s0,800023e0 <test_memory+0x1e0>
    800024d4:	0be599ab          	0xbe599ab
    800024d8:	f280                	sd	s0,32(a3)
    800024da:	a444                	fsd	fs1,136(s0)
    800024dc:	baffaf8f          	0xbaffaf8f
    800024e0:	8315                	srli	a4,a4,0x5
    800024e2:	0b2d                	addi	s6,s6,11
    800024e4:	a5198a03          	lb	s4,-1455(s3) # 11a51 <_start-0x7ffee5af>
    800024e8:	47ff                	0x47ff
    800024ea:	8984                	0x8984
    800024ec:	af12                	fsd	ft4,408(sp)
    800024ee:	301e                	fld	ft0,480(sp)
    800024f0:	0659                	addi	a2,a2,22
    800024f2:	79f5                	lui	s3,0xffffd
    800024f4:	def8                	sw	a4,124(a3)
    800024f6:	9d0d                	subw	a0,a0,a1
    800024f8:	988a                	add	a7,a7,sp
    800024fa:	c3d0                	sw	a2,4(a5)
    800024fc:	d60e                	sw	gp,44(sp)
    800024fe:	6a41                	lui	s4,0x10
    80002500:	8d5c0feb          	0x8d5c0feb
    80002504:	9741                	srai	a4,a4,0x30
    80002506:	62c8                	ld	a0,128(a3)
    80002508:	e51e                	sd	t2,136(sp)
    8000250a:	1f71                	addi	t5,t5,-4
    8000250c:	a9e5407b          	0xa9e5407b
    80002510:	6c54                	ld	a3,152(s0)
    80002512:	d1be                	sw	a5,224(sp)
    80002514:	59cd                	li	s3,-13
    80002516:	8048                	0x8048
    80002518:	eac9                	bnez	a3,800025aa <test_memory+0x3aa>
    8000251a:	37b1                	addiw	a5,a5,-20
    8000251c:	3179                	addiw	sp,sp,-2
    8000251e:	e3cc                	sd	a1,128(a5)
    80002520:	bf9ead47          	fmsub.q	fs10,ft9,fs9,fs7,rdn
    80002524:	79f5                	lui	s3,0xffffd
    80002526:	e8ba                	sd	a4,80(sp)
    80002528:	eb6d                	bnez	a4,8000261a <_end+0xa>
    8000252a:	ac4c                	fsd	fa1,152(s0)
    8000252c:	14d2d4a7          	0x14d2d4a7
    80002530:	2a06                	fld	fs4,64(sp)
    80002532:	2840                	fld	fs0,144(s0)
    80002534:	8af2                	mv	s5,t3
    80002536:	1a90                	addi	a2,sp,368
    80002538:	bec2                	fsd	fa6,376(sp)
    8000253a:	261f 40b7 f00a      	0xf00a40b7261f
    80002540:	2204                	fld	fs1,0(a2)
    80002542:	1f36                	slli	t5,t5,0x2d
    80002544:	368e                	fld	fa3,224(sp)
    80002546:	6fa0a897          	auipc	a7,0x6fa0a
    8000254a:	8f3a07b7          	lui	a5,0x8f3a0
    8000254e:	10f9                	addi	ra,ra,-2
    80002550:	caefe5cb          	fnmsub.d	fa1,ft11,fa4,fs9,unknown
    80002554:	4b1c                	lw	a5,16(a4)
    80002556:	e97e6117          	auipc	sp,0xe97e6
    8000255a:	15e6                	slli	a1,a1,0x39
    8000255c:	1dc0                	addi	s0,sp,756
    8000255e:	1e38                	addi	a4,sp,824
    80002560:	2a1f 4464 34ad      	0x34ad44642a1f
    80002566:	fd25                	bnez	a0,800024de <test_memory+0x2de>
    80002568:	7a35                	lui	s4,0xfffed
    8000256a:	4c2463cb          	0x4c2463cb
    8000256e:	cf42                	sw	a6,156(sp)
    80002570:	0b7be963          	bltu	s7,s7,80002622 <_end+0x12>
    80002574:	43d2557b          	0x43d2557b
    80002578:	2c0a                	fld	fs8,128(sp)
    8000257a:	14f1                	addi	s1,s1,-4
    8000257c:	04ab4c23          	0x4ab4c23
    80002580:	773c                	ld	a5,104(a4)
    80002582:	a4ff                	0xa4ff
    80002584:	f1a8                	sd	a0,96(a1)
    80002586:	d036                	sw	a3,32(sp)
    80002588:	3bea                	fld	fs7,184(sp)
    8000258a:	13d4                	addi	a3,sp,484
    8000258c:	58e3d62f          	0x58e3d62f
    80002590:	adceaa73          	csrrs	s4,0xadc,t4
    80002594:	a22d                	j	800026be <_end+0xae>
    80002596:	1582                	slli	a1,a1,0x20
    80002598:	2b0d2ff7          	0x2b0d2ff7
    8000259c:	d782                	sw	zero,236(sp)
    8000259e:	1af6                	slli	s5,s5,0x3d
    800025a0:	411f 2857 830d      	0x830d2857411f
    800025a6:	ecac                	sd	a1,88(s1)
    800025a8:	48495243          	fmadd.s	ft4,fs2,ft4,fs1,unknown
    800025ac:	6d75                	lui	s10,0x1d
    800025ae:	311a                	fld	ft2,416(sp)
    800025b0:	82cae303          	lwu	t1,-2004(s5)
    800025b4:	90c8                	0x90c8
    800025b6:	93da7b3b          	0x93da7b3b
    800025ba:	5a09                	li	s4,-30
    800025bc:	c211                	beqz	a2,800025c0 <test_memory+0x3c0>
    800025be:	3004                	fld	fs1,32(s0)
    800025c0:	6634                	ld	a3,72(a2)
    800025c2:	f0c8                	sd	a0,160(s1)
    800025c4:	e916                	sd	t0,144(sp)
    800025c6:	dd32                	sw	a2,184(sp)
    800025c8:	1c06                	slli	s8,s8,0x21
    800025ca:	c03e                	sw	a5,0(sp)
    800025cc:	9de5                	0x9de5
    800025ce:	1ad9                	addi	s5,s5,-10
    800025d0:	39ff                	0x39ff
    800025d2:	3842                	fld	fa6,48(sp)
    800025d4:	e2d5                	bnez	a3,80002678 <_end+0x68>
    800025d6:	e4b4                	sd	a3,72(s1)
    800025d8:	07cd                	addi	a5,a5,19
    800025da:	bc75                	j	80002096 <reg_x18_init+0x6>
    800025dc:	c31a                	sw	t1,132(sp)
    800025de:	e77e                	sd	t6,392(sp)
    800025e0:	1c09                	addi	s8,s8,-30
    800025e2:	29a6                	fld	fs3,72(sp)
    800025e4:	313a                	fld	ft2,424(sp)
    800025e6:	1dbee3ab          	0x1dbee3ab
    800025ea:	65c584b7          	lui	s1,0x65c58
    800025ee:	8972                	mv	s2,t3
    800025f0:	7bb6                	ld	s7,360(sp)
    800025f2:	34e8                	fld	fa0,232(s1)
    800025f4:	adf1864f          	0xadf1864f
    800025f8:	79ec                	ld	a1,240(a1)
    800025fa:	6c95                	lui	s9,0x5
    800025fc:	557d                	li	a0,-1
    800025fe:	fb20                	sd	s0,112(a4)

0000000080002600 <loop_count>:
    80002600:	0040                	addi	s0,sp,4
	...

Disassembly of section .riscv.attributes:

0000000000000000 <.riscv.attributes>:
   0:	1e41                	addi	t3,t3,-16
   2:	0000                	unimp
   4:	7200                	ld	s0,32(a2)
   6:	7369                	lui	t1,0xffffa
   8:	01007663          	bgeu	zero,a6,14 <_start-0x7fffffec>
   c:	0014                	0x14
   e:	0000                	unimp
  10:	7205                	lui	tp,0xfffe1
  12:	3676                	fld	fa2,376(sp)
  14:	6934                	ld	a3,80(a0)
  16:	7032                	0x7032
  18:	5f30                	lw	a2,120(a4)
  1a:	326d                	addiw	tp,tp,-5
  1c:	3070                	fld	fa2,224(s0)
	...
