
build/test34:     file format elf64-littleriscv


Disassembly of section .text.init:

0000000080000000 <_start>:
    80000000:	05c0006f          	j	8000005c <reset_vector>

0000000080000004 <trap_vector>:
    80000004:	34202f73          	csrr	t5,mcause
    80000008:	00800f93          	li	t6,8
    8000000c:	03ff0a63          	beq	t5,t6,80000040 <write_tohost>
    80000010:	00900f93          	li	t6,9
    80000014:	03ff0663          	beq	t5,t6,80000040 <write_tohost>
    80000018:	00b00f93          	li	t6,11
    8000001c:	03ff0263          	beq	t5,t6,80000040 <write_tohost>
    80000020:	80000f17          	auipc	t5,0x80000
    80000024:	fe0f0f13          	addi	t5,t5,-32 # 0 <_start-0x80000000>
    80000028:	000f0463          	beqz	t5,80000030 <trap_vector+0x2c>
    8000002c:	000f0067          	jr	t5
    80000030:	34202f73          	csrr	t5,mcause
    80000034:	000f5463          	bgez	t5,8000003c <handle_exception>
    80000038:	0040006f          	j	8000003c <handle_exception>

000000008000003c <handle_exception>:
    8000003c:	5391e193          	ori	gp,gp,1337

0000000080000040 <write_tohost>:
    80000040:	00001f17          	auipc	t5,0x1
    80000044:	fc3f2023          	sw	gp,-64(t5) # 80001000 <tohost>
    80000048:	000902b7          	lui	t0,0x90
    8000004c:	0012829b          	addiw	t0,t0,1
    80000050:	00c29293          	slli	t0,t0,0xc
    80000054:	0002af83          	lw	t6,0(t0) # 90000 <_start-0x7ff70000>
    80000058:	fe9ff06f          	j	80000040 <write_tohost>

000000008000005c <reset_vector>:
    8000005c:	00000093          	li	ra,0
    80000060:	00000113          	li	sp,0
    80000064:	00000193          	li	gp,0
    80000068:	00000213          	li	tp,0
    8000006c:	00000293          	li	t0,0
    80000070:	00000313          	li	t1,0
    80000074:	00000393          	li	t2,0
    80000078:	00000413          	li	s0,0
    8000007c:	00000493          	li	s1,0
    80000080:	00000513          	li	a0,0
    80000084:	00000593          	li	a1,0
    80000088:	00000613          	li	a2,0
    8000008c:	00000693          	li	a3,0
    80000090:	00000713          	li	a4,0
    80000094:	00000793          	li	a5,0
    80000098:	00000813          	li	a6,0
    8000009c:	00000893          	li	a7,0
    800000a0:	00000913          	li	s2,0
    800000a4:	00000993          	li	s3,0
    800000a8:	00000a13          	li	s4,0
    800000ac:	00000a93          	li	s5,0
    800000b0:	00000b13          	li	s6,0
    800000b4:	00000b93          	li	s7,0
    800000b8:	00000c13          	li	s8,0
    800000bc:	00000c93          	li	s9,0
    800000c0:	00000d13          	li	s10,0
    800000c4:	00000d93          	li	s11,0
    800000c8:	00000e13          	li	t3,0
    800000cc:	00000e93          	li	t4,0
    800000d0:	00000f13          	li	t5,0
    800000d4:	00000f93          	li	t6,0
    800000d8:	f1402573          	csrr	a0,mhartid
    800000dc:	00051063          	bnez	a0,800000dc <reset_vector+0x80>
    800000e0:	00000297          	auipc	t0,0x0
    800000e4:	01028293          	addi	t0,t0,16 # 800000f0 <reset_vector+0x94>
    800000e8:	30529073          	csrw	mtvec,t0
    800000ec:	18005073          	csrwi	satp,0
    800000f0:	00000297          	auipc	t0,0x0
    800000f4:	02428293          	addi	t0,t0,36 # 80000114 <reset_vector+0xb8>
    800000f8:	30529073          	csrw	mtvec,t0
    800000fc:	0010029b          	addiw	t0,zero,1
    80000100:	03529293          	slli	t0,t0,0x35
    80000104:	fff28293          	addi	t0,t0,-1
    80000108:	3b029073          	csrw	pmpaddr0,t0
    8000010c:	01f00293          	li	t0,31
    80000110:	3a029073          	csrw	pmpcfg0,t0
    80000114:	30405073          	csrwi	mie,0
    80000118:	00000297          	auipc	t0,0x0
    8000011c:	01428293          	addi	t0,t0,20 # 8000012c <reset_vector+0xd0>
    80000120:	30529073          	csrw	mtvec,t0
    80000124:	30205073          	csrwi	medeleg,0
    80000128:	30305073          	csrwi	mideleg,0
    8000012c:	00000193          	li	gp,0
    80000130:	00000297          	auipc	t0,0x0
    80000134:	ed428293          	addi	t0,t0,-300 # 80000004 <trap_vector>
    80000138:	30529073          	csrw	mtvec,t0
    8000013c:	00100513          	li	a0,1
    80000140:	01f51513          	slli	a0,a0,0x1f
    80000144:	00055c63          	bgez	a0,8000015c <reset_vector+0x100>
    80000148:	0ff0000f          	fence
    8000014c:	00100193          	li	gp,1
    80000150:	05d00893          	li	a7,93
    80000154:	00000513          	li	a0,0
    80000158:	00000073          	ecall
    8000015c:	80000297          	auipc	t0,0x80000
    80000160:	ea428293          	addi	t0,t0,-348 # 0 <_start-0x80000000>
    80000164:	00028a63          	beqz	t0,80000178 <reset_vector+0x11c>
    80000168:	10529073          	csrw	stvec,t0
    8000016c:	0000b2b7          	lui	t0,0xb
    80000170:	1092829b          	addiw	t0,t0,265
    80000174:	30229073          	csrw	medeleg,t0
    80000178:	30005073          	csrwi	mstatus,0
    8000017c:	00000297          	auipc	t0,0x0
    80000180:	01428293          	addi	t0,t0,20 # 80000190 <reset_vector+0x134>
    80000184:	34129073          	csrw	mepc,t0
    80000188:	f1402573          	csrr	a0,mhartid
    8000018c:	30200073          	mret
    80000190:	0200006f          	j	800001b0 <test_start>

0000000080000194 <crash_backward>:
    80000194:	0ff0000f          	fence
    80000198:	00018063          	beqz	gp,80000198 <crash_backward+0x4>
    8000019c:	00119193          	slli	gp,gp,0x1
    800001a0:	0011e193          	ori	gp,gp,1
    800001a4:	05d00893          	li	a7,93
    800001a8:	00018513          	mv	a0,gp
    800001ac:	00000073          	ecall

00000000800001b0 <test_start>:
    800001b0:	00002f97          	auipc	t6,0x2
    800001b4:	e50f8f93          	addi	t6,t6,-432 # 80002000 <hidden_data>
    800001b8:	000fb003          	ld	zero,0(t6)
    800001bc:	008fb083          	ld	ra,8(t6)
    800001c0:	010fb103          	ld	sp,16(t6)
    800001c4:	018fb183          	ld	gp,24(t6)
    800001c8:	020fb203          	ld	tp,32(t6)
    800001cc:	028fb283          	ld	t0,40(t6)
    800001d0:	030fb303          	ld	t1,48(t6)
    800001d4:	038fb383          	ld	t2,56(t6)
    800001d8:	040fb403          	ld	s0,64(t6)
    800001dc:	048fb483          	ld	s1,72(t6)
    800001e0:	050fb503          	ld	a0,80(t6)
    800001e4:	058fb583          	ld	a1,88(t6)
    800001e8:	060fb603          	ld	a2,96(t6)
    800001ec:	068fb683          	ld	a3,104(t6)
    800001f0:	070fb703          	ld	a4,112(t6)
    800001f4:	078fb783          	ld	a5,120(t6)
    800001f8:	080fb803          	ld	a6,128(t6)
    800001fc:	088fb883          	ld	a7,136(t6)
    80000200:	090fb903          	ld	s2,144(t6)
    80000204:	098fb983          	ld	s3,152(t6)
    80000208:	0a0fba03          	ld	s4,160(t6)
    8000020c:	0a8fba83          	ld	s5,168(t6)
    80000210:	0b0fbb03          	ld	s6,176(t6)
    80000214:	0b8fbb83          	ld	s7,184(t6)
    80000218:	0c0fbc03          	ld	s8,192(t6)
    8000021c:	0c8fbc83          	ld	s9,200(t6)
    80000220:	0d0fbd03          	ld	s10,208(t6)
    80000224:	0d8fbd83          	ld	s11,216(t6)
    80000228:	0e0fbe03          	ld	t3,224(t6)
    8000022c:	0e8fbe83          	ld	t4,232(t6)
    80000230:	0f0fbf03          	ld	t5,240(t6)
    80000234:	0f8fbf83          	ld	t6,248(t6)
    80000238:	0040006f          	j	8000023c <pseg_0>

000000008000023c <pseg_0>:
    8000023c:	00002f97          	auipc	t6,0x2
    80000240:	becf8f93          	addi	t6,t6,-1044 # 80001e28 <fromhost+0xde8>
    80000244:	8b5ce313          	ori	t1,s9,-1867
    80000248:	00002b17          	auipc	s6,0x2
    8000024c:	d7eb0b13          	addi	s6,s6,-642 # 80001fc6 <fromhost+0xf86>
    80000250:	af900f13          	li	t5,-1287
    80000254:	e4d00213          	li	tp,-435
    80000258:	b4300413          	li	s0,-1213
    8000025c:	02f78e33          	mul	t3,a5,a5
    80000260:	40845d33          	sra	s10,s0,s0
    80000264:	00002097          	auipc	ra,0x2
    80000268:	e0c08093          	addi	ra,ra,-500 # 80002070 <reg_x14_init>
    8000026c:	02a575b3          	remu	a1,a0,a0
    80000270:	404206b3          	sub	a3,tp,tp
    80000274:	748fe883          	lwu	a7,1864(t6)
    80000278:	02861eb3          	mulh	t4,a2,s0
    8000027c:	00002517          	auipc	a0,0x2
    80000280:	b8650513          	addi	a0,a0,-1146 # 80001e02 <fromhost+0xdc2>
    80000284:	0291bbb3          	mulhu	s7,gp,s1
    80000288:	03ef6a3b          	remw	s4,t5,t5
    8000028c:	41a10cb3          	sub	s9,sp,s10
    80000290:	00028713          	mv	a4,t0
    80000294:	53754183          	lbu	gp,1335(a0)
    80000298:	018c53b3          	srl	t2,s8,s8
    8000029c:	015addbb          	srlw	s11,s5,s5
    800002a0:	4094813b          	subw	sp,s1,s1
    800002a4:	3dab3c03          	ld	s8,986(s6)
    800002a8:	00100c93          	li	s9,1
    800002ac:	d9500f93          	li	t6,-619
    800002b0:	84700613          	li	a2,-1977
    800002b4:	f14b26b7          	lui	a3,0xf14b2
    800002b8:	0329e333          	rem	t1,s3,s2
    800002bc:	00070993          	mv	s3,a4
    800002c0:	0294d8bb          	divuw	a7,s1,s1
    800002c4:	028417b3          	mulh	a5,s0,s0
    800002c8:	67371663          	bne	a4,s3,80000934 <crash_forward>
    800002cc:	33309b23          	sh	s3,822(ra)
    800002d0:	81900913          	li	s2,-2023
    800002d4:	2b000593          	li	a1,688
    800002d8:	81a00513          	li	a0,-2022
    800002dc:	03fc9c93          	slli	s9,s9,0x3f
    800002e0:	018c17bb          	sllw	a5,s8,s8
    800002e4:	00c60833          	add	a6,a2,a2
    800002e8:	41ad0433          	sub	s0,s10,s10
    800002ec:	00e706bb          	addw	a3,a4,a4
    800002f0:	02bfcd33          	div	s10,t6,a1
    800002f4:	faa00793          	li	a5,-86
    800002f8:	00002817          	auipc	a6,0x2
    800002fc:	11780813          	addi	a6,a6,279 # 8000240f <test_memory+0x20f>
    80000300:	31d00893          	li	a7,797
    80000304:	00002d97          	auipc	s11,0x2
    80000308:	778d8d93          	addi	s11,s11,1912 # 80002a7c <_end+0x46c>
    8000030c:	bc000293          	li	t0,-1088
    80000310:	1e700a93          	li	s5,487
    80000314:	fff00a13          	li	s4,-1
    80000318:	73288c13          	addi	s8,a7,1842
    8000031c:	b3328b93          	addi	s7,t0,-1229
    80000320:	6188fa63          	bgeu	a7,s8,80000934 <crash_forward>
    80000324:	035924b3          	mulhsu	s1,s2,s5
    80000328:	01db30b3          	sltu	ra,s6,t4
    8000032c:	01f5d13b          	srlw	sp,a1,t6
    80000330:	019a4a33          	xor	s4,s4,s9
    80000334:	94a00e13          	li	t3,-1718
    80000338:	7e400613          	li	a2,2020
    8000033c:	00100713          	li	a4,1
    80000340:	5f72ca63          	blt	t0,s7,80000934 <crash_forward>
    80000344:	00002397          	auipc	t2,0x2
    80000348:	d5138393          	addi	t2,t2,-687 # 80002095 <reg_x18_init+0x5>
    8000034c:	37939fa3          	sh	s9,895(t2)
    80000350:	00002d17          	auipc	s10,0x2
    80000354:	3acd0d13          	addi	s10,s10,940 # 800026fc <_end+0xec>
    80000358:	90e00593          	li	a1,-1778
    8000035c:	014271b3          	and	gp,tp,s4
    80000360:	0191eeb3          	or	t4,gp,s9
    80000364:	70600a93          	li	s5,1798
    80000368:	d2100c13          	li	s8,-735
    8000036c:	01c55f33          	srl	t5,a0,t3
    80000370:	018a98bb          	sllw	a7,s5,s8
    80000374:	03f71713          	slli	a4,a4,0x3f
    80000378:	40c78fbb          	subw	t6,a5,a2
    8000037c:	d68d0ba3          	sb	s0,-649(s10)
    80000380:	998de203          	lwu	tp,-1640(s11)
    80000384:	fff00b13          	li	s6,-1
    80000388:	007af0b3          	and	ra,s5,t2
    8000038c:	00eb4b33          	xor	s6,s6,a4
    80000390:	11400293          	li	t0,276
    80000394:	00b5c433          	xor	s0,a1,a1
    80000398:	3dd00f13          	li	t5,989
    8000039c:	02528bbb          	mulw	s7,t0,t0
    800003a0:	016979b3          	and	s3,s2,s6
    800003a4:	307f0513          	addi	a0,t5,775
    800003a8:	00e9e333          	or	t1,s3,a4
    800003ac:	58af0463          	beq	t5,a0,80000934 <crash_forward>
    800003b0:	06785683          	lhu	a3,103(a6)
    800003b4:	dce00113          	li	sp,-562
    800003b8:	40a00493          	li	s1,1034
    800003bc:	0291793b          	remuw	s2,sp,s1
    800003c0:	25d00793          	li	a5,605
    800003c4:	001b9b33          	sll	s6,s7,ra
    800003c8:	028e56bb          	divuw	a3,t3,s0
    800003cc:	025bc333          	div	t1,s7,t0
    800003d0:	74b00f93          	li	t6,1867
    800003d4:	ede00d13          	li	s10,-290
    800003d8:	02067133          	remu	sp,a2,zero
    800003dc:	037776b3          	remu	a3,a4,s7
    800003e0:	01ffe933          	or	s2,t6,t6
    800003e4:	00002817          	auipc	a6,0x2
    800003e8:	b0980813          	addi	a6,a6,-1271 # 80001eed <fromhost+0xead>
    800003ec:	03dedc3b          	divuw	s8,t4,t4
    800003f0:	412b01b3          	sub	gp,s6,s2
    800003f4:	01ad3633          	sltu	a2,s10,s10
    800003f8:	32d00a13          	li	s4,813
    800003fc:	029211b3          	mulh	gp,tp,s1
    80000400:	7343e513          	ori	a0,t2,1844
    80000404:	b8407e93          	andi	t4,zero,-1148
    80000408:	45786a83          	lwu	s5,1111(a6)
    8000040c:	4dd00493          	li	s1,1245
    80000410:	79000893          	li	a7,1936
    80000414:	e3314993          	xori	s3,sp,-461
    80000418:	45f00313          	li	t1,1119
    8000041c:	0118a5b3          	slt	a1,a7,a7
    80000420:	028ee133          	rem	sp,t4,s0
    80000424:	f1f88413          	addi	s0,a7,-225
    80000428:	48200b93          	li	s7,1154
    8000042c:	d60014e3          	bnez	zero,80000194 <crash_backward>
    80000430:	01b76133          	or	sp,a4,s11
    80000434:	0094a733          	slt	a4,s1,s1
    80000438:	00003297          	auipc	t0,0x3
    8000043c:	86228293          	addi	t0,t0,-1950 # 80002c9a <_end+0x68a>
    80000440:	017a5f33          	srl	t5,s4,s7
    80000444:	e7d00d93          	li	s11,-387
    80000448:	02216833          	rem	a6,sp,sp
    8000044c:	03b9bcb3          	mulhu	s9,s3,s11
    80000450:	f3100d13          	li	s10,-207
    80000454:	46100893          	li	a7,1121
    80000458:	40978233          	sub	tp,a5,s1
    8000045c:	019f5b3b          	srlw	s6,t5,s9
    80000460:	41a3593b          	sraw	s2,t1,s10
    80000464:	84000f93          	li	t6,-1984
    80000468:	48a00413          	li	s0,1162
    8000046c:	6c018793          	addi	a5,gp,1728 # 800034d0 <__global_pointer$+0x6c0>
    80000470:	79100713          	li	a4,1937
    80000474:	f64f8693          	addi	a3,t6,-156
    80000478:	35b00813          	li	a6,859
    8000047c:	00e75f3b          	srlw	t5,a4,a4
    80000480:	2cb88e93          	addi	t4,a7,715
    80000484:	00100593          	li	a1,1
    80000488:	019c8abb          	addw	s5,s9,s9
    8000048c:	c6f00493          	li	s1,-913
    80000490:	0294fcb3          	remu	s9,s1,s1
    80000494:	022143bb          	divw	t2,sp,sp
    80000498:	a9400a93          	li	s5,-1388
    8000049c:	00002f17          	auipc	t5,0x2
    800004a0:	97af0f13          	addi	t5,t5,-1670 # 80001e16 <fromhost+0xdd6>
    800004a4:	51d00d13          	li	s10,1309
    800004a8:	cfd8f6e3          	bgeu	a7,t4,80000194 <crash_backward>
    800004ac:	49f6d463          	bge	a3,t6,80000934 <crash_forward>
    800004b0:	0284413b          	divw	sp,s0,s0
    800004b4:	624f0783          	lb	a5,1572(t5)
    800004b8:	03ad0bbb          	mulw	s7,s10,s10
    800004bc:	70600a13          	li	s4,1798
    800004c0:	31800c13          	li	s8,792
    800004c4:	01bd90bb          	sllw	ra,s11,s11
    800004c8:	00002b17          	auipc	s6,0x2
    800004cc:	f92b0b13          	addi	s6,s6,-110 # 8000245a <test_memory+0x25a>
    800004d0:	038c563b          	divuw	a2,s8,s8
    800004d4:	00002797          	auipc	a5,0x2
    800004d8:	19378793          	addi	a5,a5,403 # 80002667 <_end+0x57>
    800004dc:	033d0433          	mul	s0,s10,s3
    800004e0:	00636733          	or	a4,t1,t1
    800004e4:	01483933          	sltu	s2,a6,s4
    800004e8:	e6600493          	li	s1,-410
    800004ec:	03f59593          	slli	a1,a1,0x3f
    800004f0:	7b000f93          	li	t6,1968
    800004f4:	027380bb          	mulw	ra,t2,t2
    800004f8:	9402ce03          	lbu	t3,-1728(t0)
    800004fc:	17c00d13          	li	s10,380
    80000500:	0344dbbb          	divuw	s7,s1,s4
    80000504:	50100693          	li	a3,1281
    80000508:	fff00993          	li	s3,-1
    8000050c:	08ab1203          	lh	tp,138(s6)
    80000510:	00b9c9b3          	xor	s3,s3,a1
    80000514:	42001063          	bnez	zero,80000934 <crash_forward>
    80000518:	c217ef03          	lwu	t5,-991(a5)
    8000051c:	01af813b          	addw	sp,t6,s10
    80000520:	00002397          	auipc	t2,0x2
    80000524:	4d838393          	addi	t2,t2,1240 # 800029f8 <_end+0x3e8>
    80000528:	01387533          	and	a0,a6,s3
    8000052c:	7b568d93          	addi	s11,a3,1973 # fffffffff14b27b5 <__global_pointer$+0xffffffff714af9a5>
    80000530:	00b561b3          	or	gp,a0,a1
    80000534:	c6a1e0e3          	bltu	gp,a0,80000194 <crash_backward>
    80000538:	029accbb          	divw	s9,s5,s1
    8000053c:	9e538e83          	lb	t4,-1563(t2)
    80000540:	4f700193          	li	gp,1271
    80000544:	27f00d13          	li	s10,639
    80000548:	0139973b          	sllw	a4,s3,s3
    8000054c:	9ed00113          	li	sp,-1555
    80000550:	c50842e3          	blt	a6,a6,80000194 <crash_backward>
    80000554:	035c5fbb          	divuw	t6,s8,s5
    80000558:	01a1f7b3          	and	a5,gp,s10
    8000055c:	a6500a93          	li	s5,-1435
    80000560:	8dd00593          	li	a1,-1827
    80000564:	01e0d69b          	srliw	a3,ra,0x1e
    80000568:	0390a633          	mulhsu	a2,ra,s9
    8000056c:	f6700d13          	li	s10,-153
    80000570:	d7b00f93          	li	t6,-645
    80000574:	036b62b3          	rem	t0,s6,s6
    80000578:	010d9733          	sll	a4,s11,a6
    8000057c:	00002417          	auipc	s0,0x2
    80000580:	99c40413          	addi	s0,s0,-1636 # 80001f18 <fromhost+0xed8>
    80000584:	6e700c93          	li	s9,1767
    80000588:	00100b13          	li	s6,1
    8000058c:	55042c23          	sw	a6,1368(s0)
    80000590:	41290e3b          	subw	t3,s2,s2
    80000594:	63b00e93          	li	t4,1595
    80000598:	91700513          	li	a0,-1769
    8000059c:	41fd01bb          	subw	gp,s10,t6
    800005a0:	c7a00913          	li	s2,-902
    800005a4:	00100413          	li	s0,1
    800005a8:	03fb1b13          	slli	s6,s6,0x3f
    800005ac:	022106b3          	mul	a3,sp,sp
    800005b0:	c2d00a13          	li	s4,-979
    800005b4:	fff00f13          	li	t5,-1
    800005b8:	92400993          	li	s3,-1756
    800005bc:	92e50093          	addi	ra,a0,-1746
    800005c0:	36a0fa63          	bgeu	ra,a0,80000934 <crash_forward>
    800005c4:	0139d23b          	srlw	tp,s3,s3
    800005c8:	016f4f33          	xor	t5,t5,s6
    800005cc:	013983b3          	add	t2,s3,s3
    800005d0:	41de8833          	sub	a6,t4,t4
    800005d4:	00b11c33          	sll	s8,sp,a1
    800005d8:	03f41413          	slli	s0,s0,0x3f
    800005dc:	03b4a333          	mulhsu	t1,s1,s11
    800005e0:	039ab4b3          	mulhu	s1,s5,s9
    800005e4:	01e5f8b3          	and	a7,a1,t5
    800005e8:	016e6db3          	or	s11,t3,s6
    800005ec:	0d200293          	li	t0,210
    800005f0:	8f000093          	li	ra,-1808
    800005f4:	0010dab3          	srl	s5,ra,ra
    800005f8:	01999c13          	slli	s8,s3,0x19
    800005fc:	02f4d3bb          	divuw	t2,s1,a5
    80000600:	03ac5533          	divu	a0,s8,s10
    80000604:	b9b8c8e3          	blt	a7,s11,80000194 <crash_backward>
    80000608:	00002697          	auipc	a3,0x2
    8000060c:	5e868693          	addi	a3,a3,1512 # 80002bf0 <_end+0x5e0>
    80000610:	01493bb3          	sltu	s7,s2,s4
    80000614:	00000213          	li	tp,0
    80000618:	9246aa23          	sw	tp,-1740(a3)
    8000061c:	0252dcbb          	divuw	s9,t0,t0
    80000620:	00000193          	li	gp,0
    80000624:	ab400113          	li	sp,-1356
    80000628:	fff00613          	li	a2,-1
    8000062c:	30324463          	blt	tp,gp,80000934 <crash_forward>
    80000630:	3ca00e93          	li	t4,970
    80000634:	02211333          	mulh	t1,sp,sp
    80000638:	b3500493          	li	s1,-1227
    8000063c:	00864633          	xor	a2,a2,s0
    80000640:	00c8f733          	and	a4,a7,a2
    80000644:	00001a17          	auipc	s4,0x1
    80000648:	7f5a0a13          	addi	s4,s4,2037 # 80001e39 <fromhost+0xdf9>
    8000064c:	a9500d93          	li	s11,-1387
    80000650:	00949d33          	sll	s10,s1,s1
    80000654:	00002297          	auipc	t0,0x2
    80000658:	f8828293          	addi	t0,t0,-120 # 800025dc <test_memory+0x3dc>
    8000065c:	a2f00f13          	li	t5,-1489
    80000660:	008d67b3          	or	a5,s10,s0
    80000664:	f042d903          	lhu	s2,-252(t0)
    80000668:	034350b3          	divu	ra,t1,s4
    8000066c:	00002997          	auipc	s3,0x2
    80000670:	c6798993          	addi	s3,s3,-921 # 800022d3 <test_memory+0xd3>
    80000674:	00002e17          	auipc	t3,0x2
    80000678:	a7be0e13          	addi	t3,t3,-1413 # 800020ef <reg_x29_init+0x7>
    8000067c:	c0a00813          	li	a6,-1014
    80000680:	29c00393          	li	t2,668
    80000684:	02774c3b          	divw	s8,a4,t2
    80000688:	b0e7d6e3          	bge	a5,a4,80000194 <crash_backward>
    8000068c:	03ef7ab3          	remu	s5,t5,t5
    80000690:	00002497          	auipc	s1,0x2
    80000694:	d4648493          	addi	s1,s1,-698 # 800023d6 <test_memory+0x1d6>
    80000698:	f219a6a3          	sw	ra,-211(s3)
    8000069c:	d3500d13          	li	s10,-715
    800006a0:	f044b523          	sd	tp,-246(s1)
    800006a4:	0139db33          	srl	s6,s3,s3
    800006a8:	6aa00b93          	li	s7,1706
    800006ac:	01ad5c3b          	srlw	s8,s10,s10
    800006b0:	9d500113          	li	sp,-1579
    800006b4:	c7300413          	li	s0,-909
    800006b8:	6b6a0183          	lb	gp,1718(s4)
    800006bc:	1f4e0903          	lb	s2,500(t3)
    800006c0:	02214333          	div	t1,sp,sp
    800006c4:	00002c97          	auipc	s9,0x2
    800006c8:	4cec8c93          	addi	s9,s9,1230 # 80002b92 <_end+0x582>
    800006cc:	00002997          	auipc	s3,0x2
    800006d0:	dda98993          	addi	s3,s3,-550 # 800024a6 <test_memory+0x2a6>
    800006d4:	017f38b3          	sltu	a7,t5,s7
    800006d8:	9b500713          	li	a4,-1611
    800006dc:	8eec9503          	lh	a0,-1810(s9)
    800006e0:	e4f00a13          	li	s4,-433
    800006e4:	e4b989a3          	sb	a1,-429(s3)
    800006e8:	41bdd233          	sra	tp,s11,s11
    800006ec:	010edfbb          	srlw	t6,t4,a6
    800006f0:	46800e13          	li	t3,1128
    800006f4:	90100093          	li	ra,-1791
    800006f8:	5a100193          	li	gp,1441
    800006fc:	00e457b3          	srl	a5,s0,a4
    80000700:	00b00893          	li	a7,11
    80000704:	00427533          	and	a0,tp,tp
    80000708:	0118bbb3          	sltu	s7,a7,a7
    8000070c:	7c900c93          	li	s9,1993
    80000710:	43b00613          	li	a2,1083
    80000714:	bf500d93          	li	s11,-1035
    80000718:	00003bb3          	snez	s7,zero
    8000071c:	03bdf73b          	remuw	a4,s11,s11
    80000720:	4b900793          	li	a5,1209
    80000724:	0010f2b3          	and	t0,ra,ra
    80000728:	5ce00d13          	li	s10,1486
    8000072c:	e6b86413          	ori	s0,a6,-405
    80000730:	4069dc3b          	sraw	s8,s3,t1
    80000734:	02108bbb          	mulw	s7,ra,ra
    80000738:	40945f33          	sra	t5,s0,s1
    8000073c:	014a193b          	sllw	s2,s4,s4
    80000740:	c5d00893          	li	a7,-931
    80000744:	02c66ab3          	rem	s5,a2,a2
    80000748:	428dd813          	srai	a6,s11,0x28
    8000074c:	02c00693          	li	a3,44
    80000750:	01ce5333          	srl	t1,t3,t3
    80000754:	0010d733          	srl	a4,ra,ra
    80000758:	40f7de3b          	sraw	t3,a5,a5
    8000075c:	00678ebb          	addw	t4,a5,t1
    80000760:	96888213          	addi	tp,a7,-1688
    80000764:	9fb00313          	li	t1,-1541
    80000768:	a23196e3          	bne	gp,gp,80000194 <crash_backward>
    8000076c:	01868833          	add	a6,a3,s8
    80000770:	00d3d5bb          	srlw	a1,t2,a3
    80000774:	00001a97          	auipc	s5,0x1
    80000778:	72fa8a93          	addi	s5,s5,1839 # 80001ea3 <fromhost+0xe63>
    8000077c:	1ed00e13          	li	t3,493
    80000780:	1d578993          	addi	s3,a5,469
    80000784:	00e70f33          	add	t5,a4,a4
    80000788:	f4200a13          	li	s4,-190
    8000078c:	01acb133          	sltu	sp,s9,s10
    80000790:	32100593          	li	a1,801
    80000794:	02c60ebb          	mulw	t4,a2,a2
    80000798:	00002917          	auipc	s2,0x2
    8000079c:	3a790913          	addi	s2,s2,935 # 80002b3f <_end+0x52f>
    800007a0:	77900413          	li	s0,1913
    800007a4:	014a7733          	and	a4,s4,s4
    800007a8:	99993b83          	ld	s7,-1639(s2)
    800007ac:	02b5e833          	rem	a6,a1,a1
    800007b0:	00100d93          	li	s11,1
    800007b4:	0353dd13          	srli	s10,t2,0x35
    800007b8:	00000213          	li	tp,0
    800007bc:	00830c33          	add	s8,t1,s0
    800007c0:	00002f97          	auipc	t6,0x2
    800007c4:	a4cf8f93          	addi	t6,t6,-1460 # 8000220c <test_memory+0xc>
    800007c8:	02b596b3          	mulh	a3,a1,a1
    800007cc:	00000c93          	li	s9,0
    800007d0:	61300493          	li	s1,1555
    800007d4:	2d1fae23          	sw	a7,732(t6)
    800007d8:	00002617          	auipc	a2,0x2
    800007dc:	03c60613          	addi	a2,a2,60 # 80002814 <_end+0x204>
    800007e0:	003e0393          	addi	t2,t3,3
    800007e4:	03fd9d93          	slli	s11,s11,0x3f
    800007e8:	524a90a3          	sh	tp,1313(s5)
    800007ec:	0091eb33          	or	s6,gp,s1
    800007f0:	9b9242e3          	blt	tp,s9,80000194 <crash_backward>
    800007f4:	d4500b93          	li	s7,-699
    800007f8:	00632333          	slt	t1,t1,t1
    800007fc:	01bd9ab3          	sll	s5,s11,s11
    80000800:	fb600413          	li	s0,-74
    80000804:	00002697          	auipc	a3,0x2
    80000808:	f1a68693          	addi	a3,a3,-230 # 8000271e <_end+0x10e>
    8000080c:	ae362423          	sw	gp,-1304(a2)
    80000810:	34300c93          	li	s9,835
    80000814:	20d00a13          	li	s4,525
    80000818:	00100913          	li	s2,1
    8000081c:	98100193          	li	gp,-1663
    80000820:	fff00093          	li	ra,-1
    80000824:	01b0c0b3          	xor	ra,ra,s11
    80000828:	014bd9bb          	srlw	s3,s7,s4
    8000082c:	039c8b33          	mul	s6,s9,s9
    80000830:	4c600893          	li	a7,1222
    80000834:	a4f00f93          	li	t6,-1457
    80000838:	02346c33          	rem	s8,s0,gp
    8000083c:	03f91913          	slli	s2,s2,0x3f
    80000840:	01fff233          	and	tp,t6,t6
    80000844:	00100813          	li	a6,1
    80000848:	00187533          	and	a0,a6,ra
    8000084c:	b326ee03          	lwu	t3,-1230(a3)
    80000850:	eee00713          	li	a4,-274
    80000854:	fff00793          	li	a5,-1
    80000858:	0127c7b3          	xor	a5,a5,s2
    8000085c:	00c65d33          	srl	s10,a2,a2
    80000860:	00e88ebb          	addw	t4,a7,a4
    80000864:	00f9ff33          	and	t5,s3,a5
    80000868:	01b562b3          	or	t0,a0,s11
    8000086c:	012f6133          	or	sp,t5,s2
    80000870:	e8f00a93          	li	s5,-369
    80000874:	750d7c13          	andi	s8,s10,1872
    80000878:	035af43b          	remuw	s0,s5,s5
    8000087c:	03f81813          	slli	a6,a6,0x3f
    80000880:	0a550a63          	beq	a0,t0,80000934 <crash_forward>
    80000884:	019b7733          	and	a4,s6,s9
    80000888:	fff00393          	li	t2,-1
    8000088c:	0103c3b3          	xor	t2,t2,a6
    80000890:	007575b3          	and	a1,a0,t2
    80000894:	0105e4b3          	or	s1,a1,a6
    80000898:	0040006f          	j	8000089c <reg_dump>

000000008000089c <reg_dump>:
    8000089c:	00002097          	auipc	ra,0x2
    800008a0:	d6408093          	addi	ra,ra,-668 # 80002600 <loop_count>
    800008a4:	0000a103          	lw	sp,0(ra)
    800008a8:	fff10193          	addi	gp,sp,-1
    800008ac:	0030a023          	sw	gp,0(ra)
    800008b0:	980116e3          	bnez	sp,8000023c <pseg_0>
    800008b4:	00002097          	auipc	ra,0x2
    800008b8:	84c08093          	addi	ra,ra,-1972 # 80002100 <begin_signature>
    800008bc:	0000b023          	sd	zero,0(ra)
    800008c0:	0020b823          	sd	sp,16(ra)
    800008c4:	0030bc23          	sd	gp,24(ra)
    800008c8:	0240b023          	sd	tp,32(ra)
    800008cc:	0250b423          	sd	t0,40(ra)
    800008d0:	0260b823          	sd	t1,48(ra)
    800008d4:	0270bc23          	sd	t2,56(ra)
    800008d8:	0480b023          	sd	s0,64(ra)
    800008dc:	0490b423          	sd	s1,72(ra)
    800008e0:	04a0b823          	sd	a0,80(ra)
    800008e4:	04b0bc23          	sd	a1,88(ra)
    800008e8:	06e0b823          	sd	a4,112(ra)
    800008ec:	06f0bc23          	sd	a5,120(ra)
    800008f0:	0900b023          	sd	a6,128(ra)
    800008f4:	0910b423          	sd	a7,136(ra)
    800008f8:	0920b823          	sd	s2,144(ra)
    800008fc:	0930bc23          	sd	s3,152(ra)
    80000900:	0b40b023          	sd	s4,160(ra)
    80000904:	0b50b423          	sd	s5,168(ra)
    80000908:	0b60b823          	sd	s6,176(ra)
    8000090c:	0b70bc23          	sd	s7,184(ra)
    80000910:	0d80b023          	sd	s8,192(ra)
    80000914:	0d90b423          	sd	s9,200(ra)
    80000918:	0da0b823          	sd	s10,208(ra)
    8000091c:	0db0bc23          	sd	s11,216(ra)
    80000920:	0fc0b023          	sd	t3,224(ra)
    80000924:	0fd0b423          	sd	t4,232(ra)
    80000928:	0fe0b823          	sd	t5,240(ra)
    8000092c:	0ff0bc23          	sd	t6,248(ra)
    80000930:	0200006f          	j	80000950 <test_end>

0000000080000934 <crash_forward>:
    80000934:	0ff0000f          	fence
    80000938:	00018063          	beqz	gp,80000938 <crash_forward+0x4>
    8000093c:	00119193          	slli	gp,gp,0x1
    80000940:	0011e193          	ori	gp,gp,1
    80000944:	05d00893          	li	a7,93
    80000948:	00018513          	mv	a0,gp
    8000094c:	00000073          	ecall

0000000080000950 <test_end>:
    80000950:	0ff0000f          	fence
    80000954:	00100193          	li	gp,1
    80000958:	05d00893          	li	a7,93
    8000095c:	00000513          	li	a0,0
    80000960:	00000073          	ecall
    80000964:	c0001073          	unimp
	...

Disassembly of section .tohost:

0000000080001000 <tohost>:
	...

0000000080001040 <fromhost>:
	...

Disassembly of section .data:

0000000080002000 <hidden_data>:
	...

0000000080002008 <reg_x1_init>:
    80002008:	9c28                	0x9c28
    8000200a:	aa91                	j	8000215e <reg_x11_output+0x6>
    8000200c:	90a2                	add	ra,ra,s0
    8000200e:	d8b8                	sw	a4,112(s1)

0000000080002010 <reg_x2_init>:
    80002010:	d0a6                	sw	s1,96(sp)
    80002012:	ebcaaca3          	sw	t3,-327(s5)
    80002016:	2795                	addiw	a5,a5,5

0000000080002018 <reg_x3_init>:
    80002018:	9300                	0x9300
    8000201a:	011c                	addi	a5,sp,128
    8000201c:	5a2a                	lw	s4,168(sp)
    8000201e:	497c                	lw	a5,84(a0)

0000000080002020 <reg_x4_init>:
    80002020:	6b49803f 20dde88d 	0x20dde88d6b49803f

0000000080002028 <reg_x5_init>:
    80002028:	9262                	add	tp,tp,s8
    8000202a:	dd06                	sw	ra,184(sp)
    8000202c:	f41cf4af          	0xf41cf4af

0000000080002030 <reg_x6_init>:
    80002030:	ffffff83          	0xffffff83
    80002034:	ffff                	0xffff
    80002036:	ffff                	0xffff

0000000080002038 <reg_x7_init>:
    80002038:	8005                	srli	s0,s0,0x1
    8000203a:	ffff                	0xffff
    8000203c:	ffff                	0xffff
    8000203e:	ffff                	0xffff

0000000080002040 <reg_x8_init>:
    80002040:	8009                	srli	s0,s0,0x2
    80002042:	ffff                	0xffff
    80002044:	ffff                	0xffff
    80002046:	ffff                	0xffff

0000000080002048 <reg_x9_init>:
    80002048:	95ac                	0x95ac
    8000204a:	aac4                	fsd	fs1,144(a3)
    8000204c:	6f22                	ld	t5,8(sp)
    8000204e:	          	0xffff2253

0000000080002050 <reg_x10_init>:
    80002050:	ffff                	0xffff
    80002052:	ffff                	0xffff
    80002054:	ffff                	0xffff
    80002056:	ffff                	0xffff

0000000080002058 <reg_x11_init>:
    80002058:	0000                	unimp
    8000205a:	8000                	0x8000
    8000205c:	ffff                	0xffff
    8000205e:	ffff                	0xffff

0000000080002060 <reg_x12_init>:
    80002060:	8626                	mv	a2,s1
    80002062:	eaea                	sd	s10,336(sp)
    80002064:	cd40                	sw	s0,28(a0)
    80002066:	e732                	sd	a2,392(sp)

0000000080002068 <reg_x13_init>:
    80002068:	258ef9d3          	0x258ef9d3
    8000206c:	cfd2                	sw	s4,220(sp)
    8000206e:	          	0xff850d33

0000000080002070 <reg_x14_init>:
    80002070:	ff85                	bnez	a5,80001fa8 <fromhost+0xf68>
    80002072:	ffff                	0xffff
    80002074:	ffff                	0xffff
    80002076:	ffff                	0xffff

0000000080002078 <reg_x15_init>:
    80002078:	da51                	beqz	a2,8000200c <reg_x1_init+0x4>
    8000207a:	7a41                	lui	s4,0xffff0
    8000207c:	fa41                	bnez	a2,8000200c <reg_x1_init+0x4>
    8000207e:	5390                	lw	a2,32(a5)

0000000080002080 <reg_x16_init>:
	...

0000000080002088 <reg_x17_init>:
    80002088:	4008                	lw	a0,0(s0)
    8000208a:	257c                	fld	fa5,200(a0)
    8000208c:	50ce                	lw	ra,240(sp)
    8000208e:	3b45                	addiw	s6,s6,-15

0000000080002090 <reg_x18_init>:
    80002090:	5415                	li	s0,-27
    80002092:	8308                	0x8308
    80002094:	7cb6                	ld	s9,360(sp)
    80002096:	          	0xffff3963

0000000080002098 <reg_x19_init>:
    80002098:	ffff                	0xffff
    8000209a:	ffff                	0xffff
    8000209c:	ffff                	0xffff
    8000209e:	ffff                	0xffff

00000000800020a0 <reg_x20_init>:
    800020a0:	ffff                	0xffff
    800020a2:	ffff                	0xffff
    800020a4:	ffff                	0xffff
    800020a6:	ffff                	0xffff

00000000800020a8 <reg_x21_init>:
    800020a8:	ffff                	0xffff
    800020aa:	ffff                	0xffff
    800020ac:	ffff                	0xffff
    800020ae:	ffff                	0xffff

00000000800020b0 <reg_x22_init>:
    800020b0:	80000007          	0x80000007
    800020b4:	ffff                	0xffff
    800020b6:	ffff                	0xffff

00000000800020b8 <reg_x23_init>:
    800020b8:	80000007          	0x80000007
    800020bc:	ffff                	0xffff
    800020be:	ffff                	0xffff

00000000800020c0 <reg_x24_init>:
    800020c0:	ffff                	0xffff
    800020c2:	ffff                	0xffff
    800020c4:	ffff                	0xffff
    800020c6:	ffff                	0xffff

00000000800020c8 <reg_x25_init>:
    800020c8:	ffff                	0xffff
    800020ca:	ffff                	0xffff
    800020cc:	ffff                	0xffff
    800020ce:	ffff                	0xffff

00000000800020d0 <reg_x26_init>:
    800020d0:	0004                	0x4
    800020d2:	0000                	unimp
    800020d4:	0000                	unimp
	...

00000000800020d8 <reg_x27_init>:
    800020d8:	77199d7b          	0x77199d7b
    800020dc:	d099                	beqz	s1,80001fe2 <fromhost+0xfa2>
    800020de:	0460                	addi	s0,sp,524

00000000800020e0 <reg_x28_init>:
	...

00000000800020e8 <reg_x29_init>:
	...

00000000800020f0 <reg_x30_init>:
    800020f0:	8006                	c.mv	zero,ra
    800020f2:	ffff                	0xffff
    800020f4:	ffff                	0xffff
    800020f6:	ffff                	0xffff

00000000800020f8 <reg_x31_init>:
    800020f8:	5811                	li	a6,-28
    800020fa:	1136                	slli	sp,sp,0x2d
    800020fc:	7730                	ld	a2,104(a4)
    800020fe:	fbf9                	bnez	a5,800020d4 <reg_x26_init+0x4>

0000000080002100 <begin_signature>:
    80002100:	c7c7dfaf          	0xc7c7dfaf
    80002104:	8fc92bd7          	0x8fc92bd7

0000000080002108 <reg_x1_output>:
    80002108:	589e                	lw	a7,228(sp)
    8000210a:	7ca4                	ld	s1,120(s1)
    8000210c:	6979                	lui	s2,0x1e
    8000210e:	          	0x9c1678a3

0000000080002110 <reg_x2_output>:
    80002110:	9c16                	add	s8,s8,t0
    80002112:	003c                	addi	a5,sp,8
    80002114:	bdad                	j	80001f8e <fromhost+0xf4e>
    80002116:	340d                	addiw	s0,s0,-29

0000000080002118 <reg_x3_output>:
    80002118:	1ce8                	addi	a0,sp,636
    8000211a:	07b6                	slli	a5,a5,0xd
    8000211c:	a1d0                	fsd	fa2,128(a1)
    8000211e:	f459                	bnez	s0,800020ac <reg_x21_init+0x4>

0000000080002120 <reg_x4_output>:
    80002120:	6058                	ld	a4,128(s0)
    80002122:	655d3ad7          	0x655d3ad7
    80002126:	9b38                	0x9b38

0000000080002128 <reg_x5_output>:
    80002128:	5db6                	lw	s11,108(sp)
    8000212a:	f0505ed3          	0xf0505ed3
    8000212e:	6008                	ld	a0,0(s0)

0000000080002130 <reg_x6_output>:
    80002130:	d912                	sw	tp,176(sp)
    80002132:	23c92adb          	0x23c92adb
    80002136:	c6f0                	sw	a2,76(a3)

0000000080002138 <reg_x7_output>:
    80002138:	70ff8b8b          	0x70ff8b8b
    8000213c:	00a2                	slli	ra,ra,0x8
    8000213e:	          	0xc301549b

0000000080002140 <reg_x8_output>:
    80002140:	c301                	beqz	a4,80002140 <reg_x8_output>
    80002142:	67e64f07          	flq	ft10,1662(a2)
    80002146:	f3be                	sd	a5,480(sp)

0000000080002148 <reg_x9_output>:
    80002148:	ec3a                	sd	a4,24(sp)
    8000214a:	6f3b6ba7          	0x6f3b6ba7
    8000214e:	eebd                	bnez	a3,800021cc <reg_x25_output+0x4>

0000000080002150 <reg_x10_output>:
    80002150:	85b4                	0x85b4
    80002152:	014e                	slli	sp,sp,0x13
    80002154:	634a73c3          	fmadd.d	ft7,fs4,fs4,fa2

0000000080002158 <reg_x11_output>:
    80002158:	162116bb          	0x162116bb
    8000215c:	c4b06003          	lwu	zero,-949(zero) # fffffffffffffc4b <__global_pointer$+0xffffffff7fffce3b>

0000000080002160 <reg_x12_output>:
    80002160:	4582                	lw	a1,0(sp)
    80002162:	8dca63a7          	0x8dca63a7
    80002166:	          	0xd8420d77

0000000080002168 <reg_x13_output>:
    80002168:	d842                	sw	a6,48(sp)
    8000216a:	4a5f 5b37 0315      	0x3155b374a5f

0000000080002170 <reg_x14_output>:
    80002170:	a0bd                	j	800021de <reg_x27_output+0x6>
    80002172:	1455                	addi	s0,s0,-11
    80002174:	8245                	srli	a2,a2,0x11
    80002176:	ab5e                	fsd	fs7,400(sp)

0000000080002178 <reg_x15_output>:
    80002178:	d68d                	beqz	a3,800020a2 <reg_x20_init+0x2>
    8000217a:	41b2                	lw	gp,12(sp)
    8000217c:	0dd4948f          	0xdd4948f

0000000080002180 <reg_x16_output>:
    80002180:	d5e48c27          	0xd5e48c27
    80002184:	a79f3923          	sd	s9,-1422(t5)

0000000080002188 <reg_x17_output>:
    80002188:	837d                	srli	a4,a4,0x1f
    8000218a:	00a182c3          	fmadd.s	ft5,ft3,fa0,ft0,rne
    8000218e:	3aed                	addiw	s5,s5,-5

0000000080002190 <reg_x18_output>:
    80002190:	02a4                	addi	s1,sp,328
    80002192:	9e8e                	add	t4,t4,gp
    80002194:	63fc                	ld	a5,192(a5)
    80002196:	          	0x35e8340f

0000000080002198 <reg_x19_output>:
    80002198:	35e8                	fld	fa0,232(a1)
    8000219a:	b37a                	fsd	ft10,416(sp)
    8000219c:	dc88                	sw	a0,56(s1)
    8000219e:	9b65                	andi	a4,a4,-7

00000000800021a0 <reg_x20_output>:
    800021a0:	7c31                	lui	s8,0xfffec
    800021a2:	f741                	bnez	a4,8000212a <reg_x5_output+0x2>
    800021a4:	8852                	mv	a6,s4
    800021a6:	          	auipc	gp,0x7bad5

00000000800021a8 <reg_x21_output>:
    800021a8:	7bad                	lui	s7,0xfffeb
    800021aa:	feca                	sd	s2,376(sp)
    800021ac:	8bc2                	mv	s7,a6
    800021ae:	80de                	mv	ra,s7

00000000800021b0 <reg_x22_output>:
    800021b0:	6014                	ld	a3,0(s0)
    800021b2:	8f26                	mv	t5,s1
    800021b4:	ea19                	bnez	a2,800021ca <reg_x25_output+0x2>
    800021b6:	bc5f        	0x1129f908bc5f

00000000800021b8 <reg_x23_output>:
    800021b8:	f908                	sd	a0,48(a0)
    800021ba:	1129                	addi	sp,sp,-22
    800021bc:	f058                	sd	a4,160(s0)
    800021be:	          	0xe655dea3

00000000800021c0 <reg_x24_output>:
    800021c0:	e655                	bnez	a2,8000226c <test_memory+0x6c>
    800021c2:	3c96                	fld	fs9,352(sp)
    800021c4:	1a7a                	slli	s4,s4,0x3e
    800021c6:	          	0x6926f083

00000000800021c8 <reg_x25_output>:
    800021c8:	6926                	ld	s2,72(sp)
    800021ca:	67c5                	lui	a5,0x11
    800021cc:	a140                	fsd	fs0,128(a0)
    800021ce:	8a00                	0x8a00

00000000800021d0 <reg_x26_output>:
    800021d0:	1c6c                	addi	a1,sp,572
    800021d2:	2ed2d363          	bge	t0,a3,800024b8 <test_memory+0x2b8>
    800021d6:	6294                	ld	a3,0(a3)

00000000800021d8 <reg_x27_output>:
    800021d8:	93fc                	0x93fc
    800021da:	23ac                	fld	fa1,64(a5)
    800021dc:	a304                	fsd	fs1,0(a4)
    800021de:	          	jal	a7,800b39f0 <__global_pointer$+0xb0be0>

00000000800021e0 <reg_x28_output>:
    800021e0:	b8f3013b          	0xb8f3013b
    800021e4:	e400                	sd	s0,8(s0)
    800021e6:	5fa2                	lw	t6,40(sp)

00000000800021e8 <reg_x29_output>:
    800021e8:	2c674d53          	0x2c674d53
    800021ec:	86a5                	srai	a3,a3,0x9
    800021ee:	          	0xec3ef6af

00000000800021f0 <reg_x30_output>:
    800021f0:	ec3e                	sd	a5,24(sp)
    800021f2:	9cd9                	0x9cd9
    800021f4:	31df 2248       	0xd127224831df

00000000800021f8 <reg_x31_output>:
    800021f8:	e9f2d127          	0xe9f2d127
    800021fc:	12bc                	addi	a5,sp,360
    800021fe:	a52e                	fsd	fa1,136(sp)

0000000080002200 <test_memory>:
    80002200:	b400                	fsd	fs0,40(s0)
    80002202:	56dc                	lw	a5,44(a3)
    80002204:	1312                	slli	t1,t1,0x24
    80002206:	99ea                	add	s3,s3,s10
    80002208:	1132                	slli	sp,sp,0x2c
    8000220a:	8e48                	0x8e48
    8000220c:	d722dae3          	bge	t0,s2,80001f80 <fromhost+0xf40>
    80002210:	47d0                	lw	a2,12(a5)
    80002212:	84ff758f          	0x84ff758f
    80002216:	3f0d                	addiw	t5,t5,-29
    80002218:	c7c2                	sw	a6,204(sp)
    8000221a:	ef80                	sd	s0,24(a5)
    8000221c:	6954                	ld	a3,144(a0)
    8000221e:	8b31                	andi	a4,a4,12
    80002220:	b0b4                	fsd	fa3,96(s1)
    80002222:	49c5                	li	s3,17
    80002224:	041c                	addi	a5,sp,512
    80002226:	777a                	ld	a4,440(sp)
    80002228:	8eba63d3          	0x8eba63d3
    8000222c:	ead1decf          	fnmadd.d	ft9,ft3,fa3,ft9,unknown
    80002230:	ad9e                	fsd	ft7,216(sp)
    80002232:	2e5f 0870 5f62      	0x5f6208702e5f
    80002238:	2259                	addiw	tp,tp,22
    8000223a:	2cc12233          	0x2cc12233
    8000223e:	e249                	bnez	a2,800022c0 <test_memory+0xc0>
    80002240:	5edd                	li	t4,-9
    80002242:	e0b5                	bnez	s1,800022a6 <test_memory+0xa6>
    80002244:	edf84653          	0xedf84653
    80002248:	e8dc                	sd	a5,144(s1)
    8000224a:	f40e                	sd	gp,40(sp)
    8000224c:	4da0                	lw	s0,88(a1)
    8000224e:	0fe8                	addi	a0,sp,988
    80002250:	b4d6                	fsd	fs5,104(sp)
    80002252:	175e                	slli	a4,a4,0x37
    80002254:	b77a                	fsd	ft10,424(sp)
    80002256:	0411                	addi	s0,s0,4
    80002258:	b54a                	fsd	fs2,168(sp)
    8000225a:	97f6                	add	a5,a5,t4
    8000225c:	1f9a                	slli	t6,t6,0x26
    8000225e:	4a5c                	lw	a5,20(a2)
    80002260:	3a7695f3          	csrrw	a1,0x3a7,a3
    80002264:	eef0b02f          	0xeef0b02f
    80002268:	b708                	fsd	fa0,40(a4)
    8000226a:	e99e                	sd	t2,208(sp)
    8000226c:	c572                	sw	t3,136(sp)
    8000226e:	fe4d                	bnez	a2,80002228 <test_memory+0x28>
    80002270:	efda                	sd	s6,472(sp)
    80002272:	7d15                	lui	s10,0xfffe5
    80002274:	84e4                	0x84e4
    80002276:	b855                	j	80001b2a <fromhost+0xaea>
    80002278:	6549                	lui	a0,0x12
    8000227a:	526c                	lw	a1,100(a2)
    8000227c:	8d2db1a3          	sd	s2,-1853(s11)
    80002280:	27e2                	fld	fa5,24(sp)
    80002282:	5ad2                	lw	s5,52(sp)
    80002284:	83ea                	mv	t2,s10
    80002286:	73b5                	lui	t2,0xfffed
    80002288:	ee3726a3          	sw	gp,-275(a4)
    8000228c:	bfc5                	j	8000227c <test_memory+0x7c>
    8000228e:	9801                	andi	s0,s0,-32
    80002290:	9ec2                	add	t4,t4,a6
    80002292:	18cd                	addi	a7,a7,-13
    80002294:	477c                	lw	a5,76(a4)
    80002296:	cf41                	beqz	a4,8000232e <test_memory+0x12e>
    80002298:	5ddf 13b3 0039      	0x3913b35ddf
    8000229e:	4bb1                	li	s7,12
    800022a0:	c7a03b8b          	0xc7a03b8b
    800022a4:	a401                	j	800024a4 <test_memory+0x2a4>
    800022a6:	f010026f          	jal	tp,7ff031a6 <_start-0xfce5a>
    800022aa:	ddc0                	sw	s0,60(a1)
    800022ac:	19fe                	slli	s3,s3,0x3f
    800022ae:	cece                	sw	s3,92(sp)
    800022b0:	fd4931d7          	0xfd4931d7
    800022b4:	c352b693          	sltiu	a3,t0,-971
    800022b8:	97e6                	add	a5,a5,s9
    800022ba:	66e4c4d3          	0x66e4c4d3
    800022be:	7742758b          	0x7742758b
    800022c2:	23ba                	fld	ft7,392(sp)
    800022c4:	d7bc                	sw	a5,104(a5)
    800022c6:	fc50                	sd	a2,184(s0)
    800022c8:	e43c9a43          	0xe43c9a43
    800022cc:	2de5                	addiw	s11,s11,25
    800022ce:	5d92                	lw	s11,36(sp)
    800022d0:	9c19                	subw	s0,s0,a4
    800022d2:	8ca1                	xor	s1,s1,s0
    800022d4:	767e                	ld	a2,504(sp)
    800022d6:	b00f5533          	0xb00f5533
    800022da:	c382                	sw	zero,196(sp)
    800022dc:	2b289fcf          	fnmadd.d	ft11,fa7,fs2,ft5,rtz
    800022e0:	fb51                	bnez	a4,80002274 <test_memory+0x74>
    800022e2:	3518                	fld	fa4,40(a0)
    800022e4:	1f9e                	slli	t6,t6,0x27
    800022e6:	511a                	lw	sp,164(sp)
    800022e8:	3948                	fld	fa0,176(a0)
    800022ea:	116e                	slli	sp,sp,0x3b
    800022ec:	59a87a27          	0x59a87a27
    800022f0:	75ba                	ld	a1,424(sp)
    800022f2:	35192f27          	fsw	fa7,862(s2) # 1e35e <_start-0x7ffe1ca2>
    800022f6:	5700                	lw	s0,40(a4)
    800022f8:	0d5c                	addi	a5,sp,660
    800022fa:	aa3d                	j	80002438 <test_memory+0x238>
    800022fc:	95027447          	0x95027447
    80002300:	2c74                	fld	fa3,216(s0)
    80002302:	62a4                	ld	s1,64(a3)
    80002304:	19f4                	addi	a3,sp,252
    80002306:	c868                	sw	a0,84(s0)
    80002308:	7cba                	ld	s9,424(sp)
    8000230a:	15d2                	slli	a1,a1,0x34
    8000230c:	dad1                	beqz	a3,800022a0 <test_memory+0xa0>
    8000230e:	ef28                	sd	a0,88(a4)
    80002310:	eea1                	bnez	a3,80002368 <test_memory+0x168>
    80002312:	d676                	sw	t4,44(sp)
    80002314:	d63c                	sw	a5,104(a2)
    80002316:	a9a6                	fsd	fs1,208(sp)
    80002318:	57a6                	lw	a5,104(sp)
    8000231a:	caed                	beqz	a3,8000240c <test_memory+0x20c>
    8000231c:	2cfdfd3f fd854e5c 	0xfd854e5c2cfdfd3f
    80002324:	ed77774b          	0xed77774b
    80002328:	0e4c                	addi	a1,sp,788
    8000232a:	51d96ab7          	lui	s5,0x51d96
    8000232e:	7109                	addi	sp,sp,-384
    80002330:	90e8                	0x90e8
    80002332:	b04bd327          	0xb04bd327
    80002336:	522d                	li	tp,-21
    80002338:	3e18                	fld	fa4,56(a2)
    8000233a:	a19c                	fsd	fa5,0(a1)
    8000233c:	73cc                	ld	a1,160(a5)
    8000233e:	f100                	sd	s0,32(a0)
    80002340:	ee2c                	sd	a1,88(a2)
    80002342:	98ff                	0x98ff
    80002344:	7ef9                	lui	t4,0xffffe
    80002346:	4044ce53          	0x4044ce53
    8000234a:	c890                	sw	a2,16(s1)
    8000234c:	445f5f97          	auipc	t6,0x445f5
    80002350:	d35f 26c1 d8ac      	0xd8ac26c1d35f
    80002356:	b4f5                	j	80001e42 <fromhost+0xe02>
    80002358:	8db2                	mv	s11,a2
    8000235a:	f9e2                	sd	s8,240(sp)
    8000235c:	91a9                	srli	a1,a1,0x2a
    8000235e:	f81d                	bnez	s0,80002294 <test_memory+0x94>
    80002360:	1cff                	0x1cff
    80002362:	4b1e                	lw	s6,196(sp)
    80002364:	a395                	j	800028c8 <_end+0x2b8>
    80002366:	2ba0                	fld	fs0,80(a5)
    80002368:	57e60bfb          	0x57e60bfb
    8000236c:	eb49                	bnez	a4,800023fe <test_memory+0x1fe>
    8000236e:	7c071443          	0x7c071443
    80002372:	46e4                	lw	s1,76(a3)
    80002374:	f54a8047          	0xf54a8047
    80002378:	5f1797c7          	fmsub.q	fa5,fa5,fa7,fa1,rtz
    8000237c:	81b5                	srli	a1,a1,0xd
    8000237e:	ee01                	bnez	a2,80002396 <test_memory+0x196>
    80002380:	7a60                	ld	s0,240(a2)
    80002382:	efb9                	bnez	a5,800023e0 <test_memory+0x1e0>
    80002384:	6a752777          	0x6a752777
    80002388:	605e                	0x605e
    8000238a:	7a72                	ld	s4,312(sp)
    8000238c:	bb8c                	fsd	fa1,48(a5)
    8000238e:	d2972a1b          	0xd2972a1b
    80002392:	600839c3          	fmadd.s	fs3,fa6,ft0,fa2,rup
    80002396:	e87f2fcf          	fnmadd.s	ft11,ft10,ft7,ft9,rdn
    8000239a:	b475                	j	80001e46 <fromhost+0xe06>
    8000239c:	0a78606f          	j	80088c42 <__global_pointer$+0x85e32>
    800023a0:	6eab0ecf          	fnmadd.q	ft9,fs6,fa0,fa3,rne
    800023a4:	d142                	sw	a6,160(sp)
    800023a6:	95f1                	srai	a1,a1,0x3c
    800023a8:	c070                	sw	a2,68(s0)
    800023aa:	634a                	ld	t1,144(sp)
    800023ac:	7ee6                	ld	t4,120(sp)
    800023ae:	bc46                	fsd	fa7,56(sp)
    800023b0:	a2f9                	j	8000257e <test_memory+0x37e>
    800023b2:	0f6c                	addi	a1,sp,924
    800023b4:	3562                	fld	fa0,56(sp)
    800023b6:	c6a0                	sw	s0,72(a3)
    800023b8:	4d56                	lw	s10,84(sp)
    800023ba:	7fb0                	ld	a2,120(a5)
    800023bc:	4c81                	li	s9,0
    800023be:	3535                	addiw	a0,a0,-19
    800023c0:	952bf643          	0x952bf643
    800023c4:	b055                	j	80001c68 <fromhost+0xc28>
    800023c6:	028c                	addi	a1,sp,320
    800023c8:	31c6                	fld	ft3,112(sp)
    800023ca:	643ef62f          	0x643ef62f
    800023ce:	8376                	mv	t1,t4
    800023d0:	0fce                	slli	t6,t6,0x13
    800023d2:	fe75                	bnez	a2,800023ce <test_memory+0x1ce>
    800023d4:	3e334ec7          	fmsub.q	ft9,ft6,ft3,ft7,rmm
    800023d8:	85b12b9b          	0x85b12b9b
    800023dc:	0731                	addi	a4,a4,12
    800023de:	daa3283b          	0xdaa3283b
    800023e2:	49b0                	lw	a2,80(a1)
    800023e4:	f15c                	sd	a5,160(a0)
    800023e6:	7b09b13f 43618f58 	0x43618f587b09b13f
    800023ee:	ed32                	sd	a2,152(sp)
    800023f0:	34e6                	fld	fs1,120(sp)
    800023f2:	d605                	beqz	a2,8000231a <test_memory+0x11a>
    800023f4:	2835                	addiw	a6,a6,13
    800023f6:	3a51                	addiw	s4,s4,-12
    800023f8:	26f2                	fld	fa3,280(sp)
    800023fa:	d67e                	sw	t6,44(sp)
    800023fc:	24f0                	fld	fa2,200(s1)
    800023fe:	8d88                	0x8d88
    80002400:	3e4c                	fld	fa1,184(a2)
    80002402:	c0ca                	sw	s2,64(sp)
    80002404:	c2bd                	beqz	a3,8000246a <test_memory+0x26a>
    80002406:	650e                	ld	a0,192(sp)
    80002408:	b278                	fsd	fa4,224(a2)
    8000240a:	665f 5580 d044      	0xd0445580665f
    80002410:	99ca                	add	s3,s3,s2
    80002412:	0a61                	addi	s4,s4,24
    80002414:	02b317a7          	0x2b317a7
    80002418:	17d2                	slli	a5,a5,0x34
    8000241a:	4a7a                	lw	s4,156(sp)
    8000241c:	cdd1                	beqz	a1,800024b8 <test_memory+0x2b8>
    8000241e:	46e8                	lw	a0,76(a3)
    80002420:	968e                	add	a3,a3,gp
    80002422:	492be0d3          	0x492be0d3
    80002426:	7992                	ld	s3,288(sp)
    80002428:	38191c63          	bne	s2,ra,800027c0 <_end+0x1b0>
    8000242c:	7dad                	lui	s11,0xfffeb
    8000242e:	74329e17          	auipc	t3,0x74329
    80002432:	5c61                	li	s8,-8
    80002434:	099c                	addi	a5,sp,208
    80002436:	5208971b          	0x5208971b
    8000243a:	c07f                	0xc07f
    8000243c:	49100e07          	0x49100e07
    80002440:	317b362f          	0x317b362f
    80002444:	a419                	j	8000264a <_end+0x3a>
    80002446:	ed80                	sd	s0,24(a1)
    80002448:	59b1                	li	s3,-20
    8000244a:	c47c                	sw	a5,76(s0)
    8000244c:	2161                	addiw	sp,sp,24
    8000244e:	aa45                	j	800025fe <test_memory+0x3fe>
    80002450:	ff7aba8f          	0xff7aba8f
    80002454:	4d9a                	lw	s11,132(sp)
    80002456:	c2f6                	sw	t4,68(sp)
    80002458:	3b32                	fld	fs6,296(sp)
    8000245a:	218c                	fld	fa1,0(a1)
    8000245c:	b55ab66f          	jal	a2,7ffadfb0 <_start-0x52050>
    80002460:	07e6                	slli	a5,a5,0x19
    80002462:	8b6d                	andi	a4,a4,27
    80002464:	023a                	slli	tp,tp,0xe
    80002466:	c060                	sw	s0,68(s0)
    80002468:	76f3e65b          	0x76f3e65b
    8000246c:	90f9                	srli	s1,s1,0x3e
    8000246e:	47d5                	li	a5,21
    80002470:	0682                	c.slli64	a3
    80002472:	2d4e                	fld	fs10,208(sp)
    80002474:	72ae                	ld	t0,232(sp)
    80002476:	d0dd                	beqz	s1,8000241c <test_memory+0x21c>
    80002478:	3145                	addiw	sp,sp,-15
    8000247a:	4bfc                	lw	a5,84(a5)
    8000247c:	cd05                	beqz	a0,800024b4 <test_memory+0x2b4>
    8000247e:	27dd                	addiw	a5,a5,23
    80002480:	18e1                	addi	a7,a7,-8
    80002482:	3baa                	fld	fs7,168(sp)
    80002484:	c60e                	sw	gp,12(sp)
    80002486:	e7eeb6d7          	0xe7eeb6d7
    8000248a:	40ad                	li	ra,11
    8000248c:	0035                	c.nop	13
    8000248e:	29f5                	addiw	s3,s3,29
    80002490:	48dc4763          	blt	s8,a3,8000291e <_end+0x30e>
    80002494:	33e0                	fld	fs0,224(a5)
    80002496:	c1087683          	0xc1087683
    8000249a:	8d86                	mv	s11,ra
    8000249c:	81a28d6b          	0x81a28d6b
    800024a0:	f340                	sd	s0,160(a4)
    800024a2:	7556                	ld	a0,368(sp)
    800024a4:	ba52                	fsd	fs4,304(sp)
    800024a6:	d551                	beqz	a0,80002432 <test_memory+0x232>
    800024a8:	4c0d                	li	s8,3
    800024aa:	45c8                	lw	a0,12(a1)
    800024ac:	ac1f0eb7          	lui	t4,0xac1f0
    800024b0:	0ed044bb          	0xed044bb
    800024b4:	74c4                	ld	s1,168(s1)
    800024b6:	51e4                	lw	s1,100(a1)
    800024b8:	407f2c97          	auipc	s9,0x407f2
    800024bc:	f96a                	sd	s10,176(sp)
    800024be:	d131                	beqz	a0,80002402 <test_memory+0x202>
    800024c0:	bc0ac897          	auipc	a7,0xbc0ac
    800024c4:	5688                	lw	a0,40(a3)
    800024c6:	64dd                	lui	s1,0x17
    800024c8:	36ed                	addiw	a3,a3,-5
    800024ca:	7f72                	ld	t5,312(sp)
    800024cc:	e089                	bnez	s1,800024ce <test_memory+0x2ce>
    800024ce:	6402                	ld	s0,0(sp)
    800024d0:	f0ca                	sd	s2,96(sp)
    800024d2:	d385                	beqz	a5,800023f2 <test_memory+0x1f2>
    800024d4:	4ded                	li	s11,27
    800024d6:	41e0d8cb          	fnmsub.s	fa7,ft1,ft10,fs0,unknown
    800024da:	760e                	ld	a2,224(sp)
    800024dc:	f96a                	sd	s10,176(sp)
    800024de:	5dd1                	li	s11,-12
    800024e0:	6c70                	ld	a2,216(s0)
    800024e2:	67e9                	lui	a5,0x1a
    800024e4:	137a                	slli	t1,t1,0x3e
    800024e6:	c1d82287          	flw	ft5,-995(a6)
    800024ea:	de5c                	sw	a5,60(a2)
    800024ec:	a5a1c697          	auipc	a3,0xa5a1c
    800024f0:	8b02                	jr	s6
    800024f2:	7ab9                	lui	s5,0xfffee
    800024f4:	ebf72977          	0xebf72977
    800024f8:	8129                	srli	a0,a0,0xa
    800024fa:	5460                	lw	s0,108(s0)
    800024fc:	0cf9                	addi	s9,s9,30
    800024fe:	4416                	lw	s0,68(sp)
    80002500:	84121ec7          	0x84121ec7
    80002504:	cfb0                	sw	a2,88(a5)
    80002506:	4d95                	li	s11,5
    80002508:	ca1509ab          	0xca1509ab
    8000250c:	7731                	lui	a4,0xfffec
    8000250e:	706a                	0x706a
    80002510:	9289                	srli	a3,a3,0x22
    80002512:	a808                	fsd	fa0,16(s0)
    80002514:	ef7c                	sd	a5,216(a4)
    80002516:	9388577b          	0x9388577b
    8000251a:	f502                	sd	zero,168(sp)
    8000251c:	8b48                	0x8b48
    8000251e:	84a5                	srai	s1,s1,0x9
    80002520:	268c                	fld	fa1,8(a3)
    80002522:	0f2d                	addi	t5,t5,11
    80002524:	43fc                	lw	a5,68(a5)
    80002526:	a560                	fsd	fs0,200(a0)
    80002528:	13218d57          	0x13218d57
    8000252c:	d68c                	sw	a1,40(a3)
    8000252e:	9252                	add	tp,tp,s4
    80002530:	a2ae88bb          	0xa2ae88bb
    80002534:	429f 6a2a 116a      	0x116a6a2a429f
    8000253a:	1ce6                	slli	s9,s9,0x39
    8000253c:	73b1                	lui	t2,0xfffec
    8000253e:	e059                	bnez	s0,800025c4 <test_memory+0x3c4>
    80002540:	3c24                	fld	fs1,120(s0)
    80002542:	1522                	slli	a0,a0,0x28
    80002544:	0bac87ef          	jal	a5,800ca5fe <__global_pointer$+0xc77ee>
    80002548:	8efcdc63          	bge	s9,a5,80001640 <fromhost+0x600>
    8000254c:	4f3d                	li	t5,15
    8000254e:	ac32                	fsd	fa2,24(sp)
    80002550:	83a6                	mv	t2,s1
    80002552:	cc868a27          	0xcc868a27
    80002556:	7612                	ld	a2,288(sp)
    80002558:	990d                	andi	a0,a0,-29
    8000255a:	1cc8                	addi	a0,sp,628
    8000255c:	ce2a                	sw	a0,28(sp)
    8000255e:	c3e95f13          	0xc3e95f13
    80002562:	3041                	0x3041
    80002564:	a661                	j	800028ec <_end+0x2dc>
    80002566:	95686ccb          	0x95686ccb
    8000256a:	bac39e47          	fmsub.d	ft8,ft7,fa2,fs7,rtz
    8000256e:	28de                	fld	fa7,464(sp)
    80002570:	908d                	srli	s1,s1,0x23
    80002572:	c4a2                	sw	s0,72(sp)
    80002574:	9a58                	0x9a58
    80002576:	7c76                	ld	s8,376(sp)
    80002578:	3505                	addiw	a0,a0,-31
    8000257a:	9bd385f7          	0x9bd385f7
    8000257e:	e8f2                	sd	t3,80(sp)
    80002580:	d8a5                	beqz	s1,800024f0 <test_memory+0x2f0>
    80002582:	bf6a                	fsd	fs10,440(sp)
    80002584:	41ec                	lw	a1,68(a1)
    80002586:	b494c2e3          	blt	s1,s1,800020ca <reg_x25_init+0x2>
    8000258a:	d9fececb          	fnmsub.s	ft9,ft9,ft11,fs11,rmm
    8000258e:	26cd                	addiw	a3,a3,19
    80002590:	e666                	sd	s9,264(sp)
    80002592:	036d                	addi	t1,t1,27
    80002594:	8945                	andi	a0,a0,17
    80002596:	7fb6                	ld	t6,360(sp)
    80002598:	24a812bb          	0x24a812bb
    8000259c:	ebc0576f          	jal	a4,7ff07c58 <_start-0xf83a8>
    800025a0:	85f8261b          	0x85f8261b
    800025a4:	4971                	li	s2,28
    800025a6:	32288617          	auipc	a2,0x32288
    800025aa:	5db1a42b          	0x5db1a42b
    800025ae:	ca3d                	beqz	a2,80002624 <_end+0x14>
    800025b0:	e85c                	sd	a5,144(s0)
    800025b2:	d4c6                	sw	a7,104(sp)
    800025b4:	c2f9                	beqz	a3,8000267a <_end+0x6a>
    800025b6:	88e9f613          	andi	a2,s3,-1906
    800025ba:	de64                	sw	s1,124(a2)
    800025bc:	05e2                	slli	a1,a1,0x18
    800025be:	a0c4                	fsd	fs1,128(s1)
    800025c0:	937e                	add	t1,t1,t6
    800025c2:	797d                	lui	s2,0xfffff
    800025c4:	bc94                	fsd	fa3,56(s1)
    800025c6:	9f85                	subw	a5,a5,s1
    800025c8:	f0fa                	sd	t5,96(sp)
    800025ca:	7f075353          	0x7f075353
    800025ce:	f84d6c23          	0xf84d6c23
    800025d2:	4a2f7db7          	lui	s11,0x4a2f7
    800025d6:	6e1fa053          	0x6e1fa053
    800025da:	a83d                	j	80002618 <_end+0x8>
    800025dc:	2952d6b7          	lui	a3,0x2952d
    800025e0:	bdf8                	fsd	fa4,248(a1)
    800025e2:	38a0                	fld	fs0,112(s1)
    800025e4:	8038                	0x8038
    800025e6:	0146                	slli	sp,sp,0x11
    800025e8:	fcf4                	sd	a3,248(s1)
    800025ea:	e612                	sd	tp,264(sp)
    800025ec:	2806                	fld	fa6,64(sp)
    800025ee:	a06a                	fsd	fs10,0(sp)
    800025f0:	194c                	addi	a1,sp,180
    800025f2:	c1ee                	sw	s11,192(sp)
    800025f4:	9796971b          	0x9796971b
    800025f8:	bf41                	j	80002588 <test_memory+0x388>
    800025fa:	549dc5c3          	0x549dc5c3
    800025fe:	62c5                	lui	t0,0x11

0000000080002600 <loop_count>:
    80002600:	0040                	addi	s0,sp,4
	...

Disassembly of section .riscv.attributes:

0000000000000000 <.riscv.attributes>:
   0:	1e41                	addi	t3,t3,-16
   2:	0000                	unimp
   4:	7200                	ld	s0,32(a2)
   6:	7369                	lui	t1,0xffffa
   8:	01007663          	bgeu	zero,a6,14 <_start-0x7fffffec>
   c:	0014                	0x14
   e:	0000                	unimp
  10:	7205                	lui	tp,0xfffe1
  12:	3676                	fld	fa2,376(sp)
  14:	6934                	ld	a3,80(a0)
  16:	7032                	0x7032
  18:	5f30                	lw	a2,120(a4)
  1a:	326d                	addiw	tp,tp,-5
  1c:	3070                	fld	fa2,224(s0)
	...
