
build/test39:     file format elf64-littleriscv


Disassembly of section .text.init:

0000000080000000 <_start>:
    80000000:	05c0006f          	j	8000005c <reset_vector>

0000000080000004 <trap_vector>:
    80000004:	34202f73          	csrr	t5,mcause
    80000008:	00800f93          	li	t6,8
    8000000c:	03ff0a63          	beq	t5,t6,80000040 <write_tohost>
    80000010:	00900f93          	li	t6,9
    80000014:	03ff0663          	beq	t5,t6,80000040 <write_tohost>
    80000018:	00b00f93          	li	t6,11
    8000001c:	03ff0263          	beq	t5,t6,80000040 <write_tohost>
    80000020:	80000f17          	auipc	t5,0x80000
    80000024:	fe0f0f13          	addi	t5,t5,-32 # 0 <_start-0x80000000>
    80000028:	000f0463          	beqz	t5,80000030 <trap_vector+0x2c>
    8000002c:	000f0067          	jr	t5
    80000030:	34202f73          	csrr	t5,mcause
    80000034:	000f5463          	bgez	t5,8000003c <handle_exception>
    80000038:	0040006f          	j	8000003c <handle_exception>

000000008000003c <handle_exception>:
    8000003c:	5391e193          	ori	gp,gp,1337

0000000080000040 <write_tohost>:
    80000040:	00001f17          	auipc	t5,0x1
    80000044:	fc3f2023          	sw	gp,-64(t5) # 80001000 <tohost>
    80000048:	000902b7          	lui	t0,0x90
    8000004c:	0012829b          	addiw	t0,t0,1
    80000050:	00c29293          	slli	t0,t0,0xc
    80000054:	0002af83          	lw	t6,0(t0) # 90000 <_start-0x7ff70000>
    80000058:	fe9ff06f          	j	80000040 <write_tohost>

000000008000005c <reset_vector>:
    8000005c:	00000093          	li	ra,0
    80000060:	00000113          	li	sp,0
    80000064:	00000193          	li	gp,0
    80000068:	00000213          	li	tp,0
    8000006c:	00000293          	li	t0,0
    80000070:	00000313          	li	t1,0
    80000074:	00000393          	li	t2,0
    80000078:	00000413          	li	s0,0
    8000007c:	00000493          	li	s1,0
    80000080:	00000513          	li	a0,0
    80000084:	00000593          	li	a1,0
    80000088:	00000613          	li	a2,0
    8000008c:	00000693          	li	a3,0
    80000090:	00000713          	li	a4,0
    80000094:	00000793          	li	a5,0
    80000098:	00000813          	li	a6,0
    8000009c:	00000893          	li	a7,0
    800000a0:	00000913          	li	s2,0
    800000a4:	00000993          	li	s3,0
    800000a8:	00000a13          	li	s4,0
    800000ac:	00000a93          	li	s5,0
    800000b0:	00000b13          	li	s6,0
    800000b4:	00000b93          	li	s7,0
    800000b8:	00000c13          	li	s8,0
    800000bc:	00000c93          	li	s9,0
    800000c0:	00000d13          	li	s10,0
    800000c4:	00000d93          	li	s11,0
    800000c8:	00000e13          	li	t3,0
    800000cc:	00000e93          	li	t4,0
    800000d0:	00000f13          	li	t5,0
    800000d4:	00000f93          	li	t6,0
    800000d8:	f1402573          	csrr	a0,mhartid
    800000dc:	00051063          	bnez	a0,800000dc <reset_vector+0x80>
    800000e0:	00000297          	auipc	t0,0x0
    800000e4:	01028293          	addi	t0,t0,16 # 800000f0 <reset_vector+0x94>
    800000e8:	30529073          	csrw	mtvec,t0
    800000ec:	18005073          	csrwi	satp,0
    800000f0:	00000297          	auipc	t0,0x0
    800000f4:	02428293          	addi	t0,t0,36 # 80000114 <reset_vector+0xb8>
    800000f8:	30529073          	csrw	mtvec,t0
    800000fc:	0010029b          	addiw	t0,zero,1
    80000100:	03529293          	slli	t0,t0,0x35
    80000104:	fff28293          	addi	t0,t0,-1
    80000108:	3b029073          	csrw	pmpaddr0,t0
    8000010c:	01f00293          	li	t0,31
    80000110:	3a029073          	csrw	pmpcfg0,t0
    80000114:	30405073          	csrwi	mie,0
    80000118:	00000297          	auipc	t0,0x0
    8000011c:	01428293          	addi	t0,t0,20 # 8000012c <reset_vector+0xd0>
    80000120:	30529073          	csrw	mtvec,t0
    80000124:	30205073          	csrwi	medeleg,0
    80000128:	30305073          	csrwi	mideleg,0
    8000012c:	00000193          	li	gp,0
    80000130:	00000297          	auipc	t0,0x0
    80000134:	ed428293          	addi	t0,t0,-300 # 80000004 <trap_vector>
    80000138:	30529073          	csrw	mtvec,t0
    8000013c:	00100513          	li	a0,1
    80000140:	01f51513          	slli	a0,a0,0x1f
    80000144:	00055c63          	bgez	a0,8000015c <reset_vector+0x100>
    80000148:	0ff0000f          	fence
    8000014c:	00100193          	li	gp,1
    80000150:	05d00893          	li	a7,93
    80000154:	00000513          	li	a0,0
    80000158:	00000073          	ecall
    8000015c:	80000297          	auipc	t0,0x80000
    80000160:	ea428293          	addi	t0,t0,-348 # 0 <_start-0x80000000>
    80000164:	00028a63          	beqz	t0,80000178 <reset_vector+0x11c>
    80000168:	10529073          	csrw	stvec,t0
    8000016c:	0000b2b7          	lui	t0,0xb
    80000170:	1092829b          	addiw	t0,t0,265
    80000174:	30229073          	csrw	medeleg,t0
    80000178:	30005073          	csrwi	mstatus,0
    8000017c:	00000297          	auipc	t0,0x0
    80000180:	01428293          	addi	t0,t0,20 # 80000190 <reset_vector+0x134>
    80000184:	34129073          	csrw	mepc,t0
    80000188:	f1402573          	csrr	a0,mhartid
    8000018c:	30200073          	mret
    80000190:	0200006f          	j	800001b0 <test_start>

0000000080000194 <crash_backward>:
    80000194:	0ff0000f          	fence
    80000198:	00018063          	beqz	gp,80000198 <crash_backward+0x4>
    8000019c:	00119193          	slli	gp,gp,0x1
    800001a0:	0011e193          	ori	gp,gp,1
    800001a4:	05d00893          	li	a7,93
    800001a8:	00018513          	mv	a0,gp
    800001ac:	00000073          	ecall

00000000800001b0 <test_start>:
    800001b0:	00002f97          	auipc	t6,0x2
    800001b4:	e50f8f93          	addi	t6,t6,-432 # 80002000 <hidden_data>
    800001b8:	000fb003          	ld	zero,0(t6)
    800001bc:	008fb083          	ld	ra,8(t6)
    800001c0:	010fb103          	ld	sp,16(t6)
    800001c4:	018fb183          	ld	gp,24(t6)
    800001c8:	020fb203          	ld	tp,32(t6)
    800001cc:	028fb283          	ld	t0,40(t6)
    800001d0:	030fb303          	ld	t1,48(t6)
    800001d4:	038fb383          	ld	t2,56(t6)
    800001d8:	040fb403          	ld	s0,64(t6)
    800001dc:	048fb483          	ld	s1,72(t6)
    800001e0:	050fb503          	ld	a0,80(t6)
    800001e4:	058fb583          	ld	a1,88(t6)
    800001e8:	060fb603          	ld	a2,96(t6)
    800001ec:	068fb683          	ld	a3,104(t6)
    800001f0:	070fb703          	ld	a4,112(t6)
    800001f4:	078fb783          	ld	a5,120(t6)
    800001f8:	080fb803          	ld	a6,128(t6)
    800001fc:	088fb883          	ld	a7,136(t6)
    80000200:	090fb903          	ld	s2,144(t6)
    80000204:	098fb983          	ld	s3,152(t6)
    80000208:	0a0fba03          	ld	s4,160(t6)
    8000020c:	0a8fba83          	ld	s5,168(t6)
    80000210:	0b0fbb03          	ld	s6,176(t6)
    80000214:	0b8fbb83          	ld	s7,184(t6)
    80000218:	0c0fbc03          	ld	s8,192(t6)
    8000021c:	0c8fbc83          	ld	s9,200(t6)
    80000220:	0d0fbd03          	ld	s10,208(t6)
    80000224:	0d8fbd83          	ld	s11,216(t6)
    80000228:	0e0fbe03          	ld	t3,224(t6)
    8000022c:	0e8fbe83          	ld	t4,232(t6)
    80000230:	0f0fbf03          	ld	t5,240(t6)
    80000234:	0f8fbf83          	ld	t6,248(t6)
    80000238:	0040006f          	j	8000023c <pseg_0>

000000008000023c <pseg_0>:
    8000023c:	00c60ebb          	addw	t4,a2,a2
    80000240:	ca700193          	li	gp,-857
    80000244:	afa00693          	li	a3,-1286
    80000248:	00100493          	li	s1,1
    8000024c:	00100b93          	li	s7,1
    80000250:	00100a13          	li	s4,1
    80000254:	03cf43bb          	divw	t2,t5,t3
    80000258:	03e9dd33          	divu	s10,s3,t5
    8000025c:	03fa1a13          	slli	s4,s4,0x3f
    80000260:	00c8533b          	srlw	t1,a6,a2
    80000264:	00000f13          	li	t5,0
    80000268:	35000113          	li	sp,848
    8000026c:	002117bb          	sllw	a5,sp,sp
    80000270:	e0d68613          	addi	a2,a3,-499
    80000274:	03f49493          	slli	s1,s1,0x3f
    80000278:	86600c13          	li	s8,-1946
    8000027c:	a11c0513          	addi	a0,s8,-1519
    80000280:	72844a63          	blt	s0,s0,800009b4 <crash_forward>
    80000284:	00002317          	auipc	t1,0x2
    80000288:	9e530313          	addi	t1,t1,-1563 # 80001c69 <fromhost+0xc29>
    8000028c:	72109463          	bne	ra,ra,800009b4 <crash_forward>
    80000290:	f18552e3          	bge	a0,s8,80000194 <crash_backward>
    80000294:	1ae00093          	li	ra,430
    80000298:	fff00913          	li	s2,-1
    8000029c:	00000993          	li	s3,0
    800002a0:	75935783          	lhu	a5,1881(t1)
    800002a4:	00002697          	auipc	a3,0x2
    800002a8:	e8168693          	addi	a3,a3,-383 # 80002125 <reg_x4_output+0x5>
    800002ac:	01494933          	xor	s2,s2,s4
    800002b0:	01aa8333          	add	t1,s5,s10
    800002b4:	44d00d13          	li	s10,1101
    800002b8:	4ad69103          	lh	sp,1197(a3)
    800002bc:	00a572b3          	and	t0,a0,a0
    800002c0:	0318f733          	remu	a4,a7,a7
    800002c4:	8f700c13          	li	s8,-1801
    800002c8:	f0b00f13          	li	t5,-245
    800002cc:	00002317          	auipc	t1,0x2
    800002d0:	cce30313          	addi	t1,t1,-818 # 80001f9a <fromhost+0xf5a>
    800002d4:	03fb9b93          	slli	s7,s7,0x3f
    800002d8:	7bb00e93          	li	t4,1979
    800002dc:	03ec17b3          	mulh	a5,s8,t5
    800002e0:	02e716b3          	mulh	a3,a4,a4
    800002e4:	fff00c93          	li	s9,-1
    800002e8:	44e32983          	lw	s3,1102(t1)
    800002ec:	9bf00213          	li	tp,-1601
    800002f0:	012d75b3          	and	a1,s10,s2
    800002f4:	48a00613          	li	a2,1162
    800002f8:	5b160513          	addi	a0,a2,1457
    800002fc:	c9000313          	li	t1,-880
    80000300:	ee400f13          	li	t5,-284
    80000304:	0031d8b3          	srl	a7,gp,gp
    80000308:	6c700c13          	li	s8,1735
    8000030c:	512c0793          	addi	a5,s8,1298
    80000310:	0145eab3          	or	s5,a1,s4
    80000314:	6bc00893          	li	a7,1724
    80000318:	22a00293          	li	t0,554
    8000031c:	96f00713          	li	a4,-1681
    80000320:	01dd13b3          	sll	t2,s10,t4
    80000324:	03e306bb          	mulw	a3,t1,t5
    80000328:	fff00413          	li	s0,-1
    8000032c:	68c56463          	bltu	a0,a2,800009b4 <crash_forward>
    80000330:	009cccb3          	xor	s9,s9,s1
    80000334:	01744433          	xor	s0,s0,s7
    80000338:	0240cb3b          	divw	s6,ra,tp
    8000033c:	0191fdb3          	and	s11,gp,s9
    80000340:	008e7e33          	and	t3,t3,s0
    80000344:	63588193          	addi	gp,a7,1589
    80000348:	017e6833          	or	a6,t3,s7
    8000034c:	00e2c133          	xor	sp,t0,a4
    80000350:	66388263          	beq	a7,gp,800009b4 <crash_forward>
    80000354:	e50e40e3          	blt	t3,a6,80000194 <crash_backward>
    80000358:	0093efb3          	or	t6,t2,s1
    8000035c:	00002717          	auipc	a4,0x2
    80000360:	7ec70713          	addi	a4,a4,2028 # 80002b48 <_end+0x538>
    80000364:	73400b13          	li	s6,1844
    80000368:	019c80bb          	addw	ra,s9,s9
    8000036c:	00002f17          	auipc	t5,0x2
    80000370:	999f0f13          	addi	t5,t5,-1639 # 80001d05 <fromhost+0xcc5>
    80000374:	3dc00d13          	li	s10,988
    80000378:	00002797          	auipc	a5,0x2
    8000037c:	4aa78793          	addi	a5,a5,1194 # 80002822 <_end+0x212>
    80000380:	8ac72a03          	lw	s4,-1876(a4)
    80000384:	25900693          	li	a3,601
    80000388:	00002897          	auipc	a7,0x2
    8000038c:	9e288893          	addi	a7,a7,-1566 # 80001d6a <fromhost+0xd2a>
    80000390:	63f8a723          	sw	t6,1582(a7)
    80000394:	01b99413          	slli	s0,s3,0x1b
    80000398:	69af4f83          	lbu	t6,1690(t5)
    8000039c:	0291613b          	remw	sp,sp,s1
    800003a0:	41a5d5bb          	sraw	a1,a1,s10
    800003a4:	db578183          	lb	gp,-587(a5)
    800003a8:	59000e13          	li	t3,1424
    800003ac:	01c2109b          	slliw	ra,tp,0x1c
    800003b0:	00100793          	li	a5,1
    800003b4:	00000113          	li	sp,0
    800003b8:	fbd00b93          	li	s7,-67
    800003bc:	0176e333          	or	t1,a3,s7
    800003c0:	00f7b533          	sltu	a0,a5,a5
    800003c4:	02d24833          	div	a6,tp,a3
    800003c8:	082e0c13          	addi	s8,t3,130
    800003cc:	00100a93          	li	s5,1
    800003d0:	03f79793          	slli	a5,a5,0x3f
    800003d4:	41ab0cbb          	subw	s9,s6,s10
    800003d8:	03fa9a93          	slli	s5,s5,0x3f
    800003dc:	fff00d93          	li	s11,-1
    800003e0:	407384bb          	subw	s1,t2,t2
    800003e4:	fff00193          	li	gp,-1
    800003e8:	00056b33          	or	s6,a0,zero
    800003ec:	00100893          	li	a7,1
    800003f0:	00693833          	sltu	a6,s2,t1
    800003f4:	00f1c1b3          	xor	gp,gp,a5
    800003f8:	015dcdb3          	xor	s11,s11,s5
    800003fc:	45600993          	li	s3,1110
    80000400:	5b8e0a63          	beq	t3,s8,800009b4 <crash_forward>
    80000404:	03f89893          	slli	a7,a7,0x3f
    80000408:	fff00413          	li	s0,-1
    8000040c:	00000f93          	li	t6,0
    80000410:	23d00e93          	li	t4,573
    80000414:	00dc5693          	srli	a3,s8,0xd
    80000418:	d7f14ee3          	blt	sp,t6,80000194 <crash_backward>
    8000041c:	e6600d13          	li	s10,-410
    80000420:	01ad553b          	srlw	a0,s10,s10
    80000424:	0339d23b          	divuw	tp,s3,s3
    80000428:	6de00c93          	li	s9,1758
    8000042c:	51b00913          	li	s2,1307
    80000430:	00395b9b          	srliw	s7,s2,0x3
    80000434:	01b672b3          	and	t0,a2,s11
    80000438:	01144433          	xor	s0,s0,a7
    8000043c:	003cfa33          	and	s4,s9,gp
    80000440:	10e00093          	li	ra,270
    80000444:	00fa6f33          	or	t5,s4,a5
    80000448:	012ef633          	and	a2,t4,s2
    8000044c:	41e48e3b          	subw	t3,s1,t5
    80000450:	001ce333          	or	t1,s9,ra
    80000454:	03135233          	divu	tp,t1,a7
    80000458:	008475b3          	and	a1,s0,s0
    8000045c:	0116e733          	or	a4,a3,a7
    80000460:	d2001ae3          	bnez	zero,80000194 <crash_backward>
    80000464:	94b00513          	li	a0,-1717
    80000468:	41a48b3b          	subw	s6,s1,s10
    8000046c:	a8100c13          	li	s8,-1407
    80000470:	02a50133          	mul	sp,a0,a0
    80000474:	03e95d33          	divu	s10,s2,t5
    80000478:	015b63b3          	or	t2,s6,s5
    8000047c:	45300613          	li	a2,1107
    80000480:	00cc1bb3          	sll	s7,s8,a2
    80000484:	b6f00993          	li	s3,-1169
    80000488:	03399fb3          	mulh	t6,s3,s3
    8000048c:	90300b13          	li	s6,-1789
    80000490:	023182b3          	mul	t0,gp,gp
    80000494:	19f00593          	li	a1,415
    80000498:	85b00e13          	li	t3,-1957
    8000049c:	4031dc3b          	sraw	s8,gp,gp
    800004a0:	01deb633          	sltu	a2,t4,t4
    800004a4:	6c400393          	li	t2,1732
    800004a8:	1b900b93          	li	s7,441
    800004ac:	7d500813          	li	a6,2005
    800004b0:	022101bb          	mulw	gp,sp,sp
    800004b4:	ce2110e3          	bne	sp,sp,80000194 <crash_backward>
    800004b8:	00002497          	auipc	s1,0x2
    800004bc:	ca948493          	addi	s1,s1,-855 # 80002161 <reg_x12_output+0x1>
    800004c0:	1a100793          	li	a5,417
    800004c4:	036b513b          	divuw	sp,s6,s6
    800004c8:	00002097          	auipc	ra,0x2
    800004cc:	fea08093          	addi	ra,ra,-22 # 800024b2 <test_memory+0x2b2>
    800004d0:	0075d433          	srl	s0,a1,t2
    800004d4:	00100213          	li	tp,1
    800004d8:	03f21213          	slli	tp,tp,0x3f
    800004dc:	00fb873b          	addw	a4,s7,a5
    800004e0:	e590a523          	sw	s9,-438(ra)
    800004e4:	4010893b          	subw	s2,ra,ra
    800004e8:	1974e303          	lwu	t1,407(s1)
    800004ec:	00088e93          	mv	t4,a7
    800004f0:	030e5cbb          	divuw	s9,t3,a6
    800004f4:	45300513          	li	a0,1107
    800004f8:	00738fbb          	addw	t6,t2,t2
    800004fc:	fff00f13          	li	t5,-1
    80000500:	f5000893          	li	a7,-176
    80000504:	000e8693          	mv	a3,t4
    80000508:	9bf88d93          	addi	s11,a7,-1601
    8000050c:	00100813          	li	a6,1
    80000510:	40e702b3          	sub	t0,a4,a4
    80000514:	c3400c93          	li	s9,-972
    80000518:	c6c00593          	li	a1,-916
    8000051c:	004f4f33          	xor	t5,t5,tp
    80000520:	02bc8933          	mul	s2,s9,a1
    80000524:	40a50d3b          	subw	s10,a0,a0
    80000528:	01e5f9b3          	and	s3,a1,t5
    8000052c:	34000e13          	li	t3,832
    80000530:	03f81813          	slli	a6,a6,0x3f
    80000534:	00002497          	auipc	s1,0x2
    80000538:	b1148493          	addi	s1,s1,-1263 # 80002045 <reg_x8_init+0x5>
    8000053c:	fff00a13          	li	s4,-1
    80000540:	ae500b93          	li	s7,-1307
    80000544:	33b4b5a3          	sd	s11,811(s1)
    80000548:	037e473b          	divw	a4,t3,s7
    8000054c:	010a4a33          	xor	s4,s4,a6
    80000550:	96f00093          	li	ra,-1681
    80000554:	0042eab3          	or	s5,t0,tp
    80000558:	00002f97          	auipc	t6,0x2
    8000055c:	06df8f93          	addi	t6,t6,109 # 800025c5 <test_memory+0x3c5>
    80000560:	034a66bb          	remw	a3,s4,s4
    80000564:	02211c33          	mulh	s8,sp,sp
    80000568:	00100613          	li	a2,1
    8000056c:	03f61613          	slli	a2,a2,0x3f
    80000570:	01ded4bb          	srlw	s1,t4,t4
    80000574:	0010a133          	slt	sp,ra,ra
    80000578:	68b00c93          	li	s9,1675
    8000057c:	00100893          	li	a7,1
    80000580:	03f89893          	slli	a7,a7,0x3f
    80000584:	07200f13          	li	t5,114
    80000588:	412209bb          	subw	s3,tp,s2
    8000058c:	031bdeb3          	divu	t4,s7,a7
    80000590:	00002c17          	auipc	s8,0x2
    80000594:	a79c0c13          	addi	s8,s8,-1415 # 80002009 <reg_x1_init+0x1>
    80000598:	fff00b13          	li	s6,-1
    8000059c:	515c2ba3          	sw	s5,1303(s8)
    800005a0:	00002717          	auipc	a4,0x2
    800005a4:	dac70713          	addi	a4,a4,-596 # 8000234c <test_memory+0x14c>
    800005a8:	014ef3b3          	and	t2,t4,s4
    800005ac:	03ef4ab3          	div	s5,t5,t5
    800005b0:	ca3fc783          	lbu	a5,-861(t6)
    800005b4:	00237133          	and	sp,t1,sp
    800005b8:	1b670823          	sb	s6,432(a4)
    800005bc:	0109e1b3          	or	gp,s3,a6
    800005c0:	00cb4b33          	xor	s6,s6,a2
    800005c4:	3ea54863          	blt	a0,a0,800009b4 <crash_forward>
    800005c8:	aca00b93          	li	s7,-1334
    800005cc:	90f00293          	li	t0,-1777
    800005d0:	01607333          	and	t1,zero,s6
    800005d4:	02b8a233          	mulhsu	tp,a7,a1
    800005d8:	00c36433          	or	s0,t1,a2
    800005dc:	0f300913          	li	s2,243
    800005e0:	012b8533          	add	a0,s7,s2
    800005e4:	02b5cdbb          	divw	s11,a1,a1
    800005e8:	ba6456e3          	bge	s0,t1,80000194 <crash_backward>
    800005ec:	f9900d13          	li	s10,-103
    800005f0:	03ac8e3b          	mulw	t3,s9,s10
    800005f4:	fff00693          	li	a3,-1
    800005f8:	0252e5bb          	remw	a1,t0,t0
    800005fc:	0116c6b3          	xor	a3,a3,a7
    80000600:	00d474b3          	and	s1,s0,a3
    80000604:	0111e0b3          	or	ra,gp,a7
    80000608:	3a90d663          	bge	ra,s1,800009b4 <crash_forward>
    8000060c:	71600693          	li	a3,1814
    80000610:	4e8b8f93          	addi	t6,s7,1256
    80000614:	8c500e13          	li	t3,-1851
    80000618:	00002097          	auipc	ra,0x2
    8000061c:	9c508093          	addi	ra,ra,-1595 # 80001fdd <fromhost+0xf9d>
    80000620:	00000513          	li	a0,0
    80000624:	00100c93          	li	s9,1
    80000628:	0318b633          	mulhu	a2,a7,a7
    8000062c:	ee400793          	li	a5,-284
    80000630:	31309283          	lh	t0,787(ra)
    80000634:	01ce54bb          	srlw	s1,t3,t3
    80000638:	00002197          	auipc	gp,0x2
    8000063c:	9a218193          	addi	gp,gp,-1630 # 80001fda <fromhost+0xf9a>
    80000640:	00100913          	li	s2,1
    80000644:	02f78733          	mul	a4,a5,a5
    80000648:	03f91913          	slli	s2,s2,0x3f
    8000064c:	fff00313          	li	t1,-1
    80000650:	5c81da83          	lhu	s5,1480(gp) # 800033d8 <__global_pointer$+0x5c8>
    80000654:	4f000b93          	li	s7,1264
    80000658:	02c65fb3          	divu	t6,a2,a2
    8000065c:	017be433          	or	s0,s7,s7
    80000660:	01234333          	xor	t1,t1,s2
    80000664:	00667233          	and	tp,a2,t1
    80000668:	c9c00893          	li	a7,-868
    8000066c:	0e300113          	li	sp,227
    80000670:	7a100f13          	li	t5,1953
    80000674:	03e105bb          	mulw	a1,sp,t5
    80000678:	00002e17          	auipc	t3,0x2
    8000067c:	076e0e13          	addi	t3,t3,118 # 800026ee <_end+0xde>
    80000680:	022caeb3          	mulhsu	t4,s9,sp
    80000684:	40d68dbb          	subw	s11,a3,a3
    80000688:	f5900293          	li	t0,-167
    8000068c:	0129eb33          	or	s6,s3,s2
    80000690:	6ac00713          	li	a4,1708
    80000694:	2c200813          	li	a6,706
    80000698:	03fc9c93          	slli	s9,s9,0x3f
    8000069c:	44200493          	li	s1,1090
    800006a0:	029747bb          	divw	a5,a4,s1
    800006a4:	00000c13          	li	s8,0
    800006a8:	fff00993          	li	s3,-1
    800006ac:	025290b3          	mulh	ra,t0,t0
    800006b0:	0199c9b3          	xor	s3,s3,s9
    800006b4:	013bfa33          	and	s4,s7,s3
    800006b8:	8d300413          	li	s0,-1837
    800006bc:	410883b3          	sub	t2,a7,a6
    800006c0:	00001197          	auipc	gp,0x1
    800006c4:	5f818193          	addi	gp,gp,1528 # 80001cb8 <fromhost+0xc78>
    800006c8:	dace5603          	lhu	a2,-596(t3)
    800006cc:	7ed19223          	sh	a3,2020(gp) # 800035f4 <__global_pointer$+0x7e4>
    800006d0:	019a6d33          	or	s10,s4,s9
    800006d4:	00425d33          	srl	s10,tp,tp
    800006d8:	1b100513          	li	a0,433
    800006dc:	e75e8193          	addi	gp,t4,-395
    800006e0:	00002a17          	auipc	s4,0x2
    800006e4:	880a0a13          	addi	s4,s4,-1920 # 80001f60 <fromhost+0xf20>
    800006e8:	e3700b13          	li	s6,-457
    800006ec:	fed00793          	li	a5,-19
    800006f0:	24c00213          	li	tp,588
    800006f4:	02d6feb3          	remu	t4,a3,a3
    800006f8:	4093d83b          	sraw	a6,t2,s1
    800006fc:	0051a333          	slt	t1,gp,t0
    80000700:	58c00913          	li	s2,1420
    80000704:	3e900893          	li	a7,1001
    80000708:	c9d00d13          	li	s10,-867
    8000070c:	0169d3bb          	srlw	t2,s3,s6
    80000710:	7af00993          	li	s3,1967
    80000714:	01396c33          	or	s8,s2,s3
    80000718:	3dca6f83          	lwu	t6,988(s4)
    8000071c:	03ffd2b3          	divu	t0,t6,t6
    80000720:	02a535b3          	mulhu	a1,a0,a0
    80000724:	004aaf33          	slt	t5,s5,tp
    80000728:	01ad16bb          	sllw	a3,s10,s10
    8000072c:	024b0e33          	mul	t3,s6,tp
    80000730:	3a100b93          	li	s7,929
    80000734:	69e00993          	li	s3,1694
    80000738:	32e00e93          	li	t4,814
    8000073c:	00002117          	auipc	sp,0x2
    80000740:	49c10113          	addi	sp,sp,1180 # 80002bd8 <_end+0x5c8>
    80000744:	8d214603          	lbu	a2,-1838(sp)
    80000748:	e4200f13          	li	t5,-446
    8000074c:	00002097          	auipc	ra,0x2
    80000750:	f1b08093          	addi	ra,ra,-229 # 80002667 <_end+0x57>
    80000754:	40f7d1b3          	sra	gp,a5,a5
    80000758:	002105b3          	add	a1,sp,sp
    8000075c:	00d6ed33          	or	s10,a3,a3
    80000760:	01fedc33          	srl	s8,t4,t6
    80000764:	83f00293          	li	t0,-1985
    80000768:	b7600193          	li	gp,-1162
    8000076c:	3ab00e13          	li	t3,939
    80000770:	0252c133          	div	sp,t0,t0
    80000774:	7b388d93          	addi	s11,a7,1971
    80000778:	0231dd3b          	divuw	s10,gp,gp
    8000077c:	dec09ba3          	sh	a2,-521(ra)
    80000780:	2c100b13          	li	s6,705
    80000784:	00842fb3          	slt	t6,s0,s0
    80000788:	0282853b          	mulw	a0,t0,s0
    8000078c:	0010833b          	addw	t1,ra,ra
    80000790:	01d903bb          	addw	t2,s2,t4
    80000794:	0157d83b          	srlw	a6,a5,s5
    80000798:	00f7c4b3          	xor	s1,a5,a5
    8000079c:	01ceaa33          	slt	s4,t4,t3
    800007a0:	8c900613          	li	a2,-1847
    800007a4:	00c62c33          	slt	s8,a2,a2
    800007a8:	02bc0cbb          	mulw	s9,s8,a1
    800007ac:	0073c4b3          	xor	s1,t2,t2
    800007b0:	01629233          	sll	tp,t0,s6
    800007b4:	f0b00c93          	li	s9,-245
    800007b8:	0001fd33          	and	s10,gp,zero
    800007bc:	019caa33          	slt	s4,s9,s9
    800007c0:	20800313          	li	t1,520
    800007c4:	00a86733          	or	a4,a6,a0
    800007c8:	4139893b          	subw	s2,s3,s3
    800007cc:	02b5e833          	rem	a6,a1,a1
    800007d0:	015a9eb3          	sll	t4,s5,s5
    800007d4:	41ef06bb          	subw	a3,t5,t5
    800007d8:	10a00f93          	li	t6,266
    800007dc:	00001c17          	auipc	s8,0x1
    800007e0:	704c0c13          	addi	s8,s8,1796 # 80001ee0 <fromhost+0xea0>
    800007e4:	46300993          	li	s3,1123
    800007e8:	00100713          	li	a4,1
    800007ec:	415a8133          	sub	sp,s5,s5
    800007f0:	02635533          	divu	a0,t1,t1
    800007f4:	025571b3          	remu	gp,a0,t0
    800007f8:	00e71933          	sll	s2,a4,a4
    800007fc:	00002e17          	auipc	t3,0x2
    80000800:	d5ce0e13          	addi	t3,t3,-676 # 80002558 <test_memory+0x358>
    80000804:	01ffd3b3          	srl	t2,t6,t6
    80000808:	41745ab3          	sra	s5,s0,s7
    8000080c:	03c17b3b          	remuw	s6,sp,t3
    80000810:	0339e7bb          	remw	a5,s3,s3
    80000814:	00100813          	li	a6,1
    80000818:	3b2c1603          	lh	a2,946(s8)
    8000081c:	03f81813          	slli	a6,a6,0x3f
    80000820:	b2b00d93          	li	s11,-1237
    80000824:	d35e0c23          	sb	s5,-712(t3)
    80000828:	fff00293          	li	t0,-1
    8000082c:	0102c2b3          	xor	t0,t0,a6
    80000830:	0058f233          	and	tp,a7,t0
    80000834:	49400f13          	li	t5,1172
    80000838:	03ef06bb          	mulw	a3,t5,t5
    8000083c:	0107e8b3          	or	a7,a5,a6
    80000840:	03f71713          	slli	a4,a4,0x3f
    80000844:	01bd9cb3          	sll	s9,s11,s11
    80000848:	00f45ebb          	srlw	t4,s0,a5
    8000084c:	1648e463          	bltu	a7,tp,800009b4 <crash_forward>
    80000850:	fff00d13          	li	s10,-1
    80000854:	00000593          	li	a1,0
    80000858:	00000093          	li	ra,0
    8000085c:	00ed4d33          	xor	s10,s10,a4
    80000860:	01a2fa33          	and	s4,t0,s10
    80000864:	01e18133          	add	sp,gp,t5
    80000868:	0153c533          	xor	a0,t2,s5
    8000086c:	0139a7b3          	slt	a5,s3,s3
    80000870:	b9d00f93          	li	t6,-1123
    80000874:	00001417          	auipc	s0,0x1
    80000878:	6d740413          	addi	s0,s0,1751 # 80001f4b <fromhost+0xf0b>
    8000087c:	c5b00113          	li	sp,-933
    80000880:	d5c00c93          	li	s9,-676
    80000884:	036b28b3          	mulhsu	a7,s6,s6
    80000888:	47b00613          	li	a2,1147
    8000088c:	dbf00c13          	li	s8,-577
    80000890:	006b883b          	addw	a6,s7,t1
    80000894:	901590e3          	bne	a1,ra,80000194 <crash_backward>
    80000898:	000f8d93          	mv	s11,t6
    8000089c:	00ede4b3          	or	s1,s11,a4
    800008a0:	7af00893          	li	a7,1967
    800008a4:	01ffd6bb          	srlw	a3,t6,t6
    800008a8:	000d8193          	mv	gp,s11
    800008ac:	cd710293          	addi	t0,sp,-809
    800008b0:	01ce133b          	sllw	t1,t3,t3
    800008b4:	d9b00b93          	li	s7,-613
    800008b8:	6af00793          	li	a5,1711
    800008bc:	40c60e33          	sub	t3,a2,a2
    800008c0:	6a300e93          	li	t4,1699
    800008c4:	0e514863          	blt	sp,t0,800009b4 <crash_forward>
    800008c8:	037cd23b          	divuw	tp,s9,s7
    800008cc:	03297f33          	remu	t5,s2,s2
    800008d0:	6ae00a93          	li	s5,1710
    800008d4:	00100313          	li	t1,1
    800008d8:	012b54bb          	srlw	s1,s6,s2
    800008dc:	4a542383          	lw	t2,1189(s0)
    800008e0:	0131c533          	xor	a0,gp,s3
    800008e4:	47d00913          	li	s2,1149
    800008e8:	03f31313          	slli	t1,t1,0x3f
    800008ec:	012afb33          	and	s6,s5,s2
    800008f0:	01dc69b3          	or	s3,s8,t4
    800008f4:	00f8b833          	sltu	a6,a7,a5
    800008f8:	62b00c93          	li	s9,1579
    800008fc:	019cd13b          	srlw	sp,s9,s9
    80000900:	fff00f93          	li	t6,-1
    80000904:	006fcfb3          	xor	t6,t6,t1
    80000908:	01f4f6b3          	and	a3,s1,t6
    8000090c:	0066e2b3          	or	t0,a3,t1
    80000910:	8856c2e3          	blt	a3,t0,80000194 <crash_backward>
    80000914:	0040006f          	j	80000918 <reg_dump>

0000000080000918 <reg_dump>:
    80000918:	00002097          	auipc	ra,0x2
    8000091c:	ce808093          	addi	ra,ra,-792 # 80002600 <loop_count>
    80000920:	0000a103          	lw	sp,0(ra)
    80000924:	fff10193          	addi	gp,sp,-1
    80000928:	0030a023          	sw	gp,0(ra)
    8000092c:	900118e3          	bnez	sp,8000023c <pseg_0>
    80000930:	00001097          	auipc	ra,0x1
    80000934:	7d008093          	addi	ra,ra,2000 # 80002100 <begin_signature>
    80000938:	0000b023          	sd	zero,0(ra)
    8000093c:	0020b823          	sd	sp,16(ra)
    80000940:	0030bc23          	sd	gp,24(ra)
    80000944:	0240b023          	sd	tp,32(ra)
    80000948:	0250b423          	sd	t0,40(ra)
    8000094c:	0260b823          	sd	t1,48(ra)
    80000950:	0270bc23          	sd	t2,56(ra)
    80000954:	0490b423          	sd	s1,72(ra)
    80000958:	04a0b823          	sd	a0,80(ra)
    8000095c:	04b0bc23          	sd	a1,88(ra)
    80000960:	06c0b023          	sd	a2,96(ra)
    80000964:	06d0b423          	sd	a3,104(ra)
    80000968:	06e0b823          	sd	a4,112(ra)
    8000096c:	06f0bc23          	sd	a5,120(ra)
    80000970:	0900b023          	sd	a6,128(ra)
    80000974:	0910b423          	sd	a7,136(ra)
    80000978:	0920b823          	sd	s2,144(ra)
    8000097c:	0930bc23          	sd	s3,152(ra)
    80000980:	0b40b023          	sd	s4,160(ra)
    80000984:	0b50b423          	sd	s5,168(ra)
    80000988:	0b60b823          	sd	s6,176(ra)
    8000098c:	0b70bc23          	sd	s7,184(ra)
    80000990:	0d80b023          	sd	s8,192(ra)
    80000994:	0d90b423          	sd	s9,200(ra)
    80000998:	0da0b823          	sd	s10,208(ra)
    8000099c:	0db0bc23          	sd	s11,216(ra)
    800009a0:	0fc0b023          	sd	t3,224(ra)
    800009a4:	0fd0b423          	sd	t4,232(ra)
    800009a8:	0fe0b823          	sd	t5,240(ra)
    800009ac:	0ff0bc23          	sd	t6,248(ra)
    800009b0:	0200006f          	j	800009d0 <test_end>

00000000800009b4 <crash_forward>:
    800009b4:	0ff0000f          	fence
    800009b8:	00018063          	beqz	gp,800009b8 <crash_forward+0x4>
    800009bc:	00119193          	slli	gp,gp,0x1
    800009c0:	0011e193          	ori	gp,gp,1
    800009c4:	05d00893          	li	a7,93
    800009c8:	00018513          	mv	a0,gp
    800009cc:	00000073          	ecall

00000000800009d0 <test_end>:
    800009d0:	0ff0000f          	fence
    800009d4:	00100193          	li	gp,1
    800009d8:	05d00893          	li	a7,93
    800009dc:	00000513          	li	a0,0
    800009e0:	00000073          	ecall
    800009e4:	c0001073          	unimp
	...

Disassembly of section .tohost:

0000000080001000 <tohost>:
	...

0000000080001040 <fromhost>:
	...

Disassembly of section .data:

0000000080002000 <hidden_data>:
    80002000:	c8e5                	beqz	s1,800020f0 <reg_x30_init>
    80002002:	ffc0                	sd	s0,184(a5)
    80002004:	f5f4                	sd	a3,232(a1)
    80002006:	aee9                	j	800023e0 <test_memory+0x1e0>

0000000080002008 <reg_x1_init>:
    80002008:	0002                	c.slli64	zero
    8000200a:	0000                	unimp
    8000200c:	0000                	unimp
    8000200e:	0800                	addi	s0,sp,16

0000000080002010 <reg_x2_init>:
    80002010:	0d62c04f          	0xd62c04f
    80002014:	98ea                	add	a7,a7,s10
    80002016:	3036                	fld	ft0,360(sp)

0000000080002018 <reg_x3_init>:
    80002018:	ffff                	0xffff
    8000201a:	ffff                	0xffff
    8000201c:	ffff                	0xffff
    8000201e:	ffff                	0xffff

0000000080002020 <reg_x4_init>:
    80002020:	0000                	unimp
    80002022:	0000                	unimp
    80002024:	0000                	unimp
    80002026:	0800                	addi	s0,sp,16

0000000080002028 <reg_x5_init>:
    80002028:	8001                	c.srli64	s0
    8000202a:	ffff                	0xffff
    8000202c:	ffff                	0xffff
    8000202e:	ffff                	0xffff

0000000080002030 <reg_x6_init>:
    80002030:	24f9                	addiw	s1,s1,30
    80002032:	9b40                	0x9b40
    80002034:	b6c0                	fsd	fs0,168(a3)
    80002036:	b0e8                	fsd	fa0,224(s1)

0000000080002038 <reg_x7_init>:
    80002038:	93dc06fb          	0x93dc06fb
    8000203c:	f6b9                	bnez	a3,80001f8a <fromhost+0xf4a>
    8000203e:	1f01                	addi	t5,t5,-32

0000000080002040 <reg_x8_init>:
    80002040:	d5059517          	auipc	a0,0xd5059
    80002044:	b0a6                	fsd	fs1,96(sp)
    80002046:	80b0                	0x80b0

0000000080002048 <reg_x9_init>:
    80002048:	648972bb          	0x648972bb
    8000204c:	8010                	0x8010
    8000204e:	          	0xff80e98f

0000000080002050 <reg_x10_init>:
    80002050:	ff80                	sd	s0,56(a5)
    80002052:	ffff                	0xffff
    80002054:	ffff                	0xffff
    80002056:	ffff                	0xffff

0000000080002058 <reg_x11_init>:
	...

0000000080002060 <reg_x12_init>:
    80002060:	2576                	fld	fa0,344(sp)
    80002062:	38685e3f  	0x5d36638685e3f

0000000080002068 <reg_x13_init>:
    80002068:	0005                	c.nop	1
    8000206a:	8000                	0x8000
    8000206c:	ffff                	0xffff
    8000206e:	ffff                	0xffff

0000000080002070 <reg_x14_init>:
	...

0000000080002078 <reg_x15_init>:
    80002078:	80000007          	0x80000007
    8000207c:	ffff                	0xffff
    8000207e:	ffff                	0xffff

0000000080002080 <reg_x16_init>:
    80002080:	8cae                	mv	s9,a1
    80002082:	5004a94b          	fnmsub.s	fs2,fs1,ft0,fa0,rdn
    80002086:	3aad                	addiw	s5,s5,-21

0000000080002088 <reg_x17_init>:
    80002088:	47c6                	lw	a5,80(sp)
    8000208a:	d79c                	sw	a5,40(a5)
    8000208c:	a4593473          	csrrc	s0,0xa45,s2

0000000080002090 <reg_x18_init>:
    80002090:	0d81                	addi	s11,s11,0
    80002092:	1519                	addi	a0,a0,-26
    80002094:	faa83443          	fmadd.d	fs0,fa6,fa0,ft11,rup

0000000080002098 <reg_x19_init>:
    80002098:	80000003          	lb	zero,-2048(zero) # fffffffffffff800 <__global_pointer$+0xffffffff7fffc9f0>
    8000209c:	ffff                	0xffff
    8000209e:	ffff                	0xffff

00000000800020a0 <reg_x20_init>:
    800020a0:	08c0                	addi	s0,sp,84
    800020a2:	93a8                	0x93a8
    800020a4:	d516                	sw	t0,168(sp)
    800020a6:	246a                	fld	fs0,152(sp)

00000000800020a8 <reg_x21_init>:
	...

00000000800020b0 <reg_x22_init>:
	...

00000000800020b8 <reg_x23_init>:
    800020b8:	ff85                	bnez	a5,80001ff0 <fromhost+0xfb0>
    800020ba:	ffff                	0xffff
    800020bc:	ffff                	0xffff
    800020be:	ffff                	0xffff

00000000800020c0 <reg_x24_init>:
    800020c0:	0000                	unimp
    800020c2:	8000                	0x8000
    800020c4:	ffff                	0xffff
    800020c6:	ffff                	0xffff

00000000800020c8 <reg_x25_init>:
	...

00000000800020d0 <reg_x26_init>:
	...

00000000800020d8 <reg_x27_init>:
    800020d8:	ffff                	0xffff
    800020da:	ffff                	0xffff
    800020dc:	ffff                	0xffff
    800020de:	ffff                	0xffff

00000000800020e0 <reg_x28_init>:
    800020e0:	ffff                	0xffff
    800020e2:	ffff                	0xffff
    800020e4:	ffff                	0xffff
    800020e6:	ffff                	0xffff

00000000800020e8 <reg_x29_init>:
	...

00000000800020f0 <reg_x30_init>:
    800020f0:	ffff                	0xffff
    800020f2:	ffff                	0xffff
    800020f4:	ffff                	0xffff
    800020f6:	ffff                	0xffff

00000000800020f8 <reg_x31_init>:
    800020f8:	ffff                	0xffff
    800020fa:	ffff                	0xffff
    800020fc:	ffff                	0xffff
    800020fe:	ffff                	0xffff

0000000080002100 <begin_signature>:
    80002100:	2fc5                	addiw	t6,t6,17
    80002102:	99b6                	add	s3,s3,a3
    80002104:	7406                	ld	s0,96(sp)
    80002106:	ee49                	bnez	a2,800021a0 <reg_x20_output>

0000000080002108 <reg_x1_output>:
    80002108:	8f0d                	sub	a4,a4,a1
    8000210a:	0f75                	addi	t5,t5,29
    8000210c:	ab39                	j	8000262a <_end+0x1a>
    8000210e:	46a0                	lw	s0,72(a3)

0000000080002110 <reg_x2_output>:
    80002110:	9fb5                	addw	a5,a5,a3
    80002112:	6209                	lui	tp,0x2
    80002114:	f85f f5a8       	0x9ea0f5a8f85f

0000000080002118 <reg_x3_output>:
    80002118:	9ea0                	0x9ea0
    8000211a:	5042                	0x5042
    8000211c:	5ca1                	li	s9,-24
    8000211e:	f441                	bnez	s0,800020a6 <reg_x20_init+0x6>

0000000080002120 <reg_x4_output>:
    80002120:	639c                	ld	a5,0(a5)
    80002122:	a246                	fsd	fa7,256(sp)
    80002124:	fd029623          	sh	a6,-52(t0)

0000000080002128 <reg_x5_output>:
    80002128:	d91ddd2b          	0xd91ddd2b
    8000212c:	4ac541d3          	0x4ac541d3

0000000080002130 <reg_x6_output>:
    80002130:	f4f2                	sd	t3,104(sp)
    80002132:	20ee                	fld	ft1,216(sp)
    80002134:	9c89                	subw	s1,s1,a0
    80002136:	          	0x54dfc543

0000000080002138 <reg_x7_output>:
    80002138:	54df 2563 4356      	0x4356256354df
    8000213e:	9229                	srli	a2,a2,0x2a

0000000080002140 <reg_x8_output>:
    80002140:	e57a                	sd	t5,136(sp)
    80002142:	679e                	ld	a5,448(sp)
    80002144:	0c00                	addi	s0,sp,528
    80002146:	d518                	sw	a4,40(a0)

0000000080002148 <reg_x9_output>:
    80002148:	d80d                	beqz	s0,8000207a <reg_x15_init+0x2>
    8000214a:	98c4                	0x98c4
    8000214c:	89ed                	andi	a1,a1,27
    8000214e:	fa05                	bnez	a2,8000207e <reg_x15_init+0x6>

0000000080002150 <reg_x10_output>:
    80002150:	337f                	0x337f
    80002152:	c6ca                	sw	s2,76(sp)
    80002154:	e110                	sd	a2,0(a0)
    80002156:	          	slti	s1,zero,913

0000000080002158 <reg_x11_output>:
    80002158:	3910                	fld	fa2,48(a0)
    8000215a:	eb8e                	sd	gp,464(sp)
    8000215c:	7798                	ld	a4,40(a5)
    8000215e:	be69                	j	80001cf8 <fromhost+0xcb8>

0000000080002160 <reg_x12_output>:
    80002160:	1e60                	addi	s0,sp,828
    80002162:	b86cad67          	0xb86cad67
    80002166:	bea5                	j	80001cde <fromhost+0xc9e>

0000000080002168 <reg_x13_output>:
    80002168:	9c6a                	add	s8,s8,s10
    8000216a:	431a                	lw	t1,132(sp)
    8000216c:	bbc1                	j	80001f3c <fromhost+0xefc>
    8000216e:	71c9                	lui	gp,0xffff2

0000000080002170 <reg_x14_output>:
    80002170:	63c23f4f          	fnmadd.d	ft10,ft4,ft8,fa2,rup
    80002174:	84072043          	0x84072043

0000000080002178 <reg_x15_output>:
    80002178:	492c                	lw	a1,80(a0)
    8000217a:	354a                	fld	fa0,176(sp)
    8000217c:	f6ae                	sd	a1,360(sp)
    8000217e:	e43e                	sd	a5,8(sp)

0000000080002180 <reg_x16_output>:
    80002180:	ea55                	bnez	a2,80002234 <test_memory+0x34>
    80002182:	8674                	0x8674
    80002184:	2ad0                	fld	fa2,144(a3)
    80002186:	51d0                	lw	a2,36(a1)

0000000080002188 <reg_x17_output>:
    80002188:	08da9b9b          	0x8da9b9b
    8000218c:	a03c                	fsd	fa5,64(s0)
    8000218e:	c146                	sw	a7,128(sp)

0000000080002190 <reg_x18_output>:
    80002190:	1b98                	addi	a4,sp,496
    80002192:	2772                	fld	fa4,280(sp)
    80002194:	163d                	addi	a2,a2,-17
    80002196:	5219                	li	tp,-26

0000000080002198 <reg_x19_output>:
    80002198:	fe10                	sd	a2,56(a2)
    8000219a:	25cd8e77          	0x25cd8e77
    8000219e:	f21f        	0x2f9e74e0f21f

00000000800021a0 <reg_x20_output>:
    800021a0:	74e0                	ld	s0,232(s1)
    800021a2:	2f9e                	fld	ft11,448(sp)
    800021a4:	1da4                	addi	s1,sp,760
    800021a6:	b86e                	fsd	fs11,48(sp)

00000000800021a8 <reg_x21_output>:
    800021a8:	0c1f f97c 7381      	0x7381f97c0c1f
    800021ae:	          	csrrsi	a3,0xf5,15

00000000800021b0 <reg_x22_output>:
    800021b0:	2fac0f57          	0x2fac0f57
    800021b4:	7b86c773          	0x7b86c773

00000000800021b8 <reg_x23_output>:
    800021b8:	99c843fb          	0x99c843fb
    800021bc:	5ca5                	li	s9,-23
    800021be:	5b99                	li	s7,-26

00000000800021c0 <reg_x24_output>:
    800021c0:	2590                	fld	fa2,8(a1)
    800021c2:	44f5fb3b          	0x44f5fb3b
    800021c6:	          	csrrc	t0,0xea1,s2

00000000800021c8 <reg_x25_output>:
    800021c8:	ea19                	bnez	a2,800021de <reg_x27_output+0x6>
    800021ca:	9769544f          	fnmadd.q	fs0,fs2,fs6,fs2,unknown
    800021ce:	f0e9                	bnez	s1,80002190 <reg_x18_output>

00000000800021d0 <reg_x26_output>:
    800021d0:	d9ca                	sw	s2,240(sp)
    800021d2:	29cc                	fld	fa1,144(a1)
    800021d4:	b72e                	fsd	fa1,424(sp)
    800021d6:	          	0x3125f87

00000000800021d8 <reg_x27_output>:
    800021d8:	0312                	slli	t1,t1,0x4
    800021da:	2bea                	fld	fs7,152(sp)
    800021dc:	3fd5                	addiw	t6,t6,-11
    800021de:	          	jal	ra,7ff51ba4 <_start-0xae45c>

00000000800021e0 <reg_x28_output>:
    800021e0:	9c74                	0x9c74
    800021e2:	6e25                	lui	t3,0x9
    800021e4:	6ce6                	ld	s9,88(sp)
    800021e6:	6976                	ld	s2,344(sp)

00000000800021e8 <reg_x29_output>:
    800021e8:	87cd                	srai	a5,a5,0x13
    800021ea:	322e                	fld	ft4,232(sp)
    800021ec:	15fc                	addi	a5,sp,748
    800021ee:	e598                	sd	a4,8(a1)

00000000800021f0 <reg_x30_output>:
    800021f0:	f6f4                	sd	a3,232(a3)
    800021f2:	e290                	sd	a2,0(a3)
    800021f4:	34876e07          	0x34876e07

00000000800021f8 <reg_x31_output>:
    800021f8:	37dd                	addiw	a5,a5,-9
    800021fa:	4eb0                	lw	a2,88(a3)
    800021fc:	eb71                	bnez	a4,800022d0 <test_memory+0xd0>
    800021fe:	de6d                	beqz	a2,800021f8 <reg_x31_output>

0000000080002200 <test_memory>:
    80002200:	3750bea3          	sd	s5,893(ra)
    80002204:	e82c                	sd	a1,80(s0)
    80002206:	92ec                	0x92ec
    80002208:	9416ae27          	fsw	ft1,-1700(a3)
    8000220c:	f3f9                	bnez	a5,800021d2 <reg_x26_output+0x2>
    8000220e:	9d74                	0x9d74
    80002210:	f41c                	sd	a5,40(s0)
    80002212:	ac9d                	j	80002488 <test_memory+0x288>
    80002214:	5070                	lw	a2,100(s0)
    80002216:	2f19                	addiw	t5,t5,6
    80002218:	5cb29bc7          	0x5cb29bc7
    8000221c:	9cd1ed83          	lwu	s11,-1587(gp) # ffffffffffff19cd <__global_pointer$+0xffffffff7ffeebbd>
    80002220:	d2b6                	sw	a3,100(sp)
    80002222:	fb41                	bnez	a4,800021b2 <reg_x22_output+0x2>
    80002224:	e5f54e8f          	0xe5f54e8f
    80002228:	4d604d33          	0x4d604d33
    8000222c:	5354                	lw	a3,36(a4)
    8000222e:	6196                	ld	gp,320(sp)
    80002230:	d44e                	sw	s3,40(sp)
    80002232:	9a31                	andi	a2,a2,-20
    80002234:	c52c                	sw	a1,72(a0)
    80002236:	7a20                	ld	s0,112(a2)
    80002238:	dda1                	beqz	a1,80002190 <reg_x18_output>
    8000223a:	342a                	fld	fs0,168(sp)
    8000223c:	1086                	slli	ra,ra,0x21
    8000223e:	bb40                	fsd	fs0,176(a4)
    80002240:	ad49                	j	800028d2 <_end+0x2c2>
    80002242:	0501                	addi	a0,a0,0
    80002244:	8b70                	0x8b70
    80002246:	bca617cb          	0xbca617cb
    8000224a:	b264                	fsd	fs1,224(a2)
    8000224c:	65b2                	ld	a1,264(sp)
    8000224e:	f65d                	bnez	a2,800021fc <reg_x31_output+0x4>
    80002250:	84d8                	0x84d8
    80002252:	e2aa                	sd	a0,320(sp)
    80002254:	3467abd3          	0x3467abd3
    80002258:	6a1f d610 f5eb      	0xf5ebd6106a1f
    8000225e:	329c                	fld	fa5,32(a3)
    80002260:	ed7e                	sd	t6,152(sp)
    80002262:	ce56                	sw	s5,28(sp)
    80002264:	3c3d                	addiw	s8,s8,-17
    80002266:	e740                	sd	s0,136(a4)
    80002268:	8c54                	0x8c54
    8000226a:	6ebe                	ld	t4,456(sp)
    8000226c:	b49d2eef          	jal	t4,7ffd4db4 <_start-0x2b24c>
    80002270:	70d761cf          	fnmadd.s	ft3,fa4,fa3,fa4,unknown
    80002274:	2351                	addiw	t1,t1,20
    80002276:	351d                	addiw	a0,a0,-25
    80002278:	c459                	beqz	s0,80002306 <test_memory+0x106>
    8000227a:	a4b4                	fsd	fa3,72(s1)
    8000227c:	8098                	0x8098
    8000227e:	614d                	addi	sp,sp,176
    80002280:	4979                	li	s2,30
    80002282:	5efff95b          	0x5efff95b
    80002286:	d2cd                	beqz	a3,80002228 <test_memory+0x28>
    80002288:	6882e4b7          	lui	s1,0x6882e
    8000228c:	1799                	addi	a5,a5,-26
    8000228e:	ca8876e7          	0xca8876e7
    80002292:	8346                	mv	t1,a7
    80002294:	4df6a063          	0x4df6a063
    80002298:	6e4c                	ld	a1,152(a2)
    8000229a:	db62                	sw	s8,180(sp)
    8000229c:	0f65                	addi	t5,t5,25
    8000229e:	e5aa                	sd	a0,200(sp)
    800022a0:	eae5                	bnez	a3,80002390 <test_memory+0x190>
    800022a2:	c5bd                	beqz	a1,80002310 <test_memory+0x110>
    800022a4:	50ce                	lw	ra,240(sp)
    800022a6:	2222                	fld	ft4,8(sp)
    800022a8:	2016776f          	jal	a4,80069ca8 <__global_pointer$+0x66e98>
    800022ac:	4f72                	lw	t5,28(sp)
    800022ae:	c61f6be7          	0xc61f6be7
    800022b2:	7c01                	lui	s8,0xfffe0
    800022b4:	5420                	lw	s0,104(s0)
    800022b6:	1eed                	addi	t4,t4,-5
    800022b8:	c6c06157          	0xc6c06157
    800022bc:	879e                	mv	a5,t2
    800022be:	4cae                	lw	s9,200(sp)
    800022c0:	db6d                	beqz	a4,800022b2 <test_memory+0xb2>
    800022c2:	4444                	lw	s1,12(s0)
    800022c4:	1c58                	addi	a4,sp,564
    800022c6:	5cc1                	li	s9,-16
    800022c8:	ffbd                	bnez	a5,80002246 <test_memory+0x46>
    800022ca:	8e7f                	0x8e7f
    800022cc:	fff1                	bnez	a5,800022a8 <test_memory+0xa8>
    800022ce:	51fa                	lw	gp,188(sp)
    800022d0:	7967b7f3          	csrrc	a5,0x796,a5
    800022d4:	e26d                	bnez	a2,800023b6 <test_memory+0x1b6>
    800022d6:	54d1                	li	s1,-12
    800022d8:	16be                	slli	a3,a3,0x2f
    800022da:	bbfc                	fsd	fa5,240(a5)
    800022dc:	2f85                	addiw	t6,t6,1
    800022de:	f1b1                	bnez	a1,80002222 <test_memory+0x22>
    800022e0:	8144                	0x8144
    800022e2:	8b5f 185d 2087      	0x2087185d8b5f
    800022e8:	5306                	lw	t1,96(sp)
    800022ea:	1e5a                	slli	t3,t3,0x36
    800022ec:	4ec2                	lw	t4,16(sp)
    800022ee:	3b6a                	fld	fs6,184(sp)
    800022f0:	161c2427          	fsw	ft1,360(s8) # fffffffffffe0168 <__global_pointer$+0xffffffff7ffdd358>
    800022f4:	59306887          	0x59306887
    800022f8:	cafc202b          	0xcafc202b
    800022fc:	58cd                	li	a7,-13
    800022fe:	7b2a                	ld	s6,168(sp)
    80002300:	2b9e                	fld	fs7,448(sp)
    80002302:	f7dc                	sd	a5,168(a5)
    80002304:	d635                	beqz	a2,80002270 <test_memory+0x70>
    80002306:	0c3a                	slli	s8,s8,0xe
    80002308:	0156                	slli	sp,sp,0x15
    8000230a:	fdc8                	sd	a0,184(a1)
    8000230c:	3041                	0x3041
    8000230e:	bdf0                	fsd	fa2,248(a1)
    80002310:	ba388423          	sb	gp,-1112(a7)
    80002314:	d37c                	sw	a5,100(a4)
    80002316:	0f3e                	slli	t5,t5,0xf
    80002318:	5028                	lw	a0,96(s0)
    8000231a:	ae1d                	j	80002650 <_end+0x40>
    8000231c:	db1f 17d6 af34      	0xaf3417d6db1f
    80002322:	1512                	slli	a0,a0,0x24
    80002324:	6049                	c.lui	zero,0x12
    80002326:	1b79                	addi	s6,s6,-2
    80002328:	85da                	mv	a1,s6
    8000232a:	b20a                	fsd	ft2,288(sp)
    8000232c:	5b7a0a03          	lb	s4,1463(s4)
    80002330:	2b12                	fld	fs6,256(sp)
    80002332:	3c34                	fld	fa3,120(s0)
    80002334:	36cf86b3          	0x36cf86b3
    80002338:	72a6                	ld	t0,104(sp)
    8000233a:	883c                	0x883c
    8000233c:	5e98                	lw	a4,56(a3)
    8000233e:	12c4febf c8952016 	0xc895201612c4febf
    80002346:	629c                	ld	a5,0(a3)
    80002348:	0765                	addi	a4,a4,25
    8000234a:	879f 254e 0549      	0x549254e879f
    80002350:	3a62                	fld	fs4,56(sp)
    80002352:	2c34                	fld	fa3,88(s0)
    80002354:	5260                	lw	s0,100(a2)
    80002356:	7382                	ld	t2,32(sp)
    80002358:	9579                	srai	a0,a0,0x3e
    8000235a:	980e                	add	a6,a6,gp
    8000235c:	7649                	lui	a2,0xffff2
    8000235e:	bbee                	fsd	fs11,496(sp)
    80002360:	39bf4b8f          	0x39bf4b8f
    80002364:	072d                	addi	a4,a4,11
    80002366:	9276                	add	tp,tp,t4
    80002368:	a8ec                	fsd	fa1,208(s1)
    8000236a:	3402                	fld	fs0,32(sp)
    8000236c:	f19d                	bnez	a1,80002292 <test_memory+0x92>
    8000236e:	d5df a646 08b5      	0x8b5a646d5df
    80002374:	ba11                	j	80001c88 <fromhost+0xc48>
    80002376:	c3ad                	beqz	a5,800023d8 <test_memory+0x1d8>
    80002378:	e0d9                	bnez	s1,800023fe <test_memory+0x1fe>
    8000237a:	2609                	addiw	a2,a2,2
    8000237c:	82df8ab7          	lui	s5,0x82df8
    80002380:	09da                	slli	s3,s3,0x16
    80002382:	28b443a3          	0x28b443a3
    80002386:	0cf4                	addi	a3,sp,604
    80002388:	6a0a                	ld	s4,128(sp)
    8000238a:	c080                	sw	s0,0(s1)
    8000238c:	171c                	addi	a5,sp,928
    8000238e:	8165                	srli	a0,a0,0x19
    80002390:	c7c34a37          	lui	s4,0xc7c34
    80002394:	67ba8b23          	sb	s11,1654(s5) # ffffffff82df8676 <__global_pointer$+0xffffffff02df5866>
    80002398:	ffe2                	sd	s8,504(sp)
    8000239a:	9860                	0x9860
    8000239c:	9458                	0x9458
    8000239e:	16f0                	addi	a2,sp,876
    800023a0:	956d                	srai	a0,a0,0x3b
    800023a2:	1444                	addi	s1,sp,548
    800023a4:	cce6                	sw	s9,88(sp)
    800023a6:	9d12                	add	s10,s10,tp
    800023a8:	977d                	srai	a4,a4,0x3f
    800023aa:	9faa                	add	t6,t6,a0
    800023ac:	5930                	lw	a2,112(a0)
    800023ae:	8766                	mv	a4,s9
    800023b0:	942a0d6f          	jal	s10,7ffa24f2 <_start-0x5db0e>
    800023b4:	c34d                	beqz	a4,80002456 <test_memory+0x256>
    800023b6:	1915d7eb          	0x1915d7eb
    800023ba:	a61bc6d3          	0xa61bc6d3
    800023be:	d960                	sw	s0,116(a0)
    800023c0:	2717ba17          	auipc	s4,0x2717b
    800023c4:	f510                	sd	a2,40(a0)
    800023c6:	15a9                	addi	a1,a1,-22
    800023c8:	a161cba7          	fsq	fs6,-1513(gp) # 80002827 <_end+0x217>
    800023cc:	48f0                	lw	a2,84(s1)
    800023ce:	e425                	bnez	s0,80002436 <test_memory+0x236>
    800023d0:	176c                	addi	a1,sp,940
    800023d2:	5a5d                	li	s4,-9
    800023d4:	c716                	sw	t0,140(sp)
    800023d6:	6bcc                	ld	a1,144(a5)
    800023d8:	56d5                	li	a3,-11
    800023da:	5e52                	lw	t3,52(sp)
    800023dc:	47e1                	li	a5,24
    800023de:	33a5                	addiw	t2,t2,-23
    800023e0:	2d23c427          	fsq	fs2,712(t2)
    800023e4:	33f92293          	slti	t0,s2,831
    800023e8:	7f0d                	lui	t5,0xfffe3
    800023ea:	c7a7538b          	0xc7a7538b
    800023ee:	1474dad7          	0x1474dad7
    800023f2:	c4fc                	sw	a5,76(s1)
    800023f4:	e856                	sd	s5,16(sp)
    800023f6:	ffebc3bf a0fd62c2 	0xa0fd62c2ffebc3bf
    800023fe:	e420                	sd	s0,72(s0)
    80002400:	8cf5                	and	s1,s1,a3
    80002402:	eb59                	bnez	a4,80002498 <test_memory+0x298>
    80002404:	c564                	sw	s1,76(a0)
    80002406:	28dc2407          	flw	fs0,653(s8)
    8000240a:	3fda                	fld	ft11,432(sp)
    8000240c:	5951                	li	s2,-12
    8000240e:	7586                	ld	a1,96(sp)
    80002410:	952d8a0b          	0x952d8a0b
    80002414:	3cc1                	addiw	s9,s9,-16
    80002416:	2003da67          	0x2003da67
    8000241a:	a355                	j	800029be <_end+0x3ae>
    8000241c:	aa8272b7          	lui	t0,0xaa827
    80002420:	a3ee9757          	0xa3ee9757
    80002424:	fa8e                	sd	gp,368(sp)
    80002426:	ee34                	sd	a3,88(a2)
    80002428:	ef5f 6148 4723      	0x47236148ef5f
    8000242e:	8272                	mv	tp,t3
    80002430:	3b7e                	fld	fs6,504(sp)
    80002432:	c459d73f c02ce0e1 	0xc02ce0e1c459d73f
    8000243a:	443a                	lw	s0,140(sp)
    8000243c:	e2d0                	sd	a2,128(a3)
    8000243e:	705d                	c.lui	zero,0xffff7
    80002440:	3c2c                	fld	fa1,120(s0)
    80002442:	9aafe04f          	fnmadd.d	ft0,ft11,fa0,fs3,unknown
    80002446:	e690                	sd	a2,8(a3)
    80002448:	e88a                	sd	sp,80(sp)
    8000244a:	1e2c                	addi	a1,sp,824
    8000244c:	9202                	jalr	tp
    8000244e:	2a2d                	addiw	s4,s4,11
    80002450:	503e9e5b          	0x503e9e5b
    80002454:	dff6                	sw	t4,252(sp)
    80002456:	ae16                	fsd	ft5,280(sp)
    80002458:	af5c                	fsd	fa5,152(a4)
    8000245a:	56bc                	lw	a5,104(a3)
    8000245c:	51be15f3          	csrrw	a1,0x51b,t3
    80002460:	e6d5                	bnez	a3,8000250c <test_memory+0x30c>
    80002462:	d179                	beqz	a0,80002428 <test_memory+0x228>
    80002464:	efd79877          	0xefd79877
    80002468:	ea72                	sd	t3,272(sp)
    8000246a:	0dfd                	addi	s11,s11,31
    8000246c:	b509                	j	8000226e <test_memory+0x6e>
    8000246e:	b4ce                	fsd	fs3,104(sp)
    80002470:	a57b5ef7          	0xa57b5ef7
    80002474:	17c1                	addi	a5,a5,-16
    80002476:	968a                	add	a3,a3,sp
    80002478:	daea                	sw	s10,116(sp)
    8000247a:	9a47d6ef          	jal	a3,7ff7f61e <_start-0x809e2>
    8000247e:	61b7d8c3          	fmadd.s	fa7,fa5,fs11,fa2,unknown
    80002482:	a4d5                	j	80002766 <_end+0x156>
    80002484:	af2d                	j	80002bbe <_end+0x5ae>
    80002486:	052d                	addi	a0,a0,11
    80002488:	d438ebd3          	0xd438ebd3
    8000248c:	b7ea3807          	fld	fa6,-1154(s4) # a717cf3e <__global_pointer$+0x2717a12e>
    80002490:	2b25f4e7          	0x2b25f4e7
    80002494:	31be                	fld	ft3,488(sp)
    80002496:	f771                	bnez	a4,80002462 <test_memory+0x262>
    80002498:	3712                	fld	fa4,288(sp)
    8000249a:	4c8d                	li	s9,3
    8000249c:	5694a1e7          	0x5694a1e7
    800024a0:	32ba                	fld	ft5,424(sp)
    800024a2:	1bd4                	addi	a3,sp,500
    800024a4:	06ee612b          	0x6ee612b
    800024a8:	f489                	bnez	s1,800023b2 <test_memory+0x1b2>
    800024aa:	63fd                	lui	t2,0x1f
    800024ac:	1200                	addi	s0,sp,288
    800024ae:	b23c                	fsd	fa5,96(a2)
    800024b0:	fb7c4787          	flq	fa5,-73(s8)
    800024b4:	983c                	0x983c
    800024b6:	9d06                	add	s10,s10,ra
    800024b8:	3775                	addiw	a4,a4,-3
    800024ba:	baae                	fsd	fa1,368(sp)
    800024bc:	832a0d5b          	0x832a0d5b
    800024c0:	07cd                	addi	a5,a5,19
    800024c2:	465d6cf7          	0x465d6cf7
    800024c6:	9e17382f          	0x9e17382f
    800024ca:	dba8124b          	fnmsub.d	ft4,fa6,fs10,fs11,rtz
    800024ce:	0d2a                	slli	s10,s10,0xa
    800024d0:	6276                	ld	tp,344(sp)
    800024d2:	f436                	sd	a3,40(sp)
    800024d4:	71521067          	0x71521067
    800024d8:	d796                	sw	t0,236(sp)
    800024da:	4627806f          	j	8007a93c <__global_pointer$+0x77b2c>
    800024de:	335f74c3          	fmadd.d	fs1,ft10,fs5,ft6
    800024e2:	f500                	sd	s0,40(a0)
    800024e4:	aac4                	fsd	fs1,144(a3)
    800024e6:	33cd                	addiw	t2,t2,-13
    800024e8:	f6fa2423          	sw	a5,-152(s4)
    800024ec:	d1ea                	sw	s10,224(sp)
    800024ee:	978e                	add	a5,a5,gp
    800024f0:	3a18                	fld	fa4,48(a2)
    800024f2:	7c25                	lui	s8,0xfffe9
    800024f4:	c0b9                	beqz	s1,8000253a <test_memory+0x33a>
    800024f6:	8de1                	and	a1,a1,s0
    800024f8:	335e                	fld	ft6,496(sp)
    800024fa:	4abe                	lw	s5,204(sp)
    800024fc:	e940                	sd	s0,144(a0)
    800024fe:	8f0a                	mv	t5,sp
    80002500:	38e8                	fld	fa0,240(s1)
    80002502:	876a                	mv	a4,s10
    80002504:	7cf8                	ld	a4,248(s1)
    80002506:	6121                	addi	sp,sp,64
    80002508:	3ed804f7          	0x3ed804f7
    8000250c:	a868                	fsd	fa0,208(s0)
    8000250e:	d066                	sw	s9,32(sp)
    80002510:	7f358013          	addi	zero,a1,2035
    80002514:	8780                	0x8780
    80002516:	e02d                	bnez	s0,80002578 <test_memory+0x378>
    80002518:	af98                	fsd	fa4,24(a5)
    8000251a:	3dca                	fld	fs11,176(sp)
    8000251c:	418c                	lw	a1,0(a1)
    8000251e:	4136                	lw	sp,76(sp)
    80002520:	695e                	ld	s2,464(sp)
    80002522:	8ca33d73          	csrrc	s10,0x8ca,t1
    80002526:	320219af          	0x320219af
    8000252a:	3b8a                	fld	fs7,160(sp)
    8000252c:	2bf1                	addiw	s7,s7,28
    8000252e:	c364                	sw	s1,68(a4)
    80002530:	87d2                	mv	a5,s4
    80002532:	e348                	sd	a0,128(a4)
    80002534:	a160                	fsd	fs0,192(a0)
    80002536:	0d9e                	slli	s11,s11,0x7
    80002538:	b276                	fsd	ft9,288(sp)
    8000253a:	0aee                	slli	s5,s5,0x1b
    8000253c:	9269                	srli	a2,a2,0x3a
    8000253e:	49a9                	li	s3,10
    80002540:	8fc0                	0x8fc0
    80002542:	7b50                	ld	a2,176(a4)
    80002544:	18ff                	0x18ff
    80002546:	c275                	beqz	a2,8000262a <_end+0x1a>
    80002548:	d055                	beqz	s0,800024ec <test_memory+0x2ec>
    8000254a:	3011                	0x3011
    8000254c:	b50c                	fsd	fa1,40(a0)
    8000254e:	cc7a                	sw	t5,24(sp)
    80002550:	3b05                	addiw	s6,s6,-31
    80002552:	d495                	beqz	s1,8000247e <test_memory+0x27e>
    80002554:	29759fd3          	fmax.s	ft11,fa1,fs7
    80002558:	ec0a                	sd	sp,24(sp)
    8000255a:	bdfc                	fsd	fa5,248(a1)
    8000255c:	bceb3227          	fsd	fa4,-1084(s6)
    80002560:	8358ad8f          	0x8358ad8f
    80002564:	af60                	fsd	fs0,216(a4)
    80002566:	14a6                	slli	s1,s1,0x29
    80002568:	13198927          	0x13198927
    8000256c:	6a75                	lui	s4,0x1d
    8000256e:	52d9                	li	t0,-10
    80002570:	1e1f ac83 afa3      	0xafa3ac831e1f
    80002576:	1c08                	addi	a0,sp,560
    80002578:	2ece                	fld	ft9,208(sp)
    8000257a:	748cab43          	0x748cab43
    8000257e:	c7503cef          	jal	s9,7ff061f2 <_start-0xf9e0e>
    80002582:	59ad573b          	0x59ad573b
    80002586:	b2fc                	fsd	fa5,224(a3)
    80002588:	6a52                	ld	s4,272(sp)
    8000258a:	c26c                	sw	a1,68(a2)
    8000258c:	5399                	li	t2,-26
    8000258e:	64d76efb          	0x64d76efb
    80002592:	e231                	bnez	a2,800025d6 <test_memory+0x3d6>
    80002594:	2f70                	fld	fa2,216(a4)
    80002596:	5014                	lw	a3,32(s0)
    80002598:	d81d                	beqz	s0,800024ce <test_memory+0x2ce>
    8000259a:	0dbe                	slli	s11,s11,0xf
    8000259c:	6550                	ld	a2,136(a0)
    8000259e:	c10ba507          	flw	fa0,-1008(s7)
    800025a2:	d796                	sw	t0,236(sp)
    800025a4:	1cdc                	addi	a5,sp,628
    800025a6:	f1e5                	bnez	a1,80002586 <test_memory+0x386>
    800025a8:	6d3856d3          	0x6d3856d3
    800025ac:	3b1e                	fld	fs6,480(sp)
    800025ae:	16a77ab7          	lui	s5,0x16a77
    800025b2:	681c                	ld	a5,16(s0)
    800025b4:	962e                	add	a2,a2,a1
    800025b6:	c8b75817          	auipc	a6,0xc8b75
    800025ba:	9345                	srli	a4,a4,0x31
    800025bc:	529e                	lw	t0,228(sp)
    800025be:	edfc                	sd	a5,216(a1)
    800025c0:	0a764acf          	fnmadd.d	fs5,fa2,ft7,ft1,rmm
    800025c4:	c77f                	0xc77f
    800025c6:	074d6a3b          	0x74d6a3b
    800025ca:	4cfe                	lw	s9,220(sp)
    800025cc:	6156                	ld	sp,336(sp)
    800025ce:	bd79                	j	8000246c <test_memory+0x26c>
    800025d0:	4350                	lw	a2,4(a4)
    800025d2:	1691                	addi	a3,a3,-28
    800025d4:	c2f8a9a3          	sw	a5,-973(a7)
    800025d8:	ed41                	bnez	a0,80002670 <_end+0x60>
    800025da:	4aa5                	li	s5,9
    800025dc:	279a                	fld	fa5,384(sp)
    800025de:	3522                	fld	fa0,40(sp)
    800025e0:	dd2c                	sw	a1,120(a0)
    800025e2:	319a                	fld	ft3,416(sp)
    800025e4:	1034                	addi	a3,sp,40
    800025e6:	9a878757          	0x9a878757
    800025ea:	1f50                	addi	a2,sp,948
    800025ec:	c210fecf          	fnmadd.d	ft9,ft1,ft1,fs8
    800025f0:	4754                	lw	a3,12(a4)
    800025f2:	46e8                	lw	a0,76(a3)
    800025f4:	04ec                	addi	a1,sp,588
    800025f6:	56c24467          	0x56c24467
    800025fa:	25fd                	addiw	a1,a1,31
    800025fc:	96d6                	add	a3,a3,s5
    800025fe:	a06a                	fsd	fs10,0(sp)

0000000080002600 <loop_count>:
    80002600:	0040                	addi	s0,sp,4
	...

Disassembly of section .riscv.attributes:

0000000000000000 <.riscv.attributes>:
   0:	1e41                	addi	t3,t3,-16
   2:	0000                	unimp
   4:	7200                	ld	s0,32(a2)
   6:	7369                	lui	t1,0xffffa
   8:	01007663          	bgeu	zero,a6,14 <_start-0x7fffffec>
   c:	0014                	0x14
   e:	0000                	unimp
  10:	7205                	lui	tp,0xfffe1
  12:	3676                	fld	fa2,376(sp)
  14:	6934                	ld	a3,80(a0)
  16:	7032                	0x7032
  18:	5f30                	lw	a2,120(a4)
  1a:	326d                	addiw	tp,tp,-5
  1c:	3070                	fld	fa2,224(s0)
	...
