
build/test62:     file format elf64-littleriscv


Disassembly of section .text.init:

0000000080000000 <_start>:
    80000000:	05c0006f          	j	8000005c <reset_vector>

0000000080000004 <trap_vector>:
    80000004:	34202f73          	csrr	t5,mcause
    80000008:	00800f93          	li	t6,8
    8000000c:	03ff0a63          	beq	t5,t6,80000040 <write_tohost>
    80000010:	00900f93          	li	t6,9
    80000014:	03ff0663          	beq	t5,t6,80000040 <write_tohost>
    80000018:	00b00f93          	li	t6,11
    8000001c:	03ff0263          	beq	t5,t6,80000040 <write_tohost>
    80000020:	80000f17          	auipc	t5,0x80000
    80000024:	fe0f0f13          	addi	t5,t5,-32 # 0 <_start-0x80000000>
    80000028:	000f0463          	beqz	t5,80000030 <trap_vector+0x2c>
    8000002c:	000f0067          	jr	t5
    80000030:	34202f73          	csrr	t5,mcause
    80000034:	000f5463          	bgez	t5,8000003c <handle_exception>
    80000038:	0040006f          	j	8000003c <handle_exception>

000000008000003c <handle_exception>:
    8000003c:	5391e193          	ori	gp,gp,1337

0000000080000040 <write_tohost>:
    80000040:	00001f17          	auipc	t5,0x1
    80000044:	fc3f2023          	sw	gp,-64(t5) # 80001000 <tohost>
    80000048:	000902b7          	lui	t0,0x90
    8000004c:	0012829b          	addiw	t0,t0,1
    80000050:	00c29293          	slli	t0,t0,0xc
    80000054:	0002af83          	lw	t6,0(t0) # 90000 <_start-0x7ff70000>
    80000058:	fe9ff06f          	j	80000040 <write_tohost>

000000008000005c <reset_vector>:
    8000005c:	00000093          	li	ra,0
    80000060:	00000113          	li	sp,0
    80000064:	00000193          	li	gp,0
    80000068:	00000213          	li	tp,0
    8000006c:	00000293          	li	t0,0
    80000070:	00000313          	li	t1,0
    80000074:	00000393          	li	t2,0
    80000078:	00000413          	li	s0,0
    8000007c:	00000493          	li	s1,0
    80000080:	00000513          	li	a0,0
    80000084:	00000593          	li	a1,0
    80000088:	00000613          	li	a2,0
    8000008c:	00000693          	li	a3,0
    80000090:	00000713          	li	a4,0
    80000094:	00000793          	li	a5,0
    80000098:	00000813          	li	a6,0
    8000009c:	00000893          	li	a7,0
    800000a0:	00000913          	li	s2,0
    800000a4:	00000993          	li	s3,0
    800000a8:	00000a13          	li	s4,0
    800000ac:	00000a93          	li	s5,0
    800000b0:	00000b13          	li	s6,0
    800000b4:	00000b93          	li	s7,0
    800000b8:	00000c13          	li	s8,0
    800000bc:	00000c93          	li	s9,0
    800000c0:	00000d13          	li	s10,0
    800000c4:	00000d93          	li	s11,0
    800000c8:	00000e13          	li	t3,0
    800000cc:	00000e93          	li	t4,0
    800000d0:	00000f13          	li	t5,0
    800000d4:	00000f93          	li	t6,0
    800000d8:	f1402573          	csrr	a0,mhartid
    800000dc:	00051063          	bnez	a0,800000dc <reset_vector+0x80>
    800000e0:	00000297          	auipc	t0,0x0
    800000e4:	01028293          	addi	t0,t0,16 # 800000f0 <reset_vector+0x94>
    800000e8:	30529073          	csrw	mtvec,t0
    800000ec:	18005073          	csrwi	satp,0
    800000f0:	00000297          	auipc	t0,0x0
    800000f4:	02428293          	addi	t0,t0,36 # 80000114 <reset_vector+0xb8>
    800000f8:	30529073          	csrw	mtvec,t0
    800000fc:	0010029b          	addiw	t0,zero,1
    80000100:	03529293          	slli	t0,t0,0x35
    80000104:	fff28293          	addi	t0,t0,-1
    80000108:	3b029073          	csrw	pmpaddr0,t0
    8000010c:	01f00293          	li	t0,31
    80000110:	3a029073          	csrw	pmpcfg0,t0
    80000114:	30405073          	csrwi	mie,0
    80000118:	00000297          	auipc	t0,0x0
    8000011c:	01428293          	addi	t0,t0,20 # 8000012c <reset_vector+0xd0>
    80000120:	30529073          	csrw	mtvec,t0
    80000124:	30205073          	csrwi	medeleg,0
    80000128:	30305073          	csrwi	mideleg,0
    8000012c:	00000193          	li	gp,0
    80000130:	00000297          	auipc	t0,0x0
    80000134:	ed428293          	addi	t0,t0,-300 # 80000004 <trap_vector>
    80000138:	30529073          	csrw	mtvec,t0
    8000013c:	00100513          	li	a0,1
    80000140:	01f51513          	slli	a0,a0,0x1f
    80000144:	00055c63          	bgez	a0,8000015c <reset_vector+0x100>
    80000148:	0ff0000f          	fence
    8000014c:	00100193          	li	gp,1
    80000150:	05d00893          	li	a7,93
    80000154:	00000513          	li	a0,0
    80000158:	00000073          	ecall
    8000015c:	80000297          	auipc	t0,0x80000
    80000160:	ea428293          	addi	t0,t0,-348 # 0 <_start-0x80000000>
    80000164:	00028a63          	beqz	t0,80000178 <reset_vector+0x11c>
    80000168:	10529073          	csrw	stvec,t0
    8000016c:	0000b2b7          	lui	t0,0xb
    80000170:	1092829b          	addiw	t0,t0,265
    80000174:	30229073          	csrw	medeleg,t0
    80000178:	30005073          	csrwi	mstatus,0
    8000017c:	00000297          	auipc	t0,0x0
    80000180:	01428293          	addi	t0,t0,20 # 80000190 <reset_vector+0x134>
    80000184:	34129073          	csrw	mepc,t0
    80000188:	f1402573          	csrr	a0,mhartid
    8000018c:	30200073          	mret
    80000190:	0200006f          	j	800001b0 <test_start>

0000000080000194 <crash_backward>:
    80000194:	0ff0000f          	fence
    80000198:	00018063          	beqz	gp,80000198 <crash_backward+0x4>
    8000019c:	00119193          	slli	gp,gp,0x1
    800001a0:	0011e193          	ori	gp,gp,1
    800001a4:	05d00893          	li	a7,93
    800001a8:	00018513          	mv	a0,gp
    800001ac:	00000073          	ecall

00000000800001b0 <test_start>:
    800001b0:	00002f97          	auipc	t6,0x2
    800001b4:	e50f8f93          	addi	t6,t6,-432 # 80002000 <hidden_data>
    800001b8:	000fb003          	ld	zero,0(t6)
    800001bc:	008fb083          	ld	ra,8(t6)
    800001c0:	010fb103          	ld	sp,16(t6)
    800001c4:	018fb183          	ld	gp,24(t6)
    800001c8:	020fb203          	ld	tp,32(t6)
    800001cc:	028fb283          	ld	t0,40(t6)
    800001d0:	030fb303          	ld	t1,48(t6)
    800001d4:	038fb383          	ld	t2,56(t6)
    800001d8:	040fb403          	ld	s0,64(t6)
    800001dc:	048fb483          	ld	s1,72(t6)
    800001e0:	050fb503          	ld	a0,80(t6)
    800001e4:	058fb583          	ld	a1,88(t6)
    800001e8:	060fb603          	ld	a2,96(t6)
    800001ec:	068fb683          	ld	a3,104(t6)
    800001f0:	070fb703          	ld	a4,112(t6)
    800001f4:	078fb783          	ld	a5,120(t6)
    800001f8:	080fb803          	ld	a6,128(t6)
    800001fc:	088fb883          	ld	a7,136(t6)
    80000200:	090fb903          	ld	s2,144(t6)
    80000204:	098fb983          	ld	s3,152(t6)
    80000208:	0a0fba03          	ld	s4,160(t6)
    8000020c:	0a8fba83          	ld	s5,168(t6)
    80000210:	0b0fbb03          	ld	s6,176(t6)
    80000214:	0b8fbb83          	ld	s7,184(t6)
    80000218:	0c0fbc03          	ld	s8,192(t6)
    8000021c:	0c8fbc83          	ld	s9,200(t6)
    80000220:	0d0fbd03          	ld	s10,208(t6)
    80000224:	0d8fbd83          	ld	s11,216(t6)
    80000228:	0e0fbe03          	ld	t3,224(t6)
    8000022c:	0e8fbe83          	ld	t4,232(t6)
    80000230:	0f0fbf03          	ld	t5,240(t6)
    80000234:	0f8fbf83          	ld	t6,248(t6)
    80000238:	0040006f          	j	8000023c <pseg_0>

000000008000023c <pseg_0>:
    8000023c:	017bbc33          	sltu	s8,s7,s7
    80000240:	f4a00113          	li	sp,-182
    80000244:	00100393          	li	t2,1
    80000248:	69700e13          	li	t3,1687
    8000024c:	00000713          	li	a4,0
    80000250:	85f00513          	li	a0,-1953
    80000254:	2130eb13          	ori	s6,ra,531
    80000258:	00002d17          	auipc	s10,0x2
    8000025c:	231d0d13          	addi	s10,s10,561 # 80002489 <test_memory+0x289>
    80000260:	016b163b          	sllw	a2,s6,s6
    80000264:	00002697          	auipc	a3,0x2
    80000268:	5d668693          	addi	a3,a3,1494 # 8000283a <_end+0x22a>
    8000026c:	98f00913          	li	s2,-1649
    80000270:	ee2d2ba3          	sw	sp,-265(s10)
    80000274:	012919b3          	sll	s3,s2,s2
    80000278:	45100f13          	li	t5,1105
    8000027c:	00000893          	li	a7,0
    80000280:	03fff9b3          	remu	s3,t6,t6
    80000284:	02ae2bb3          	mulhsu	s7,t3,a0
    80000288:	03ef433b          	divw	t1,t5,t5
    8000028c:	05900093          	li	ra,89
    80000290:	02139933          	mulh	s2,t2,ra
    80000294:	66000513          	li	a0,1632
    80000298:	00002a17          	auipc	s4,0x2
    8000029c:	053a0a13          	addi	s4,s4,83 # 800022eb <test_memory+0xeb>
    800002a0:	58900d13          	li	s10,1417
    800002a4:	2a900e93          	li	t4,681
    800002a8:	02c65bbb          	divuw	s7,a2,a2
    800002ac:	00002a97          	auipc	s5,0x2
    800002b0:	eb8a8a93          	addi	s5,s5,-328 # 80002164 <reg_x12_output+0x4>
    800002b4:	1fea03a3          	sb	t5,487(s4)
    800002b8:	9e800b13          	li	s6,-1560
    800002bc:	01ad5633          	srl	a2,s10,s10
    800002c0:	7b100793          	li	a5,1969
    800002c4:	1bf00f93          	li	t6,447
    800002c8:	03f39393          	slli	t2,t2,0x3f
    800002cc:	2fda8403          	lb	s0,765(s5)
    800002d0:	00003d17          	auipc	s10,0x3
    800002d4:	a06d0d13          	addi	s10,s10,-1530 # 80002cd6 <_end+0x6c6>
    800002d8:	fff00593          	li	a1,-1
    800002dc:	02217cbb          	remuw	s9,sp,sp
    800002e0:	40fed4bb          	sraw	s1,t4,a5
    800002e4:	5ff00b93          	li	s7,1535
    800002e8:	035ac63b          	divw	a2,s5,s5
    800002ec:	4d100e13          	li	t3,1233
    800002f0:	c9669283          	lh	t0,-874(a3)
    800002f4:	d6600c13          	li	s8,-666
    800002f8:	018b3db3          	sltu	s11,s6,s8
    800002fc:	01ce5f3b          	srlw	t5,t3,t3
    80000300:	933d3123          	sd	s3,-1758(s10)
    80000304:	0075c5b3          	xor	a1,a1,t2
    80000308:	00a0a9b3          	slt	s3,ra,a0
    8000030c:	c1200313          	li	t1,-1006
    80000310:	01ffd233          	srl	tp,t6,t6
    80000314:	00bbf833          	and	a6,s7,a1
    80000318:	007861b3          	or	gp,a6,t2
    8000031c:	aef00713          	li	a4,-1297
    80000320:	00e33933          	sltu	s2,t1,a4
    80000324:	7b200b13          	li	s6,1970
    80000328:	2a100f93          	li	t6,673
    8000032c:	017bd8bb          	srlw	a7,s7,s7
    80000330:	00000293          	li	t0,0
    80000334:	41fb0733          	sub	a4,s6,t6
    80000338:	0376bf33          	mulhu	t5,a3,s7
    8000033c:	00000a93          	li	s5,0
    80000340:	a5e00e13          	li	t3,-1442
    80000344:	38900693          	li	a3,905
    80000348:	01bd983b          	sllw	a6,s11,s11
    8000034c:	19a00413          	li	s0,410
    80000350:	03be7b33          	remu	s6,t3,s11
    80000354:	00100e93          	li	t4,1
    80000358:	01791f93          	slli	t6,s2,0x17
    8000035c:	d5a84a13          	xori	s4,a6,-678
    80000360:	00100c13          	li	s8,1
    80000364:	03ce2933          	mulhsu	s2,t3,t3
    80000368:	f1c00993          	li	s3,-228
    8000036c:	e37bc4e3          	blt	s7,s7,80000194 <crash_backward>
    80000370:	03fe9e93          	slli	t4,t4,0x3f
    80000374:	00a19fb3          	sll	t6,gp,a0
    80000378:	fff00793          	li	a5,-1
    8000037c:	00058f13          	mv	t5,a1
    80000380:	000f0713          	mv	a4,t5
    80000384:	5f529e63          	bne	t0,s5,80000980 <crash_forward>
    80000388:	b3200d13          	li	s10,-1230
    8000038c:	03fc1c13          	slli	s8,s8,0x3f
    80000390:	fe200b93          	li	s7,-30
    80000394:	01a42533          	slt	a0,s0,s10
    80000398:	017bf8b3          	and	a7,s7,s7
    8000039c:	00100b13          	li	s6,1
    800003a0:	fff00c93          	li	s9,-1
    800003a4:	4b300493          	li	s1,1203
    800003a8:	01d7c7b3          	xor	a5,a5,t4
    800003ac:	5dd00f93          	li	t6,1501
    800003b0:	ab600213          	li	tp,-1354
    800003b4:	018cccb3          	xor	s9,s9,s8
    800003b8:	00fef333          	and	t1,t4,a5
    800003bc:	019c71b3          	and	gp,s8,s9
    800003c0:	01806133          	or	sp,zero,s8
    800003c4:	14af8293          	addi	t0,t6,330
    800003c8:	0252f433          	remu	s0,t0,t0
    800003cc:	03fb1b13          	slli	s6,s6,0x3f
    800003d0:	01dbe0b3          	or	ra,s7,t4
    800003d4:	ddf2e0e3          	bltu	t0,t6,80000194 <crash_backward>
    800003d8:	4096863b          	subw	a2,a3,s1
    800003dc:	5a316263          	bltu	sp,gp,80000980 <crash_forward>
    800003e0:	29500f13          	li	t5,661
    800003e4:	d2d00593          	li	a1,-723
    800003e8:	01ef4533          	xor	a0,t5,t5
    800003ec:	da1374e3          	bgeu	t1,ra,80000194 <crash_backward>
    800003f0:	fff00e13          	li	t3,-1
    800003f4:	00420db3          	add	s11,tp,tp
    800003f8:	20400893          	li	a7,516
    800003fc:	d8006ce3          	bltu	zero,zero,80000194 <crash_backward>
    80000400:	016e4e33          	xor	t3,t3,s6
    80000404:	8ab00b93          	li	s7,-1877
    80000408:	01cefa33          	and	s4,t4,t3
    8000040c:	9f900913          	li	s2,-1543
    80000410:	016a6833          	or	a6,s4,s6
    80000414:	4128dabb          	sraw	s5,a7,s2
    80000418:	00b9e3b3          	or	t2,s3,a1
    8000041c:	017bc733          	xor	a4,s7,s7
    80000420:	57486063          	bltu	a6,s4,80000980 <crash_forward>
    80000424:	4052d8b3          	sra	a7,t0,t0
    80000428:	00002817          	auipc	a6,0x2
    8000042c:	f6880813          	addi	a6,a6,-152 # 80002390 <test_memory+0x190>
    80000430:	d9900913          	li	s2,-615
    80000434:	41ad0a3b          	subw	s4,s10,s10
    80000438:	08081603          	lh	a2,128(a6)
    8000043c:	9f190c93          	addi	s9,s2,-1551
    80000440:	41ded43b          	sraw	s0,t4,t4
    80000444:	00002697          	auipc	a3,0x2
    80000448:	ae868693          	addi	a3,a3,-1304 # 80001f2c <fromhost+0xeec>
    8000044c:	eff00593          	li	a1,-257
    80000450:	adc58f13          	addi	t5,a1,-1316
    80000454:	01bdd13b          	srlw	sp,s11,s11
    80000458:	d2bf7ee3          	bgeu	t5,a1,80000194 <crash_backward>
    8000045c:	a0300c13          	li	s8,-1533
    80000460:	4b500393          	li	t2,1205
    80000464:	41c95a93          	srai	s5,s2,0x1c
    80000468:	769aa993          	slti	s3,s5,1897
    8000046c:	e2874a93          	xori	s5,a4,-472
    80000470:	00f7963b          	sllw	a2,a5,a5
    80000474:	01ad38b3          	sltu	a7,s10,s10
    80000478:	40b35133          	sra	sp,t1,a1
    8000047c:	00002817          	auipc	a6,0x2
    80000480:	a5680813          	addi	a6,a6,-1450 # 80001ed2 <fromhost+0xe92>
    80000484:	e7400e93          	li	t4,-396
    80000488:	cfe00093          	li	ra,-770
    8000048c:	82d00d93          	li	s11,-2003
    80000490:	00002717          	auipc	a4,0x2
    80000494:	34a70713          	addi	a4,a4,842 # 800027da <_end+0x1ca>
    80000498:	e1370a23          	sb	s3,-492(a4)
    8000049c:	00100193          	li	gp,1
    800004a0:	6c269303          	lh	t1,1730(a3)
    800004a4:	038c6d3b          	remw	s10,s8,s8
    800004a8:	00f7df33          	srl	t5,a5,a5
    800004ac:	dc100713          	li	a4,-575
    800004b0:	03f19193          	slli	gp,gp,0x3f
    800004b4:	01defbb3          	and	s7,t4,t4
    800004b8:	02aa433b          	divw	t1,s4,a0
    800004bc:	fff00a13          	li	s4,-1
    800004c0:	003a4a33          	xor	s4,s4,gp
    800004c4:	58381323          	sh	gp,1414(a6)
    800004c8:	d8e00f93          	li	t6,-626
    800004cc:	f0700913          	li	s2,-249
    800004d0:	ec300793          	li	a5,-317
    800004d4:	b6f00993          	li	s3,-1169
    800004d8:	a6800513          	li	a0,-1432
    800004dc:	01100593          	li	a1,17
    800004e0:	b3f00893          	li	a7,-1217
    800004e4:	014f7433          	and	s0,t5,s4
    800004e8:	c7900f13          	li	t5,-903
    800004ec:	0013d23b          	srlw	tp,t2,ra
    800004f0:	0139013b          	addw	sp,s2,s3
    800004f4:	00346cb3          	or	s9,s0,gp
    800004f8:	02e74abb          	divw	s5,a4,a4
    800004fc:	00000313          	li	t1,0
    80000500:	02b5f2b3          	remu	t0,a1,a1
    80000504:	4ae00593          	li	a1,1198
    80000508:	014a0d33          	add	s10,s4,s4
    8000050c:	02c37233          	remu	tp,t1,a2
    80000510:	00000813          	li	a6,0
    80000514:	9c500c13          	li	s8,-1595
    80000518:	47944463          	blt	s0,s9,80000980 <crash_forward>
    8000051c:	4f700393          	li	t2,1271
    80000520:	958bcb93          	xori	s7,s7,-1704
    80000524:	02fdc4bb          	divw	s1,s11,a5
    80000528:	039ee0bb          	remw	ra,t4,s9
    8000052c:	31100213          	li	tp,785
    80000530:	008bad33          	slt	s10,s7,s0
    80000534:	01aefe33          	and	t3,t4,s10
    80000538:	018c2933          	slt	s2,s8,s8
    8000053c:	33500a93          	li	s5,821
    80000540:	035aa4b3          	mulhsu	s1,s5,s5
    80000544:	02b5b733          	mulhu	a4,a1,a1
    80000548:	ecb00993          	li	s3,-309
    8000054c:	aef00693          	li	a3,-1297
    80000550:	9f2f2293          	slti	t0,t5,-1550
    80000554:	02be57bb          	divuw	a5,t3,a1
    80000558:	03bdfd33          	remu	s10,s11,s11
    8000055c:	f4400193          	li	gp,-188
    80000560:	02affb3b          	remuw	s6,t6,a0
    80000564:	92900b93          	li	s7,-1751
    80000568:	19700913          	li	s2,407
    8000056c:	03290c3b          	mulw	s8,s2,s2
    80000570:	03339133          	mulh	sp,t2,s3
    80000574:	9e400c93          	li	s9,-1564
    80000578:	037bddbb          	divuw	s11,s7,s7
    8000057c:	23700e13          	li	t3,567
    80000580:	03ef4ebb          	divw	t4,t5,t5
    80000584:	01ce20b3          	slt	ra,t3,t3
    80000588:	019c8a33          	add	s4,s9,s9
    8000058c:	00d8b633          	sltu	a2,a7,a3
    80000590:	e9b00a93          	li	s5,-357
    80000594:	035ae4b3          	rem	s1,s5,s5
    80000598:	00326433          	or	s0,tp,gp
    8000059c:	bc000b13          	li	s6,-1088
    800005a0:	40a7543b          	sraw	s0,a4,a0
    800005a4:	00216fb3          	or	t6,sp,sp
    800005a8:	05c00713          	li	a4,92
    800005ac:	00002297          	auipc	t0,0x2
    800005b0:	21228293          	addi	t0,t0,530 # 800027be <_end+0x1ae>
    800005b4:	00e704b3          	add	s1,a4,a4
    800005b8:	03400793          	li	a5,52
    800005bc:	f0500093          	li	ra,-251
    800005c0:	b2b29223          	sh	a1,-1244(t0)
    800005c4:	00b5b833          	sltu	a6,a1,a1
    800005c8:	8a900193          	li	gp,-1879
    800005cc:	0284453b          	divw	a0,s0,s0
    800005d0:	ead00d13          	li	s10,-339
    800005d4:	2ca00693          	li	a3,714
    800005d8:	00e75e3b          	srlw	t3,a4,a4
    800005dc:	7b700e93          	li	t4,1975
    800005e0:	8f4b2d93          	slti	s11,s6,-1804
    800005e4:	65f00393          	li	t2,1631
    800005e8:	37300413          	li	s0,883
    800005ec:	02844fbb          	divw	t6,s0,s0
    800005f0:	03a2acb3          	mulhsu	s9,t0,s10
    800005f4:	58500213          	li	tp,1413
    800005f8:	30c00d93          	li	s11,780
    800005fc:	24400493          	li	s1,580
    80000600:	01dea5b3          	slt	a1,t4,t4
    80000604:	48300113          	li	sp,1155
    80000608:	01bdf2b3          	and	t0,s11,s11
    8000060c:	00002817          	auipc	a6,0x2
    80000610:	9fb80813          	addi	a6,a6,-1541 # 80002007 <hidden_data+0x7>
    80000614:	0271c63b          	divw	a2,gp,t2
    80000618:	01de8c3b          	addw	s8,t4,t4
    8000061c:	0226c33b          	divw	t1,a3,sp
    80000620:	001099b3          	sll	s3,ra,ra
    80000624:	56681da3          	sh	t1,1403(a6)
    80000628:	1db20913          	addi	s2,tp,475 # 1db <_start-0x7ffffe25>
    8000062c:	01ab5f33          	srl	t5,s6,s10
    80000630:	b62142e3          	blt	sp,sp,80000194 <crash_backward>
    80000634:	02f61633          	mulh	a2,a2,a5
    80000638:	95ab3e37          	lui	t3,0x95ab3
    8000063c:	b5227ce3          	bgeu	tp,s2,80000194 <crash_backward>
    80000640:	01007f33          	and	t5,zero,a6
    80000644:	02802c33          	mulhsu	s8,zero,s0
    80000648:	00800a93          	li	s5,8
    8000064c:	03be3b33          	mulhu	s6,t3,s11
    80000650:	00000993          	li	s3,0
    80000654:	4010d0bb          	sraw	ra,ra,ra
    80000658:	00002697          	auipc	a3,0x2
    8000065c:	11b68693          	addi	a3,a3,283 # 80002773 <_end+0x163>
    80000660:	f9000113          	li	sp,-112
    80000664:	cac6b6a3          	sd	a2,-851(a3)
    80000668:	0294da13          	srli	s4,s1,0x29
    8000066c:	00000d93          	li	s11,0
    80000670:	69c00513          	li	a0,1692
    80000674:	fe900813          	li	a6,-23
    80000678:	1b9a8b93          	addi	s7,s5,441
    8000067c:	000b8293          	mv	t0,s7
    80000680:	f0f00c93          	li	s9,-241
    80000684:	00028313          	mv	t1,t0
    80000688:	2c900413          	li	s0,713
    8000068c:	01953fb3          	sltu	t6,a0,s9
    80000690:	0284f73b          	remuw	a4,s1,s0
    80000694:	030875bb          	remuw	a1,a6,a6
    80000698:	02f7e8bb          	remw	a7,a5,a5
    8000069c:	afb99ce3          	bne	s3,s11,80000194 <crash_backward>
    800006a0:	ee600393          	li	t2,-282
    800006a4:	00713d33          	sltu	s10,sp,t2
    800006a8:	41100613          	li	a2,1041
    800006ac:	34800f93          	li	t6,840
    800006b0:	ddd00413          	li	s0,-547
    800006b4:	9d700193          	li	gp,-1577
    800006b8:	0264c6bb          	divw	a3,s1,t1
    800006bc:	ac001ce3          	bnez	zero,80000194 <crash_backward>
    800006c0:	3ff60113          	addi	sp,a2,1023
    800006c4:	97240d13          	addi	s10,s0,-1678
    800006c8:	41188e33          	sub	t3,a7,a7
    800006cc:	00c63933          	sltu	s2,a2,a2
    800006d0:	00002f17          	auipc	t5,0x2
    800006d4:	b87f0f13          	addi	t5,t5,-1145 # 80002257 <test_memory+0x57>
    800006d8:	0231febb          	remuw	t4,gp,gp
    800006dc:	017f1083          	lh	ra,23(t5)
    800006e0:	02b96bb3          	rem	s7,s2,a1
    800006e4:	01fff533          	and	a0,t6,t6
    800006e8:	00100493          	li	s1,1
    800006ec:	2e000c93          	li	s9,736
    800006f0:	ab18c2e3          	blt	a7,a7,80000194 <crash_backward>
    800006f4:	01dee733          	or	a4,t4,t4
    800006f8:	ff300913          	li	s2,-13
    800006fc:	0252cdb3          	div	s11,t0,t0
    80000700:	419cd233          	sra	tp,s9,s9
    80000704:	a88d78e3          	bgeu	s10,s0,80000194 <crash_backward>
    80000708:	00318533          	add	a0,gp,gp
    8000070c:	14984193          	xori	gp,a6,329
    80000710:	7cf00f13          	li	t5,1999
    80000714:	85c90b13          	addi	s6,s2,-1956
    80000718:	01ef1633          	sll	a2,t5,t5
    8000071c:	0017959b          	slliw	a1,a5,0x1
    80000720:	27694063          	blt	s2,s6,80000980 <crash_forward>
    80000724:	c481cfb7          	lui	t6,0xc481c
    80000728:	2d500e93          	li	t4,725
    8000072c:	d1500f13          	li	t5,-747
    80000730:	03ef5233          	divu	tp,t5,t5
    80000734:	00100093          	li	ra,1
    80000738:	76300813          	li	a6,1891
    8000073c:	ef400413          	li	s0,-268
    80000740:	00100d13          	li	s10,1
    80000744:	00002d97          	auipc	s11,0x2
    80000748:	df4d8d93          	addi	s11,s11,-524 # 80002538 <test_memory+0x338>
    8000074c:	33900793          	li	a5,825
    80000750:	03f09093          	slli	ra,ra,0x3f
    80000754:	03fd1d13          	slli	s10,s10,0x3f
    80000758:	00bcb1b3          	sltu	gp,s9,a1
    8000075c:	73e00893          	li	a7,1854
    80000760:	d0ed8ea3          	sb	a4,-739(s11)
    80000764:	e4c00b93          	li	s7,-436
    80000768:	0317dabb          	divuw	s5,a5,a7
    8000076c:	03f49493          	slli	s1,s1,0x3f
    80000770:	fff00a13          	li	s4,-1
    80000774:	fff00613          	li	a2,-1
    80000778:	009a4a33          	xor	s4,s4,s1
    8000077c:	014ef9b3          	and	s3,t4,s4
    80000780:	0099e3b3          	or	t2,s3,s1
    80000784:	fff00113          	li	sp,-1
    80000788:	00114133          	xor	sp,sp,ra
    8000078c:	00217e33          	and	t3,sp,sp
    80000790:	01a64633          	xor	a2,a2,s10
    80000794:	037ecc33          	div	s8,t4,s7
    80000798:	79d00c93          	li	s9,1949
    8000079c:	ead00313          	li	t1,-339
    800007a0:	00c375b3          	and	a1,t1,a2
    800007a4:	001e66b3          	or	a3,t3,ra
    800007a8:	02b5f73b          	remuw	a4,a1,a1
    800007ac:	03943533          	mulhu	a0,s0,s9
    800007b0:	01abe933          	or	s2,s7,s10
    800007b4:	026852b3          	divu	t0,a6,t1
    800007b8:	1cb96463          	bltu	s2,a1,80000980 <crash_forward>
    800007bc:	000b0293          	mv	t0,s6
    800007c0:	01ef5cbb          	srlw	s9,t5,t5
    800007c4:	00338433          	add	s0,t2,gp
    800007c8:	cd300193          	li	gp,-813
    800007cc:	5d000393          	li	t2,1488
    800007d0:	d4300793          	li	a5,-701
    800007d4:	d3200913          	li	s2,-718
    800007d8:	00271b33          	sll	s6,a4,sp
    800007dc:	00f79db3          	sll	s11,a5,a5
    800007e0:	adf00f93          	li	t6,-1313
    800007e4:	e4600593          	li	a1,-442
    800007e8:	00028693          	mv	a3,t0
    800007ec:	b5700f13          	li	t5,-1193
    800007f0:	03efc4b3          	div	s1,t6,t5
    800007f4:	56400c13          	li	s8,1380
    800007f8:	40b18d33          	sub	s10,gp,a1
    800007fc:	00100e93          	li	t4,1
    80000800:	4123d733          	sra	a4,t2,s2
    80000804:	50100b93          	li	s7,1281
    80000808:	03fe9e93          	slli	t4,t4,0x3f
    8000080c:	00217b33          	and	s6,sp,sp
    80000810:	6f400613          	li	a2,1780
    80000814:	73500093          	li	ra,1845
    80000818:	96d2eee3          	bltu	t0,a3,80000194 <crash_backward>
    8000081c:	417b8a3b          	subw	s4,s7,s7
    80000820:	00100e13          	li	t3,1
    80000824:	fde00493          	li	s1,-34
    80000828:	01e4b7b3          	sltu	a5,s1,t5
    8000082c:	03fe1e13          	slli	t3,t3,0x3f
    80000830:	015a91bb          	sllw	gp,s5,s5
    80000834:	021679b3          	remu	s3,a2,ra
    80000838:	9d100a13          	li	s4,-1583
    8000083c:	9c900393          	li	t2,-1591
    80000840:	4a0c0a93          	addi	s5,s8,1184
    80000844:	00100613          	li	a2,1
    80000848:	fff00813          	li	a6,-1
    8000084c:	fff00113          	li	sp,-1
    80000850:	025afbbb          	remuw	s7,s5,t0
    80000854:	f1000c93          	li	s9,-240
    80000858:	0e500713          	li	a4,229
    8000085c:	01c14133          	xor	sp,sp,t3
    80000860:	01d84833          	xor	a6,a6,t4
    80000864:	01047233          	and	tp,s0,a6
    80000868:	01d268b3          	or	a7,tp,t4
    8000086c:	0254bd33          	mulhu	s10,s1,t0
    80000870:	74f00f93          	li	t6,1871
    80000874:	9248e0e3          	bltu	a7,tp,80000194 <crash_backward>
    80000878:	019cedb3          	or	s11,s9,s9
    8000087c:	0242543b          	divuw	s0,tp,tp
    80000880:	033e95b3          	mulh	a1,t4,s3
    80000884:	034a60b3          	rem	ra,s4,s4
    80000888:	02e4e933          	rem	s2,s1,a4
    8000088c:	00100b93          	li	s7,1
    80000890:	1fe00293          	li	t0,510
    80000894:	03fb9b93          	slli	s7,s7,0x3f
    80000898:	03f61613          	slli	a2,a2,0x3f
    8000089c:	012f11bb          	sllw	gp,t5,s2
    800008a0:	fff00993          	li	s3,-1
    800008a4:	01ffef33          	or	t5,t6,t6
    800008a8:	002d7533          	and	a0,s10,sp
    800008ac:	00c9c9b3          	xor	s3,s3,a2
    800008b0:	0253eb33          	rem	s6,t2,t0
    800008b4:	013277b3          	and	a5,tp,s3
    800008b8:	01c56333          	or	t1,a0,t3
    800008bc:	fff00213          	li	tp,-1
    800008c0:	00c666b3          	or	a3,a2,a2
    800008c4:	0a654e63          	blt	a0,t1,80000980 <crash_forward>
    800008c8:	01724233          	xor	tp,tp,s7
    800008cc:	004f7833          	and	a6,t5,tp
    800008d0:	01786cb3          	or	s9,a6,s7
    800008d4:	0ad7f663          	bgeu	a5,a3,80000980 <crash_forward>
    800008d8:	8b0cdee3          	bge	s9,a6,80000194 <crash_backward>
    800008dc:	0040006f          	j	800008e0 <reg_dump>

00000000800008e0 <reg_dump>:
    800008e0:	00002097          	auipc	ra,0x2
    800008e4:	d2008093          	addi	ra,ra,-736 # 80002600 <loop_count>
    800008e8:	0000a103          	lw	sp,0(ra)
    800008ec:	fff10193          	addi	gp,sp,-1
    800008f0:	0030a023          	sw	gp,0(ra)
    800008f4:	940114e3          	bnez	sp,8000023c <pseg_0>
    800008f8:	00002097          	auipc	ra,0x2
    800008fc:	80808093          	addi	ra,ra,-2040 # 80002100 <begin_signature>
    80000900:	0000b023          	sd	zero,0(ra)
    80000904:	0020b823          	sd	sp,16(ra)
    80000908:	0030bc23          	sd	gp,24(ra)
    8000090c:	0240b023          	sd	tp,32(ra)
    80000910:	0250b423          	sd	t0,40(ra)
    80000914:	0260b823          	sd	t1,48(ra)
    80000918:	0270bc23          	sd	t2,56(ra)
    8000091c:	0480b023          	sd	s0,64(ra)
    80000920:	0490b423          	sd	s1,72(ra)
    80000924:	04a0b823          	sd	a0,80(ra)
    80000928:	04b0bc23          	sd	a1,88(ra)
    8000092c:	06c0b023          	sd	a2,96(ra)
    80000930:	06d0b423          	sd	a3,104(ra)
    80000934:	06e0b823          	sd	a4,112(ra)
    80000938:	06f0bc23          	sd	a5,120(ra)
    8000093c:	0900b023          	sd	a6,128(ra)
    80000940:	0910b423          	sd	a7,136(ra)
    80000944:	0920b823          	sd	s2,144(ra)
    80000948:	0930bc23          	sd	s3,152(ra)
    8000094c:	0b40b023          	sd	s4,160(ra)
    80000950:	0b50b423          	sd	s5,168(ra)
    80000954:	0b60b823          	sd	s6,176(ra)
    80000958:	0b70bc23          	sd	s7,184(ra)
    8000095c:	0d80b023          	sd	s8,192(ra)
    80000960:	0d90b423          	sd	s9,200(ra)
    80000964:	0da0b823          	sd	s10,208(ra)
    80000968:	0db0bc23          	sd	s11,216(ra)
    8000096c:	0fc0b023          	sd	t3,224(ra)
    80000970:	0fd0b423          	sd	t4,232(ra)
    80000974:	0fe0b823          	sd	t5,240(ra)
    80000978:	0ff0bc23          	sd	t6,248(ra)
    8000097c:	0200006f          	j	8000099c <test_end>

0000000080000980 <crash_forward>:
    80000980:	0ff0000f          	fence
    80000984:	00018063          	beqz	gp,80000984 <crash_forward+0x4>
    80000988:	00119193          	slli	gp,gp,0x1
    8000098c:	0011e193          	ori	gp,gp,1
    80000990:	05d00893          	li	a7,93
    80000994:	00018513          	mv	a0,gp
    80000998:	00000073          	ecall

000000008000099c <test_end>:
    8000099c:	0ff0000f          	fence
    800009a0:	00100193          	li	gp,1
    800009a4:	05d00893          	li	a7,93
    800009a8:	00000513          	li	a0,0
    800009ac:	00000073          	ecall
    800009b0:	c0001073          	unimp
	...

Disassembly of section .tohost:

0000000080001000 <tohost>:
	...

0000000080001040 <fromhost>:
	...

Disassembly of section .data:

0000000080002000 <hidden_data>:
    80002000:	ffff                	0xffff
    80002002:	ffff                	0xffff
    80002004:	ffff                	0xffff
    80002006:	ffff                	0xffff

0000000080002008 <reg_x1_init>:
    80002008:	f418ac2f          	0xf418ac2f
    8000200c:	b09e                	fsd	ft7,96(sp)
    8000200e:	4ee4                	lw	s1,92(a3)

0000000080002010 <reg_x2_init>:
    80002010:	23b1                	addiw	t2,t2,12
    80002012:	9222bb03          	ld	s6,-1758(t0)
    80002016:	          	0x80089e6b

0000000080002018 <reg_x3_init>:
    80002018:	8008                	0x8008
    8000201a:	ffff                	0xffff
    8000201c:	ffff                	0xffff
    8000201e:	ffff                	0xffff

0000000080002020 <reg_x4_init>:
    80002020:	a62d                	j	8000234a <test_memory+0x14a>
    80002022:	9314                	0x9314
    80002024:	fe88                	sd	a0,56(a3)
    80002026:	          	fnmsub.d	fs3,fa2,ft11,fa4,rmm

0000000080002028 <reg_x5_init>:
    80002028:	73f6                	ld	t2,376(sp)
    8000202a:	0b2a                	slli	s6,s6,0xa
    8000202c:	a5b6                	fsd	fa3,200(sp)
    8000202e:	          	0x3d3b

0000000080002030 <reg_x6_init>:
	...

0000000080002038 <reg_x7_init>:
    80002038:	6d38                	ld	a4,88(a0)
    8000203a:	eb79ffb3          	0xeb79ffb3
    8000203e:	5061                	c.li	zero,-8

0000000080002040 <reg_x8_init>:
    80002040:	ffff                	0xffff
    80002042:	ffff                	0xffff
    80002044:	ffff                	0xffff
    80002046:	ffff                	0xffff

0000000080002048 <reg_x9_init>:
    80002048:	ba495b8b          	0xba495b8b
    8000204c:	c785273b          	0xc785273b

0000000080002050 <reg_x10_init>:
    80002050:	4188                	lw	a0,0(a1)
    80002052:	dd1f 5d59 a3c2      	0xa3c25d59dd1f

0000000080002058 <reg_x11_init>:
	...

0000000080002060 <reg_x12_init>:
    80002060:	532e1e0f          	0x532e1e0f
    80002064:	97d2                	add	a5,a5,s4
    80002066:	24ba                	fld	fs1,392(sp)

0000000080002068 <reg_x13_init>:
    80002068:	9810                	0x9810
    8000206a:	081c                	addi	a5,sp,16
    8000206c:	e09b646b          	0xe09b646b

0000000080002070 <reg_x14_init>:
	...

0000000080002078 <reg_x15_init>:
    80002078:	fa01                	bnez	a2,80001f88 <fromhost+0xf48>
    8000207a:	54c5ec27          	0x54c5ec27
    8000207e:	3f7f                	0x3f7f

0000000080002080 <reg_x16_init>:
    80002080:	08ff8d87          	0x8ff8d87
    80002084:	6f24                	ld	s1,88(a4)
    80002086:	e470                	sd	a2,200(s0)

0000000080002088 <reg_x17_init>:
    80002088:	ac306c53          	0xac306c53
    8000208c:	6bd8                	ld	a4,144(a5)
    8000208e:	8a3a                	mv	s4,a4

0000000080002090 <reg_x18_init>:
    80002090:	a576                	fsd	ft9,136(sp)
    80002092:	b5b2                	fsd	fa2,232(sp)
    80002094:	9ab4                	0x9ab4
    80002096:	c952                	sw	s4,144(sp)

0000000080002098 <reg_x19_init>:
    80002098:	3636                	fld	fa2,360(sp)
    8000209a:	c17c                	sw	a5,68(a0)
    8000209c:	c362                	sw	s8,132(sp)
    8000209e:	          	bne	s4,a3,800019de <fromhost+0x99e>

00000000800020a0 <reg_x20_init>:
    800020a0:	94da                	add	s1,s1,s6
    800020a2:	a338                	fsd	fa4,64(a4)
    800020a4:	b730c7a7          	fsq	fs3,-1169(ra)

00000000800020a8 <reg_x21_init>:
    800020a8:	0002                	c.slli64	zero
    800020aa:	0000                	unimp
    800020ac:	0000                	unimp
    800020ae:	0800                	addi	s0,sp,16

00000000800020b0 <reg_x22_init>:
	...

00000000800020b8 <reg_x23_init>:
    800020b8:	ffff                	0xffff
    800020ba:	ffff                	0xffff
    800020bc:	ffff                	0xffff
    800020be:	ffff                	0xffff

00000000800020c0 <reg_x24_init>:
    800020c0:	acc4                	fsd	fs1,152(s1)
    800020c2:	7f7b2f53          	0x7f7b2f53
    800020c6:	8365                	srli	a4,a4,0x19

00000000800020c8 <reg_x25_init>:
    800020c8:	82a9                	srli	a3,a3,0xa
    800020ca:	18c1                	addi	a7,a7,-16
    800020cc:	f0fa                	sd	t5,96(sp)
    800020ce:	2f5d                	addiw	t5,t5,23

00000000800020d0 <reg_x26_init>:
    800020d0:	be92                	fsd	ft4,376(sp)
    800020d2:	1299                	addi	t0,t0,-26
    800020d4:	af18                	fsd	fa4,24(a4)
    800020d6:	2fc4                	fld	fs1,152(a5)

00000000800020d8 <reg_x27_init>:
    800020d8:	c61e76e3          	bgeu	t3,ra,80001d44 <fromhost+0xd04>
    800020dc:	cee9                	beqz	a3,800021b6 <reg_x22_output+0x6>
    800020de:	c4ce                	sw	s3,72(sp)

00000000800020e0 <reg_x28_init>:
    800020e0:	ffff                	0xffff
    800020e2:	ffff                	0xffff
    800020e4:	ffff                	0xffff
    800020e6:	ffff                	0xffff

00000000800020e8 <reg_x29_init>:
    800020e8:	0002                	c.slli64	zero
    800020ea:	8000                	0x8000
    800020ec:	ffff                	0xffff
    800020ee:	ffff                	0xffff

00000000800020f0 <reg_x30_init>:
    800020f0:	ed0e                	sd	gp,152(sp)
    800020f2:	0da4                	addi	s1,sp,728
    800020f4:	6c7f                	0x6c7f
    800020f6:	          	0xffffeceb

00000000800020f8 <reg_x31_init>:
    800020f8:	ffff                	0xffff
    800020fa:	ffff                	0xffff
    800020fc:	ffff                	0xffff
    800020fe:	ffff                	0xffff

0000000080002100 <begin_signature>:
    80002100:	c210                	sw	a2,0(a2)
    80002102:	fffe                	sd	t6,504(sp)
    80002104:	6ce5                	lui	s9,0x19
    80002106:	d5f2                	sw	t3,232(sp)

0000000080002108 <reg_x1_output>:
    80002108:	c80e                	sw	gp,16(sp)
    8000210a:	3512                	fld	fa0,288(sp)
    8000210c:	9850                	0x9850
    8000210e:	c0be                	sw	a5,64(sp)

0000000080002110 <reg_x2_output>:
    80002110:	8b59                	andi	a4,a4,22
    80002112:	88f1                	andi	s1,s1,28
    80002114:	6082                	ld	ra,0(sp)
    80002116:	2811                	addiw	a6,a6,4

0000000080002118 <reg_x3_output>:
    80002118:	1d09                	addi	s10,s10,-30
    8000211a:	0902                	c.slli64	s2
    8000211c:	7b44                	ld	s1,176(a4)
    8000211e:	          	fnmadd.d	fs10,ft3,fa7,ft4,rtz

0000000080002120 <reg_x4_output>:
    80002120:	2311                	addiw	t1,t1,4
    80002122:	ca1c                	sw	a5,16(a2)
    80002124:	c1f48aa3          	sb	t6,-1003(s1)

0000000080002128 <reg_x5_output>:
    80002128:	6a74                	ld	a3,208(a2)
    8000212a:	64ac                	ld	a1,72(s1)
    8000212c:	bc66                	fsd	fs9,56(sp)
    8000212e:	          	beq	s4,gp,8000150e <fromhost+0x4ce>

0000000080002130 <reg_x6_output>:
    80002130:	be3a                	fsd	fa4,312(sp)
    80002132:	f5f6                	sd	t4,232(sp)
    80002134:	c532                	sw	a2,136(sp)
    80002136:	62ee                	ld	t0,216(sp)

0000000080002138 <reg_x7_output>:
    80002138:	f889                	bnez	s1,8000204a <reg_x9_init+0x2>
    8000213a:	cfe8                	sw	a0,92(a5)
    8000213c:	5524                	lw	s1,104(a0)
    8000213e:	971f        	0xfaa3b850971f

0000000080002140 <reg_x8_output>:
    80002140:	b850                	fsd	fa2,176(s0)
    80002142:	2540faa3          	0x2540faa3
    80002146:	8061                	srli	s0,s0,0x18

0000000080002148 <reg_x9_output>:
    80002148:	bd60                	fsd	fs0,248(a0)
    8000214a:	f0d1                	bnez	s1,800020ce <reg_x25_init+0x6>
    8000214c:	29c2                	fld	fs3,16(sp)
    8000214e:	2da4                	fld	fs1,88(a1)

0000000080002150 <reg_x10_output>:
    80002150:	75e5                	lui	a1,0xffff9
    80002152:	f721                	bnez	a4,8000209a <reg_x19_init+0x2>
    80002154:	5b70                	lw	a2,116(a4)
    80002156:	7d96                	ld	s11,352(sp)

0000000080002158 <reg_x11_output>:
    80002158:	13a4                	addi	s1,sp,488
    8000215a:	7a589793          	0x7a589793
    8000215e:	9f50                	0x9f50

0000000080002160 <reg_x12_output>:
    80002160:	5c6c                	lw	a1,124(s0)
    80002162:	441f 3697 d749      	0xd7493697441f

0000000080002168 <reg_x13_output>:
    80002168:	a88a                	fsd	ft2,80(sp)
    8000216a:	e01daef3          	csrrs	t4,0xe01,s11
    8000216e:	3f84                	fld	fs1,56(a5)

0000000080002170 <reg_x14_output>:
    80002170:	f354                	sd	a3,160(a4)
    80002172:	3689                	addiw	a3,a3,-30
    80002174:	a23e2c9b          	0xa23e2c9b

0000000080002178 <reg_x15_output>:
    80002178:	d4ff                	0xd4ff
    8000217a:	f898                	sd	a4,48(s1)
    8000217c:	5ae6                	lw	s5,120(sp)
    8000217e:	6b76                	ld	s6,344(sp)

0000000080002180 <reg_x16_output>:
    80002180:	8258                	0x8258
    80002182:	0da3068f          	0xda3068f
    80002186:	7072                	0x7072

0000000080002188 <reg_x17_output>:
    80002188:	d620                	sw	s0,104(a2)
    8000218a:	6b9a                	ld	s7,384(sp)
    8000218c:	32f1                	addiw	t0,t0,-4
    8000218e:	dad5                	beqz	a3,80002142 <reg_x8_output+0x2>

0000000080002190 <reg_x18_output>:
    80002190:	c115                	beqz	a0,800021b4 <reg_x22_output+0x4>
    80002192:	201f 4571 63de      	0x63de4571201f

0000000080002198 <reg_x19_output>:
    80002198:	1d3f98ef          	jal	a7,800fbb6a <__global_pointer$+0xf8d5a>
    8000219c:	b2de                	fsd	fs7,352(sp)
    8000219e:	d259                	beqz	a2,80002124 <reg_x4_output+0x4>

00000000800021a0 <reg_x20_output>:
    800021a0:	6bdc                	ld	a5,144(a5)
    800021a2:	d6fe                	sw	t6,108(sp)
    800021a4:	faf54f07          	flq	ft10,-81(a0)

00000000800021a8 <reg_x21_output>:
    800021a8:	0d42                	slli	s10,s10,0x10
    800021aa:	b5ea                	fsd	fs10,232(sp)
    800021ac:	fdfc                	sd	a5,248(a1)
    800021ae:	          	0xd1c98cd3

00000000800021b0 <reg_x22_output>:
    800021b0:	d1c9                	beqz	a1,80002132 <reg_x6_output+0x2>
    800021b2:	61a9                	lui	gp,0xa
    800021b4:	3e96                	fld	ft9,352(sp)
    800021b6:	f000                	sd	s0,32(s0)

00000000800021b8 <reg_x23_output>:
    800021b8:	33fe                	fld	ft7,504(sp)
    800021ba:	86cdb2b7          	lui	t0,0x86cdb
    800021be:	856c                	0x856c

00000000800021c0 <reg_x24_output>:
    800021c0:	b014                	fsd	fa3,32(s0)
    800021c2:	858cc8d3          	0x858cc8d3
    800021c6:	73b0                	ld	a2,96(a5)

00000000800021c8 <reg_x25_output>:
    800021c8:	5c85                	li	s9,-31
    800021ca:	a621                	j	800024d2 <test_memory+0x2d2>
    800021cc:	0c96e9c3          	0xc96e9c3

00000000800021d0 <reg_x26_output>:
    800021d0:	eea6                	sd	s1,344(sp)
    800021d2:	5512663b          	0x5512663b
    800021d6:	          	0x456c9ac7

00000000800021d8 <reg_x27_output>:
    800021d8:	456c                	lw	a1,76(a0)
    800021da:	9295                	srli	a3,a3,0x25
    800021dc:	0111304b          	fnmsub.s	ft0,ft2,fa7,ft0,rup

00000000800021e0 <reg_x28_output>:
    800021e0:	b2a211ef          	jal	gp,7ff2350a <_start-0xdcaf6>
    800021e4:	429a                	lw	t0,132(sp)
    800021e6:	28e6                	fld	fa7,88(sp)

00000000800021e8 <reg_x29_output>:
    800021e8:	1471                	addi	s0,s0,-4
    800021ea:	906c                	0x906c
    800021ec:	c00d                	beqz	s0,8000220e <test_memory+0xe>
    800021ee:	3365                	addiw	t1,t1,-7

00000000800021f0 <reg_x30_output>:
    800021f0:	75f6                	ld	a1,376(sp)
    800021f2:	12d1a87b          	0x12d1a87b
    800021f6:	          	0x59acfdb3

00000000800021f8 <reg_x31_output>:
    800021f8:	59ac                	lw	a1,112(a1)
    800021fa:	a078                	fsd	fa4,192(s0)
    800021fc:	7a71                	lui	s4,0xffffc
    800021fe:	f506                	sd	ra,168(sp)

0000000080002200 <test_memory>:
    80002200:	a6b1                	j	8000254c <test_memory+0x34c>
    80002202:	6569                	lui	a0,0x1a
    80002204:	cec0                	sw	s0,28(a3)
    80002206:	77b2                	ld	a5,296(sp)
    80002208:	b4839203          	lh	tp,-1208(t2)
    8000220c:	d064                	sw	s1,100(s0)
    8000220e:	6996707b          	0x6996707b
    80002212:	084d                	addi	a6,a6,19
    80002214:	afde8727          	0xafde8727
    80002218:	dce2                	sw	s8,120(sp)
    8000221a:	2afc                	fld	fa5,208(a3)
    8000221c:	ce5c                	sw	a5,28(a2)
    8000221e:	7e8a                	ld	t4,160(sp)
    80002220:	4c71                	li	s8,28
    80002222:	f288                	sd	a0,32(a3)
    80002224:	6a2d                	lui	s4,0xb
    80002226:	b436                	fsd	fa3,40(sp)
    80002228:	d92c                	sw	a1,112(a0)
    8000222a:	c1f0                	sw	a2,68(a1)
    8000222c:	d8e16497          	auipc	s1,0xd8e16
    80002230:	cd78                	sw	a4,92(a0)
    80002232:	0f4289c7          	fmsub.q	fs3,ft5,fs4,ft1,rne
    80002236:	f4be                	sd	a5,104(sp)
    80002238:	dd6c                	sw	a1,124(a0)
    8000223a:	1a6d                	addi	s4,s4,-5
    8000223c:	6fac                	ld	a1,88(a5)
    8000223e:	6e08                	ld	a0,24(a2)
    80002240:	709c                	ld	a5,32(s1)
    80002242:	a9d2                	fsd	fs4,208(sp)
    80002244:	27971d3b          	0x27971d3b
    80002248:	77f6ff4f          	fnmadd.q	ft10,fa3,ft11,fa4
    8000224c:	453c                	lw	a5,72(a0)
    8000224e:	5621984f          	fnmadd.q	fa6,ft3,ft2,fa0,rtz
    80002252:	0480                	addi	s0,sp,576
    80002254:	9c9daebf 5adb9e56 	0x5adb9e569c9daebf
    8000225c:	c906                	sw	ra,144(sp)
    8000225e:	7a5c                	ld	a5,176(a2)
    80002260:	2670                	fld	fa2,200(a2)
    80002262:	6e8e                	ld	t4,192(sp)
    80002264:	18e4                	addi	s1,sp,124
    80002266:	913c                	0x913c
    80002268:	bf7065c7          	fmsub.q	fa1,ft0,fs7,fs7,unknown
    8000226c:	4e25                	li	t3,9
    8000226e:	744e                	ld	s0,240(sp)
    80002270:	5392672b          	0x5392672b
    80002274:	f818                	sd	a4,48(s0)
    80002276:	b861                	j	80001b0e <fromhost+0xace>
    80002278:	f9e4                	sd	s1,240(a1)
    8000227a:	3a81                	addiw	s5,s5,-32
    8000227c:	c895                	beqz	s1,800022b0 <test_memory+0xb0>
    8000227e:	b40c                	fsd	fa1,40(s0)
    80002280:	8d82                	jr	s11
    80002282:	5f4a                	lw	t5,176(sp)
    80002284:	a744                	fsd	fs1,136(a4)
    80002286:	22e4                	fld	fs1,192(a3)
    80002288:	c45f 5c28 12f2      	0x12f25c28c45f
    8000228e:	4705                	li	a4,1
    80002290:	61c4                	ld	s1,128(a1)
    80002292:	87f6                	mv	a5,t4
    80002294:	852c                	0x852c
    80002296:	b04d                	j	80001b38 <fromhost+0xaf8>
    80002298:	940c                	0x940c
    8000229a:	e8a8                	sd	a0,80(s1)
    8000229c:	c2f84c83          	lbu	s9,-977(a6)
    800022a0:	8839                	andi	s0,s0,14
    800022a2:	91cd                	srli	a1,a1,0x33
    800022a4:	ac1c                	fsd	fa5,24(s0)
    800022a6:	817c                	0x817c
    800022a8:	03d8                	addi	a4,sp,452
    800022aa:	ba7e                	fsd	ft11,304(sp)
    800022ac:	937e                	add	t1,t1,t6
    800022ae:	d365                	beqz	a4,8000228e <test_memory+0x8e>
    800022b0:	432e                	lw	t1,200(sp)
    800022b2:	7804                	ld	s1,48(s0)
    800022b4:	c3ccffc3          	fmadd.d	ft11,fs9,ft8,fs8
    800022b8:	dcf9                	beqz	s1,80002296 <test_memory+0x96>
    800022ba:	dc66                	sw	s9,56(sp)
    800022bc:	9f85                	subw	a5,a5,s1
    800022be:	795e                	ld	s2,496(sp)
    800022c0:	c250                	sw	a2,4(a2)
    800022c2:	d191                	beqz	a1,800021c6 <reg_x24_output+0x6>
    800022c4:	b556                	fsd	fs5,168(sp)
    800022c6:	eed0                	sd	a2,152(a3)
    800022c8:	e866                	sd	s9,16(sp)
    800022ca:	6d51                	lui	s10,0x14
    800022cc:	0071                	c.nop	28
    800022ce:	18ad                	addi	a7,a7,-21
    800022d0:	933d                	srli	a4,a4,0x2f
    800022d2:	ba00c83b          	0xba00c83b
    800022d6:	e389f68b          	0xe389f68b
    800022da:	adf5                	j	800029d6 <_end+0x3c6>
    800022dc:	054e                	slli	a0,a0,0x13
    800022de:	0f46                	slli	t5,t5,0x11
    800022e0:	0758                	addi	a4,sp,900
    800022e2:	9b7ae48f          	0x9b7ae48f
    800022e6:	8c336283          	lwu	t0,-1853(t1)
    800022ea:	a796                	fsd	ft5,456(sp)
    800022ec:	8fad                	xor	a5,a5,a1
    800022ee:	a2dc5767          	0xa2dc5767
    800022f2:	32aa                	fld	ft5,168(sp)
    800022f4:	d6f4                	sw	a3,108(a3)
    800022f6:	f552                	sd	s4,168(sp)
    800022f8:	f7d0                	sd	a2,168(a5)
    800022fa:	d879                	beqz	s0,800022d0 <test_memory+0xd0>
    800022fc:	5718                	lw	a4,40(a4)
    800022fe:	e998                	sd	a4,16(a1)
    80002300:	d746e933          	0xd746e933
    80002304:	b236                	fsd	fa3,288(sp)
    80002306:	a9db02e7          	jalr	t0,-1379(s6)
    8000230a:	5bff                	0x5bff
    8000230c:	60e2                	ld	ra,24(sp)
    8000230e:	4e6a                	lw	t3,152(sp)
    80002310:	1a88                	addi	a0,sp,368
    80002312:	030c638f          	0x30c638f
    80002316:	8b75                	andi	a4,a4,29
    80002318:	ed6e1d93          	0xed6e1d93
    8000231c:	b01f 2886 b69a      	0xb69a2886b01f
    80002322:	88de364f          	fnmadd.s	fa2,ft8,fa3,fa7,rup
    80002326:	209d                	addiw	ra,ra,7
    80002328:	b4a2b6ef          	jal	a3,7ff2d672 <_start-0xd298e>
    8000232c:	71fa                	ld	gp,440(sp)
    8000232e:	d275                	beqz	a2,80002312 <test_memory+0x112>
    80002330:	3b09d8d3          	0x3b09d8d3
    80002334:	bc9d                	j	80001daa <fromhost+0xd6a>
    80002336:	d7c8                	sw	a0,44(a5)
    80002338:	4ece                	lw	t4,208(sp)
    8000233a:	2a25fe1b          	0x2a25fe1b
    8000233e:	5906                	lw	s2,96(sp)
    80002340:	c199                	beqz	a1,80002346 <test_memory+0x146>
    80002342:	3ae4e8d7          	0x3ae4e8d7
    80002346:	921a                	add	tp,tp,t1
    80002348:	ce72                	sw	t3,28(sp)
    8000234a:	a3ad438f          	0xa3ad438f
    8000234e:	20e3c76f          	jal	a4,8003e55c <__global_pointer$+0x3b74c>
    80002352:	a500                	fsd	fs0,8(a0)
    80002354:	2c5f 8e73 8e2f      	0x8e2f8e732c5f
    8000235a:	62c5                	lui	t0,0x11
    8000235c:	a9f0                	fsd	fa2,208(a1)
    8000235e:	f60e8d77          	0xf60e8d77
    80002362:	94da                	add	s1,s1,s6
    80002364:	5066                	0x5066
    80002366:	6b5f0e77          	0x6b5f0e77
    8000236a:	a4ad                	j	800025d4 <test_memory+0x3d4>
    8000236c:	cded                	beqz	a1,80002466 <test_memory+0x266>
    8000236e:	ae6e                	fsd	fs11,280(sp)
    80002370:	18f0                	addi	a2,sp,124
    80002372:	8184                	0x8184
    80002374:	8dee                	mv	s11,s11
    80002376:	3b05                	addiw	s6,s6,-31
    80002378:	c998                	sw	a4,16(a1)
    8000237a:	9278                	0x9278
    8000237c:	bbc5                	j	8000216c <reg_x13_output+0x4>
    8000237e:	d1cc                	sw	a1,36(a1)
    80002380:	c02d                	beqz	s0,800023e2 <test_memory+0x1e2>
    80002382:	1304                	addi	s1,sp,416
    80002384:	2ea2                	fld	ft9,8(sp)
    80002386:	f12e                	sd	a1,160(sp)
    80002388:	f320                	sd	s0,96(a4)
    8000238a:	4860                	lw	s0,84(s0)
    8000238c:	6ffde47b          	0x6ffde47b
    80002390:	98c9                	andi	s1,s1,-14
    80002392:	495e                	lw	s2,212(sp)
    80002394:	284c                	fld	fa1,144(s0)
    80002396:	8ca1a4af          	0x8ca1a4af
    8000239a:	719f 7ff7 67bb      	0x67bb7ff7719f
    800023a0:	42fe                	lw	t0,220(sp)
    800023a2:	7d78                	ld	a4,248(a0)
    800023a4:	1878                	addi	a4,sp,60
    800023a6:	a2a1                	j	800024ee <test_memory+0x2ee>
    800023a8:	1018                	addi	a4,sp,32
    800023aa:	c5ce                	sw	s3,200(sp)
    800023ac:	2b51                	addiw	s6,s6,20
    800023ae:	4850c653          	0x4850c653
    800023b2:	3394                	fld	fa3,32(a5)
    800023b4:	d65a                	sw	s6,44(sp)
    800023b6:	2c85                	addiw	s9,s9,1
    800023b8:	58cd8313          	addi	t1,s11,1420
    800023bc:	77d3a753          	0x77d3a753
    800023c0:	dedd                	beqz	a3,8000237e <test_memory+0x17e>
    800023c2:	d1f8                	sw	a4,100(a1)
    800023c4:	beee                	fsd	fs11,376(sp)
    800023c6:	dc1bbb93          	sltiu	s7,s7,-575
    800023ca:	62b6                	ld	t0,328(sp)
    800023cc:	7b36                	ld	s6,360(sp)
    800023ce:	af68                	fsd	fa0,216(a4)
    800023d0:	0df9                	addi	s11,s11,30
    800023d2:	a200                	fsd	fs0,0(a2)
    800023d4:	1f62                	slli	t5,t5,0x38
    800023d6:	cb6e3c27          	fsd	fs6,-840(t3) # ffffffff95ab2cb8 <__global_pointer$+0xffffffff15aafea8>
    800023da:	7faf1867          	0x7faf1867
    800023de:	ec86                	sd	ra,88(sp)
    800023e0:	07fa                	slli	a5,a5,0x1e
    800023e2:	f52d                	bnez	a0,8000234c <test_memory+0x14c>
    800023e4:	61b1                	lui	gp,0xc
    800023e6:	dbf5                	beqz	a5,800023da <test_memory+0x1da>
    800023e8:	daf1                	beqz	a3,800023bc <test_memory+0x1bc>
    800023ea:	7646                	ld	a2,112(sp)
    800023ec:	9b27962f          	0x9b27962f
    800023f0:	845ccd4f          	0x845ccd4f
    800023f4:	a133df8f          	0xa133df8f
    800023f8:	1964                	addi	s1,sp,188
    800023fa:	6915                	lui	s2,0x5
    800023fc:	1065                	c.nop	-7
    800023fe:	fc74                	sd	a3,248(s0)
    80002400:	21f56cd7          	0x21f56cd7
    80002404:	7f8d                	lui	t6,0xfffe3
    80002406:	179e                	slli	a5,a5,0x27
    80002408:	eb52c4d7          	0xeb52c4d7
    8000240c:	8c06                	mv	s8,ra
    8000240e:	9e1c                	0x9e1c
    80002410:	7570                	ld	a2,232(a0)
    80002412:	3258                	fld	fa4,160(a2)
    80002414:	8074                	0x8074
    80002416:	0068                	addi	a0,sp,12
    80002418:	a85c                	fsd	fa5,144(s0)
    8000241a:	8c1f 46d0 818f      	0x818f46d08c1f
    80002420:	6ccd                	lui	s9,0x13
    80002422:	7512                	ld	a0,288(sp)
    80002424:	16f4                	addi	a3,sp,876
    80002426:	cde4                	sw	s1,92(a1)
    80002428:	20fd                	addiw	ra,ra,31
    8000242a:	2ecd6dd7          	0x2ecd6dd7
    8000242e:	cd60                	sw	s0,92(a0)
    80002430:	5f8c                	lw	a1,56(a5)
    80002432:	f68a                	sd	sp,360(sp)
    80002434:	c181                	beqz	a1,80002434 <test_memory+0x234>
    80002436:	fdf06153          	0xfdf06153
    8000243a:	5a32                	lw	s4,44(sp)
    8000243c:	32d5                	addiw	t0,t0,-11
    8000243e:	de879aeb          	0xde879aeb
    80002442:	5291                	li	t0,-28
    80002444:	767d                	lui	a2,0xfffff
    80002446:	bb22                	fsd	fs0,432(sp)
    80002448:	b008                	fsd	fa0,32(s0)
    8000244a:	9755bebf fd690cac 	0xfd690cac9755bebf
    80002452:	2566                	fld	fa0,88(sp)
    80002454:	1092                	slli	ra,ra,0x24
    80002456:	31ee                	fld	ft3,248(sp)
    80002458:	a21f7c6f          	jal	s8,7fff9e78 <_start-0x6188>
    8000245c:	5355                	li	t1,-11
    8000245e:	26843f43          	fmadd.q	ft10,fs0,fs0,ft4,rup
    80002462:	9d60d7bf a69215a1 	0xa69215a19d60d7bf
    8000246a:	4041                	c.li	zero,16
    8000246c:	03cdb9b7          	lui	s3,0x3cdb
    80002470:	d7e2                	sw	s8,236(sp)
    80002472:	248a                	fld	fs1,128(sp)
    80002474:	7260                	ld	s0,224(a2)
    80002476:	c55c0793          	addi	a5,s8,-939
    8000247a:	848d                	srai	s1,s1,0x3
    8000247c:	5690f2bb          	0x5690f2bb
    80002480:	9d99                	subw	a1,a1,a4
    80002482:	2bff698f          	0x2bff698f
    80002486:	9175                	srli	a0,a0,0x3d
    80002488:	b7a5                	j	800023f0 <test_memory+0x1f0>
    8000248a:	0c52                	slli	s8,s8,0x14
    8000248c:	09cc                	addi	a1,sp,212
    8000248e:	a4e0                	fsd	fs0,200(s1)
    80002490:	37f6dd63          	bge	a3,t6,8000280a <_end+0x1fa>
    80002494:	fb0d                	bnez	a4,800023c6 <test_memory+0x1c6>
    80002496:	d121                	beqz	a0,800023d6 <test_memory+0x1d6>
    80002498:	ebec                	sd	a1,208(a5)
    8000249a:	93766ccb          	fnmsub.d	fs9,fa2,fs7,fs2,unknown
    8000249e:	476da93f e459b4c5 	0xe459b4c5476da93f
    800024a6:	3939                	addiw	s2,s2,-18
    800024a8:	ef44                	sd	s1,152(a4)
    800024aa:	ce06                	sw	ra,28(sp)
    800024ac:	2fb4                	fld	fa3,88(a5)
    800024ae:	006fa90f          	0x6fa90f
    800024b2:	4418                	lw	a4,8(s0)
    800024b4:	d69c                	sw	a5,40(a3)
    800024b6:	243e                	fld	fs0,456(sp)
    800024b8:	778c                	ld	a1,40(a5)
    800024ba:	621e                	ld	tp,448(sp)
    800024bc:	6c74                	ld	a3,216(s0)
    800024be:	73d2                	ld	t2,304(sp)
    800024c0:	d8fc                	sw	a5,116(s1)
    800024c2:	2241                	addiw	tp,tp,16
    800024c4:	ba96                	fsd	ft5,368(sp)
    800024c6:	23d2                	fld	ft7,272(sp)
    800024c8:	25df5ce3          	bge	t5,t4,80002f20 <__global_pointer$+0x110>
    800024cc:	adc6cc53          	0xadc6cc53
    800024d0:	f4b4261b          	0xf4b4261b
    800024d4:	e175                	bnez	a0,800025b8 <test_memory+0x3b8>
    800024d6:	365ace03          	lbu	t3,869(s5)
    800024da:	f5aab03f 0f15b60c 	0xf15b60cf5aab03f
    800024e2:	d744                	sw	s1,44(a4)
    800024e4:	757d                	lui	a0,0xfffff
    800024e6:	8dea3187          	fld	ft3,-1826(s4) # a8de <_start-0x7fff5722>
    800024ea:	4dce9853          	0x4dce9853
    800024ee:	64902887          	flw	fa7,1609(zero) # 649 <_start-0x7ffff9b7>
    800024f2:	e216                	sd	t0,256(sp)
    800024f4:	d0e6                	sw	s9,96(sp)
    800024f6:	dfa7d597          	auipc	a1,0xdfa7d
    800024fa:	849550f3          	csrrwi	ra,0x849,10
    800024fe:	64f0                	ld	a2,200(s1)
    80002500:	54dc                	lw	a5,44(s1)
    80002502:	d689                	beqz	a3,8000240c <test_memory+0x20c>
    80002504:	df00                	sw	s0,56(a4)
    80002506:	2526                	fld	fa0,72(sp)
    80002508:	d835                	beqz	s0,8000247c <test_memory+0x27c>
    8000250a:	e51f d413 3bd0      	0x3bd0d413e51f
    80002510:	918c                	0x918c
    80002512:	5f14                	lw	a3,56(a4)
    80002514:	eb9e                	sd	t2,464(sp)
    80002516:	ad72                	fsd	ft8,152(sp)
    80002518:	13e6867b          	0x13e6867b
    8000251c:	f8ae                	sd	a1,112(sp)
    8000251e:	7f20                	ld	s0,120(a4)
    80002520:	ba48                	fsd	fa0,176(a2)
    80002522:	bc8d                	j	80001f94 <fromhost+0xf54>
    80002524:	84b0                	0x84b0
    80002526:	a00e                	fsd	ft3,0(sp)
    80002528:	7496                	ld	s1,352(sp)
    8000252a:	2d22                	fld	fs10,8(sp)
    8000252c:	2550                	fld	fa2,136(a0)
    8000252e:	93d6                	add	t2,t2,s5
    80002530:	20e1                	addiw	ra,ra,24
    80002532:	93c8                	0x93c8
    80002534:	5230                	lw	a2,96(a2)
    80002536:	6652                	ld	a2,272(sp)
    80002538:	dc11                	beqz	s0,80002454 <test_memory+0x254>
    8000253a:	3d29                	addiw	s10,s10,-22
    8000253c:	77f8                	ld	a4,232(a5)
    8000253e:	a382                	fsd	ft0,448(sp)
    80002540:	3aa6                	fld	fs5,104(sp)
    80002542:	de64                	sw	s1,124(a2)
    80002544:	0842                	slli	a6,a6,0x10
    80002546:	c23a                	sw	a4,4(sp)
    80002548:	6952                	ld	s2,272(sp)
    8000254a:	7bd1                	lui	s7,0xffff4
    8000254c:	d5e9b277          	0xd5e9b277
    80002550:	52f5                	li	t0,-3
    80002552:	6a14                	ld	a3,16(a2)
    80002554:	551bd797          	auipc	a5,0x551bd
    80002558:	4256                	lw	tp,84(sp)
    8000255a:	3b783613          	sltiu	a2,a6,951
    8000255e:	3222                	fld	ft4,40(sp)
    80002560:	5314                	lw	a3,32(a4)
    80002562:	47e1                	li	a5,24
    80002564:	0011                	c.nop	4
    80002566:	71bc                	ld	a5,96(a1)
    80002568:	44a0                	lw	s0,72(s1)
    8000256a:	abc02093          	slti	ra,zero,-1348
    8000256e:	d9d6                	sw	s5,240(sp)
    80002570:	b341                	j	800022f0 <test_memory+0xf0>
    80002572:	69ab9a53          	0x69ab9a53
    80002576:	c334                	sw	a3,64(a4)
    80002578:	ae6e                	fsd	fs11,280(sp)
    8000257a:	f754                	sd	a3,168(a4)
    8000257c:	6bb5                	lui	s7,0xd
    8000257e:	2fbc                	fld	fa5,88(a5)
    80002580:	3311e907          	0x3311e907
    80002584:	9742679b          	0x9742679b
    80002588:	a72e                	fsd	fa1,392(sp)
    8000258a:	c384                	sw	s1,0(a5)
    8000258c:	2525                	addiw	a0,a0,9
    8000258e:	d898                	sw	a4,48(s1)
    80002590:	e6d2                	sd	s4,328(sp)
    80002592:	d7c6                	sw	a7,236(sp)
    80002594:	ef0b09af          	0xef0b09af
    80002598:	5b30                	lw	a2,112(a4)
    8000259a:	0680                	addi	s0,sp,832
    8000259c:	0d41                	addi	s10,s10,16
    8000259e:	1c71                	addi	s8,s8,-4
    800025a0:	80c6                	mv	ra,a7
    800025a2:	1838                	addi	a4,sp,56
    800025a4:	a001                	j	800025a4 <test_memory+0x3a4>
    800025a6:	ef88                	sd	a0,24(a5)
    800025a8:	48749e9b          	0x48749e9b
    800025ac:	4ae8                	lw	a0,84(a3)
    800025ae:	f820                	sd	s0,112(s0)
    800025b0:	b59ecacb          	0xb59ecacb
    800025b4:	d8da54c7          	fmsub.s	fs1,fs4,fa3,fs11,unknown
    800025b8:	4ba5                	li	s7,9
    800025ba:	3c60                	fld	fs0,248(s0)
    800025bc:	fd29                	bnez	a0,80002516 <test_memory+0x316>
    800025be:	ae79                	j	8000295c <_end+0x34c>
    800025c0:	c3ec                	sw	a1,68(a5)
    800025c2:	62ca                	ld	t0,144(sp)
    800025c4:	6bd9008b          	0x6bd9008b
    800025c8:	cffe                	sw	t6,220(sp)
    800025ca:	6221                	lui	tp,0x8
    800025cc:	a609                	j	800028ce <_end+0x2be>
    800025ce:	2021                	0x2021
    800025d0:	e2e1                	bnez	a3,80002690 <_end+0x80>
    800025d2:	9c7c5ebb          	0x9c7c5ebb
    800025d6:	15e2                	slli	a1,a1,0x38
    800025d8:	9d8c                	0x9d8c
    800025da:	fd830ccb          	0xfd830ccb
    800025de:	57eae9f3          	csrrsi	s3,0x57e,21
    800025e2:	2d29                	addiw	s10,s10,10
    800025e4:	f722                	sd	s0,424(sp)
    800025e6:	7dff                	0x7dff
    800025e8:	725e                	ld	tp,496(sp)
    800025ea:	2f02                	fld	ft10,0(sp)
    800025ec:	70d1                	lui	ra,0xffff4
    800025ee:	d00c                	sw	a1,32(s0)
    800025f0:	17dd                	addi	a5,a5,-9
    800025f2:	a37d                	j	80002ba0 <_end+0x590>
    800025f4:	8f36                	mv	t5,a3
    800025f6:	2a9e                	fld	fs5,448(sp)
    800025f8:	abd9                	j	80002bce <_end+0x5be>
    800025fa:	d1e8b3e3          	0xd1e8b3e3
    800025fe:	5f0c                	lw	a1,56(a4)

0000000080002600 <loop_count>:
    80002600:	0040                	addi	s0,sp,4
	...

Disassembly of section .riscv.attributes:

0000000000000000 <.riscv.attributes>:
   0:	1e41                	addi	t3,t3,-16
   2:	0000                	unimp
   4:	7200                	ld	s0,32(a2)
   6:	7369                	lui	t1,0xffffa
   8:	01007663          	bgeu	zero,a6,14 <_start-0x7fffffec>
   c:	0014                	0x14
   e:	0000                	unimp
  10:	7205                	lui	tp,0xfffe1
  12:	3676                	fld	fa2,376(sp)
  14:	6934                	ld	a3,80(a0)
  16:	7032                	0x7032
  18:	5f30                	lw	a2,120(a4)
  1a:	326d                	addiw	tp,tp,-5
  1c:	3070                	fld	fa2,224(s0)
	...
