
build/test25:     file format elf64-littleriscv


Disassembly of section .text.init:

0000000080000000 <_start>:
    80000000:	05c0006f          	j	8000005c <reset_vector>

0000000080000004 <trap_vector>:
    80000004:	34202f73          	csrr	t5,mcause
    80000008:	00800f93          	li	t6,8
    8000000c:	03ff0a63          	beq	t5,t6,80000040 <write_tohost>
    80000010:	00900f93          	li	t6,9
    80000014:	03ff0663          	beq	t5,t6,80000040 <write_tohost>
    80000018:	00b00f93          	li	t6,11
    8000001c:	03ff0263          	beq	t5,t6,80000040 <write_tohost>
    80000020:	80000f17          	auipc	t5,0x80000
    80000024:	fe0f0f13          	addi	t5,t5,-32 # 0 <_start-0x80000000>
    80000028:	000f0463          	beqz	t5,80000030 <trap_vector+0x2c>
    8000002c:	000f0067          	jr	t5
    80000030:	34202f73          	csrr	t5,mcause
    80000034:	000f5463          	bgez	t5,8000003c <handle_exception>
    80000038:	0040006f          	j	8000003c <handle_exception>

000000008000003c <handle_exception>:
    8000003c:	5391e193          	ori	gp,gp,1337

0000000080000040 <write_tohost>:
    80000040:	00001f17          	auipc	t5,0x1
    80000044:	fc3f2023          	sw	gp,-64(t5) # 80001000 <tohost>
    80000048:	000902b7          	lui	t0,0x90
    8000004c:	0012829b          	addiw	t0,t0,1
    80000050:	00c29293          	slli	t0,t0,0xc
    80000054:	0002af83          	lw	t6,0(t0) # 90000 <_start-0x7ff70000>
    80000058:	fe9ff06f          	j	80000040 <write_tohost>

000000008000005c <reset_vector>:
    8000005c:	00000093          	li	ra,0
    80000060:	00000113          	li	sp,0
    80000064:	00000193          	li	gp,0
    80000068:	00000213          	li	tp,0
    8000006c:	00000293          	li	t0,0
    80000070:	00000313          	li	t1,0
    80000074:	00000393          	li	t2,0
    80000078:	00000413          	li	s0,0
    8000007c:	00000493          	li	s1,0
    80000080:	00000513          	li	a0,0
    80000084:	00000593          	li	a1,0
    80000088:	00000613          	li	a2,0
    8000008c:	00000693          	li	a3,0
    80000090:	00000713          	li	a4,0
    80000094:	00000793          	li	a5,0
    80000098:	00000813          	li	a6,0
    8000009c:	00000893          	li	a7,0
    800000a0:	00000913          	li	s2,0
    800000a4:	00000993          	li	s3,0
    800000a8:	00000a13          	li	s4,0
    800000ac:	00000a93          	li	s5,0
    800000b0:	00000b13          	li	s6,0
    800000b4:	00000b93          	li	s7,0
    800000b8:	00000c13          	li	s8,0
    800000bc:	00000c93          	li	s9,0
    800000c0:	00000d13          	li	s10,0
    800000c4:	00000d93          	li	s11,0
    800000c8:	00000e13          	li	t3,0
    800000cc:	00000e93          	li	t4,0
    800000d0:	00000f13          	li	t5,0
    800000d4:	00000f93          	li	t6,0
    800000d8:	f1402573          	csrr	a0,mhartid
    800000dc:	00051063          	bnez	a0,800000dc <reset_vector+0x80>
    800000e0:	00000297          	auipc	t0,0x0
    800000e4:	01028293          	addi	t0,t0,16 # 800000f0 <reset_vector+0x94>
    800000e8:	30529073          	csrw	mtvec,t0
    800000ec:	18005073          	csrwi	satp,0
    800000f0:	00000297          	auipc	t0,0x0
    800000f4:	02428293          	addi	t0,t0,36 # 80000114 <reset_vector+0xb8>
    800000f8:	30529073          	csrw	mtvec,t0
    800000fc:	0010029b          	addiw	t0,zero,1
    80000100:	03529293          	slli	t0,t0,0x35
    80000104:	fff28293          	addi	t0,t0,-1
    80000108:	3b029073          	csrw	pmpaddr0,t0
    8000010c:	01f00293          	li	t0,31
    80000110:	3a029073          	csrw	pmpcfg0,t0
    80000114:	30405073          	csrwi	mie,0
    80000118:	00000297          	auipc	t0,0x0
    8000011c:	01428293          	addi	t0,t0,20 # 8000012c <reset_vector+0xd0>
    80000120:	30529073          	csrw	mtvec,t0
    80000124:	30205073          	csrwi	medeleg,0
    80000128:	30305073          	csrwi	mideleg,0
    8000012c:	00000193          	li	gp,0
    80000130:	00000297          	auipc	t0,0x0
    80000134:	ed428293          	addi	t0,t0,-300 # 80000004 <trap_vector>
    80000138:	30529073          	csrw	mtvec,t0
    8000013c:	00100513          	li	a0,1
    80000140:	01f51513          	slli	a0,a0,0x1f
    80000144:	00055c63          	bgez	a0,8000015c <reset_vector+0x100>
    80000148:	0ff0000f          	fence
    8000014c:	00100193          	li	gp,1
    80000150:	05d00893          	li	a7,93
    80000154:	00000513          	li	a0,0
    80000158:	00000073          	ecall
    8000015c:	80000297          	auipc	t0,0x80000
    80000160:	ea428293          	addi	t0,t0,-348 # 0 <_start-0x80000000>
    80000164:	00028a63          	beqz	t0,80000178 <reset_vector+0x11c>
    80000168:	10529073          	csrw	stvec,t0
    8000016c:	0000b2b7          	lui	t0,0xb
    80000170:	1092829b          	addiw	t0,t0,265
    80000174:	30229073          	csrw	medeleg,t0
    80000178:	30005073          	csrwi	mstatus,0
    8000017c:	00000297          	auipc	t0,0x0
    80000180:	01428293          	addi	t0,t0,20 # 80000190 <reset_vector+0x134>
    80000184:	34129073          	csrw	mepc,t0
    80000188:	f1402573          	csrr	a0,mhartid
    8000018c:	30200073          	mret
    80000190:	0200006f          	j	800001b0 <test_start>

0000000080000194 <crash_backward>:
    80000194:	0ff0000f          	fence
    80000198:	00018063          	beqz	gp,80000198 <crash_backward+0x4>
    8000019c:	00119193          	slli	gp,gp,0x1
    800001a0:	0011e193          	ori	gp,gp,1
    800001a4:	05d00893          	li	a7,93
    800001a8:	00018513          	mv	a0,gp
    800001ac:	00000073          	ecall

00000000800001b0 <test_start>:
    800001b0:	00002f97          	auipc	t6,0x2
    800001b4:	e50f8f93          	addi	t6,t6,-432 # 80002000 <hidden_data>
    800001b8:	000fb003          	ld	zero,0(t6)
    800001bc:	008fb083          	ld	ra,8(t6)
    800001c0:	010fb103          	ld	sp,16(t6)
    800001c4:	018fb183          	ld	gp,24(t6)
    800001c8:	020fb203          	ld	tp,32(t6)
    800001cc:	028fb283          	ld	t0,40(t6)
    800001d0:	030fb303          	ld	t1,48(t6)
    800001d4:	038fb383          	ld	t2,56(t6)
    800001d8:	040fb403          	ld	s0,64(t6)
    800001dc:	048fb483          	ld	s1,72(t6)
    800001e0:	050fb503          	ld	a0,80(t6)
    800001e4:	058fb583          	ld	a1,88(t6)
    800001e8:	060fb603          	ld	a2,96(t6)
    800001ec:	068fb683          	ld	a3,104(t6)
    800001f0:	070fb703          	ld	a4,112(t6)
    800001f4:	078fb783          	ld	a5,120(t6)
    800001f8:	080fb803          	ld	a6,128(t6)
    800001fc:	088fb883          	ld	a7,136(t6)
    80000200:	090fb903          	ld	s2,144(t6)
    80000204:	098fb983          	ld	s3,152(t6)
    80000208:	0a0fba03          	ld	s4,160(t6)
    8000020c:	0a8fba83          	ld	s5,168(t6)
    80000210:	0b0fbb03          	ld	s6,176(t6)
    80000214:	0b8fbb83          	ld	s7,184(t6)
    80000218:	0c0fbc03          	ld	s8,192(t6)
    8000021c:	0c8fbc83          	ld	s9,200(t6)
    80000220:	0d0fbd03          	ld	s10,208(t6)
    80000224:	0d8fbd83          	ld	s11,216(t6)
    80000228:	0e0fbe03          	ld	t3,224(t6)
    8000022c:	0e8fbe83          	ld	t4,232(t6)
    80000230:	0f0fbf03          	ld	t5,240(t6)
    80000234:	0f8fbf83          	ld	t6,248(t6)
    80000238:	0040006f          	j	8000023c <pseg_0>

000000008000023c <pseg_0>:
    8000023c:	54b00293          	li	t0,1355
    80000240:	00100a93          	li	s5,1
    80000244:	0169dd1b          	srliw	s10,s3,0x16
    80000248:	d7300393          	li	t2,-653
    8000024c:	038c0733          	mul	a4,s8,s8
    80000250:	03fa9a93          	slli	s5,s5,0x3f
    80000254:	01a3d193          	srli	gp,t2,0x1a
    80000258:	0030d59b          	srliw	a1,ra,0x3
    8000025c:	0210e43b          	remw	s0,ra,ra
    80000260:	fff00213          	li	tp,-1
    80000264:	fb400a13          	li	s4,-76
    80000268:	03af5ebb          	divuw	t4,t5,s10
    8000026c:	32b00513          	li	a0,811
    80000270:	01524233          	xor	tp,tp,s5
    80000274:	0273c63b          	divw	a2,t2,t2
    80000278:	96600793          	li	a5,-1690
    8000027c:	c1200493          	li	s1,-1006
    80000280:	00100593          	li	a1,1
    80000284:	13b00c93          	li	s9,315
    80000288:	0041fdb3          	and	s11,gp,tp
    8000028c:	02fa69b3          	rem	s3,s4,a5
    80000290:	00545393          	srli	t2,s0,0x5
    80000294:	019cfb33          	and	s6,s9,s9
    80000298:	00949933          	sll	s2,s1,s1
    8000029c:	06d00f93          	li	t6,109
    800002a0:	31300493          	li	s1,787
    800002a4:	03f77bbb          	remuw	s7,a4,t6
    800002a8:	4045d993          	srai	s3,a1,0x4
    800002ac:	03f518b3          	mulh	a7,a0,t6
    800002b0:	01ef0433          	add	s0,t5,t5
    800002b4:	00100713          	li	a4,1
    800002b8:	9cc00613          	li	a2,-1588
    800002bc:	00078c13          	mv	s8,a5
    800002c0:	be300693          	li	a3,-1053
    800002c4:	405e579b          	sraiw	a5,t3,0x5
    800002c8:	03f71713          	slli	a4,a4,0x3f
    800002cc:	000c0093          	mv	ra,s8
    800002d0:	01047cb3          	and	s9,s0,a6
    800002d4:	6e1c1663          	bne	s8,ra,800009c0 <crash_forward>
    800002d8:	00d2a333          	slt	t1,t0,a3
    800002dc:	07f00293          	li	t0,127
    800002e0:	02100913          	li	s2,33
    800002e4:	4c328c13          	addi	s8,t0,1219
    800002e8:	58c00393          	li	t2,1420
    800002ec:	41d8dbbb          	sraw	s7,a7,t4
    800002f0:	40795b3b          	sraw	s6,s2,t2
    800002f4:	40c4da33          	sra	s4,s1,a2
    800002f8:	41ce57b3          	sra	a5,t3,t3
    800002fc:	10f00913          	li	s2,271
    80000300:	00002997          	auipc	s3,0x2
    80000304:	e6398993          	addi	s3,s3,-413 # 80002163 <reg_x12_output+0x3>
    80000308:	00002497          	auipc	s1,0x2
    8000030c:	d0148493          	addi	s1,s1,-767 # 80002009 <reg_x1_init+0x1>
    80000310:	41ffd6b3          	sra	a3,t6,t6
    80000314:	3c600313          	li	t1,966
    80000318:	01556133          	or	sp,a0,s5
    8000031c:	03f59593          	slli	a1,a1,0x3f
    80000320:	71000893          	li	a7,1808
    80000324:	fff00d13          	li	s10,-1
    80000328:	cf156393          	ori	t2,a0,-783
    8000032c:	00060413          	mv	s0,a2
    80000330:	00002797          	auipc	a5,0x2
    80000334:	0bc78793          	addi	a5,a5,188 # 800023ec <test_memory+0x1ec>
    80000338:	0384c2bb          	divw	t0,s1,s8
    8000033c:	4ee00b93          	li	s7,1262
    80000340:	031300bb          	mulw	ra,t1,a7
    80000344:	00040f93          	mv	t6,s0
    80000348:	00ed4d33          	xor	s10,s10,a4
    8000034c:	86900113          	li	sp,-1943
    80000350:	11098503          	lb	a0,272(s3)
    80000354:	41fd0dbb          	subw	s11,s10,t6
    80000358:	01796633          	or	a2,s2,s7
    8000035c:	01a6f833          	and	a6,a3,s10
    80000360:	1d678b23          	sb	s6,470(a5)
    80000364:	022113b3          	mulh	t2,sp,sp
    80000368:	fff00e93          	li	t4,-1
    8000036c:	00e86f33          	or	t5,a6,a4
    80000370:	a0000a93          	li	s5,-1536
    80000374:	00100913          	li	s2,1
    80000378:	036b38b3          	mulhu	a7,s6,s6
    8000037c:	5b329cb7          	lui	s9,0x5b329
    80000380:	02d1eb3b          	remw	s6,gp,a3
    80000384:	e9700993          	li	s3,-361
    80000388:	5b949a03          	lh	s4,1465(s1)
    8000038c:	13c00f93          	li	t6,316
    80000390:	02055b3b          	divuw	s6,a0,zero
    80000394:	01b763b3          	or	t2,a4,s11
    80000398:	00beceb3          	xor	t4,t4,a1
    8000039c:	00002c97          	auipc	s9,0x2
    800003a0:	26dc8c93          	addi	s9,s9,621 # 80002609 <loop_count+0x9>
    800003a4:	00c656bb          	srlw	a3,a2,a2
    800003a8:	d40cbfa3          	sd	zero,-673(s9)
    800003ac:	00cc3633          	sltu	a2,s8,a2
    800003b0:	03f91913          	slli	s2,s2,0x3f
    800003b4:	00002797          	auipc	a5,0x2
    800003b8:	52578793          	addi	a5,a5,1317 # 800028d9 <_end+0x2c9>
    800003bc:	17500513          	li	a0,373
    800003c0:	015d9cbb          	sllw	s9,s11,s5
    800003c4:	02a56fb3          	rem	t6,a0,a0
    800003c8:	015ae233          	or	tp,s5,s5
    800003cc:	29700693          	li	a3,663
    800003d0:	00a98db3          	add	s11,s3,a0
    800003d4:	a4100413          	li	s0,-1471
    800003d8:	40d6db33          	sra	s6,a3,a3
    800003dc:	9c479ba3          	sh	tp,-1577(a5)
    800003e0:	01d3fe33          	and	t3,t2,t4
    800003e4:	fff00b93          	li	s7,-1
    800003e8:	012bcbb3          	xor	s7,s7,s2
    800003ec:	00b161b3          	or	gp,sp,a1
    800003f0:	017bf0b3          	and	ra,s7,s7
    800003f4:	78b00f93          	li	t6,1931
    800003f8:	00002297          	auipc	t0,0x2
    800003fc:	d7228293          	addi	t0,t0,-654 # 8000216a <reg_x13_output+0x2>
    80000400:	8ff3ed13          	ori	s10,t2,-1793
    80000404:	4da4e893          	ori	a7,s1,1242
    80000408:	d9c1d6e3          	bge	gp,t3,80000194 <crash_backward>
    8000040c:	02846133          	rem	sp,s0,s0
    80000410:	fbf00493          	li	s1,-65
    80000414:	0120e333          	or	t1,ra,s2
    80000418:	3c829c03          	lh	s8,968(t0)
    8000041c:	72700393          	li	t2,1831
    80000420:	03ff863b          	mulw	a2,t6,t6
    80000424:	0074da3b          	srlw	s4,s1,t2
    80000428:	01ce5bb3          	srl	s7,t3,t3
    8000042c:	01ce0933          	add	s2,t3,t3
    80000430:	000e8a93          	mv	s5,t4
    80000434:	c8700d13          	li	s10,-889
    80000438:	00002897          	auipc	a7,0x2
    8000043c:	c9a88893          	addi	a7,a7,-870 # 800020d2 <reg_x26_init+0x2>
    80000440:	39388a23          	sb	s3,916(a7)
    80000444:	000a8c93          	mv	s9,s5
    80000448:	0242743b          	remuw	s0,tp,tp
    8000044c:	02b48833          	mul	a6,s1,a1
    80000450:	01ad7eb3          	and	t4,s10,s10
    80000454:	87c6bd93          	sltiu	s11,a3,-1924
    80000458:	00100993          	li	s3,1
    8000045c:	03f99993          	slli	s3,s3,0x3f
    80000460:	00000a13          	li	s4,0
    80000464:	00000f93          	li	t6,0
    80000468:	36f00113          	li	sp,879
    8000046c:	022d46b3          	div	a3,s10,sp
    80000470:	d39a92e3          	bne	s5,s9,80000194 <crash_backward>
    80000474:	fff00b13          	li	s6,-1
    80000478:	00002e17          	auipc	t3,0x2
    8000047c:	050e0e13          	addi	t3,t3,80 # 800024c8 <test_memory+0x2c8>
    80000480:	03ae1f03          	lh	t5,58(t3)
    80000484:	d1fa68e3          	bltu	s4,t6,80000194 <crash_backward>
    80000488:	00100593          	li	a1,1
    8000048c:	c5800293          	li	t0,-936
    80000490:	013b4b33          	xor	s6,s6,s3
    80000494:	00002797          	auipc	a5,0x2
    80000498:	e2178793          	addi	a5,a5,-479 # 800022b5 <test_memory+0xb5>
    8000049c:	f777a603          	lw	a2,-137(a5)
    800004a0:	38700c13          	li	s8,903
    800004a4:	0052e4b3          	or	s1,t0,t0
    800004a8:	0114823b          	addw	tp,s1,a7
    800004ac:	3c100c93          	li	s9,961
    800004b0:	cf6b42e3          	blt	s6,s6,80000194 <crash_backward>
    800004b4:	0165f1b3          	and	gp,a1,s6
    800004b8:	00000c13          	li	s8,0
    800004bc:	41aa083b          	subw	a6,s4,s10
    800004c0:	0273fe33          	remu	t3,t2,t2
    800004c4:	9d900693          	li	a3,-1575
    800004c8:	0280093b          	mulw	s2,zero,s0
    800004cc:	00dcb433          	sltu	s0,s9,a3
    800004d0:	00002f97          	auipc	t6,0x2
    800004d4:	164f8f93          	addi	t6,t6,356 # 80002634 <_end+0x24>
    800004d8:	5d100213          	li	tp,1489
    800004dc:	01366333          	or	t1,a2,s3
    800004e0:	000e8093          	mv	ra,t4
    800004e4:	00424eb3          	xor	t4,tp,tp
    800004e8:	d98fe603          	lwu	a2,-616(t6)
    800004ec:	4c61ca63          	blt	gp,t1,800009c0 <crash_forward>
    800004f0:	00000293          	li	t0,0
    800004f4:	74300913          	li	s2,1859
    800004f8:	00008493          	mv	s1,ra
    800004fc:	6aa00413          	li	s0,1706
    80000500:	00100893          	li	a7,1
    80000504:	03f59593          	slli	a1,a1,0x3f
    80000508:	53700b93          	li	s7,1335
    8000050c:	4a5c1a63          	bne	s8,t0,800009c0 <crash_forward>
    80000510:	01745e3b          	srlw	t3,s0,s7
    80000514:	09a90693          	addi	a3,s2,154
    80000518:	00100213          	li	tp,1
    8000051c:	02a64b33          	div	s6,a2,a0
    80000520:	24706993          	ori	s3,zero,583
    80000524:	b4600413          	li	s0,-1210
    80000528:	00100a93          	li	s5,1
    8000052c:	03fa9a93          	slli	s5,s5,0x3f
    80000530:	028402b3          	mul	t0,s0,s0
    80000534:	00002b17          	auipc	s6,0x2
    80000538:	40db0b13          	addi	s6,s6,1037 # 80002941 <_end+0x331>
    8000053c:	008469b3          	or	s3,s0,s0
    80000540:	c4d90ae3          	beq	s2,a3,80000194 <crash_backward>
    80000544:	03f89893          	slli	a7,a7,0x3f
    80000548:	fff00a13          	li	s4,-1
    8000054c:	8ef00f93          	li	t6,-1809
    80000550:	c2eb4c03          	lbu	s8,-978(s6)
    80000554:	03f21213          	slli	tp,tp,0x3f
    80000558:	015a4a33          	xor	s4,s4,s5
    8000055c:	03ef5ebb          	divuw	t4,t5,t5
    80000560:	fff00793          	li	a5,-1
    80000564:	00001e17          	auipc	t3,0x1
    80000568:	68fe0e13          	addi	t3,t3,1679 # 80001bf3 <fromhost+0xbb3>
    8000056c:	01447d33          	and	s10,s0,s4
    80000570:	708e0aa3          	sb	s0,1813(t3)
    80000574:	01546f33          	or	t5,s0,s5
    80000578:	fff00b93          	li	s7,-1
    8000057c:	caa00613          	li	a2,-854
    80000580:	004bcbb3          	xor	s7,s7,tp
    80000584:	017271b3          	and	gp,tp,s7
    80000588:	02cffcb3          	remu	s9,t6,a2
    8000058c:	42b5ea63          	bltu	a1,a1,800009c0 <crash_forward>
    80000590:	41a00693          	li	a3,1050
    80000594:	68900993          	li	s3,1673
    80000598:	51e00e93          	li	t4,1310
    8000059c:	92800f93          	li	t6,-1752
    800005a0:	00d6e433          	or	s0,a3,a3
    800005a4:	03f9dcb3          	divu	s9,s3,t6
    800005a8:	0041e833          	or	a6,gp,tp
    800005ac:	0372693b          	remw	s2,tp,s7
    800005b0:	0117c7b3          	xor	a5,a5,a7
    800005b4:	60b00f93          	li	t6,1547
    800005b8:	02dcc33b          	divw	t1,s9,a3
    800005bc:	5fc00413          	li	s0,1532
    800005c0:	f5100493          	li	s1,-175
    800005c4:	d4700e13          	li	t3,-697
    800005c8:	029edb3b          	divuw	s6,t4,s1
    800005cc:	00f17db3          	and	s11,sp,a5
    800005d0:	50f00193          	li	gp,1295
    800005d4:	03ded633          	divu	a2,t4,t4
    800005d8:	02e80bb3          	mul	s7,a6,a4
    800005dc:	40300313          	li	t1,1027
    800005e0:	03ce1c33          	mulh	s8,t3,t3
    800005e4:	ff600493          	li	s1,-10
    800005e8:	026309b3          	mul	s3,t1,t1
    800005ec:	84600693          	li	a3,-1978
    800005f0:	02d1da3b          	divuw	s4,gp,a3
    800005f4:	011be133          	or	sp,s7,a7
    800005f8:	0325d63b          	divuw	a2,a1,s2
    800005fc:	00002f17          	auipc	t5,0x2
    80000600:	e71f0f13          	addi	t5,t5,-399 # 8000246d <test_memory+0x26d>
    80000604:	00000293          	li	t0,0
    80000608:	40318d33          	sub	s10,gp,gp
    8000060c:	90e00813          	li	a6,-1778
    80000610:	008f8cb3          	add	s9,t6,s0
    80000614:	00000093          	li	ra,0
    80000618:	00100693          	li	a3,1
    8000061c:	3a12e263          	bltu	t0,ra,800009c0 <crash_forward>
    80000620:	00002f97          	auipc	t6,0x2
    80000624:	e52f8f93          	addi	t6,t6,-430 # 80002472 <test_memory+0x272>
    80000628:	02790cb3          	mul	s9,s2,t2
    8000062c:	00730b3b          	addw	s6,t1,t2
    80000630:	ff1f8603          	lb	a2,-15(t6)
    80000634:	038aea3b          	remw	s4,s5,s8
    80000638:	107f2fa3          	sw	t2,287(t5)
    8000063c:	66300913          	li	s2,1635
    80000640:	11100a93          	li	s5,273
    80000644:	fff00513          	li	a0,-1
    80000648:	01280eb3          	add	t4,a6,s2
    8000064c:	362d8a63          	beq	s11,sp,800009c0 <crash_forward>
    80000650:	4154d233          	sra	tp,s1,s5
    80000654:	97b00c13          	li	s8,-1669
    80000658:	ddac0d13          	addi	s10,s8,-550
    8000065c:	378d7263          	bgeu	s10,s8,800009c0 <crash_forward>
    80000660:	00b54533          	xor	a0,a0,a1
    80000664:	03f69693          	slli	a3,a3,0x3f
    80000668:	fff00b93          	li	s7,-1
    8000066c:	00a773b3          	and	t2,a4,a0
    80000670:	00dbcbb3          	xor	s7,s7,a3
    80000674:	00b3e733          	or	a4,t2,a1
    80000678:	0178f433          	and	s0,a7,s7
    8000067c:	00d469b3          	or	s3,s0,a3
    80000680:	b1340ae3          	beq	s0,s3,80000194 <crash_backward>
    80000684:	b07768e3          	bltu	a4,t2,80000194 <crash_backward>
    80000688:	46100913          	li	s2,1121
    8000068c:	18f00a93          	li	s5,399
    80000690:	0333d313          	srli	t1,t2,0x33
    80000694:	00000c93          	li	s9,0
    80000698:	3aa00393          	li	t2,938
    8000069c:	10900493          	li	s1,265
    800006a0:	02634333          	div	t1,t1,t1
    800006a4:	415ad2bb          	sraw	t0,s5,s5
    800006a8:	03eb85bb          	mulw	a1,s7,t5
    800006ac:	ea600813          	li	a6,-346
    800006b0:	00000713          	li	a4,0
    800006b4:	01096e33          	or	t3,s2,a6
    800006b8:	67900e93          	li	t4,1657
    800006bc:	83000113          	li	sp,-2000
    800006c0:	5d500993          	li	s3,1493
    800006c4:	41a28433          	sub	s0,t0,s10
    800006c8:	65d00513          	li	a0,1629
    800006cc:	8dd00f93          	li	t6,-1827
    800006d0:	409388bb          	subw	a7,t2,s1
    800006d4:	002126b3          	slt	a3,sp,sp
    800006d8:	bb900d13          	li	s10,-1095
    800006dc:	aaeccce3          	blt	s9,a4,80000194 <crash_backward>
    800006e0:	7f000a13          	li	s4,2032
    800006e4:	1dd00f13          	li	t5,477
    800006e8:	f7a00793          	li	a5,-134
    800006ec:	03fffc3b          	remuw	s8,t6,t6
    800006f0:	03ef2bb3          	mulhsu	s7,t5,t5
    800006f4:	01ae9b33          	sll	s6,t4,s10
    800006f8:	37a98193          	addi	gp,s3,890
    800006fc:	02f53db3          	mulhu	s11,a0,a5
    80000700:	2d31e063          	bltu	gp,s3,800009c0 <crash_forward>
    80000704:	21a00613          	li	a2,538
    80000708:	02ca623b          	remw	tp,s4,a2
    8000070c:	ead00613          	li	a2,-339
    80000710:	03935ebb          	divuw	t4,t1,s9
    80000714:	a5200a93          	li	s5,-1454
    80000718:	fce00c93          	li	s9,-50
    8000071c:	025aedbb          	remw	s11,s5,t0
    80000720:	00100993          	li	s3,1
    80000724:	03ce1733          	mulh	a4,t3,t3
    80000728:	e4200f93          	li	t6,-446
    8000072c:	03967833          	remu	a6,a2,s9
    80000730:	4ca00a13          	li	s4,1226
    80000734:	09600e93          	li	t4,150
    80000738:	0e700c13          	li	s8,231
    8000073c:	ea900793          	li	a5,-343
    80000740:	64abe293          	ori	t0,s7,1610
    80000744:	9cd00093          	li	ra,-1587
    80000748:	02e775bb          	remuw	a1,a4,a4
    8000074c:	005cdbb3          	srl	s7,s9,t0
    80000750:	00098893          	mv	a7,s3
    80000754:	e9600b13          	li	s6,-362
    80000758:	00088493          	mv	s1,a7
    8000075c:	01dae6b3          	or	a3,s5,t4
    80000760:	02ca1d33          	mulh	s10,s4,a2
    80000764:	02f7de33          	divu	t3,a5,a5
    80000768:	018f93bb          	sllw	t2,t6,s8
    8000076c:	79700f13          	li	t5,1943
    80000770:	013c5433          	srl	s0,s8,s3
    80000774:	0160a333          	slt	t1,ra,s6
    80000778:	418c5933          	sra	s2,s8,s8
    8000077c:	03f99993          	slli	s3,s3,0x3f
    80000780:	fff00213          	li	tp,-1
    80000784:	01324233          	xor	tp,tp,s3
    80000788:	01ea3133          	sltu	sp,s4,t5
    8000078c:	004a7533          	and	a0,s4,tp
    80000790:	013561b3          	or	gp,a0,s3
    80000794:	22350663          	beq	a0,gp,800009c0 <crash_forward>
    80000798:	68c07293          	andi	t0,zero,1676
    8000079c:	00001617          	auipc	a2,0x1
    800007a0:	75f60613          	addi	a2,a2,1887 # 80001efb <fromhost+0xebb>
    800007a4:	02f6e3b3          	rem	t2,a3,a5
    800007a8:	02a52bb3          	mulhsu	s7,a0,a0
    800007ac:	c1200893          	li	a7,-1006
    800007b0:	42d00f93          	li	t6,1069
    800007b4:	00002497          	auipc	s1,0x2
    800007b8:	be948493          	addi	s1,s1,-1047 # 8000239d <test_memory+0x19d>
    800007bc:	00100e13          	li	t3,1
    800007c0:	00002b97          	auipc	s7,0x2
    800007c4:	42eb8b93          	addi	s7,s7,1070 # 80002bee <_end+0x5de>
    800007c8:	907bc803          	lbu	a6,-1785(s7)
    800007cc:	00030993          	mv	s3,t1
    800007d0:	03fe1e13          	slli	t3,t3,0x3f
    800007d4:	00098093          	mv	ra,s3
    800007d8:	00001217          	auipc	tp,0x1
    800007dc:	5c120213          	addi	tp,tp,1473 # 80001d99 <fromhost+0xd59>
    800007e0:	6b100593          	li	a1,1713
    800007e4:	00002e97          	auipc	t4,0x2
    800007e8:	037e8e93          	addi	t4,t4,55 # 8000281b <_end+0x20b>
    800007ec:	be100113          	li	sp,-1055
    800007f0:	fff00293          	li	t0,-1
    800007f4:	02217f3b          	remuw	t5,sp,sp
    800007f8:	1c400793          	li	a5,452
    800007fc:	01ad5c33          	srl	s8,s10,s10
    80000800:	59c00d93          	li	s11,1436
    80000804:	bc3ea4a3          	sw	gp,-1079(t4)
    80000808:	02b8c733          	div	a4,a7,a1
    8000080c:	1a199a63          	bne	s3,ra,800009c0 <crash_forward>
    80000810:	00002b17          	auipc	s6,0x2
    80000814:	ef6b0b13          	addi	s6,s6,-266 # 80002706 <_end+0xf6>
    80000818:	416d5f1b          	sraiw	t5,s10,0x16
    8000081c:	002151bb          	srlw	gp,sp,sp
    80000820:	00002417          	auipc	s0,0x2
    80000824:	97c40413          	addi	s0,s0,-1668 # 8000219c <reg_x19_output+0x4>
    80000828:	41fe88b3          	sub	a7,t4,t6
    8000082c:	c7300113          	li	sp,-909
    80000830:	1df00813          	li	a6,479
    80000834:	419c8bbb          	subw	s7,s9,s9
    80000838:	59f64a03          	lbu	s4,1439(a2)
    8000083c:	f0a48303          	lb	t1,-246(s1)
    80000840:	01015c33          	srl	s8,sp,a6
    80000844:	511206a3          	sb	a7,1293(tp) # 50d <_start-0x7ffffaf3>
    80000848:	03bdcd3b          	divw	s10,s11,s11
    8000084c:	06c43903          	ld	s2,108(s0)
    80000850:	01c2c2b3          	xor	t0,t0,t3
    80000854:	d93b3923          	sd	s3,-622(s6)
    80000858:	41290eb3          	sub	t4,s2,s2
    8000085c:	0057f3b3          	and	t2,a5,t0
    80000860:	08ff8513          	addi	a0,t6,143
    80000864:	93f568e3          	bltu	a0,t6,80000194 <crash_backward>
    80000868:	8ba00a93          	li	s5,-1862
    8000086c:	015786b3          	add	a3,a5,s5
    80000870:	01c3ecb3          	or	s9,t2,t3
    80000874:	00100713          	li	a4,1
    80000878:	25900e93          	li	t4,601
    8000087c:	1bc00493          	li	s1,444
    80000880:	62fe8913          	addi	s2,t4,1583
    80000884:	6ba00613          	li	a2,1722
    80000888:	03f71713          	slli	a4,a4,0x3f
    8000088c:	0303b7b3          	mulhu	a5,t2,a6
    80000890:	00100a13          	li	s4,1
    80000894:	03dfe0bb          	remw	ra,t6,t4
    80000898:	fff00b93          	li	s7,-1
    8000089c:	03fa1a13          	slli	s4,s4,0x3f
    800008a0:	3e100413          	li	s0,993
    800008a4:	a2000513          	li	a0,-1504
    800008a8:	fff00593          	li	a1,-1
    800008ac:	6b300313          	li	t1,1715
    800008b0:	3bc00693          	li	a3,956
    800008b4:	0145c5b3          	xor	a1,a1,s4
    800008b8:	0e98899b          	addiw	s3,a7,233
    800008bc:	2c700e13          	li	t3,711
    800008c0:	02650cbb          	mulw	s9,a0,t1
    800008c4:	00ebcbb3          	xor	s7,s7,a4
    800008c8:	017af833          	and	a6,s5,s7
    800008cc:	01936b33          	or	s6,t1,s9
    800008d0:	00001517          	auipc	a0,0x1
    800008d4:	3b750513          	addi	a0,a0,951 # 80001c87 <fromhost+0xc47>
    800008d8:	00b6f133          	and	sp,a3,a1
    800008dc:	01486d33          	or	s10,a6,s4
    800008e0:	0231e233          	rem	tp,gp,gp
    800008e4:	c6b00f13          	li	t5,-917
    800008e8:	02d4fdb3          	remu	s11,s1,a3
    800008ec:	03110c33          	mul	s8,sp,a7
    800008f0:	03a363b3          	rem	t2,t1,s10
    800008f4:	008458bb          	srlw	a7,s0,s0
    800008f8:	00e3efb3          	or	t6,t2,a4
    800008fc:	412952bb          	sraw	t0,s2,s2
    80000900:	02f7ecbb          	remw	s9,a5,a5
    80000904:	65f519a3          	sh	t6,1619(a0)
    80000908:	02c61ab3          	mulh	s5,a2,a2
    8000090c:	03ee41b3          	div	gp,t3,t5
    80000910:	892ed2e3          	bge	t4,s2,80000194 <crash_backward>
    80000914:	ff100993          	li	s3,-15
    80000918:	18200313          	li	t1,386
    8000091c:	0269a0b3          	mulhsu	ra,s3,t1
    80000920:	0040006f          	j	80000924 <reg_dump>

0000000080000924 <reg_dump>:
    80000924:	00002097          	auipc	ra,0x2
    80000928:	cdc08093          	addi	ra,ra,-804 # 80002600 <loop_count>
    8000092c:	0000a103          	lw	sp,0(ra)
    80000930:	fff10193          	addi	gp,sp,-1
    80000934:	0030a023          	sw	gp,0(ra)
    80000938:	900112e3          	bnez	sp,8000023c <pseg_0>
    8000093c:	00001097          	auipc	ra,0x1
    80000940:	7c408093          	addi	ra,ra,1988 # 80002100 <begin_signature>
    80000944:	0000b023          	sd	zero,0(ra)
    80000948:	0020b823          	sd	sp,16(ra)
    8000094c:	0030bc23          	sd	gp,24(ra)
    80000950:	0240b023          	sd	tp,32(ra)
    80000954:	0250b423          	sd	t0,40(ra)
    80000958:	0260b823          	sd	t1,48(ra)
    8000095c:	0270bc23          	sd	t2,56(ra)
    80000960:	0480b023          	sd	s0,64(ra)
    80000964:	0490b423          	sd	s1,72(ra)
    80000968:	04b0bc23          	sd	a1,88(ra)
    8000096c:	06c0b023          	sd	a2,96(ra)
    80000970:	06d0b423          	sd	a3,104(ra)
    80000974:	06e0b823          	sd	a4,112(ra)
    80000978:	06f0bc23          	sd	a5,120(ra)
    8000097c:	0900b023          	sd	a6,128(ra)
    80000980:	0910b423          	sd	a7,136(ra)
    80000984:	0920b823          	sd	s2,144(ra)
    80000988:	0930bc23          	sd	s3,152(ra)
    8000098c:	0b40b023          	sd	s4,160(ra)
    80000990:	0b50b423          	sd	s5,168(ra)
    80000994:	0b60b823          	sd	s6,176(ra)
    80000998:	0b70bc23          	sd	s7,184(ra)
    8000099c:	0d80b023          	sd	s8,192(ra)
    800009a0:	0d90b423          	sd	s9,200(ra)
    800009a4:	0da0b823          	sd	s10,208(ra)
    800009a8:	0db0bc23          	sd	s11,216(ra)
    800009ac:	0fc0b023          	sd	t3,224(ra)
    800009b0:	0fd0b423          	sd	t4,232(ra)
    800009b4:	0fe0b823          	sd	t5,240(ra)
    800009b8:	0ff0bc23          	sd	t6,248(ra)
    800009bc:	0200006f          	j	800009dc <test_end>

00000000800009c0 <crash_forward>:
    800009c0:	0ff0000f          	fence
    800009c4:	00018063          	beqz	gp,800009c4 <crash_forward+0x4>
    800009c8:	00119193          	slli	gp,gp,0x1
    800009cc:	0011e193          	ori	gp,gp,1
    800009d0:	05d00893          	li	a7,93
    800009d4:	00018513          	mv	a0,gp
    800009d8:	00000073          	ecall

00000000800009dc <test_end>:
    800009dc:	0ff0000f          	fence
    800009e0:	00100193          	li	gp,1
    800009e4:	05d00893          	li	a7,93
    800009e8:	00000513          	li	a0,0
    800009ec:	00000073          	ecall
    800009f0:	c0001073          	unimp
	...

Disassembly of section .tohost:

0000000080001000 <tohost>:
	...

0000000080001040 <fromhost>:
	...

Disassembly of section .data:

0000000080002000 <hidden_data>:
    80002000:	8009                	srli	s0,s0,0x2
    80002002:	ffff                	0xffff
    80002004:	ffff                	0xffff
    80002006:	ffff                	0xffff

0000000080002008 <reg_x1_init>:
    80002008:	eb54                	sd	a3,144(a4)
    8000200a:	ade5                	j	80002702 <_end+0xf2>
    8000200c:	9d49                	0x9d49
    8000200e:	cccc                	sw	a1,28(s1)

0000000080002010 <reg_x2_init>:
    80002010:	c8b8                	sw	a4,80(s1)
    80002012:	83fa                	mv	t2,t5
    80002014:	e422                	sd	s0,8(sp)
    80002016:	a582                	fsd	ft0,200(sp)

0000000080002018 <reg_x3_init>:
    80002018:	4c2c                	lw	a1,88(s0)
    8000201a:	382c994f          	fnmadd.s	fs2,fs9,ft2,ft7,rtz
    8000201e:	c402                	sw	zero,8(sp)

0000000080002020 <reg_x4_init>:
    80002020:	8002                	0x8002
    80002022:	ffff                	0xffff
    80002024:	ffff                	0xffff
    80002026:	ffff                	0xffff

0000000080002028 <reg_x5_init>:
    80002028:	ffff8003          	lb	zero,-1(t6)
    8000202c:	ffff                	0xffff
    8000202e:	ffff                	0xffff

0000000080002030 <reg_x6_init>:
	...

0000000080002038 <reg_x7_init>:
	...

0000000080002040 <reg_x8_init>:
    80002040:	9e6d                	0x9e6d
    80002042:	93eb1f07          	0x93eb1f07
    80002046:	e858                	sd	a4,144(s0)

0000000080002048 <reg_x9_init>:
    80002048:	d4e8                	sw	a0,108(s1)
    8000204a:	8fbd3dbf  	0x9cb721f48fbd3dbf

0000000080002050 <reg_x10_init>:
    80002050:	e3a19cb7          	lui	s9,0xe3a19
    80002054:	36f2                	fld	fa3,312(sp)
    80002056:	          	0x8007752f

0000000080002058 <reg_x11_init>:
    80002058:	ffff8007          	0xffff8007
    8000205c:	ffff                	0xffff
    8000205e:	ffff                	0xffff

0000000080002060 <reg_x12_init>:
    80002060:	305e                	fld	ft0,496(sp)
    80002062:	c9b0                	sw	a2,80(a1)
    80002064:	a05f ebe4       	0xffffebe4a05f

0000000080002068 <reg_x13_init>:
    80002068:	ffff                	0xffff
    8000206a:	ffff                	0xffff
    8000206c:	ffff                	0xffff
    8000206e:	ffff                	0xffff

0000000080002070 <reg_x14_init>:
    80002070:	1484f593          	andi	a1,s1,328
    80002074:	208f0b8f          	0x208f0b8f

0000000080002078 <reg_x15_init>:
    80002078:	5dfe                	lw	s11,252(sp)
    8000207a:	31de                	fld	ft3,496(sp)
    8000207c:	d85048c7          	fmsub.s	fa7,ft0,ft5,fs11,rmm

0000000080002080 <reg_x16_init>:
    80002080:	ffff                	0xffff
    80002082:	ffff                	0xffff
    80002084:	ffff                	0xffff
    80002086:	ffff                	0xffff

0000000080002088 <reg_x17_init>:
    80002088:	ff0ccfbb          	0xff0ccfbb
    8000208c:	5ebe                	lw	t4,236(sp)
    8000208e:	dc72                	sw	t3,56(sp)

0000000080002090 <reg_x18_init>:
    80002090:	0002                	c.slli64	zero
    80002092:	8000                	0x8000
    80002094:	ffff                	0xffff
    80002096:	ffff                	0xffff

0000000080002098 <reg_x19_init>:
    80002098:	f8e85f3f ca4cfa1d 	0xca4cfa1df8e85f3f

00000000800020a0 <reg_x20_init>:
    800020a0:	30ea                	fld	ft1,184(sp)
    800020a2:	a25a                	fsd	fs6,256(sp)
    800020a4:	758d                	lui	a1,0xfffe3
    800020a6:	          	0xf1e4c86b

00000000800020a8 <reg_x21_init>:
    800020a8:	f1e4                	sd	s1,224(a1)
    800020aa:	2800                	fld	fs0,16(s0)
    800020ac:	f040                	sd	s0,160(s0)
    800020ae:	          	0xffff9df7

00000000800020b0 <reg_x22_init>:
    800020b0:	ffff                	0xffff
    800020b2:	ffff                	0xffff
    800020b4:	ffff                	0xffff
    800020b6:	ffff                	0xffff

00000000800020b8 <reg_x23_init>:
    800020b8:	fffffffb          	0xfffffffb
    800020bc:	ffff                	0xffff
    800020be:	ffff                	0xffff

00000000800020c0 <reg_x24_init>:
    800020c0:	29c9                	addiw	s3,s3,18
    800020c2:	acaedfbb          	0xacaedfbb
    800020c6:	006d                	c.nop	27

00000000800020c8 <reg_x25_init>:
    800020c8:	0d51                	addi	s10,s10,20
    800020ca:	95fc                	0x95fc
    800020cc:	7590                	ld	a2,40(a1)
    800020ce:	6a32                	ld	s4,264(sp)

00000000800020d0 <reg_x26_init>:
    800020d0:	ff84                	sd	s1,56(a5)
    800020d2:	ffff                	0xffff
    800020d4:	ffff                	0xffff
    800020d6:	ffff                	0xffff

00000000800020d8 <reg_x27_init>:
    800020d8:	93bd                	srli	a5,a5,0x2f
    800020da:	ce56                	sw	s5,28(sp)
    800020dc:	6a0d67b7          	lui	a5,0x6a0d6

00000000800020e0 <reg_x28_init>:
    800020e0:	ff80                	sd	s0,56(a5)
    800020e2:	ffff                	0xffff
    800020e4:	ffff                	0xffff
    800020e6:	ffff                	0xffff

00000000800020e8 <reg_x29_init>:
    800020e8:	8000                	0x8000
    800020ea:	ffff                	0xffff
    800020ec:	ffff                	0xffff
    800020ee:	ffff                	0xffff

00000000800020f0 <reg_x30_init>:
    800020f0:	0001                	nop
    800020f2:	0000                	unimp
    800020f4:	0000                	unimp
	...

00000000800020f8 <reg_x31_init>:
    800020f8:	defe                	sw	t6,124(sp)
    800020fa:	9ed0e043          	fmadd.q	ft0,ft1,fa3,fs3,unknown
    800020fe:	aa62                	fsd	fs8,272(sp)

0000000080002100 <begin_signature>:
    80002100:	0bf9                	addi	s7,s7,30
    80002102:	28ca                	fld	fa7,144(sp)
    80002104:	ec05                	bnez	s0,8000213c <reg_x7_output+0x4>
    80002106:	264a                	fld	fa2,144(sp)

0000000080002108 <reg_x1_output>:
    80002108:	d14d                	beqz	a0,800020aa <reg_x21_init+0x2>
    8000210a:	2871                	addiw	a6,a6,28
    8000210c:	e55c                	sd	a5,136(a0)
    8000210e:	          	fmsub.d	fa7,ft3,fa3,ft4,rup

0000000080002110 <reg_x2_output>:
    80002110:	22d1                	addiw	t0,t0,20
    80002112:	4521                	li	a0,8
    80002114:	2ef5                	addiw	t4,t4,29
    80002116:	          	fmsub.s	fs7,ft11,fs10,ft0,rne

0000000080002118 <reg_x3_output>:
    80002118:	cb9e01af          	0xcb9e01af
    8000211c:	155f 2f1f       	0x44732f1f155f

0000000080002120 <reg_x4_output>:
    80002120:	8d014473          	0x8d014473
    80002124:	118e                	slli	gp,gp,0x23
    80002126:	6776                	ld	a4,344(sp)

0000000080002128 <reg_x5_output>:
    80002128:	86d8                	0x86d8
    8000212a:	eeca                	sd	s2,344(sp)
    8000212c:	3858                	fld	fa4,176(s0)
    8000212e:	2656                	fld	fa2,336(sp)

0000000080002130 <reg_x6_output>:
    80002130:	a766                	fsd	fs9,392(sp)
    80002132:	d2cf8ef7          	0xd2cf8ef7
    80002136:	7bbc                	ld	a5,112(a5)

0000000080002138 <reg_x7_output>:
    80002138:	7025                	c.lui	zero,0xfffe9
    8000213a:	84eb11fb          	0x84eb11fb
    8000213e:	          	0xbcec3d8f

0000000080002140 <reg_x8_output>:
    80002140:	bcec                	fsd	fa1,248(s1)
    80002142:	aa1dc0cb          	fnmsub.d	ft1,fs11,ft1,fs5,rmm
    80002146:	          	0x4913f127

0000000080002148 <reg_x9_output>:
    80002148:	ea5a4913          	xori	s2,s4,-347
    8000214c:	3bc9                	addiw	s7,s7,-14
    8000214e:	5c75                	li	s8,-3

0000000080002150 <reg_x10_output>:
    80002150:	60361797          	auipc	a5,0x60361
    80002154:	bbae                	fsd	fa1,496(sp)
    80002156:	          	0x73f0050b

0000000080002158 <reg_x11_output>:
    80002158:	73f0                	ld	a2,224(a5)
    8000215a:	39bc                	fld	fa5,112(a1)
    8000215c:	ccc4                	sw	s1,28(s1)
    8000215e:	9cb2                	add	s9,s9,a2

0000000080002160 <reg_x12_output>:
    80002160:	a722                	fsd	fs0,392(sp)
    80002162:	ac06                	fsd	ft1,24(sp)
    80002164:	6f29                	lui	t5,0xa
    80002166:	3929                	addiw	s2,s2,-22

0000000080002168 <reg_x13_output>:
    80002168:	fbd5                	bnez	a5,8000211c <reg_x3_output+0x4>
    8000216a:	c8053d27          	fsd	ft0,-870(a0)
    8000216e:	f86c                	sd	a1,240(s0)

0000000080002170 <reg_x14_output>:
    80002170:	5d7d                	li	s10,-1
    80002172:	b452                	fsd	fs4,40(sp)
    80002174:	0c8c                	addi	a1,sp,592
    80002176:	          	fnmsub.s	fs7,ft7,ft9,ft2,unknown

0000000080002178 <reg_x15_output>:
    80002178:	cf7f11d3          	0xcf7f11d3
    8000217c:	1f95                	addi	t6,t6,-27
    8000217e:	7670                	ld	a2,232(a2)

0000000080002180 <reg_x16_output>:
    80002180:	9129                	srli	a0,a0,0x2a
    80002182:	c92d                	beqz	a0,800021f4 <reg_x30_output+0x4>
    80002184:	c350                	sw	a2,4(a4)
    80002186:	6135                	addi	sp,sp,352

0000000080002188 <reg_x17_output>:
    80002188:	0b49a96b          	0xb49a96b
    8000218c:	7d26                	ld	s10,104(sp)
    8000218e:	4155                	li	sp,21

0000000080002190 <reg_x18_output>:
    80002190:	b0c6                	fsd	fa7,96(sp)
    80002192:	f1f9                	bnez	a1,80002158 <reg_x11_output>
    80002194:	3c017fcb          	0x3c017fcb

0000000080002198 <reg_x19_output>:
    80002198:	aa17e843          	fmadd.d	fa6,fa5,ft1,fs5,unknown
    8000219c:	b00c                	fsd	fa1,32(s0)
    8000219e:	275d                	addiw	a4,a4,23

00000000800021a0 <reg_x20_output>:
    800021a0:	1be9                	addi	s7,s7,-6
    800021a2:	58a2                	lw	a7,40(sp)
    800021a4:	fc4e32d7          	0xfc4e32d7

00000000800021a8 <reg_x21_output>:
    800021a8:	c06f5d17          	auipc	s10,0xc06f5
    800021ac:	778c                	ld	a1,40(a5)
    800021ae:	a998                	fsd	fa4,16(a1)

00000000800021b0 <reg_x22_output>:
    800021b0:	cd8d3533          	0xcd8d3533
    800021b4:	b4136faf          	0xb4136faf

00000000800021b8 <reg_x23_output>:
    800021b8:	31ed                	addiw	gp,gp,-5
    800021ba:	1de0                	addi	s0,sp,764
    800021bc:	2d5a                	fld	fs10,400(sp)
    800021be:	          	lui	tp,0x19ec

00000000800021c0 <reg_x24_output>:
    800021c0:	019e                	slli	gp,gp,0x7
    800021c2:	67c4                	ld	s1,136(a5)
    800021c4:	8421                	srai	s0,s0,0x8
    800021c6:	4b31                	li	s6,12

00000000800021c8 <reg_x25_output>:
    800021c8:	cd8c                	sw	a1,24(a1)
    800021ca:	58fe                	lw	a7,252(sp)
    800021cc:	145c                	addi	a5,sp,548
    800021ce:	6801                	0x6801

00000000800021d0 <reg_x26_output>:
    800021d0:	e91a                	sd	t1,144(sp)
    800021d2:	6ee14a23          	0x6ee14a23
    800021d6:	4eb9                	li	t4,14

00000000800021d8 <reg_x27_output>:
    800021d8:	982e                	add	a6,a6,a1
    800021da:	e9d1                	bnez	a1,8000226e <test_memory+0x6e>
    800021dc:	4fb1                	li	t6,12
    800021de:	          	0x6c5817f7

00000000800021e0 <reg_x28_output>:
    800021e0:	6c58                	ld	a4,152(s0)
    800021e2:	58391793          	0x58391793
    800021e6:	          	0xd7743e53

00000000800021e8 <reg_x29_output>:
    800021e8:	d774                	sw	a3,108(a4)
    800021ea:	2209                	addiw	tp,tp,2
    800021ec:	c5fa                	sw	t5,200(sp)
    800021ee:	2292                	fld	ft5,256(sp)

00000000800021f0 <reg_x30_output>:
    800021f0:	e3e4                	sd	s1,192(a5)
    800021f2:	70ea066b          	0x70ea066b
    800021f6:	af01                	j	80002906 <_end+0x2f6>

00000000800021f8 <reg_x31_output>:
    800021f8:	d599                	beqz	a1,80002106 <begin_signature+0x6>
    800021fa:	fc59                	bnez	s0,80002198 <reg_x19_output>
    800021fc:	74ce                	ld	s1,240(sp)
    800021fe:	6fe6                	ld	t6,88(sp)

0000000080002200 <test_memory>:
    80002200:	9c79                	0x9c79
    80002202:	5b4c8bd7          	0x5b4c8bd7
    80002206:	c7ea35f7          	0xc7ea35f7
    8000220a:	c2a9                	beqz	a3,8000224c <test_memory+0x4c>
    8000220c:	f891                	bnez	s1,80002120 <reg_x4_output>
    8000220e:	f994                	sd	a3,48(a1)
    80002210:	e490                	sd	a2,8(s1)
    80002212:	9404                	0x9404
    80002214:	bf1c82bb          	0xbf1c82bb
    80002218:	2875                	addiw	a6,a6,29
    8000221a:	4110                	lw	a2,0(a0)
    8000221c:	4c6d                	li	s8,27
    8000221e:	7330                	ld	a2,96(a4)
    80002220:	df39                	beqz	a4,8000217e <reg_x15_output+0x6>
    80002222:	05305103          	lhu	sp,83(zero) # 53 <_start-0x7fffffad>
    80002226:	2b52                	fld	fs6,272(sp)
    80002228:	7700                	ld	s0,40(a4)
    8000222a:	6889                	lui	a7,0x2
    8000222c:	0695                	addi	a3,a3,5
    8000222e:	302edd87          	0x302edd87
    80002232:	112e                	slli	sp,sp,0x2b
    80002234:	28fb132b          	0x28fb132b
    80002238:	953d                	srai	a0,a0,0x2f
    8000223a:	e3b6                	sd	a3,448(sp)
    8000223c:	94cd                	srai	s1,s1,0x33
    8000223e:	efd2                	sd	s4,472(sp)
    80002240:	d525                	beqz	a0,800021a8 <reg_x21_output>
    80002242:	d454                	sw	a3,44(s0)
    80002244:	a7d0e9d7          	0xa7d0e9d7
    80002248:	323a                	fld	ft4,424(sp)
    8000224a:	a0a8                	fsd	fa0,64(s1)
    8000224c:	feee3d33          	0xfeee3d33
    80002250:	c066                	sw	s9,0(sp)
    80002252:	9de1                	0x9de1
    80002254:	edf9cb6f          	jal	s6,7ff9f132 <_start-0x60ece>
    80002258:	f91e                	sd	t2,176(sp)
    8000225a:	d830                	sw	a2,112(s0)
    8000225c:	e736                	sd	a3,392(sp)
    8000225e:	fef6                	sd	t4,376(sp)
    80002260:	089c                	addi	a5,sp,80
    80002262:	bee0                	fsd	fs0,248(a3)
    80002264:	99dd                	andi	a1,a1,-9
    80002266:	b1ec                	fsd	fa1,224(a1)
    80002268:	7712                	ld	a4,288(sp)
    8000226a:	bc9f f0e5 532f      	0x532ff0e5bc9f
    80002270:	8eb6c1ef          	jal	gp,7ff6eb5a <_start-0x914a6>
    80002274:	f7a4                	sd	s1,104(a5)
    80002276:	1920                	addi	s0,sp,184
    80002278:	ec7c                	sd	a5,216(s0)
    8000227a:	9471025b          	0x9471025b
    8000227e:	cb09                	beqz	a4,80002290 <test_memory+0x90>
    80002280:	d451                	beqz	s0,8000220c <test_memory+0xc>
    80002282:	1300a18f          	0x1300a18f
    80002286:	a126                	fsd	fs1,128(sp)
    80002288:	7d72                	ld	s10,312(sp)
    8000228a:	a3f5                	j	80002876 <_end+0x266>
    8000228c:	9de9a1e7          	0x9de9a1e7
    80002290:	71256317          	auipc	t1,0x71256
    80002294:	7f4c                	ld	a1,184(a4)
    80002296:	b5b8                	fsd	fa4,104(a1)
    80002298:	756d                	lui	a0,0xffffb
    8000229a:	0bed                	addi	s7,s7,27
    8000229c:	9149                	srli	a0,a0,0x32
    8000229e:	aa1f 99cc 6545      	0x654599ccaa1f
    800022a4:	9d11c0a3          	0x9d11c0a3
    800022a8:	923c                	0x923c
    800022aa:	9846                	add	a6,a6,a7
    800022ac:	2a7930b7          	lui	ra,0x2a793
    800022b0:	f242                	sd	a6,288(sp)
    800022b2:	0e05                	addi	t3,t3,1
    800022b4:	6dc9                	lui	s11,0x12
    800022b6:	ea32                	sd	a2,272(sp)
    800022b8:	8a3c                	0x8a3c
    800022ba:	d1c9                	beqz	a1,8000223c <test_memory+0x3c>
    800022bc:	817d730f          	0x817d730f
    800022c0:	47e9                	li	a5,26
    800022c2:	5f9c                	lw	a5,56(a5)
    800022c4:	0c4a                	slli	s8,s8,0x12
    800022c6:	6592                	ld	a1,256(sp)
    800022c8:	41c6                	lw	gp,80(sp)
    800022ca:	2299c24f          	fnmadd.d	ft4,fs3,fs1,ft4,rmm
    800022ce:	4c6365a7          	0x4c6365a7
    800022d2:	9865                	andi	s0,s0,-7
    800022d4:	0ae2                	slli	s5,s5,0x18
    800022d6:	55ae                	lw	a1,232(sp)
    800022d8:	557463e7          	0x557463e7
    800022dc:	6f517c1b          	0x6f517c1b
    800022e0:	c2053157          	0xc2053157
    800022e4:	7e20                	ld	s0,120(a2)
    800022e6:	5256e4a3          	0x5256e4a3
    800022ea:	5521                	li	a0,-24
    800022ec:	d3a4f613          	andi	a2,s1,-710
    800022f0:	9b84                	0x9b84
    800022f2:	2008                	fld	fa0,0(s0)
    800022f4:	94958347          	0x94958347
    800022f8:	a0a2                	fsd	fs0,64(sp)
    800022fa:	4a8c                	lw	a1,16(a3)
    800022fc:	b844                	fsd	fs1,176(s0)
    800022fe:	87f2                	mv	a5,t3
    80002300:	3319                	addiw	t1,t1,-26
    80002302:	5639                	li	a2,-18
    80002304:	6d74                	ld	a3,216(a0)
    80002306:	f45c                	sd	a5,168(s0)
    80002308:	b40d8eab          	0xb40d8eab
    8000230c:	72d1876f          	jal	a4,8001b238 <__global_pointer$+0x18428>
    80002310:	6544                	ld	s1,136(a0)
    80002312:	303a                	fld	ft0,424(sp)
    80002314:	2105                	addiw	sp,sp,1
    80002316:	1f18                	addi	a4,sp,944
    80002318:	3652                	fld	fa2,304(sp)
    8000231a:	2966ab77          	0x2966ab77
    8000231e:	2b090c37          	lui	s8,0x2b090
    80002322:	2038                	fld	fa4,64(s0)
    80002324:	b6024137          	lui	sp,0xb6024
    80002328:	6074                	ld	a3,192(s0)
    8000232a:	4f0c                	lw	a1,24(a4)
    8000232c:	8540                	0x8540
    8000232e:	77f5                	lui	a5,0xffffd
    80002330:	e954                	sd	a3,144(a0)
    80002332:	3cba                	fld	fs9,424(sp)
    80002334:	1411                	addi	s0,s0,-28
    80002336:	35138a83          	lb	s5,849(t2)
    8000233a:	03e63ba7          	fsd	ft10,55(a2)
    8000233e:	be50deb3          	0xbe50deb3
    80002342:	8b50                	0x8b50
    80002344:	407f                	0x407f
    80002346:	d156                	sw	s5,160(sp)
    80002348:	3ad6                	fld	fs5,368(sp)
    8000234a:	f4d5d8af          	0xf4d5d8af
    8000234e:	74e9                	lui	s1,0xffffa
    80002350:	cff9                	beqz	a5,8000242e <test_memory+0x22e>
    80002352:	1fed                	addi	t6,t6,-5
    80002354:	94bacac3          	0x94bacac3
    80002358:	812b59b3          	0x812b59b3
    8000235c:	fb25                	bnez	a4,800022cc <test_memory+0xcc>
    8000235e:	25f2                	fld	fa1,280(sp)
    80002360:	6ff0                	ld	a2,216(a5)
    80002362:	3cea                	fld	fs9,184(sp)
    80002364:	f309                	bnez	a4,80002266 <test_memory+0x66>
    80002366:	d4eaf57b          	0xd4eaf57b
    8000236a:	0fe4                	addi	s1,sp,988
    8000236c:	c6c8                	sw	a0,12(a3)
    8000236e:	66da                	ld	a3,400(sp)
    80002370:	288d                	addiw	a7,a7,3
    80002372:	769f da57 4756      	0x4756da57769f
    80002378:	7034                	ld	a3,96(s0)
    8000237a:	9e0f8a6b          	0x9e0f8a6b
    8000237e:	073afa03          	0x73afa03
    80002382:	850c                	0x850c
    80002384:	11ae                	slli	gp,gp,0x2b
    80002386:	343cff1b          	0x343cff1b
    8000238a:	971a                	add	a4,a4,t1
    8000238c:	7b72                	ld	s6,312(sp)
    8000238e:	b7fedd97          	auipc	s11,0xb7fed
    80002392:	16f9                	addi	a3,a3,-2
    80002394:	776e                	ld	a4,248(sp)
    80002396:	ee22                	sd	s0,280(sp)
    80002398:	864e                	mv	a2,s3
    8000239a:	c38fc83f 4658b3d7 	0x4658b3d7c38fc83f
    800023a2:	a9d8                	fsd	fa4,144(a1)
    800023a4:	06f4                	addi	a3,sp,844
    800023a6:	399f 874d 3982      	0x3982874d399f
    800023ac:	d774                	sw	a3,108(a4)
    800023ae:	974e69a3          	0x974e69a3
    800023b2:	3988                	fld	fa0,48(a1)
    800023b4:	7e8c                	ld	a1,56(a3)
    800023b6:	edea9303          	lh	t1,-290(s5)
    800023ba:	5fca                	lw	t6,176(sp)
    800023bc:	0719                	addi	a4,a4,6
    800023be:	f560                	sd	s0,232(a0)
    800023c0:	f0c4                	sd	s1,160(s1)
    800023c2:	f87a                	sd	t5,48(sp)
    800023c4:	ff81                	bnez	a5,800022dc <test_memory+0xdc>
    800023c6:	4bb5                	li	s7,13
    800023c8:	d012                	sw	tp,32(sp)
    800023ca:	a82f8e8f          	0xa82f8e8f
    800023ce:	c2fa                	sw	t5,68(sp)
    800023d0:	2211                	addiw	tp,tp,4
    800023d2:	2c5e                	fld	fs8,464(sp)
    800023d4:	0c98                	addi	a4,sp,592
    800023d6:	2f8a                	fld	ft11,128(sp)
    800023d8:	0fa8                	addi	a0,sp,984
    800023da:	9ac5                	andi	a3,a3,-15
    800023dc:	551f c965 21cf      	0x21cfc965551f
    800023e2:	9b40                	0x9b40
    800023e4:	8a9d                	andi	a3,a3,7
    800023e6:	8171                	srli	a0,a0,0x1c
    800023e8:	5e74                	lw	a3,124(a2)
    800023ea:	22e6                	fld	ft5,88(sp)
    800023ec:	984d                	andi	s0,s0,-13
    800023ee:	a6b4                	fsd	fa3,72(a3)
    800023f0:	34f2                	fld	fs1,312(sp)
    800023f2:	91ba                	add	gp,gp,a4
    800023f4:	a75d                	j	80002b9a <_end+0x58a>
    800023f6:	caaa                	sw	a0,84(sp)
    800023f8:	0d5a                	slli	s10,s10,0x16
    800023fa:	881a                	mv	a6,t1
    800023fc:	879c                	0x879c
    800023fe:	4a78                	lw	a4,84(a2)
    80002400:	b1cff31b          	0xb1cff31b
    80002404:	cab8                	sw	a4,80(a3)
    80002406:	50aa                	lw	ra,168(sp)
    80002408:	1ace                	slli	s5,s5,0x33
    8000240a:	2d55                	addiw	s10,s10,21
    8000240c:	3e051437          	lui	s0,0x3e051
    80002410:	bc2e                	fsd	fa1,56(sp)
    80002412:	3cc9                	addiw	s9,s9,-14
    80002414:	f610                	sd	a2,40(a2)
    80002416:	4764                	lw	s1,76(a4)
    80002418:	720d3487          	fld	fs1,1824(s10) # 406f78c8 <_start-0x3f908738>
    8000241c:	128d                	addi	t0,t0,-29
    8000241e:	1889                	addi	a7,a7,-30
    80002420:	7321                	lui	t1,0xfffe8
    80002422:	0dc8                	addi	a0,sp,724
    80002424:	35e5                	addiw	a1,a1,-7
    80002426:	268c                	fld	fa1,8(a3)
    80002428:	a072                	fsd	ft8,0(sp)
    8000242a:	5d9c                	lw	a5,56(a1)
    8000242c:	3e9c                	fld	fa5,56(a3)
    8000242e:	9217fd3f 09c0b859 	0x9c0b8599217fd3f
    80002436:	bf59                	j	800023cc <test_memory+0x1cc>
    80002438:	40e9                	li	ra,26
    8000243a:	c0718a47          	fmsub.s	fs4,ft3,ft7,fs8,rne
    8000243e:	84f4                	0x84f4
    80002440:	ebad                	bnez	a5,800024b2 <test_memory+0x2b2>
    80002442:	e657432f          	0xe657432f
    80002446:	c762                	sw	s8,140(sp)
    80002448:	2824                	fld	fs1,80(s0)
    8000244a:	f4ef820f          	0xf4ef820f
    8000244e:	4dd4                	lw	a3,28(a1)
    80002450:	ad92                	fsd	ft4,216(sp)
    80002452:	6496                	ld	s1,320(sp)
    80002454:	35e9                	addiw	a1,a1,-6
    80002456:	e28d                	bnez	a3,80002478 <test_memory+0x278>
    80002458:	0f7a6eef          	jal	t4,800a8d4e <__global_pointer$+0xa5f3e>
    8000245c:	7ed1                	lui	t4,0xffff4
    8000245e:	c522                	sw	s0,136(sp)
    80002460:	785c                	ld	a5,176(s0)
    80002462:	7179                	addi	sp,sp,-48
    80002464:	7aea                	ld	s5,184(sp)
    80002466:	cc19                	beqz	s0,80002484 <test_memory+0x284>
    80002468:	429d                	li	t0,7
    8000246a:	e3e99853          	0xe3e99853
    8000246e:	0281                	addi	t0,t0,0
    80002470:	a09a                	fsd	ft6,64(sp)
    80002472:	e235                	bnez	a2,800024d6 <test_memory+0x2d6>
    80002474:	fbe678e3          	bgeu	a2,t5,80002424 <test_memory+0x224>
    80002478:	5e3c                	lw	a5,120(a2)
    8000247a:	3b86                	fld	fs7,96(sp)
    8000247c:	abfa3ab3          	0xabfa3ab3
    80002480:	ed25                	bnez	a0,800024f8 <test_memory+0x2f8>
    80002482:	4715                	li	a4,5
    80002484:	12fe879b          	addiw	a5,t4,303
    80002488:	6309                	lui	t1,0x2
    8000248a:	ac055cd3          	0xac055cd3
    8000248e:	8914                	0x8914
    80002490:	329b66bb          	0x329b66bb
    80002494:	e8157473          	csrrci	s0,0xe81,10
    80002498:	c426                	sw	s1,8(sp)
    8000249a:	7c45                	lui	s8,0xffff1
    8000249c:	cd25                	beqz	a0,80002514 <test_memory+0x314>
    8000249e:	0ccd62cb          	0xccd62cb
    800024a2:	960e46cb          	fnmsub.q	fa3,ft8,ft0,fs2,rmm
    800024a6:	4bb8                	lw	a4,80(a5)
    800024a8:	398a                	fld	fs3,160(sp)
    800024aa:	93a4                	0x93a4
    800024ac:	15ff                	0x15ff
    800024ae:	0988                	addi	a0,sp,208
    800024b0:	8de18397          	auipc	t2,0x8de18
    800024b4:	f638                	sd	a4,104(a2)
    800024b6:	82f9                	srli	a3,a3,0x1e
    800024b8:	ee38                	sd	a4,88(a2)
    800024ba:	f7b7d46f          	jal	s0,7ff80434 <_start-0x7fbcc>
    800024be:	5a76                	lw	s4,124(sp)
    800024c0:	0f71                	addi	t5,t5,28
    800024c2:	b608434b          	fnmsub.q	ft6,fa6,ft0,fs6,rmm
    800024c6:	2089                	addiw	ra,ra,2
    800024c8:	14ebddb3          	0x14ebddb3
    800024cc:	575f 265e 7165      	0x7165265e575f
    800024d2:	103e70cf          	fnmadd.s	ft1,ft8,ft3,ft2
    800024d6:	14b0cdbf 7100c538 	0x7100c53814b0cdbf
    800024de:	35e6                	fld	fa1,120(sp)
    800024e0:	7900                	ld	s0,48(a0)
    800024e2:	5ac6                	lw	s5,112(sp)
    800024e4:	e1449df3          	csrrw	s11,0xe14,s1
    800024e8:	c90d                	beqz	a0,8000251a <test_memory+0x31a>
    800024ea:	66e71e13          	0x66e71e13
    800024ee:	de70                	sw	a2,124(a2)
    800024f0:	5f6d                	li	t5,-5
    800024f2:	c16fce23          	0xc16fce23
    800024f6:	5631                	li	a2,-20
    800024f8:	7d01                	lui	s10,0xfffe0
    800024fa:	cc94                	sw	a3,24(s1)
    800024fc:	0119                	addi	sp,sp,6
    800024fe:	bf30                	fsd	fa2,120(a4)
    80002500:	79723fbf fe955b5d 	0xfe955b5d79723fbf
    80002508:	a195                	j	8000296c <_end+0x35c>
    8000250a:	6124884f          	fnmadd.s	fa6,fs1,fs2,fa2,rne
    8000250e:	408d24a3          	sw	s0,1033(s10) # fffffffffffe0409 <__global_pointer$+0xffffffff7ffdd5f9>
    80002512:	9fc4                	0x9fc4
    80002514:	2e1c                	fld	fa5,24(a2)
    80002516:	3614                	fld	fa3,40(a2)
    80002518:	57576c53          	0x57576c53
    8000251c:	ae1f 10eb 42c3      	0x42c310ebae1f
    80002522:	8f3c                	0x8f3c
    80002524:	9378                	0x9378
    80002526:	167f                	0x167f
    80002528:	d43c                	sw	a5,104(s0)
    8000252a:	4c42                	lw	s8,16(sp)
    8000252c:	fce8                	sd	a0,248(s1)
    8000252e:	1e35                	addi	t3,t3,-19
    80002530:	4db729b7          	lui	s3,0x4db72
    80002534:	576f687b          	0x576f687b
    80002538:	e9fe                	sd	t6,208(sp)
    8000253a:	f8b20183          	lb	gp,-117(tp) # 19ebf8b <_start-0x7e614075>
    8000253e:	107afd93          	andi	s11,s5,263
    80002542:	3228                	fld	fa0,96(a2)
    80002544:	539c                	lw	a5,32(a5)
    80002546:	cd34                	sw	a3,88(a0)
    80002548:	ff66                	sd	s9,440(sp)
    8000254a:	29ce                	fld	fs3,208(sp)
    8000254c:	9c980fc3          	0x9c980fc3
    80002550:	0070                	addi	a2,sp,12
    80002552:	81f2                	mv	gp,t3
    80002554:	c920                	sw	s0,80(a0)
    80002556:	8925                	andi	a0,a0,9
    80002558:	22885213          	0x22885213
    8000255c:	2878                	fld	fa4,208(s0)
    8000255e:	6701                	0x6701
    80002560:	5c0dfd23          	0x5c0dfd23
    80002564:	71c1                	lui	gp,0xffff0
    80002566:	2fa1                	addiw	t6,t6,8
    80002568:	2d6c                	fld	fa1,216(a0)
    8000256a:	6255                	lui	tp,0x15
    8000256c:	228c                	fld	fa1,0(a3)
    8000256e:	53fe                	lw	t2,252(sp)
    80002570:	09657953          	fsub.s	fs2,fa0,fs6
    80002574:	5547d78b          	0x5547d78b
    80002578:	ee48b7d3          	0xee48b7d3
    8000257c:	a899                	j	800025d2 <test_memory+0x3d2>
    8000257e:	a851                	j	80002612 <_end+0x2>
    80002580:	8951                	andi	a0,a0,20
    80002582:	4fb6                	lw	t6,76(sp)
    80002584:	7d06                	ld	s10,96(sp)
    80002586:	e75c                	sd	a5,136(a4)
    80002588:	df1a                	sw	t1,188(sp)
    8000258a:	15e032f3          	csrrc	t0,0x15e,zero
    8000258e:	668c8423          	sb	s0,1640(s9) # ffffffffe3a19668 <__global_pointer$+0xffffffff63a16858>
    80002592:	53d8                	lw	a4,36(a5)
    80002594:	c299                	beqz	a3,8000259a <test_memory+0x39a>
    80002596:	78ed                	lui	a7,0xffffb
    80002598:	1835                	addi	a6,a6,-19
    8000259a:	7444e723          	0x7444e723
    8000259e:	6cd1                	lui	s9,0x14
    800025a0:	186c                	addi	a1,sp,60
    800025a2:	768c                	ld	a1,40(a3)
    800025a4:	3e2d                	addiw	t3,t3,-21
    800025a6:	e63119cb          	fnmsub.q	fs3,ft2,ft3,ft8,rtz
    800025aa:	d69c238b          	0xd69c238b
    800025ae:	44e9                	li	s1,26
    800025b0:	565e                	lw	a2,244(sp)
    800025b2:	fd6e                	sd	s11,184(sp)
    800025b4:	5397690f          	0x5397690f
    800025b8:	5c64                	lw	s1,124(s0)
    800025ba:	9329f857          	0x9329f857
    800025be:	4eb2                	lw	t4,12(sp)
    800025c0:	355cf72f          	0x355cf72f
    800025c4:	c81c                	sw	a5,16(s0)
    800025c6:	0fe666ab          	0xfe666ab
    800025ca:	4e96                	lw	t4,68(sp)
    800025cc:	2265                	addiw	tp,tp,25
    800025ce:	6cd1                	lui	s9,0x14
    800025d0:	819d                	srli	a1,a1,0x7
    800025d2:	f2178df3          	0xf2178df3
    800025d6:	a254                	fsd	fa3,128(a2)
    800025d8:	537d2c3f 60a8a5fe 	0x60a8a5fe537d2c3f
    800025e0:	4be7b22b          	0x4be7b22b
    800025e4:	185d                	addi	a6,a6,-9
    800025e6:	1c5e                	slli	s8,s8,0x37
    800025e8:	9f61                	0x9f61
    800025ea:	5c227d13          	andi	s10,tp,1474
    800025ee:	0a35136b          	0xa35136b
    800025f2:	4348                	lw	a0,4(a4)
    800025f4:	f5bc                	sd	a5,104(a1)
    800025f6:	6139                	addi	sp,sp,448
    800025f8:	90d8                	0x90d8
    800025fa:	16f1                	addi	a3,a3,-4
    800025fc:	55b982fb          	0x55b982fb

0000000080002600 <loop_count>:
    80002600:	0040                	addi	s0,sp,4
	...

Disassembly of section .riscv.attributes:

0000000000000000 <.riscv.attributes>:
   0:	1e41                	addi	t3,t3,-16
   2:	0000                	unimp
   4:	7200                	ld	s0,32(a2)
   6:	7369                	lui	t1,0xffffa
   8:	01007663          	bgeu	zero,a6,14 <_start-0x7fffffec>
   c:	0014                	0x14
   e:	0000                	unimp
  10:	7205                	lui	tp,0xfffe1
  12:	3676                	fld	fa2,376(sp)
  14:	6934                	ld	a3,80(a0)
  16:	7032                	0x7032
  18:	5f30                	lw	a2,120(a4)
  1a:	326d                	addiw	tp,tp,-5
  1c:	3070                	fld	fa2,224(s0)
	...
