
build/test81:     file format elf64-littleriscv


Disassembly of section .text.init:

0000000080000000 <_start>:
    80000000:	05c0006f          	j	8000005c <reset_vector>

0000000080000004 <trap_vector>:
    80000004:	34202f73          	csrr	t5,mcause
    80000008:	00800f93          	li	t6,8
    8000000c:	03ff0a63          	beq	t5,t6,80000040 <write_tohost>
    80000010:	00900f93          	li	t6,9
    80000014:	03ff0663          	beq	t5,t6,80000040 <write_tohost>
    80000018:	00b00f93          	li	t6,11
    8000001c:	03ff0263          	beq	t5,t6,80000040 <write_tohost>
    80000020:	80000f17          	auipc	t5,0x80000
    80000024:	fe0f0f13          	addi	t5,t5,-32 # 0 <_start-0x80000000>
    80000028:	000f0463          	beqz	t5,80000030 <trap_vector+0x2c>
    8000002c:	000f0067          	jr	t5
    80000030:	34202f73          	csrr	t5,mcause
    80000034:	000f5463          	bgez	t5,8000003c <handle_exception>
    80000038:	0040006f          	j	8000003c <handle_exception>

000000008000003c <handle_exception>:
    8000003c:	5391e193          	ori	gp,gp,1337

0000000080000040 <write_tohost>:
    80000040:	00001f17          	auipc	t5,0x1
    80000044:	fc3f2023          	sw	gp,-64(t5) # 80001000 <tohost>
    80000048:	000902b7          	lui	t0,0x90
    8000004c:	0012829b          	addiw	t0,t0,1
    80000050:	00c29293          	slli	t0,t0,0xc
    80000054:	0002af83          	lw	t6,0(t0) # 90000 <_start-0x7ff70000>
    80000058:	fe9ff06f          	j	80000040 <write_tohost>

000000008000005c <reset_vector>:
    8000005c:	00000093          	li	ra,0
    80000060:	00000113          	li	sp,0
    80000064:	00000193          	li	gp,0
    80000068:	00000213          	li	tp,0
    8000006c:	00000293          	li	t0,0
    80000070:	00000313          	li	t1,0
    80000074:	00000393          	li	t2,0
    80000078:	00000413          	li	s0,0
    8000007c:	00000493          	li	s1,0
    80000080:	00000513          	li	a0,0
    80000084:	00000593          	li	a1,0
    80000088:	00000613          	li	a2,0
    8000008c:	00000693          	li	a3,0
    80000090:	00000713          	li	a4,0
    80000094:	00000793          	li	a5,0
    80000098:	00000813          	li	a6,0
    8000009c:	00000893          	li	a7,0
    800000a0:	00000913          	li	s2,0
    800000a4:	00000993          	li	s3,0
    800000a8:	00000a13          	li	s4,0
    800000ac:	00000a93          	li	s5,0
    800000b0:	00000b13          	li	s6,0
    800000b4:	00000b93          	li	s7,0
    800000b8:	00000c13          	li	s8,0
    800000bc:	00000c93          	li	s9,0
    800000c0:	00000d13          	li	s10,0
    800000c4:	00000d93          	li	s11,0
    800000c8:	00000e13          	li	t3,0
    800000cc:	00000e93          	li	t4,0
    800000d0:	00000f13          	li	t5,0
    800000d4:	00000f93          	li	t6,0
    800000d8:	f1402573          	csrr	a0,mhartid
    800000dc:	00051063          	bnez	a0,800000dc <reset_vector+0x80>
    800000e0:	00000297          	auipc	t0,0x0
    800000e4:	01028293          	addi	t0,t0,16 # 800000f0 <reset_vector+0x94>
    800000e8:	30529073          	csrw	mtvec,t0
    800000ec:	18005073          	csrwi	satp,0
    800000f0:	00000297          	auipc	t0,0x0
    800000f4:	02428293          	addi	t0,t0,36 # 80000114 <reset_vector+0xb8>
    800000f8:	30529073          	csrw	mtvec,t0
    800000fc:	0010029b          	addiw	t0,zero,1
    80000100:	03529293          	slli	t0,t0,0x35
    80000104:	fff28293          	addi	t0,t0,-1
    80000108:	3b029073          	csrw	pmpaddr0,t0
    8000010c:	01f00293          	li	t0,31
    80000110:	3a029073          	csrw	pmpcfg0,t0
    80000114:	30405073          	csrwi	mie,0
    80000118:	00000297          	auipc	t0,0x0
    8000011c:	01428293          	addi	t0,t0,20 # 8000012c <reset_vector+0xd0>
    80000120:	30529073          	csrw	mtvec,t0
    80000124:	30205073          	csrwi	medeleg,0
    80000128:	30305073          	csrwi	mideleg,0
    8000012c:	00000193          	li	gp,0
    80000130:	00000297          	auipc	t0,0x0
    80000134:	ed428293          	addi	t0,t0,-300 # 80000004 <trap_vector>
    80000138:	30529073          	csrw	mtvec,t0
    8000013c:	00100513          	li	a0,1
    80000140:	01f51513          	slli	a0,a0,0x1f
    80000144:	00055c63          	bgez	a0,8000015c <reset_vector+0x100>
    80000148:	0ff0000f          	fence
    8000014c:	00100193          	li	gp,1
    80000150:	05d00893          	li	a7,93
    80000154:	00000513          	li	a0,0
    80000158:	00000073          	ecall
    8000015c:	80000297          	auipc	t0,0x80000
    80000160:	ea428293          	addi	t0,t0,-348 # 0 <_start-0x80000000>
    80000164:	00028a63          	beqz	t0,80000178 <reset_vector+0x11c>
    80000168:	10529073          	csrw	stvec,t0
    8000016c:	0000b2b7          	lui	t0,0xb
    80000170:	1092829b          	addiw	t0,t0,265
    80000174:	30229073          	csrw	medeleg,t0
    80000178:	30005073          	csrwi	mstatus,0
    8000017c:	00000297          	auipc	t0,0x0
    80000180:	01428293          	addi	t0,t0,20 # 80000190 <reset_vector+0x134>
    80000184:	34129073          	csrw	mepc,t0
    80000188:	f1402573          	csrr	a0,mhartid
    8000018c:	30200073          	mret
    80000190:	0200006f          	j	800001b0 <test_start>

0000000080000194 <crash_backward>:
    80000194:	0ff0000f          	fence
    80000198:	00018063          	beqz	gp,80000198 <crash_backward+0x4>
    8000019c:	00119193          	slli	gp,gp,0x1
    800001a0:	0011e193          	ori	gp,gp,1
    800001a4:	05d00893          	li	a7,93
    800001a8:	00018513          	mv	a0,gp
    800001ac:	00000073          	ecall

00000000800001b0 <test_start>:
    800001b0:	00002f97          	auipc	t6,0x2
    800001b4:	e50f8f93          	addi	t6,t6,-432 # 80002000 <hidden_data>
    800001b8:	000fb003          	ld	zero,0(t6)
    800001bc:	008fb083          	ld	ra,8(t6)
    800001c0:	010fb103          	ld	sp,16(t6)
    800001c4:	018fb183          	ld	gp,24(t6)
    800001c8:	020fb203          	ld	tp,32(t6)
    800001cc:	028fb283          	ld	t0,40(t6)
    800001d0:	030fb303          	ld	t1,48(t6)
    800001d4:	038fb383          	ld	t2,56(t6)
    800001d8:	040fb403          	ld	s0,64(t6)
    800001dc:	048fb483          	ld	s1,72(t6)
    800001e0:	050fb503          	ld	a0,80(t6)
    800001e4:	058fb583          	ld	a1,88(t6)
    800001e8:	060fb603          	ld	a2,96(t6)
    800001ec:	068fb683          	ld	a3,104(t6)
    800001f0:	070fb703          	ld	a4,112(t6)
    800001f4:	078fb783          	ld	a5,120(t6)
    800001f8:	080fb803          	ld	a6,128(t6)
    800001fc:	088fb883          	ld	a7,136(t6)
    80000200:	090fb903          	ld	s2,144(t6)
    80000204:	098fb983          	ld	s3,152(t6)
    80000208:	0a0fba03          	ld	s4,160(t6)
    8000020c:	0a8fba83          	ld	s5,168(t6)
    80000210:	0b0fbb03          	ld	s6,176(t6)
    80000214:	0b8fbb83          	ld	s7,184(t6)
    80000218:	0c0fbc03          	ld	s8,192(t6)
    8000021c:	0c8fbc83          	ld	s9,200(t6)
    80000220:	0d0fbd03          	ld	s10,208(t6)
    80000224:	0d8fbd83          	ld	s11,216(t6)
    80000228:	0e0fbe03          	ld	t3,224(t6)
    8000022c:	0e8fbe83          	ld	t4,232(t6)
    80000230:	0f0fbf03          	ld	t5,240(t6)
    80000234:	0f8fbf83          	ld	t6,248(t6)
    80000238:	0040006f          	j	8000023c <pseg_0>

000000008000023c <pseg_0>:
    8000023c:	00020e13          	mv	t3,tp
    80000240:	00028d13          	mv	s10,t0
    80000244:	0000043b          	addw	s0,zero,zero
    80000248:	00100993          	li	s3,1
    8000024c:	41de81b3          	sub	gp,t4,t4
    80000250:	23100893          	li	a7,561
    80000254:	000e0213          	mv	tp,t3
    80000258:	017beeb3          	or	t4,s7,s7
    8000025c:	00100f13          	li	t5,1
    80000260:	03ff1f13          	slli	t5,t5,0x3f
    80000264:	df800713          	li	a4,-520
    80000268:	000d0a13          	mv	s4,s10
    8000026c:	48100593          	li	a1,1153
    80000270:	00002e97          	auipc	t4,0x2
    80000274:	f63e8e93          	addi	t4,t4,-157 # 800021d3 <reg_x26_output+0x3>
    80000278:	02b8ccbb          	divw	s9,a7,a1
    8000027c:	00100693          	li	a3,1
    80000280:	f14d4ae3          	blt	s10,s4,80000194 <crash_backward>
    80000284:	bcc00d93          	li	s11,-1076
    80000288:	03f69693          	slli	a3,a3,0x3f
    8000028c:	f17bc4e3          	blt	s7,s7,80000194 <crash_backward>
    80000290:	f9700a13          	li	s4,-105
    80000294:	03f99993          	slli	s3,s3,0x3f
    80000298:	0094ccb3          	xor	s9,s1,s1
    8000029c:	014a6d33          	or	s10,s4,s4
    800002a0:	94500613          	li	a2,-1723
    800002a4:	3d9ed183          	lhu	gp,985(t4)
    800002a8:	01f7fc33          	and	s8,a5,t6
    800002ac:	b2800393          	li	t2,-1240
    800002b0:	40a08e33          	sub	t3,ra,a0
    800002b4:	027644b3          	div	s1,a2,t2
    800002b8:	00e7133b          	sllw	t1,a4,a4
    800002bc:	fff00f93          	li	t6,-1
    800002c0:	dc100b93          	li	s7,-575
    800002c4:	f4f00213          	li	tp,-177
    800002c8:	0339e333          	rem	t1,s3,s3
    800002cc:	004f4433          	xor	s0,t5,tp
    800002d0:	013fcfb3          	xor	t6,t6,s3
    800002d4:	01fa7ab3          	and	s5,s4,t6
    800002d8:	026ee4b3          	rem	s1,t4,t1
    800002dc:	fff00093          	li	ra,-1
    800002e0:	00100e13          	li	t3,1
    800002e4:	03fe1e13          	slli	t3,t3,0x3f
    800002e8:	fff00d13          	li	s10,-1
    800002ec:	00002197          	auipc	gp,0x2
    800002f0:	dea18193          	addi	gp,gp,-534 # 800020d6 <reg_x26_init+0x6>
    800002f4:	a6200893          	li	a7,-1438
    800002f8:	031205b3          	mul	a1,tp,a7
    800002fc:	017dbb33          	sltu	s6,s11,s7
    80000300:	00d0c0b3          	xor	ra,ra,a3
    80000304:	0013f833          	and	a6,t2,ra
    80000308:	2521de83          	lhu	t4,594(gp) # 80003062 <__global_pointer$+0x252>
    8000030c:	013fe7b3          	or	a5,t6,s3
    80000310:	e957d2e3          	bge	a5,s5,80000194 <crash_backward>
    80000314:	00d36533          	or	a0,t1,a3
    80000318:	01cd4d33          	xor	s10,s10,t3
    8000031c:	004245b3          	xor	a1,tp,tp
    80000320:	80600393          	li	t2,-2042
    80000324:	03dee8bb          	remw	a7,t4,t4
    80000328:	00d6c233          	xor	tp,a3,a3
    8000032c:	fff00113          	li	sp,-1
    80000330:	6bc00613          	li	a2,1724
    80000334:	00002797          	auipc	a5,0x2
    80000338:	aae78793          	addi	a5,a5,-1362 # 80001de2 <fromhost+0xda2>
    8000033c:	7777bb23          	sd	s7,1910(a5)
    80000340:	02c3e733          	rem	a4,t2,a2
    80000344:	62a80863          	beq	a6,a0,80000974 <crash_forward>
    80000348:	35400413          	li	s0,852
    8000034c:	71000313          	li	t1,1808
    80000350:	0313bc33          	mulhu	s8,t2,a7
    80000354:	13d00993          	li	s3,317
    80000358:	01e14133          	xor	sp,sp,t5
    8000035c:	01adfa33          	and	s4,s11,s10
    80000360:	df100a93          	li	s5,-527
    80000364:	db500b13          	li	s6,-587
    80000368:	00948bbb          	addw	s7,s1,s1
    8000036c:	035364bb          	remw	s1,t1,s5
    80000370:	002bf2b3          	and	t0,s7,sp
    80000374:	01c06cb3          	or	s9,zero,t3
    80000378:	03698fb3          	mul	t6,s3,s6
    8000037c:	01e2e933          	or	s2,t0,t5
    80000380:	68040d93          	addi	s11,s0,1664
    80000384:	5fb45863          	bge	s0,s11,80000974 <crash_forward>
    80000388:	80e00213          	li	tp,-2034
    8000038c:	00002f17          	auipc	t5,0x2
    80000390:	f79f0f13          	addi	t5,t5,-135 # 80002305 <test_memory+0x105>
    80000394:	01bde7b3          	or	a5,s11,s11
    80000398:	41e20dbb          	subw	s11,tp,t5
    8000039c:	27bf5c83          	lhu	s9,635(t5)
    800003a0:	00002417          	auipc	s0,0x2
    800003a4:	05f40413          	addi	s0,s0,95 # 800023ff <test_memory+0x1ff>
    800003a8:	0026efb3          	or	t6,a3,sp
    800003ac:	00b265b3          	or	a1,tp,a1
    800003b0:	0bc438a3          	sd	t3,177(s0)
    800003b4:	00002b97          	auipc	s7,0x2
    800003b8:	a1fb8b93          	addi	s7,s7,-1505 # 80001dd3 <fromhost+0xd93>
    800003bc:	94400293          	li	t0,-1724
    800003c0:	8b800093          	li	ra,-1864
    800003c4:	0308653b          	remw	a0,a6,a6
    800003c8:	89e00b13          	li	s6,-1890
    800003cc:	00002a97          	auipc	s5,0x2
    800003d0:	576a8a93          	addi	s5,s5,1398 # 80002942 <_end+0x332>
    800003d4:	7a300613          	li	a2,1955
    800003d8:	73600993          	li	s3,1846
    800003dc:	0360e1bb          	remw	gp,ra,s6
    800003e0:	00002417          	auipc	s0,0x2
    800003e4:	fda40413          	addi	s0,s0,-38 # 800023ba <test_memory+0x1ba>
    800003e8:	12200c93          	li	s9,290
    800003ec:	8e800313          	li	t1,-1816
    800003f0:	00100e13          	li	t3,1
    800003f4:	0339ec33          	rem	s8,s3,s3
    800003f8:	00626733          	or	a4,tp,t1
    800003fc:	0052813b          	addw	sp,t0,t0
    80000400:	0c441f23          	sh	tp,222(s0)
    80000404:	00008193          	mv	gp,ra
    80000408:	03c41213          	slli	tp,s0,0x3c
    8000040c:	7b400693          	li	a3,1972
    80000410:	00018813          	mv	a6,gp
    80000414:	03fe1e13          	slli	t3,t3,0x3f
    80000418:	03648d33          	mul	s10,s1,s6
    8000041c:	03085fbb          	divuw	t6,a6,a6
    80000420:	02d6e533          	rem	a0,a3,a3
    80000424:	00002d97          	auipc	s11,0x2
    80000428:	d14d8d93          	addi	s11,s11,-748 # 80002138 <reg_x7_output>
    8000042c:	00a280bb          	addw	ra,t0,a0
    80000430:	fff00913          	li	s2,-1
    80000434:	019c9f3b          	sllw	t5,s9,s9
    80000438:	01c94933          	xor	s2,s2,t3
    8000043c:	02800d13          	li	s10,40
    80000440:	75a00193          	li	gp,1882
    80000444:	00e7523b          	srlw	tp,a4,a4
    80000448:	e3b00f93          	li	t6,-453
    8000044c:	40000e93          	li	t4,1024
    80000450:	41d608b3          	sub	a7,a2,t4
    80000454:	012b73b3          	and	t2,s6,s2
    80000458:	2ea00413          	li	s0,746
    8000045c:	1f700593          	li	a1,503
    80000460:	8bff3813          	sltiu	a6,t5,-1857
    80000464:	028eeebb          	remw	t4,t4,s0
    80000468:	003b921b          	slliw	tp,s7,0x3
    8000046c:	003186bb          	addw	a3,gp,gp
    80000470:	035ac63b          	divw	a2,s5,s5
    80000474:	ddf00113          	li	sp,-545
    80000478:	6d5bb483          	ld	s1,1749(s7)
    8000047c:	02671533          	mulh	a0,a4,t1
    80000480:	00002c17          	auipc	s8,0x2
    80000484:	277c0c13          	addi	s8,s8,631 # 800026f7 <_end+0xe7>
    80000488:	70200793          	li	a5,1794
    8000048c:	03fd72b3          	remu	t0,s10,t6
    80000490:	36400c93          	li	s9,868
    80000494:	02f5eb33          	rem	s6,a1,a5
    80000498:	6e2c8893          	addi	a7,s9,1762
    8000049c:	00002997          	auipc	s3,0x2
    800004a0:	f8b98993          	addi	s3,s3,-117 # 80002427 <test_memory+0x227>
    800004a4:	01ccea33          	or	s4,s9,t3
    800004a8:	00241333          	sll	t1,s0,sp
    800004ac:	56d00213          	li	tp,1389
    800004b0:	00002097          	auipc	ra,0x2
    800004b4:	11e08093          	addi	ra,ra,286 # 800025ce <test_memory+0x3ce>
    800004b8:	b6baa523          	sw	a1,-1174(s5)
    800004bc:	c15c5703          	lhu	a4,-1003(s8)
    800004c0:	cbe0a803          	lw	a6,-834(ra)
    800004c4:	00002597          	auipc	a1,0x2
    800004c8:	62158593          	addi	a1,a1,1569 # 80002ae5 <_end+0x4d5>
    800004cc:	bc200293          	li	t0,-1086
    800004d0:	ee9993a3          	sh	s1,-281(s3)
    800004d4:	018c07bb          	addw	a5,s8,s8
    800004d8:	0db00613          	li	a2,219
    800004dc:	00002f97          	auipc	t6,0x2
    800004e0:	489f8f93          	addi	t6,t6,1161 # 80002965 <_end+0x355>
    800004e4:	00100413          	li	s0,1
    800004e8:	000d8b13          	mv	s6,s11
    800004ec:	000b0c93          	mv	s9,s6
    800004f0:	342da223          	sw	sp,836(s11)
    800004f4:	b8900193          	li	gp,-1143
    800004f8:	70800793          	li	a5,1800
    800004fc:	00002497          	auipc	s1,0x2
    80000500:	53c48493          	addi	s1,s1,1340 # 80002a38 <_end+0x428>
    80000504:	03f41413          	slli	s0,s0,0x3f
    80000508:	fff00b93          	li	s7,-1
    8000050c:	b2100993          	li	s3,-1247
    80000510:	008bcbb3          	xor	s7,s7,s0
    80000514:	01717833          	and	a6,sp,s7
    80000518:	b30f97a3          	sh	a6,-1233(t6)
    8000051c:	1be00e13          	li	t3,446
    80000520:	94528d13          	addi	s10,t0,-1723
    80000524:	008a6333          	or	t1,s4,s0
    80000528:	c79b46e3          	blt	s6,s9,80000194 <crash_backward>
    8000052c:	0273a133          	mulhsu	sp,t2,t2
    80000530:	c60042e3          	bltz	zero,80000194 <crash_backward>
    80000534:	86800f13          	li	t5,-1944
    80000538:	42684e63          	blt	a6,t1,80000974 <crash_forward>
    8000053c:	03e64ebb          	divw	t4,a2,t5
    80000540:	00002517          	auipc	a0,0x2
    80000544:	b0b50513          	addi	a0,a0,-1269 # 8000204b <reg_x9_init+0x3>
    80000548:	98e49703          	lh	a4,-1650(s1)
    8000054c:	43a2e463          	bltu	t0,s10,80000974 <crash_forward>
    80000550:	0137cc33          	xor	s8,a5,s3
    80000554:	00002a97          	auipc	s5,0x2
    80000558:	a3aa8a93          	addi	s5,s5,-1478 # 80001f8e <fromhost+0xf4e>
    8000055c:	f6700393          	li	t2,-153
    80000560:	08800d93          	li	s11,136
    80000564:	035a87bb          	mulw	a5,s5,s5
    80000568:	01ce093b          	addw	s2,t3,t3
    8000056c:	00100e93          	li	t4,1
    80000570:	91200413          	li	s0,-1774
    80000574:	9a000f13          	li	t5,-1632
    80000578:	039a4133          	div	sp,s4,s9
    8000057c:	58d00c13          	li	s8,1421
    80000580:	03b38a33          	mul	s4,t2,s11
    80000584:	26100b93          	li	s7,609
    80000588:	411882b3          	sub	t0,a7,a7
    8000058c:	9ab5a083          	lw	ra,-1621(a1)
    80000590:	01ef4db3          	xor	s11,t5,t5
    80000594:	037f1833          	mulh	a6,t5,s7
    80000598:	cdf0ca13          	xori	s4,ra,-801
    8000059c:	03fe9e93          	slli	t4,t4,0x3f
    800005a0:	03844b3b          	divw	s6,s0,s8
    800005a4:	0210de33          	divu	t3,ra,ra
    800005a8:	9f100313          	li	t1,-1551
    800005ac:	003246b3          	xor	a3,tp,gp
    800005b0:	4063563b          	sraw	a2,t1,t1
    800005b4:	00000c93          	li	s9,0
    800005b8:	40695c1b          	sraiw	s8,s2,0x6
    800005bc:	01900393          	li	t2,25
    800005c0:	4127561b          	sraiw	a2,a4,0x12
    800005c4:	00000493          	li	s1,0
    800005c8:	0210c6bb          	divw	a3,ra,ra
    800005cc:	0296083b          	mulw	a6,a2,s1
    800005d0:	fff00993          	li	s3,-1
    800005d4:	06900093          	li	ra,105
    800005d8:	028465b3          	rem	a1,s0,s0
    800005dc:	038c62bb          	remw	t0,s8,s8
    800005e0:	56f00193          	li	gp,1391
    800005e4:	02c63db3          	mulhu	s11,a2,a2
    800005e8:	0001569b          	srliw	a3,sp,0x0
    800005ec:	499a8ba3          	sb	s9,1175(s5)
    800005f0:	00002297          	auipc	t0,0x2
    800005f4:	91728293          	addi	t0,t0,-1769 # 80001f07 <fromhost+0xec7>
    800005f8:	2e008f93          	addi	t6,ra,736
    800005fc:	b8109ce3          	bne	ra,ra,80000194 <crash_backward>
    80000600:	b89c9ae3          	bne	s9,s1,80000194 <crash_backward>
    80000604:	0210db3b          	divuw	s6,ra,ra
    80000608:	3d555883          	lhu	a7,981(a0)
    8000060c:	14138a13          	addi	s4,t2,321
    80000610:	3932dd83          	lhu	s11,915(t0)
    80000614:	00318233          	add	tp,gp,gp
    80000618:	70600c93          	li	s9,1798
    8000061c:	00100d93          	li	s11,1
    80000620:	7ed00913          	li	s2,2029
    80000624:	00100f13          	li	t5,1
    80000628:	3a200793          	li	a5,930
    8000062c:	03ff1f13          	slli	t5,t5,0x3f
    80000630:	0336eab3          	rem	s5,a3,s3
    80000634:	03fd9d93          	slli	s11,s11,0x3f
    80000638:	0149cfb3          	xor	t6,s3,s4
    8000063c:	457c8813          	addi	a6,s9,1111
    80000640:	00f92133          	slt	sp,s2,a5
    80000644:	fff00493          	li	s1,-1
    80000648:	017ba2b3          	slt	t0,s7,s7
    8000064c:	41f588bb          	subw	a7,a1,t6
    80000650:	0231dc33          	divu	s8,gp,gp
    80000654:	01b4c4b3          	xor	s1,s1,s11
    80000658:	0093f233          	and	tp,t2,s1
    8000065c:	00002797          	auipc	a5,0x2
    80000660:	e1d78793          	addi	a5,a5,-483 # 80002479 <test_memory+0x279>
    80000664:	01d9c9b3          	xor	s3,s3,t4
    80000668:	013ffd33          	and	s10,t6,s3
    8000066c:	037b92b3          	mulh	t0,s7,s7
    80000670:	fff00e13          	li	t3,-1
    80000674:	d4c00093          	li	ra,-692
    80000678:	01ffefb3          	or	t6,t6,t6
    8000067c:	2f986c63          	bltu	a6,s9,80000974 <crash_forward>
    80000680:	01b261b3          	or	gp,tp,s11
    80000684:	01ee4e33          	xor	t3,t3,t5
    80000688:	db17a1a3          	sw	a7,-605(a5)
    8000068c:	03b0493b          	divw	s2,zero,s11
    80000690:	9d300a93          	li	s5,-1581
    80000694:	01dd6733          	or	a4,s10,t4
    80000698:	20500893          	li	a7,517
    8000069c:	00100913          	li	s2,1
    800006a0:	ae7a6ae3          	bltu	s4,t2,80000194 <crash_backward>
    800006a4:	0150f5b3          	and	a1,ra,s5
    800006a8:	0318e13b          	remw	sp,a7,a7
    800006ac:	2c327463          	bgeu	tp,gp,80000974 <crash_forward>
    800006b0:	39000a13          	li	s4,912
    800006b4:	1eb00c93          	li	s9,491
    800006b8:	03f91913          	slli	s2,s2,0x3f
    800006bc:	d0800713          	li	a4,-760
    800006c0:	81300313          	li	t1,-2029
    800006c4:	fff00793          	li	a5,-1
    800006c8:	39500c13          	li	s8,917
    800006cc:	00e72d33          	slt	s10,a4,a4
    800006d0:	0127c7b3          	xor	a5,a5,s2
    800006d4:	b0900513          	li	a0,-1271
    800006d8:	00f57eb3          	and	t4,a0,a5
    800006dc:	205c8293          	addi	t0,s9,517
    800006e0:	27d00813          	li	a6,637
    800006e4:	018c68b3          	or	a7,s8,s8
    800006e8:	0272423b          	divw	tp,tp,t2
    800006ec:	01c27433          	and	s0,tp,t3
    800006f0:	00002897          	auipc	a7,0x2
    800006f4:	e1b88893          	addi	a7,a7,-485 # 8000250b <test_memory+0x30b>
    800006f8:	01bd9ab3          	sll	s5,s11,s11
    800006fc:	b0d00213          	li	tp,-1267
    80000700:	02630633          	mul	a2,t1,t1
    80000704:	01e46bb3          	or	s7,s0,t5
    80000708:	88400b13          	li	s6,-1916
    8000070c:	1fc00493          	li	s1,508
    80000710:	2e134d13          	xori	s10,t1,737
    80000714:	030840bb          	divw	ra,a6,a6
    80000718:	01286fb3          	or	t6,a6,s2
    8000071c:	02422db3          	mulhsu	s11,tp,tp
    80000720:	a6006ae3          	bltu	zero,zero,80000194 <crash_backward>
    80000724:	016536b3          	sltu	a3,a0,s6
    80000728:	400051bb          	sraw	gp,zero,zero
    8000072c:	00002597          	auipc	a1,0x2
    80000730:	1b058593          	addi	a1,a1,432 # 800028dc <_end+0x2cc>
    80000734:	01588633          	add	a2,a7,s5
    80000738:	23dfde63          	bge	t6,t4,80000974 <crash_forward>
    8000073c:	0019d333          	srl	t1,s3,ra
    80000740:	f698a2a3          	sw	s1,-155(a7)
    80000744:	00ea13b3          	sll	t2,s4,a4
    80000748:	010c69b3          	or	s3,s8,a6
    8000074c:	0294d133          	divu	sp,s1,s1
    80000750:	abc00693          	li	a3,-1348
    80000754:	fc10ec13          	ori	s8,ra,-63
    80000758:	6e300393          	li	t2,1763
    8000075c:	88a00493          	li	s1,-1910
    80000760:	9d200093          	li	ra,-1582
    80000764:	0096a833          	slt	a6,a3,s1
    80000768:	68200993          	li	s3,1666
    8000076c:	a3ad44e3          	blt	s10,s10,80000194 <crash_backward>
    80000770:	9725a623          	sw	s2,-1684(a1)
    80000774:	cde00693          	li	a3,-802
    80000778:	00108abb          	addw	s5,ra,ra
    8000077c:	00000513          	li	a0,0
    80000780:	8e98a093          	slti	ra,a7,-1815
    80000784:	18298793          	addi	a5,s3,386
    80000788:	00000e13          	li	t3,0
    8000078c:	a0200413          	li	s0,-1534
    80000790:	a1c542e3          	blt	a0,t3,80000194 <crash_backward>
    80000794:	fb500913          	li	s2,-75
    80000798:	1ff00f93          	li	t6,511
    8000079c:	00002a97          	auipc	s5,0x2
    800007a0:	2d2a8a93          	addi	s5,s5,722 # 80002a6e <_end+0x45e>
    800007a4:	920a9a23          	sh	zero,-1740(s5)
    800007a8:	03f45d3b          	divuw	s10,s0,t6
    800007ac:	1ba00193          	li	gp,442
    800007b0:	74a00593          	li	a1,1866
    800007b4:	02212e33          	mulhsu	t3,sp,sp
    800007b8:	9ec00e93          	li	t4,-1556
    800007bc:	0273863b          	mulw	a2,t2,t2
    800007c0:	00002997          	auipc	s3,0x2
    800007c4:	91e98993          	addi	s3,s3,-1762 # 800020de <reg_x27_init+0x6>
    800007c8:	94100493          	li	s1,-1727
    800007cc:	38518f13          	addi	t5,gp,901 # 80003195 <__global_pointer$+0x385>
    800007d0:	11b00313          	li	t1,283
    800007d4:	039cfabb          	remuw	s5,s9,s9
    800007d8:	00002897          	auipc	a7,0x2
    800007dc:	96388893          	addi	a7,a7,-1693 # 8000213b <reg_x7_output+0x3>
    800007e0:	002f9c9b          	slliw	s9,t6,0x2
    800007e4:	3be9d503          	lhu	a0,958(s3)
    800007e8:	84790b93          	addi	s7,s2,-1977
    800007ec:	41de813b          	subw	sp,t4,t4
    800007f0:	7cb00093          	li	ra,1995
    800007f4:	f3500213          	li	tp,-203
    800007f8:	0ec00993          	li	s3,236
    800007fc:	00e3541b          	srliw	s0,t1,0xe
    80000800:	50b00193          	li	gp,1291
    80000804:	6c100e93          	li	t4,1729
    80000808:	401082b3          	sub	t0,ra,ra
    8000080c:	b7e00813          	li	a6,-1154
    80000810:	2b200a93          	li	s5,690
    80000814:	00433db3          	sltu	s11,t1,tp
    80000818:	02e19133          	mulh	sp,gp,a4
    8000081c:	415a8e33          	sub	t3,s5,s5
    80000820:	00398f3b          	addw	t5,s3,gp
    80000824:	006b57bb          	srlw	a5,s6,t1
    80000828:	6ca00993          	li	s3,1738
    8000082c:	6fe27513          	andi	a0,tp,1790
    80000830:	00100e13          	li	t3,1
    80000834:	004213bb          	sllw	t2,tp,tp
    80000838:	019cd333          	srl	t1,s9,s9
    8000083c:	07400d13          	li	s10,116
    80000840:	00002797          	auipc	a5,0x2
    80000844:	a7678793          	addi	a5,a5,-1418 # 800022b6 <test_memory+0xb6>
    80000848:	03deccbb          	divw	s9,t4,t4
    8000084c:	00002b17          	auipc	s6,0x2
    80000850:	f52b0b13          	addi	s6,s6,-174 # 8000279e <_end+0x18e>
    80000854:	0295ca3b          	divw	s4,a1,s1
    80000858:	0306ec3b          	remw	s8,a3,a6
    8000085c:	00331913          	slli	s2,t1,0x3
    80000860:	56700113          	li	sp,1383
    80000864:	01ebba33          	sltu	s4,s7,t5
    80000868:	b3813b93          	sltiu	s7,sp,-1224
    8000086c:	00001c17          	auipc	s8,0x1
    80000870:	3c2c0c13          	addi	s8,s8,962 # 80001c2e <fromhost+0xbee>
    80000874:	00e7063b          	addw	a2,a4,a4
    80000878:	431a5413          	srai	s0,s4,0x31
    8000087c:	9d500513          	li	a0,-1579
    80000880:	14d8b703          	ld	a4,333(a7)
    80000884:	00a50833          	add	a6,a0,a0
    80000888:	716c2c83          	lw	s9,1814(s8)
    8000088c:	ae1b0623          	sb	ra,-1300(s6)
    80000890:	bb900593          	li	a1,-1095
    80000894:	01ae8fbb          	addw	t6,t4,s10
    80000898:	02b563b3          	rem	t2,a0,a1
    8000089c:	03fe1e13          	slli	t3,t3,0x3f
    800008a0:	00b58333          	add	t1,a1,a1
    800008a4:	036806bb          	mulw	a3,a6,s6
    800008a8:	fff00093          	li	ra,-1
    800008ac:	01c0c0b3          	xor	ra,ra,t3
    800008b0:	0018f2b3          	and	t0,a7,ra
    800008b4:	00002d97          	auipc	s11,0x2
    800008b8:	b5ad8d93          	addi	s11,s11,-1190 # 8000240e <test_memory+0x20e>
    800008bc:	dfed8ca3          	sb	t5,-519(s11)
    800008c0:	19e79723          	sh	t5,398(a5)
    800008c4:	01610213          	addi	tp,sp,22
    800008c8:	01c2eab3          	or	s5,t0,t3
    800008cc:	e4a00e93          	li	t4,-438
    800008d0:	4a100c13          	li	s8,1185
    800008d4:	038efcbb          	remuw	s9,t4,s8
    800008d8:	26b00193          	li	gp,619
    800008dc:	02398f33          	mul	t5,s3,gp
    800008e0:	0040006f          	j	800008e4 <reg_dump>

00000000800008e4 <reg_dump>:
    800008e4:	00002097          	auipc	ra,0x2
    800008e8:	d1c08093          	addi	ra,ra,-740 # 80002600 <loop_count>
    800008ec:	0000a103          	lw	sp,0(ra)
    800008f0:	fff10193          	addi	gp,sp,-1
    800008f4:	0030a023          	sw	gp,0(ra)
    800008f8:	940112e3          	bnez	sp,8000023c <pseg_0>
    800008fc:	00002097          	auipc	ra,0x2
    80000900:	80408093          	addi	ra,ra,-2044 # 80002100 <begin_signature>
    80000904:	0000b023          	sd	zero,0(ra)
    80000908:	0020b823          	sd	sp,16(ra)
    8000090c:	0030bc23          	sd	gp,24(ra)
    80000910:	0240b023          	sd	tp,32(ra)
    80000914:	0250b423          	sd	t0,40(ra)
    80000918:	0260b823          	sd	t1,48(ra)
    8000091c:	0270bc23          	sd	t2,56(ra)
    80000920:	0480b023          	sd	s0,64(ra)
    80000924:	0490b423          	sd	s1,72(ra)
    80000928:	04a0b823          	sd	a0,80(ra)
    8000092c:	04b0bc23          	sd	a1,88(ra)
    80000930:	06c0b023          	sd	a2,96(ra)
    80000934:	06d0b423          	sd	a3,104(ra)
    80000938:	06e0b823          	sd	a4,112(ra)
    8000093c:	0900b023          	sd	a6,128(ra)
    80000940:	0920b823          	sd	s2,144(ra)
    80000944:	0930bc23          	sd	s3,152(ra)
    80000948:	0b40b023          	sd	s4,160(ra)
    8000094c:	0b50b423          	sd	s5,168(ra)
    80000950:	0b70bc23          	sd	s7,184(ra)
    80000954:	0d80b023          	sd	s8,192(ra)
    80000958:	0d90b423          	sd	s9,200(ra)
    8000095c:	0da0b823          	sd	s10,208(ra)
    80000960:	0fc0b023          	sd	t3,224(ra)
    80000964:	0fd0b423          	sd	t4,232(ra)
    80000968:	0fe0b823          	sd	t5,240(ra)
    8000096c:	0ff0bc23          	sd	t6,248(ra)
    80000970:	0200006f          	j	80000990 <test_end>

0000000080000974 <crash_forward>:
    80000974:	0ff0000f          	fence
    80000978:	00018063          	beqz	gp,80000978 <crash_forward+0x4>
    8000097c:	00119193          	slli	gp,gp,0x1
    80000980:	0011e193          	ori	gp,gp,1
    80000984:	05d00893          	li	a7,93
    80000988:	00018513          	mv	a0,gp
    8000098c:	00000073          	ecall

0000000080000990 <test_end>:
    80000990:	0ff0000f          	fence
    80000994:	00100193          	li	gp,1
    80000998:	05d00893          	li	a7,93
    8000099c:	00000513          	li	a0,0
    800009a0:	00000073          	ecall
    800009a4:	c0001073          	unimp
	...

Disassembly of section .tohost:

0000000080001000 <tohost>:
	...

0000000080001040 <fromhost>:
	...

Disassembly of section .data:

0000000080002000 <hidden_data>:
	...

0000000080002008 <reg_x1_init>:
	...

0000000080002010 <reg_x2_init>:
    80002010:	ffff                	0xffff
    80002012:	ffff                	0xffff
    80002014:	ffff                	0xffff
    80002016:	ffff                	0xffff

0000000080002018 <reg_x3_init>:
    80002018:	404efcf3          	csrrci	s9,0x404,29
    8000201c:	a5b8                	fsd	fa4,72(a1)
    8000201e:	445e                	lw	s0,212(sp)

0000000080002020 <reg_x4_init>:
    80002020:	00000007          	0x7
    80002024:	0000                	unimp
    80002026:	0800                	addi	s0,sp,16

0000000080002028 <reg_x5_init>:
    80002028:	6471                	lui	s0,0x1c
    8000202a:	0630                	addi	a2,sp,776
    8000202c:	2823e7a7          	0x2823e7a7

0000000080002030 <reg_x6_init>:
    80002030:	852a                	mv	a0,a0
    80002032:	b4ba                	fsd	fa4,104(sp)
    80002034:	4d69                	li	s10,26
    80002036:	081d                	addi	a6,a6,7

0000000080002038 <reg_x7_init>:
    80002038:	9a4c                	0x9a4c
    8000203a:	8d35                	xor	a0,a0,a3
    8000203c:	e351                	bnez	a4,800020c0 <reg_x24_init>
    8000203e:	          	flq	fs7,-1098(a4)

0000000080002040 <reg_x8_init>:
    80002040:	d4cfbb67          	0xd4cfbb67
    80002044:	76f2                	ld	a3,312(sp)
    80002046:	          	0xb78f

0000000080002048 <reg_x9_init>:
	...

0000000080002050 <reg_x10_init>:
    80002050:	6370b597          	auipc	a1,0x6370b
    80002054:	64ba                	ld	s1,392(sp)
    80002056:	a0fe                	fsd	ft11,64(sp)

0000000080002058 <reg_x11_init>:
    80002058:	80000007          	0x80000007
    8000205c:	ffff                	0xffff
    8000205e:	ffff                	0xffff

0000000080002060 <reg_x12_init>:
    80002060:	1019                	c.nop	-26
    80002062:	3691                	addiw	a3,a3,-28
    80002064:	3114                	fld	fa3,32(a0)
    80002066:	adf4                	fsd	fa3,216(a1)

0000000080002068 <reg_x13_init>:
    80002068:	0002                	c.slli64	zero
    8000206a:	0000                	unimp
    8000206c:	0000                	unimp
	...

0000000080002070 <reg_x14_init>:
    80002070:	e5b5                	bnez	a1,800020dc <reg_x27_init+0x4>
    80002072:	86d5                	srai	a3,a3,0x15
    80002074:	3b34                	fld	fa3,112(a4)
    80002076:	ca0e                	sw	gp,20(sp)

0000000080002078 <reg_x15_init>:
    80002078:	00000007          	0x7
    8000207c:	0000                	unimp
    8000207e:	0800                	addi	s0,sp,16

0000000080002080 <reg_x16_init>:
    80002080:	0008                	0x8
    80002082:	0000                	unimp
    80002084:	0000                	unimp
    80002086:	0800                	addi	s0,sp,16

0000000080002088 <reg_x17_init>:
    80002088:	ffffff83          	0xffffff83
    8000208c:	ffff                	0xffff
    8000208e:	ffff                	0xffff

0000000080002090 <reg_x18_init>:
    80002090:	00000007          	0x7
    80002094:	0000                	unimp
	...

0000000080002098 <reg_x19_init>:
    80002098:	87bd419b          	0x87bd419b
    8000209c:	09ad                	addi	s3,s3,11
    8000209e:	9c05                	subw	s0,s0,s1

00000000800020a0 <reg_x20_init>:
    800020a0:	a1eff6f7          	0xa1eff6f7
    800020a4:	af31                	j	800027c0 <_end+0x1b0>
    800020a6:	e4f2                	sd	t3,72(sp)

00000000800020a8 <reg_x21_init>:
    800020a8:	ffff                	0xffff
    800020aa:	ffff                	0xffff
    800020ac:	ffff                	0xffff
    800020ae:	ffff                	0xffff

00000000800020b0 <reg_x22_init>:
    800020b0:	ff89                	bnez	a5,80001fca <fromhost+0xf8a>
    800020b2:	ffff                	0xffff
    800020b4:	ffff                	0xffff
    800020b6:	ffff                	0xffff

00000000800020b8 <reg_x23_init>:
    800020b8:	1532                	slli	a0,a0,0x2c
    800020ba:	67e8                	ld	a0,200(a5)
    800020bc:	6ee0                	ld	s0,216(a3)
    800020be:	2c71                	addiw	s8,s8,28

00000000800020c0 <reg_x24_init>:
    800020c0:	5120                	lw	s0,96(a0)
    800020c2:	a764                	fsd	fs1,200(a4)
    800020c4:	7c53273b          	0x7c53273b

00000000800020c8 <reg_x25_init>:
    800020c8:	2ad7c8fb          	0x2ad7c8fb
    800020cc:	0ce0                	addi	s0,sp,604
    800020ce:	0916                	slli	s2,s2,0x5

00000000800020d0 <reg_x26_init>:
    800020d0:	8f38                	0x8f38
    800020d2:	e6ba                	sd	a4,328(sp)
    800020d4:	b69d                	j	80001c3a <fromhost+0xbfa>
    800020d6:	42c2                	lw	t0,16(sp)

00000000800020d8 <reg_x27_init>:
    800020d8:	3c11                	addiw	s8,s8,-28
    800020da:	5694                	lw	a3,40(a3)
    800020dc:	3f96                	fld	ft11,352(sp)
    800020de:	3256                	fld	ft4,368(sp)

00000000800020e0 <reg_x28_init>:
    800020e0:	bd74                	fsd	fa3,248(a0)
    800020e2:	fbccbd57          	0xfbccbd57
    800020e6:	ff5f        	0xff5f

00000000800020e8 <reg_x29_init>:
	...

00000000800020f0 <reg_x30_init>:
    800020f0:	ff89                	bnez	a5,8000200a <reg_x1_init+0x2>
    800020f2:	ffff                	0xffff
    800020f4:	ffff                	0xffff
    800020f6:	ffff                	0xffff

00000000800020f8 <reg_x31_init>:
    800020f8:	fdc6                	sd	a7,248(sp)
    800020fa:	b40c                	fsd	fa1,40(s0)
    800020fc:	5a1641d7          	0x5a1641d7

0000000080002100 <begin_signature>:
    80002100:	25c12bab          	0x25c12bab
    80002104:	198d                	addi	s3,s3,-29
    80002106:	534e                	lw	t1,240(sp)

0000000080002108 <reg_x1_output>:
    80002108:	776e                	ld	a4,248(sp)
    8000210a:	c374                	sw	a3,68(a4)
    8000210c:	3e01484f          	fnmadd.q	fa6,ft2,ft0,ft7,rmm

0000000080002110 <reg_x2_output>:
    80002110:	f57c                	sd	a5,232(a0)
    80002112:	69ff                	0x69ff
    80002114:	73d2                	ld	t2,304(sp)
    80002116:	37e1                	addiw	a5,a5,-8

0000000080002118 <reg_x3_output>:
    80002118:	2834                	fld	fa3,80(s0)
    8000211a:	fe38                	sd	a4,120(a2)
    8000211c:	9be8                	0x9be8
    8000211e:	          	jalr	t4,1613(zero) # 0 <_start-0x80000000>

0000000080002120 <reg_x4_output>:
    80002120:	64d0                	ld	a2,136(s1)
    80002122:	3f3e                	fld	ft10,488(sp)
    80002124:	3235fb77          	0x3235fb77

0000000080002128 <reg_x5_output>:
    80002128:	91ae                	add	gp,gp,a1
    8000212a:	82e6                	mv	t0,s9
    8000212c:	e89c                	sd	a5,16(s1)
    8000212e:	          	lui	a1,0xd8f7

0000000080002130 <reg_x6_output>:
    80002130:	bacd0d8f          	0xbacd0d8f
    80002134:	0ca6                	slli	s9,s9,0x9
    80002136:	          	slti	a5,s0,-171

0000000080002138 <reg_x7_output>:
    80002138:	f554                	sd	a3,168(a0)
    8000213a:	cb26                	sw	s1,148(sp)
    8000213c:	95422a37          	lui	s4,0x95422

0000000080002140 <reg_x8_output>:
    80002140:	0cfa                	slli	s9,s9,0x1e
    80002142:	0194                	addi	a3,sp,192
    80002144:	6cba                	ld	s9,392(sp)
    80002146:	4f2a                	lw	t5,136(sp)

0000000080002148 <reg_x9_output>:
    80002148:	7add51eb          	0x7add51eb
    8000214c:	3a2c                	fld	fa1,112(a2)
    8000214e:	          	0xffdcdf2f

0000000080002150 <reg_x10_output>:
    80002150:	ffdc                	sd	a5,184(a5)
    80002152:	6741                	lui	a4,0x10
    80002154:	b32148b7          	lui	a7,0xb3214

0000000080002158 <reg_x11_output>:
    80002158:	66d2                	ld	a3,272(sp)
    8000215a:	5bb6e38b          	0x5bb6e38b
    8000215e:	9c22                	add	s8,s8,s0

0000000080002160 <reg_x12_output>:
    80002160:	a7ff                	0xa7ff
    80002162:	181b6ab7          	lui	s5,0x181b6
    80002166:	334c                	fld	fa1,160(a4)

0000000080002168 <reg_x13_output>:
    80002168:	5c6e189b          	0x5c6e189b
    8000216c:	e645                	bnez	a2,80002214 <test_memory+0x14>
    8000216e:	3b24                	fld	fs1,112(a4)

0000000080002170 <reg_x14_output>:
    80002170:	f4e1                	bnez	s1,80002138 <reg_x7_output>
    80002172:	67d7c783          	lbu	a5,1661(a5)
    80002176:	827f                	0x827f

0000000080002178 <reg_x15_output>:
    80002178:	0adc                	addi	a5,sp,340
    8000217a:	1a34                	addi	a3,sp,312
    8000217c:	b212                	fsd	ft4,288(sp)
    8000217e:	          	lui	sp,0x63a85

0000000080002180 <reg_x16_output>:
    80002180:	63a8                	ld	a0,64(a5)
    80002182:	d19fd14b          	fnmsub.s	ft2,ft11,fs9,fs10,unknown
    80002186:	          	csrrc	s1,0x834,a5

0000000080002188 <reg_x17_output>:
    80002188:	41a38347          	fmsub.s	ft6,ft7,fs10,fs0,rne
    8000218c:	717c2b13          	slti	s6,s8,1815

0000000080002190 <reg_x18_output>:
    80002190:	ea52                	sd	s4,272(sp)
    80002192:	cc30                	sw	a2,88(s0)
    80002194:	a361                	j	8000271c <_end+0x10c>
    80002196:	          	0xe9f8e95b

0000000080002198 <reg_x19_output>:
    80002198:	e9f8                	sd	a4,208(a1)
    8000219a:	0752                	slli	a4,a4,0x14
    8000219c:	2e16                	fld	ft8,320(sp)
    8000219e:	0121                	addi	sp,sp,8

00000000800021a0 <reg_x20_output>:
    800021a0:	e230                	sd	a2,64(a2)
    800021a2:	5405                	li	s0,-31
    800021a4:	fb14                	sd	a3,48(a4)
    800021a6:	b32c                	fsd	fa1,96(a4)

00000000800021a8 <reg_x21_output>:
    800021a8:	7b0e                	ld	s6,224(sp)
    800021aa:	5cf8                	lw	a4,124(s1)
    800021ac:	ee5e1427          	0xee5e1427

00000000800021b0 <reg_x22_output>:
    800021b0:	a594                	fsd	fa3,8(a1)
    800021b2:	3669                	addiw	a2,a2,-6
    800021b4:	8b8b5ab3          	0x8b8b5ab3

00000000800021b8 <reg_x23_output>:
    800021b8:	fd7c                	sd	a5,248(a0)
    800021ba:	580a                	lw	a6,160(sp)
    800021bc:	9036                	c.add	zero,a3
    800021be:	7188                	ld	a0,32(a1)

00000000800021c0 <reg_x24_output>:
    800021c0:	d4c9                	beqz	s1,8000214a <reg_x9_output+0x2>
    800021c2:	7158                	ld	a4,160(a0)
    800021c4:	4b67f887          	0x4b67f887

00000000800021c8 <reg_x25_output>:
    800021c8:	9320                	0x9320
    800021ca:	9eb6                	add	t4,t4,a3
    800021cc:	42f5                	li	t0,29
    800021ce:	50f8                	lw	a4,100(s1)

00000000800021d0 <reg_x26_output>:
    800021d0:	8b377643          	fmadd.d	fa2,fa4,fs3,fa7
    800021d4:	4faa                	lw	t6,136(sp)
    800021d6:	ad20                	fsd	fs0,88(a0)

00000000800021d8 <reg_x27_output>:
    800021d8:	f615                	bnez	a2,80002104 <begin_signature+0x4>
    800021da:	8cc5                	or	s1,s1,s1
    800021dc:	2906                	fld	fs2,64(sp)
    800021de:	3e35                	addiw	t3,t3,-19

00000000800021e0 <reg_x28_output>:
    800021e0:	e2606617          	auipc	a2,0xe2606
    800021e4:	f256b4cb          	fnmsub.d	fs1,fa3,ft5,ft10,rup

00000000800021e8 <reg_x29_output>:
    800021e8:	b745                	j	80002188 <reg_x17_output>
    800021ea:	cb51                	beqz	a4,8000227e <test_memory+0x7e>
    800021ec:	4755                	li	a4,21
    800021ee:	eb1c                	sd	a5,16(a4)

00000000800021f0 <reg_x30_output>:
    800021f0:	c8ac                	sw	a1,80(s1)
    800021f2:	f33043f7          	0xf33043f7
    800021f6:	f438                	sd	a4,104(s0)

00000000800021f8 <reg_x31_output>:
    800021f8:	5241                	li	tp,-16
    800021fa:	f90c                	sd	a1,48(a0)
    800021fc:	2a7839c3          	fmadd.d	fs3,fa6,ft7,ft5,rup

0000000080002200 <test_memory>:
    80002200:	74b2                	ld	s1,296(sp)
    80002202:	6b65                	lui	s6,0x19
    80002204:	35fa                	fld	fa1,440(sp)
    80002206:	4525                	li	a0,9
    80002208:	2a54                	fld	fa3,144(a2)
    8000220a:	8805071b          	addiw	a4,a0,-1920
    8000220e:	7741                	lui	a4,0xffff0
    80002210:	88b78853          	0x88b78853
    80002214:	52ddc1ab          	0x52ddc1ab
    80002218:	c4d4                	sw	a3,12(s1)
    8000221a:	b4d9                	j	80001ce0 <fromhost+0xca0>
    8000221c:	e4c9                	bnez	s1,800022a6 <test_memory+0xa6>
    8000221e:	6294                	ld	a3,0(a3)
    80002220:	9da9                	addw	a1,a1,a0
    80002222:	937c                	0x937c
    80002224:	1c8041eb          	0x1c8041eb
    80002228:	d4bc                	sw	a5,104(s1)
    8000222a:	4ce5                	li	s9,25
    8000222c:	bb22                	fsd	fs0,432(sp)
    8000222e:	526fd8ab          	0x526fd8ab
    80002232:	b4a8                	fsd	fa0,104(s1)
    80002234:	af89                	j	80002986 <_end+0x376>
    80002236:	877d                	srai	a4,a4,0x1f
    80002238:	74a7eb77          	0x74a7eb77
    8000223c:	ae1d                	j	80002572 <test_memory+0x372>
    8000223e:	bb05                	j	80001f6e <fromhost+0xf2e>
    80002240:	16fa                	slli	a3,a3,0x3e
    80002242:	1c0c                	addi	a1,sp,560
    80002244:	12c1                	addi	t0,t0,-16
    80002246:	671c                	ld	a5,8(a4)
    80002248:	e2fe                	sd	t6,320(sp)
    8000224a:	9e75                	0x9e75
    8000224c:	eeb1                	bnez	a3,800022a8 <test_memory+0xa8>
    8000224e:	7869afb7          	lui	t6,0x7869a
    80002252:	0019                	c.nop	6
    80002254:	a5bc                	fsd	fa5,72(a1)
    80002256:	552422db          	0x552422db
    8000225a:	eaa9                	bnez	a3,800022ac <test_memory+0xac>
    8000225c:	8be1                	andi	a5,a5,24
    8000225e:	15c1                	addi	a1,a1,-16
    80002260:	a0425a1b          	0xa0425a1b
    80002264:	95ad1b5b          	0x95ad1b5b
    80002268:	b430                	fsd	fa2,104(s0)
    8000226a:	fed5                	bnez	a3,80002226 <test_memory+0x26>
    8000226c:	0a92211b          	0xa92211b
    80002270:	d261                	beqz	a2,80002230 <test_memory+0x30>
    80002272:	ee9e                	sd	t2,344(sp)
    80002274:	4a7f0e37          	lui	t3,0x4a7f0
    80002278:	d8ac                	sw	a1,112(s1)
    8000227a:	68ee                	ld	a7,216(sp)
    8000227c:	37e286e3          	beq	t0,t5,80002de8 <_end+0x7d8>
    80002280:	9e74                	0x9e74
    80002282:	dbe3fbc7          	fmsub.d	fs7,ft7,ft10,fs11
    80002286:	ee84                	sd	s1,24(a3)
    80002288:	187c                	addi	a5,sp,60
    8000228a:	6fea                	ld	t6,152(sp)
    8000228c:	69ad                	lui	s3,0xb
    8000228e:	80d5                	srli	s1,s1,0x15
    80002290:	61a9                	lui	gp,0xa
    80002292:	70758b4f          	fnmadd.s	fs6,fa1,ft7,fa4,rne
    80002296:	7ef9                	lui	t4,0xffffe
    80002298:	3b31                	addiw	s6,s6,-20
    8000229a:	f971                	bnez	a0,8000226e <test_memory+0x6e>
    8000229c:	eb0d                	bnez	a4,800022ce <test_memory+0xce>
    8000229e:	23e2844f          	fnmadd.d	fs0,ft5,ft10,ft4,rne
    800022a2:	f734                	sd	a3,104(a4)
    800022a4:	c645                	beqz	a2,8000234c <test_memory+0x14c>
    800022a6:	f344                	sd	s1,160(a4)
    800022a8:	df9f 3ddf b116      	0xb1163ddfdf9f
    800022ae:	96d8                	0x96d8
    800022b0:	c348                	sw	a0,4(a4)
    800022b2:	1045                	c.nop	-15
    800022b4:	1df4                	addi	a3,sp,764
    800022b6:	26ac8593          	addi	a1,s9,618
    800022ba:	0639                	addi	a2,a2,14
    800022bc:	07f6                	slli	a5,a5,0x1d
    800022be:	424e                	lw	tp,208(sp)
    800022c0:	4d36                	lw	s10,76(sp)
    800022c2:	4015                	c.li	zero,5
    800022c4:	32ae                	fld	ft5,232(sp)
    800022c6:	1f59                	addi	t5,t5,-10
    800022c8:	b76a                	fsd	fs10,424(sp)
    800022ca:	dc4c                	sw	a1,60(s0)
    800022cc:	f9e8                	sd	a0,240(a1)
    800022ce:	5ba9                	li	s7,-22
    800022d0:	7278                	ld	a4,224(a2)
    800022d2:	51cc                	lw	a1,36(a1)
    800022d4:	eeb2                	sd	a2,344(sp)
    800022d6:	3530                	fld	fa2,104(a0)
    800022d8:	7068                	ld	a0,224(s0)
    800022da:	f91f 814f 5115      	0x5115814ff91f
    800022e0:	8ab4                	0x8ab4
    800022e2:	6411e18b          	0x6411e18b
    800022e6:	aa2e                	fsd	fa1,272(sp)
    800022e8:	5a44                	lw	s1,52(a2)
    800022ea:	7a1d                	lui	s4,0xfffe7
    800022ec:	391f d2fa db28      	0xdb28d2fa391f
    800022f2:	28df 0db6 4e85      	0x4e850db628df
    800022f8:	af85                	j	80002a68 <_end+0x458>
    800022fa:	efdf 2f77 6bd4      	0x6bd42f77efdf
    80002300:	1495                	addi	s1,s1,-27
    80002302:	9ca749cb          	0x9ca749cb
    80002306:	a451                	j	8000258a <test_memory+0x38a>
    80002308:	3aab0da7          	0x3aab0da7
    8000230c:	be94                	fsd	fa3,56(a3)
    8000230e:	3c7ae27b          	0x3c7ae27b
    80002312:	23f0                	fld	fa2,192(a5)
    80002314:	d58a                	sw	sp,232(sp)
    80002316:	b7dc                	fsd	fa5,168(a5)
    80002318:	2376                	fld	ft6,344(sp)
    8000231a:	8fe9be77          	0x8fe9be77
    8000231e:	6bb9                	lui	s7,0xe
    80002320:	7585                	lui	a1,0xfffe1
    80002322:	6809                	lui	a6,0x2
    80002324:	4269                	li	tp,26
    80002326:	baf0                	fsd	fa2,240(a3)
    80002328:	709f b392 2d88      	0x2d88b392709f
    8000232e:	2875                	addiw	a6,a6,29
    80002330:	5b46                	lw	s6,112(sp)
    80002332:	f80d                	bnez	s0,80002264 <test_memory+0x64>
    80002334:	bcb8                	fsd	fa4,120(s1)
    80002336:	6d1d                	lui	s10,0x7
    80002338:	ff09ea83          	lwu	s5,-16(s3) # aff0 <_start-0x7fff5010>
    8000233c:	c5c8                	sw	a0,12(a1)
    8000233e:	47f0                	lw	a2,76(a5)
    80002340:	e525                	bnez	a0,800023a8 <test_memory+0x1a8>
    80002342:	95a1                	srai	a1,a1,0x28
    80002344:	29671397          	auipc	t2,0x29671
    80002348:	9a4e                	add	s4,s4,s3
    8000234a:	e825                	bnez	s0,800023ba <test_memory+0x1ba>
    8000234c:	0521                	addi	a0,a0,8
    8000234e:	0496578b          	0x496578b
    80002352:	87e6                	mv	a5,s9
    80002354:	5254                	lw	a3,36(a2)
    80002356:	884834c3          	fmadd.s	fs1,fa6,ft4,fa7,rup
    8000235a:	dbc8                	sw	a0,52(a5)
    8000235c:	2a5a                	fld	fs4,400(sp)
    8000235e:	edaa                	sd	a0,216(sp)
    80002360:	728a                	ld	t0,160(sp)
    80002362:	cc7a                	sw	t5,24(sp)
    80002364:	6b34                	ld	a3,80(a4)
    80002366:	886ae4d3          	0x886ae4d3
    8000236a:	b8e67c93          	andi	s9,a2,-1138
    8000236e:	7201                	lui	tp,0xfffe0
    80002370:	6028                	ld	a0,64(s0)
    80002372:	d945                	beqz	a0,80002322 <test_memory+0x122>
    80002374:	b2f04a73          	0xb2f04a73
    80002378:	bc34                	fsd	fa3,120(s0)
    8000237a:	6d89948f          	0x6d89948f
    8000237e:	6c96                	ld	s9,320(sp)
    80002380:	febc                	sd	a5,120(a3)
    80002382:	958a23f3          	csrrs	t2,0x958,s4
    80002386:	d9d8                	sw	a4,52(a1)
    80002388:	ddbd                	beqz	a1,80002306 <test_memory+0x106>
    8000238a:	441e                	lw	s0,196(sp)
    8000238c:	5942                	lw	s2,48(sp)
    8000238e:	84fa                	mv	s1,t5
    80002390:	fcf812ef          	jal	t0,7ff8435e <_start-0x7bca2>
    80002394:	9aad                	andi	a3,a3,-21
    80002396:	c3e4                	sw	s1,68(a5)
    80002398:	7f3ca80b          	0x7f3ca80b
    8000239c:	4665                	li	a2,25
    8000239e:	5e75                	li	t3,-3
    800023a0:	0738                	addi	a4,sp,904
    800023a2:	349eacef          	jal	s9,800eceea <__global_pointer$+0xea0da>
    800023a6:	f0a4290b          	0xf0a4290b
    800023aa:	9efd                	0x9efd
    800023ac:	cc05                	beqz	s0,800023e4 <test_memory+0x1e4>
    800023ae:	3192526b          	0x3192526b
    800023b2:	a6a0c043          	fmadd.q	ft0,ft1,fa0,fs4,rmm
    800023b6:	1f6a                	slli	t5,t5,0x3a
    800023b8:	4665                	li	a2,25
    800023ba:	b39d66ef          	jal	a3,7ffd8ef2 <_start-0x2710e>
    800023be:	e299                	bnez	a3,800023c4 <test_memory+0x1c4>
    800023c0:	8caf406f          	j	7fff648a <_start-0x9b76>
    800023c4:	b4c4                	fsd	fs1,168(s1)
    800023c6:	aab4                	fsd	fa3,80(a3)
    800023c8:	2991                	addiw	s3,s3,4
    800023ca:	55be                	lw	a1,236(sp)
    800023cc:	94e6                	add	s1,s1,s9
    800023ce:	aeda                	fsd	fs6,344(sp)
    800023d0:	02ec                	addi	a1,sp,332
    800023d2:	7c6dfa57          	0x7c6dfa57
    800023d6:	270d                	addiw	a4,a4,3
    800023d8:	312c                	fld	fa1,96(a0)
    800023da:	bbb5                	j	80002156 <reg_x10_output+0x6>
    800023dc:	0085cc07          	flq	fs8,8(a1) # fffffffffffe1008 <__global_pointer$+0xffffffff7ffde1f8>
    800023e0:	0045                	c.nop	17
    800023e2:	a5a8                	fsd	fa0,72(a1)
    800023e4:	d10e                	sw	gp,160(sp)
    800023e6:	a6e0                	fsd	fs0,200(a3)
    800023e8:	b18a                	fsd	ft2,224(sp)
    800023ea:	c144                	sw	s1,4(a0)
    800023ec:	2df9                	addiw	s11,s11,30
    800023ee:	3611                	addiw	a2,a2,-28
    800023f0:	928a                	add	t0,t0,sp
    800023f2:	21396b67          	0x21396b67
    800023f6:	692a                	ld	s2,136(sp)
    800023f8:	b822                	fsd	fs0,48(sp)
    800023fa:	f956                	sd	s5,176(sp)
    800023fc:	1f21                	addi	t5,t5,-24
    800023fe:	c700                	sw	s0,8(a4)
    80002400:	7892                	ld	a7,288(sp)
    80002402:	27d4347b          	0x27d4347b
    80002406:	70a79ae7          	0x70a79ae7
    8000240a:	17c6                	slli	a5,a5,0x31
    8000240c:	f03e                	sd	a5,32(sp)
    8000240e:	605a                	0x605a
    80002410:	1330                	addi	a2,sp,424
    80002412:	6e55                	lui	t3,0x15
    80002414:	edac                	sd	a1,88(a1)
    80002416:	d32d                	beqz	a4,80002378 <test_memory+0x178>
    80002418:	4759                	li	a4,22
    8000241a:	0940                	addi	s0,sp,148
    8000241c:	0744a587          	flw	fa1,116(s1)
    80002420:	c1a4                	sw	s1,64(a1)
    80002422:	86b6                	mv	a3,a3
    80002424:	df2e                	sw	a1,188(sp)
    80002426:	19e2                	slli	s3,s3,0x38
    80002428:	a8515c97          	auipc	s9,0xa8515
    8000242c:	8c12                	mv	s8,tp
    8000242e:	1154f003          	0x1154f003
    80002432:	310e                	fld	ft2,224(sp)
    80002434:	fa74                	sd	a3,240(a2)
    80002436:	1db9c593          	xori	a1,s3,475
    8000243a:	28c2                	fld	fa7,16(sp)
    8000243c:	417a                	lw	sp,156(sp)
    8000243e:	b4bc1e33          	0xb4bc1e33
    80002442:	5814                	lw	a3,48(s0)
    80002444:	597f                	0x597f
    80002446:	51ca                	lw	gp,176(sp)
    80002448:	171c                	addi	a5,sp,928
    8000244a:	a7c1                	j	80002c0a <_end+0x5fa>
    8000244c:	251d11bb          	0x251d11bb
    80002450:	75a1                	lui	a1,0xfffe8
    80002452:	c315                	beqz	a4,80002476 <test_memory+0x276>
    80002454:	9cc2                	add	s9,s9,a6
    80002456:	537d3c73          	csrrc	s8,0x537,s10
    8000245a:	0a20                	addi	s0,sp,280
    8000245c:	cf62                	sw	s8,156(sp)
    8000245e:	d79d                	beqz	a5,8000238c <test_memory+0x18c>
    80002460:	968c                	0x968c
    80002462:	7251                	lui	tp,0xffff4
    80002464:	8318f9e7          	0x8318f9e7
    80002468:	dc8a                	sw	sp,120(sp)
    8000246a:	f338                	sd	a4,96(a4)
    8000246c:	89e1                	andi	a1,a1,24
    8000246e:	23ce                	fld	ft7,208(sp)
    80002470:	5776                	lw	a4,124(sp)
    80002472:	0cd6                	slli	s9,s9,0x15
    80002474:	f2cd                	bnez	a3,80002416 <test_memory+0x216>
    80002476:	07b1                	addi	a5,a5,12
    80002478:	30b6                	fld	ft1,360(sp)
    8000247a:	7c2d                	lui	s8,0xfffeb
    8000247c:	1a17c647          	fmsub.d	fa2,fa5,ft1,ft3,rmm
    80002480:	e2d991bf c53cf8ce 	0xc53cf8cee2d991bf
    80002488:	c24c                	sw	a1,4(a2)
    8000248a:	d57c                	sw	a5,108(a0)
    8000248c:	1e10                	addi	a2,sp,816
    8000248e:	7fad                	lui	t6,0xfffeb
    80002490:	9f65                	0x9f65
    80002492:	804aadaf          	amomin.w	s11,tp,(s5)
    80002496:	9e28                	0x9e28
    80002498:	e167d3c7          	fmsub.s	ft7,fa5,fs6,ft8,unknown
    8000249c:	6858                	ld	a4,144(s0)
    8000249e:	b3e9                	j	80002268 <test_memory+0x68>
    800024a0:	0171                	addi	sp,sp,28
    800024a2:	78dc                	ld	a5,176(s1)
    800024a4:	4861                	li	a6,24
    800024a6:	4560c63b          	0x4560c63b
    800024aa:	6dc4                	ld	s1,152(a1)
    800024ac:	d139                	beqz	a0,800023f2 <test_memory+0x1f2>
    800024ae:	ece1                	bnez	s1,80002586 <test_memory+0x386>
    800024b0:	79b4                	ld	a3,112(a1)
    800024b2:	d1e1                	beqz	a1,80002472 <test_memory+0x272>
    800024b4:	dafa                	sw	t5,116(sp)
    800024b6:	6f52                	ld	t5,272(sp)
    800024b8:	24d927e7          	0x24d927e7
    800024bc:	836a                	mv	t1,s10
    800024be:	5408                	lw	a0,40(s0)
    800024c0:	458d8bb3          	0x458d8bb3
    800024c4:	890d                	andi	a0,a0,3
    800024c6:	28d6d03b          	0x28d6d03b
    800024ca:	cfe0                	sw	s0,92(a5)
    800024cc:	c82c                	sw	a1,80(s0)
    800024ce:	ae1d                	j	80002804 <_end+0x1f4>
    800024d0:	98df 4cc6 671d      	0x671d4cc698df
    800024d6:	b755                	j	8000247a <test_memory+0x27a>
    800024d8:	2ba2                	fld	fs7,8(sp)
    800024da:	a829                	j	800024f4 <test_memory+0x2f4>
    800024dc:	c16e                	sw	s11,128(sp)
    800024de:	7438                	ld	a4,104(s0)
    800024e0:	0c09                	addi	s8,s8,2
    800024e2:	0e0487a3          	sb	zero,239(s1)
    800024e6:	43ee                	lw	t2,216(sp)
    800024e8:	a454                	fsd	fa3,136(s0)
    800024ea:	56cd                	li	a3,-13
    800024ec:	749f2227          	fsw	fs1,1860(t5)
    800024f0:	4814                	lw	a3,16(s0)
    800024f2:	23f6a703          	lw	a4,575(a3)
    800024f6:	8758c16f          	jal	sp,7ff8ed6a <_start-0x71296>
    800024fa:	dba6                	sw	s1,244(sp)
    800024fc:	8901                	andi	a0,a0,0
    800024fe:	bbb5                	j	8000227a <test_memory+0x7a>
    80002500:	c24f4deb          	0xc24f4deb
    80002504:	f1c1                	bnez	a1,80002484 <test_memory+0x284>
    80002506:	e2fd                	bnez	a3,800025ec <test_memory+0x3ec>
    80002508:	e295                	bnez	a3,8000252c <test_memory+0x32c>
    8000250a:	ec10                	sd	a2,24(s0)
    8000250c:	6141                	addi	sp,sp,16
    8000250e:	0dc8                	addi	a0,sp,724
    80002510:	4db5                	li	s11,13
    80002512:	5b94                	lw	a3,48(a5)
    80002514:	35288853          	0x35288853
    80002518:	73bd                	lui	t2,0xfffef
    8000251a:	ce3a                	sw	a4,28(sp)
    8000251c:	6de2                	ld	s11,24(sp)
    8000251e:	97472c07          	flw	fs8,-1676(a4) # fffffffffffef974 <__global_pointer$+0xffffffff7ffecb64>
    80002522:	bf4d                	j	800024d4 <test_memory+0x2d4>
    80002524:	3a7c                	fld	fa5,240(a2)
    80002526:	ba01                	j	80001e36 <fromhost+0xdf6>
    80002528:	cfe5                	beqz	a5,80002620 <_end+0x10>
    8000252a:	3770                	fld	fa2,232(a4)
    8000252c:	62ff                	0x62ff
    8000252e:	680c                	ld	a1,16(s0)
    80002530:	9dda                	add	s11,s11,s6
    80002532:	6efc31e7          	0x6efc31e7
    80002536:	82d1                	srli	a3,a3,0x14
    80002538:	0882f057          	0x882f057
    8000253c:	3172                	fld	ft2,312(sp)
    8000253e:	02fd3be7          	0x2fd3be7
    80002542:	0eb6e2c3          	fmadd.q	ft5,fa3,fa1,ft1,unknown
    80002546:	3599                	addiw	a1,a1,-26
    80002548:	c3ee38a7          	fsd	ft10,-975(t3) # 14c31 <_start-0x7ffeb3cf>
    8000254c:	e8c0                	sd	s0,144(s1)
    8000254e:	2f30                	fld	fa2,88(a4)
    80002550:	dccc                	sw	a1,60(s1)
    80002552:	7e68                	ld	a0,248(a2)
    80002554:	1344                	addi	s1,sp,420
    80002556:	c420                	sw	s0,72(s0)
    80002558:	4a04                	lw	s1,16(a2)
    8000255a:	738d                	lui	t2,0xfffe3
    8000255c:	de505337          	lui	t1,0xde505
    80002560:	ab62                	fsd	fs8,400(sp)
    80002562:	8700                	0x8700
    80002564:	f9b0                	sd	a2,112(a1)
    80002566:	37cff2b3          	0x37cff2b3
    8000256a:	2810                	fld	fa2,16(s0)
    8000256c:	b051                	j	80001df0 <fromhost+0xdb0>
    8000256e:	7e29                	lui	t3,0xfffea
    80002570:	162bb18b          	0x162bb18b
    80002574:	1d81                	addi	s11,s11,-32
    80002576:	f1716e03          	lwu	t3,-233(sp) # 63a84f17 <_start-0x1c57b0e9>
    8000257a:	e0ea                	sd	s10,64(sp)
    8000257c:	315a                	fld	ft2,432(sp)
    8000257e:	5625                	li	a2,-23
    80002580:	a4be                	fsd	fa5,72(sp)
    80002582:	0d70                	addi	a2,sp,668
    80002584:	3ff4                	fld	fa3,248(a5)
    80002586:	2624                	fld	fs1,72(a2)
    80002588:	f569                	bnez	a0,80002552 <test_memory+0x352>
    8000258a:	28df 1c5a eb0e      	0xeb0e1c5a28df
    80002590:	e84a                	sd	s2,16(sp)
    80002592:	ed9d                	bnez	a1,800025d0 <test_memory+0x3d0>
    80002594:	00f8bf8b          	0xf8bf8b
    80002598:	071aa1a3          	sw	a7,99(s5) # 181b6063 <_start-0x67e49f9d>
    8000259c:	b92c                	fsd	fa1,112(a0)
    8000259e:	a106                	fsd	ft1,128(sp)
    800025a0:	c7ce                	sw	s3,204(sp)
    800025a2:	43caf137          	lui	sp,0x43caf
    800025a6:	0bfc                	addi	a5,sp,476
    800025a8:	b510                	fsd	fa2,40(a0)
    800025aa:	a02d                	j	800025d4 <test_memory+0x3d4>
    800025ac:	6cec                	ld	a1,216(s1)
    800025ae:	64ed7feb          	0x64ed7feb
    800025b2:	e13fad6b          	0xe13fad6b
    800025b6:	7d7c                	ld	a5,248(a0)
    800025b8:	d672                	sw	t3,44(sp)
    800025ba:	6a7f                	0x6a7f
    800025bc:	a79d                	j	80002d22 <_end+0x712>
    800025be:	3641                	addiw	a2,a2,-16
    800025c0:	4c42                	lw	s8,16(sp)
    800025c2:	6f56                	ld	t5,336(sp)
    800025c4:	f9c4                	sd	s1,176(a1)
    800025c6:	ab62                	fsd	fs8,400(sp)
    800025c8:	a7f93477          	0xa7f93477
    800025cc:	87fe                	mv	a5,t6
    800025ce:	0975                	addi	s2,s2,29
    800025d0:	e592                	sd	tp,200(sp)
    800025d2:	03fd                	addi	t2,t2,31
    800025d4:	5d01                	li	s10,-32
    800025d6:	c260                	sw	s0,68(a2)
    800025d8:	9309                	srli	a4,a4,0x22
    800025da:	b862                	fsd	fs8,48(sp)
    800025dc:	59c2                	lw	s3,48(sp)
    800025de:	3340d0f3          	csrrwi	ra,mhpmevent20,1
    800025e2:	4751                	li	a4,20
    800025e4:	5fd26d33          	0x5fd26d33
    800025e8:	59e4                	lw	s1,116(a1)
    800025ea:	51e72e17          	auipc	t3,0x51e72
    800025ee:	82d8                	0x82d8
    800025f0:	9505                	srai	a0,a0,0x21
    800025f2:	1d42                	slli	s10,s10,0x30
    800025f4:	4c32                	lw	s8,12(sp)
    800025f6:	7868231b          	0x7868231b
    800025fa:	8eb1                	xor	a3,a3,a2
    800025fc:	2d58                	fld	fa4,152(a0)
    800025fe:	fec8                	sd	a0,184(a3)

0000000080002600 <loop_count>:
    80002600:	0040                	addi	s0,sp,4
	...

Disassembly of section .riscv.attributes:

0000000000000000 <.riscv.attributes>:
   0:	1e41                	addi	t3,t3,-16
   2:	0000                	unimp
   4:	7200                	ld	s0,32(a2)
   6:	7369                	lui	t1,0xffffa
   8:	01007663          	bgeu	zero,a6,14 <_start-0x7fffffec>
   c:	0014                	0x14
   e:	0000                	unimp
  10:	7205                	lui	tp,0xfffe1
  12:	3676                	fld	fa2,376(sp)
  14:	6934                	ld	a3,80(a0)
  16:	7032                	0x7032
  18:	5f30                	lw	a2,120(a4)
  1a:	326d                	addiw	tp,tp,-5
  1c:	3070                	fld	fa2,224(s0)
	...
