
build/test26:     file format elf64-littleriscv


Disassembly of section .text.init:

0000000080000000 <_start>:
    80000000:	05c0006f          	j	8000005c <reset_vector>

0000000080000004 <trap_vector>:
    80000004:	34202f73          	csrr	t5,mcause
    80000008:	00800f93          	li	t6,8
    8000000c:	03ff0a63          	beq	t5,t6,80000040 <write_tohost>
    80000010:	00900f93          	li	t6,9
    80000014:	03ff0663          	beq	t5,t6,80000040 <write_tohost>
    80000018:	00b00f93          	li	t6,11
    8000001c:	03ff0263          	beq	t5,t6,80000040 <write_tohost>
    80000020:	80000f17          	auipc	t5,0x80000
    80000024:	fe0f0f13          	addi	t5,t5,-32 # 0 <_start-0x80000000>
    80000028:	000f0463          	beqz	t5,80000030 <trap_vector+0x2c>
    8000002c:	000f0067          	jr	t5
    80000030:	34202f73          	csrr	t5,mcause
    80000034:	000f5463          	bgez	t5,8000003c <handle_exception>
    80000038:	0040006f          	j	8000003c <handle_exception>

000000008000003c <handle_exception>:
    8000003c:	5391e193          	ori	gp,gp,1337

0000000080000040 <write_tohost>:
    80000040:	00001f17          	auipc	t5,0x1
    80000044:	fc3f2023          	sw	gp,-64(t5) # 80001000 <tohost>
    80000048:	000902b7          	lui	t0,0x90
    8000004c:	0012829b          	addiw	t0,t0,1
    80000050:	00c29293          	slli	t0,t0,0xc
    80000054:	0002af83          	lw	t6,0(t0) # 90000 <_start-0x7ff70000>
    80000058:	fe9ff06f          	j	80000040 <write_tohost>

000000008000005c <reset_vector>:
    8000005c:	00000093          	li	ra,0
    80000060:	00000113          	li	sp,0
    80000064:	00000193          	li	gp,0
    80000068:	00000213          	li	tp,0
    8000006c:	00000293          	li	t0,0
    80000070:	00000313          	li	t1,0
    80000074:	00000393          	li	t2,0
    80000078:	00000413          	li	s0,0
    8000007c:	00000493          	li	s1,0
    80000080:	00000513          	li	a0,0
    80000084:	00000593          	li	a1,0
    80000088:	00000613          	li	a2,0
    8000008c:	00000693          	li	a3,0
    80000090:	00000713          	li	a4,0
    80000094:	00000793          	li	a5,0
    80000098:	00000813          	li	a6,0
    8000009c:	00000893          	li	a7,0
    800000a0:	00000913          	li	s2,0
    800000a4:	00000993          	li	s3,0
    800000a8:	00000a13          	li	s4,0
    800000ac:	00000a93          	li	s5,0
    800000b0:	00000b13          	li	s6,0
    800000b4:	00000b93          	li	s7,0
    800000b8:	00000c13          	li	s8,0
    800000bc:	00000c93          	li	s9,0
    800000c0:	00000d13          	li	s10,0
    800000c4:	00000d93          	li	s11,0
    800000c8:	00000e13          	li	t3,0
    800000cc:	00000e93          	li	t4,0
    800000d0:	00000f13          	li	t5,0
    800000d4:	00000f93          	li	t6,0
    800000d8:	f1402573          	csrr	a0,mhartid
    800000dc:	00051063          	bnez	a0,800000dc <reset_vector+0x80>
    800000e0:	00000297          	auipc	t0,0x0
    800000e4:	01028293          	addi	t0,t0,16 # 800000f0 <reset_vector+0x94>
    800000e8:	30529073          	csrw	mtvec,t0
    800000ec:	18005073          	csrwi	satp,0
    800000f0:	00000297          	auipc	t0,0x0
    800000f4:	02428293          	addi	t0,t0,36 # 80000114 <reset_vector+0xb8>
    800000f8:	30529073          	csrw	mtvec,t0
    800000fc:	0010029b          	addiw	t0,zero,1
    80000100:	03529293          	slli	t0,t0,0x35
    80000104:	fff28293          	addi	t0,t0,-1
    80000108:	3b029073          	csrw	pmpaddr0,t0
    8000010c:	01f00293          	li	t0,31
    80000110:	3a029073          	csrw	pmpcfg0,t0
    80000114:	30405073          	csrwi	mie,0
    80000118:	00000297          	auipc	t0,0x0
    8000011c:	01428293          	addi	t0,t0,20 # 8000012c <reset_vector+0xd0>
    80000120:	30529073          	csrw	mtvec,t0
    80000124:	30205073          	csrwi	medeleg,0
    80000128:	30305073          	csrwi	mideleg,0
    8000012c:	00000193          	li	gp,0
    80000130:	00000297          	auipc	t0,0x0
    80000134:	ed428293          	addi	t0,t0,-300 # 80000004 <trap_vector>
    80000138:	30529073          	csrw	mtvec,t0
    8000013c:	00100513          	li	a0,1
    80000140:	01f51513          	slli	a0,a0,0x1f
    80000144:	00055c63          	bgez	a0,8000015c <reset_vector+0x100>
    80000148:	0ff0000f          	fence
    8000014c:	00100193          	li	gp,1
    80000150:	05d00893          	li	a7,93
    80000154:	00000513          	li	a0,0
    80000158:	00000073          	ecall
    8000015c:	80000297          	auipc	t0,0x80000
    80000160:	ea428293          	addi	t0,t0,-348 # 0 <_start-0x80000000>
    80000164:	00028a63          	beqz	t0,80000178 <reset_vector+0x11c>
    80000168:	10529073          	csrw	stvec,t0
    8000016c:	0000b2b7          	lui	t0,0xb
    80000170:	1092829b          	addiw	t0,t0,265
    80000174:	30229073          	csrw	medeleg,t0
    80000178:	30005073          	csrwi	mstatus,0
    8000017c:	00000297          	auipc	t0,0x0
    80000180:	01428293          	addi	t0,t0,20 # 80000190 <reset_vector+0x134>
    80000184:	34129073          	csrw	mepc,t0
    80000188:	f1402573          	csrr	a0,mhartid
    8000018c:	30200073          	mret
    80000190:	0200006f          	j	800001b0 <test_start>

0000000080000194 <crash_backward>:
    80000194:	0ff0000f          	fence
    80000198:	00018063          	beqz	gp,80000198 <crash_backward+0x4>
    8000019c:	00119193          	slli	gp,gp,0x1
    800001a0:	0011e193          	ori	gp,gp,1
    800001a4:	05d00893          	li	a7,93
    800001a8:	00018513          	mv	a0,gp
    800001ac:	00000073          	ecall

00000000800001b0 <test_start>:
    800001b0:	00002f97          	auipc	t6,0x2
    800001b4:	e50f8f93          	addi	t6,t6,-432 # 80002000 <hidden_data>
    800001b8:	000fb003          	ld	zero,0(t6)
    800001bc:	008fb083          	ld	ra,8(t6)
    800001c0:	010fb103          	ld	sp,16(t6)
    800001c4:	018fb183          	ld	gp,24(t6)
    800001c8:	020fb203          	ld	tp,32(t6)
    800001cc:	028fb283          	ld	t0,40(t6)
    800001d0:	030fb303          	ld	t1,48(t6)
    800001d4:	038fb383          	ld	t2,56(t6)
    800001d8:	040fb403          	ld	s0,64(t6)
    800001dc:	048fb483          	ld	s1,72(t6)
    800001e0:	050fb503          	ld	a0,80(t6)
    800001e4:	058fb583          	ld	a1,88(t6)
    800001e8:	060fb603          	ld	a2,96(t6)
    800001ec:	068fb683          	ld	a3,104(t6)
    800001f0:	070fb703          	ld	a4,112(t6)
    800001f4:	078fb783          	ld	a5,120(t6)
    800001f8:	080fb803          	ld	a6,128(t6)
    800001fc:	088fb883          	ld	a7,136(t6)
    80000200:	090fb903          	ld	s2,144(t6)
    80000204:	098fb983          	ld	s3,152(t6)
    80000208:	0a0fba03          	ld	s4,160(t6)
    8000020c:	0a8fba83          	ld	s5,168(t6)
    80000210:	0b0fbb03          	ld	s6,176(t6)
    80000214:	0b8fbb83          	ld	s7,184(t6)
    80000218:	0c0fbc03          	ld	s8,192(t6)
    8000021c:	0c8fbc83          	ld	s9,200(t6)
    80000220:	0d0fbd03          	ld	s10,208(t6)
    80000224:	0d8fbd83          	ld	s11,216(t6)
    80000228:	0e0fbe03          	ld	t3,224(t6)
    8000022c:	0e8fbe83          	ld	t4,232(t6)
    80000230:	0f0fbf03          	ld	t5,240(t6)
    80000234:	0f8fbf83          	ld	t6,248(t6)
    80000238:	0040006f          	j	8000023c <pseg_0>

000000008000023c <pseg_0>:
    8000023c:	03084ebb          	divw	t4,a6,a6
    80000240:	f539cae3          	blt	s3,s3,80000194 <crash_backward>
    80000244:	f5400513          	li	a0,-172
    80000248:	3d500113          	li	sp,981
    8000024c:	b7d00c13          	li	s8,-1155
    80000250:	2e100293          	li	t0,737
    80000254:	2ee00b93          	li	s7,750
    80000258:	5ebb8913          	addi	s2,s7,1515
    8000025c:	0a500593          	li	a1,165
    80000260:	9a900e93          	li	t4,-1623
    80000264:	00088613          	mv	a2,a7
    80000268:	00b5c1b3          	xor	gp,a1,a1
    8000026c:	00100f93          	li	t6,1
    80000270:	6aa00a93          	li	s5,1706
    80000274:	0339ed3b          	remw	s10,s3,s3
    80000278:	aa100793          	li	a5,-1375
    8000027c:	01deb0b3          	sltu	ra,t4,t4
    80000280:	da150993          	addi	s3,a0,-607
    80000284:	035ac4bb          	divw	s1,s5,s5
    80000288:	f13546e3          	blt	a0,s3,80000194 <crash_backward>
    8000028c:	f17964e3          	bltu	s2,s7,80000194 <crash_backward>
    80000290:	03ff9f93          	slli	t6,t6,0x3f
    80000294:	85100393          	li	t2,-1967
    80000298:	03222db3          	mulhsu	s11,tp,s2
    8000029c:	00060213          	mv	tp,a2
    800002a0:	025c2cb3          	mulhsu	s9,s8,t0
    800002a4:	0277e6bb          	remw	a3,a5,t2
    800002a8:	48310b13          	addi	s6,sp,1155
    800002ac:	02528cb3          	mul	s9,t0,t0
    800002b0:	6d615863          	bge	sp,s6,80000980 <crash_forward>
    800002b4:	80400e93          	li	t4,-2044
    800002b8:	00002b97          	auipc	s7,0x2
    800002bc:	ba5b8b93          	addi	s7,s7,-1115 # 80001e5d <fromhost+0xe1d>
    800002c0:	56700c13          	li	s8,1383
    800002c4:	038ec6b3          	div	a3,t4,s8
    800002c8:	036b65b3          	rem	a1,s6,s6
    800002cc:	00002997          	auipc	s3,0x2
    800002d0:	35698993          	addi	s3,s3,854 # 80002622 <_end+0x12>
    800002d4:	58a00d13          	li	s10,1418
    800002d8:	72ab9ca3          	sh	a0,1849(s7)
    800002dc:	24c00793          	li	a5,588
    800002e0:	0339e133          	rem	sp,s3,s3
    800002e4:	a7b00a93          	li	s5,-1413
    800002e8:	00100113          	li	sp,1
    800002ec:	fff00713          	li	a4,-1
    800002f0:	00100e13          	li	t3,1
    800002f4:	69600a13          	li	s4,1686
    800002f8:	67100d93          	li	s11,1649
    800002fc:	01f74733          	xor	a4,a4,t6
    80000300:	93f00193          	li	gp,-1729
    80000304:	414a50bb          	sraw	ra,s4,s4
    80000308:	3cd68b9b          	addiw	s7,a3,973
    8000030c:	03fe1e13          	slli	t3,t3,0x3f
    80000310:	03f11113          	slli	sp,sp,0x3f
    80000314:	03bd4933          	div	s2,s10,s11
    80000318:	020bb233          	mulhu	tp,s7,zero
    8000031c:	00eef333          	and	t1,t4,a4
    80000320:	d0a99283          	lh	t0,-758(s3)
    80000324:	fff00893          	li	a7,-1
    80000328:	60300393          	li	t2,1539
    8000032c:	00100593          	li	a1,1
    80000330:	0277f53b          	remuw	a0,a5,t2
    80000334:	03f59593          	slli	a1,a1,0x3f
    80000338:	fff00613          	li	a2,-1
    8000033c:	023a94b3          	mulh	s1,s5,gp
    80000340:	01fde433          	or	s0,s11,t6
    80000344:	cc400393          	li	t2,-828
    80000348:	03ffcdb3          	div	s11,t6,t6
    8000034c:	00840bbb          	addw	s7,s0,s0
    80000350:	00b64633          	xor	a2,a2,a1
    80000354:	00100193          	li	gp,1
    80000358:	00cefb33          	and	s6,t4,a2
    8000035c:	fff00c13          	li	s8,-1
    80000360:	00002d17          	auipc	s10,0x2
    80000364:	fb6d0d13          	addi	s10,s10,-74 # 80002316 <test_memory+0x116>
    80000368:	00bb6eb3          	or	t4,s6,a1
    8000036c:	60646a63          	bltu	s0,t1,80000980 <crash_forward>
    80000370:	e273c2e3          	blt	t2,t2,80000194 <crash_backward>
    80000374:	002c4c33          	xor	s8,s8,sp
    80000378:	01887cb3          	and	s9,a6,s8
    8000037c:	00002997          	auipc	s3,0x2
    80000380:	16298993          	addi	s3,s3,354 # 800024de <test_memory+0x2de>
    80000384:	002ce6b3          	or	a3,s9,sp
    80000388:	fd29a903          	lw	s2,-46(s3)
    8000038c:	162d5a03          	lhu	s4,354(s10)
    80000390:	a8500093          	li	ra,-1403
    80000394:	037fdd93          	srli	s11,t6,0x37
    80000398:	03f19193          	slli	gp,gp,0x3f
    8000039c:	9a400b93          	li	s7,-1628
    800003a0:	03708ab3          	mul	s5,ra,s7
    800003a4:	fff00213          	li	tp,-1
    800003a8:	01c8c8b3          	xor	a7,a7,t3
    800003ac:	00002b17          	auipc	s6,0x2
    800003b0:	f18b0b13          	addi	s6,s6,-232 # 800022c4 <test_memory+0xc4>
    800003b4:	76300713          	li	a4,1891
    800003b8:	f6d00413          	li	s0,-147
    800003bc:	f4c00e93          	li	t4,-180
    800003c0:	00000d13          	li	s10,0
    800003c4:	030e3c33          	mulhu	s8,t3,a6
    800003c8:	00000b93          	li	s7,0
    800003cc:	42c00a13          	li	s4,1068
    800003d0:	014e96bb          	sllw	a3,t4,s4
    800003d4:	00324233          	xor	tp,tp,gp
    800003d8:	0073d533          	srl	a0,t2,t2
    800003dc:	02842ab3          	mulhsu	s5,s0,s0
    800003e0:	01e349b3          	xor	s3,t1,t5
    800003e4:	0111f833          	and	a6,gp,a7
    800003e8:	00c63333          	sltu	t1,a2,a2
    800003ec:	068b1083          	lh	ra,104(s6)
    800003f0:	004af2b3          	and	t0,s5,tp
    800003f4:	64e00b13          	li	s6,1614
    800003f8:	01c46f33          	or	t5,s0,t3
    800003fc:	20800693          	li	a3,520
    80000400:	d90f5ae3          	bge	t5,a6,80000194 <crash_backward>
    80000404:	02d6ddb3          	divu	s11,a3,a3
    80000408:	8c400a13          	li	s4,-1852
    8000040c:	03346fbb          	remw	t6,s0,s3
    80000410:	00e7063b          	addw	a2,a4,a4
    80000414:	003964b3          	or	s1,s2,gp
    80000418:	d654eee3          	bltu	s1,t0,80000194 <crash_backward>
    8000041c:	034a093b          	mulw	s2,s4,s4
    80000420:	dab08c9b          	addiw	s9,ra,-597
    80000424:	12600093          	li	ra,294
    80000428:	00002c17          	auipc	s8,0x2
    8000042c:	c75c0c13          	addi	s8,s8,-907 # 8000209d <reg_x19_init+0x5>
    80000430:	38e00413          	li	s0,910
    80000434:	62900513          	li	a0,1577
    80000438:	036b2ab3          	mulhsu	s5,s6,s6
    8000043c:	02a52333          	mulhsu	t1,a0,a0
    80000440:	408a53b3          	sra	t2,s4,s0
    80000444:	32bc4e83          	lbu	t4,811(s8)
    80000448:	d3b00113          	li	sp,-709
    8000044c:	fa700793          	li	a5,-89
    80000450:	40f155bb          	sraw	a1,sp,a5
    80000454:	62708993          	addi	s3,ra,1575
    80000458:	00100c93          	li	s9,1
    8000045c:	e1e00613          	li	a2,-482
    80000460:	416b0b33          	sub	s6,s6,s6
    80000464:	00100213          	li	tp,1
    80000468:	ce300d93          	li	s11,-797
    8000046c:	40e7583b          	sraw	a6,a4,a4
    80000470:	02cd3333          	mulhu	t1,s10,a2
    80000474:	41de8eb3          	sub	t4,t4,t4
    80000478:	02211933          	mulh	s2,sp,sp
    8000047c:	a7600e13          	li	t3,-1418
    80000480:	03f21213          	slli	tp,tp,0x3f
    80000484:	4eb5ee63          	bltu	a1,a1,80000980 <crash_forward>
    80000488:	00c627b3          	slt	a5,a2,a2
    8000048c:	019cefb3          	or	t6,s9,s9
    80000490:	03fc9c93          	slli	s9,s9,0x3f
    80000494:	01911733          	sll	a4,sp,s9
    80000498:	fff00393          	li	t2,-1
    8000049c:	0340833b          	mulw	t1,ra,s4
    800004a0:	46fea993          	slti	s3,t4,1135
    800004a4:	03ce02bb          	mulw	t0,t3,t3
    800004a8:	03164bb3          	div	s7,a2,a7
    800004ac:	23e00813          	li	a6,574
    800004b0:	022140b3          	div	ra,sp,sp
    800004b4:	0293ec33          	rem	s8,t2,s1
    800004b8:	fff00693          	li	a3,-1
    800004bc:	0193c3b3          	xor	t2,t2,s9
    800004c0:	c3b00f93          	li	t6,-965
    800004c4:	41bddabb          	sraw	s5,s11,s11
    800004c8:	0046c6b3          	xor	a3,a3,tp
    800004cc:	40f7833b          	subw	t1,a5,a5
    800004d0:	02c604bb          	mulw	s1,a2,a2
    800004d4:	007cf1b3          	and	gp,s9,t2
    800004d8:	00da78b3          	and	a7,s4,a3
    800004dc:	cb700b93          	li	s7,-841
    800004e0:	03f82933          	mulhsu	s2,a6,t6
    800004e4:	4073de3b          	sraw	t3,t2,t2
    800004e8:	9b600993          	li	s3,-1610
    800004ec:	00201e3b          	sllw	t3,zero,sp
    800004f0:	013bc733          	xor	a4,s7,s3
    800004f4:	1a974293          	xori	t0,a4,425
    800004f8:	035ac0b3          	div	ra,s5,s5
    800004fc:	fad00d13          	li	s10,-83
    80000500:	033f67b3          	rem	a5,t5,s3
    80000504:	039cfb3b          	remuw	s6,s9,s9
    80000508:	0112beb3          	sltu	t4,t0,a7
    8000050c:	01936433          	or	s0,t1,s9
    80000510:	c5f00f13          	li	t5,-929
    80000514:	00100913          	li	s2,1
    80000518:	fb400a13          	li	s4,-76
    8000051c:	00100f93          	li	t6,1
    80000520:	9cef0513          	addi	a0,t5,-1586
    80000524:	fe000993          	li	s3,-32
    80000528:	01f010b3          	sll	ra,zero,t6
    8000052c:	00cf9393          	slli	t2,t6,0xc
    80000530:	c6af62e3          	bltu	t5,a0,80000194 <crash_backward>
    80000534:	03f91913          	slli	s2,s2,0x3f
    80000538:	0339ee3b          	remw	t3,s3,s3
    8000053c:	03ac4833          	div	a6,s8,s10
    80000540:	cca00b13          	li	s6,-822
    80000544:	fff00493          	li	s1,-1
    80000548:	025bc2b3          	div	t0,s7,t0
    8000054c:	00018e13          	mv	t3,gp
    80000550:	03ff9f93          	slli	t6,t6,0x3f
    80000554:	41978833          	sub	a6,a5,s9
    80000558:	03d00413          	li	s0,61
    8000055c:	034d413b          	divw	sp,s10,s4
    80000560:	71100b93          	li	s7,1809
    80000564:	7f500713          	li	a4,2037
    80000568:	3d600a13          	li	s4,982
    8000056c:	0124c4b3          	xor	s1,s1,s2
    80000570:	b3300813          	li	a6,-1229
    80000574:	0048e5b3          	or	a1,a7,tp
    80000578:	017f50b3          	srl	ra,t5,s7
    8000057c:	c0b8fce3          	bgeu	a7,a1,80000194 <crash_backward>
    80000580:	a4680113          	addi	sp,a6,-1466
    80000584:	21700193          	li	gp,535
    80000588:	7d000393          	li	t2,2000
    8000058c:	02341cb3          	mulh	s9,s0,gp
    80000590:	aa200f13          	li	t5,-1374
    80000594:	d4300093          	li	ra,-701
    80000598:	036b47bb          	divw	a5,s6,s6
    8000059c:	b0b00693          	li	a3,-1269
    800005a0:	009e7ab3          	and	s5,t3,s1
    800005a4:	03ea6d33          	rem	s10,s4,t5
    800005a8:	40d688bb          	subw	a7,a3,a3
    800005ac:	3c284a63          	blt	a6,sp,80000980 <crash_forward>
    800005b0:	01132a33          	slt	s4,t1,a7
    800005b4:	fff00313          	li	t1,-1
    800005b8:	d5300813          	li	a6,-685
    800005bc:	012dedb3          	or	s11,s11,s2
    800005c0:	aa100793          	li	a5,-1375
    800005c4:	000e0993          	mv	s3,t3
    800005c8:	02eb9eb3          	mulh	t4,s7,a4
    800005cc:	01f34333          	xor	t1,t1,t6
    800005d0:	ae680f13          	addi	t5,a6,-1306
    800005d4:	00002417          	auipc	s0,0x2
    800005d8:	13440413          	addi	s0,s0,308 # 80002708 <_end+0xf8>
    800005dc:	dff44883          	lbu	a7,-513(s0)
    800005e0:	00002d97          	auipc	s11,0x2
    800005e4:	036d8d93          	addi	s11,s11,54 # 80002616 <_end+0x6>
    800005e8:	006d7c33          	and	s8,s10,t1
    800005ec:	ffc00493          	li	s1,-4
    800005f0:	2d8c6c93          	ori	s9,s8,728
    800005f4:	4e300693          	li	a3,1251
    800005f8:	9c400513          	li	a0,-1596
    800005fc:	01f66633          	or	a2,a2,t6
    80000600:	00d7ab33          	slt	s6,a5,a3
    80000604:	4da00913          	li	s2,1242
    80000608:	b9e866e3          	bltu	a6,t5,80000194 <crash_backward>
    8000060c:	02a3b2b3          	mulhu	t0,t2,a0
    80000610:	4108019b          	addiw	gp,a6,1040
    80000614:	012948b3          	xor	a7,s2,s2
    80000618:	ebfdca83          	lbu	s5,-321(s11)
    8000061c:	94300d13          	li	s10,-1725
    80000620:	b6cc7ae3          	bgeu	s8,a2,80000194 <crash_backward>
    80000624:	92600a13          	li	s4,-1754
    80000628:	38a00713          	li	a4,906
    8000062c:	0118d3b3          	srl	t2,a7,a7
    80000630:	22236193          	ori	gp,t1,546
    80000634:	8ef00613          	li	a2,-1809
    80000638:	ee600313          	li	t1,-282
    8000063c:	41100b13          	li	s6,1041
    80000640:	016b093b          	addw	s2,s6,s6
    80000644:	e9900693          	li	a3,-359
    80000648:	02d6eabb          	remw	s5,a3,a3
    8000064c:	01901933          	sll	s2,zero,s9
    80000650:	02ea3bb3          	mulhu	s7,s4,a4
    80000654:	00002117          	auipc	sp,0x2
    80000658:	3f910113          	addi	sp,sp,1017 # 80002a4d <_end+0x43d>
    8000065c:	09700a93          	li	s5,151
    80000660:	028e0533          	mul	a0,t3,s0
    80000664:	35400a13          	li	s4,852
    80000668:	03800f13          	li	t5,56
    8000066c:	00002b17          	auipc	s6,0x2
    80000670:	4f4b0b13          	addi	s6,s6,1268 # 80002b60 <_end+0x550>
    80000674:	ba400c93          	li	s9,-1116
    80000678:	12000813          	li	a6,288
    8000067c:	20500513          	li	a0,517
    80000680:	01091e3b          	sllw	t3,s2,a6
    80000684:	010f57b3          	srl	a5,t5,a6
    80000688:	685a8693          	addi	a3,s5,1669
    8000068c:	8ba00293          	li	t0,-1862
    80000690:	401085bb          	subw	a1,ra,ra
    80000694:	37d00b93          	li	s7,893
    80000698:	0ee00193          	li	gp,238
    8000069c:	8fdb2c23          	sw	t4,-1800(s6)
    800006a0:	03a4cebb          	divw	t4,s1,s10
    800006a4:	01750933          	add	s2,a0,s7
    800006a8:	02c933b3          	mulhu	t2,s2,a2
    800006ac:	0ac00693          	li	a3,172
    800006b0:	003a7733          	and	a4,s4,gp
    800006b4:	81000a93          	li	s5,-2032
    800006b8:	415ad83b          	sraw	a6,s5,s5
    800006bc:	e2600793          	li	a5,-474
    800006c0:	019c9db3          	sll	s11,s9,s9
    800006c4:	02635c3b          	divuw	s8,t1,t1
    800006c8:	02af1233          	mulh	tp,t5,a0
    800006cc:	96000f93          	li	t6,-1696
    800006d0:	03bdd433          	divu	s0,s11,s11
    800006d4:	01ffa9b3          	slt	s3,t6,t6
    800006d8:	fd400f13          	li	t5,-44
    800006dc:	93c135a3          	sd	t3,-1749(sp)
    800006e0:	01e6d0bb          	srlw	ra,a3,t5
    800006e4:	6c600593          	li	a1,1734
    800006e8:	025658b3          	divu	a7,a2,t0
    800006ec:	00b7de3b          	srlw	t3,a5,a1
    800006f0:	00002497          	auipc	s1,0x2
    800006f4:	0d148493          	addi	s1,s1,209 # 800027c1 <_end+0x1b1>
    800006f8:	5bc47593          	andi	a1,s0,1468
    800006fc:	1d900993          	li	s3,473
    80000700:	bb500893          	li	a7,-1099
    80000704:	cc100193          	li	gp,-831
    80000708:	ccb00313          	li	t1,-821
    8000070c:	ce14a7a3          	sw	ra,-785(s1)
    80000710:	71700d13          	li	s10,1815
    80000714:	00002917          	auipc	s2,0x2
    80000718:	2f790913          	addi	s2,s2,759 # 80002a0b <_end+0x3fb>
    8000071c:	50e00613          	li	a2,1294
    80000720:	010b9c33          	sll	s8,s7,a6
    80000724:	3fb00e13          	li	t3,1019
    80000728:	40425a3b          	sraw	s4,tp,tp
    8000072c:	00002517          	auipc	a0,0x2
    80000730:	8e050513          	addi	a0,a0,-1824 # 8000200c <reg_x1_init+0x4>
    80000734:	95918d93          	addi	s11,gp,-1703 # 80002769 <_end+0x159>
    80000738:	03ad02b3          	mul	t0,s10,s10
    8000073c:	49600493          	li	s1,1174
    80000740:	8c200f13          	li	t5,-1854
    80000744:	d8900d13          	li	s10,-631
    80000748:	02e5eeb3          	rem	t4,a1,a4
    8000074c:	5ce00693          	li	a3,1486
    80000750:	03c89b33          	mulh	s6,a7,t3
    80000754:	d2400f93          	li	t6,-732
    80000758:	02d6e13b          	remw	sp,a3,a3
    8000075c:	01e9873b          	addw	a4,s3,t5
    80000760:	03f62433          	mulhsu	s0,a2,t6
    80000764:	00002a17          	auipc	s4,0x2
    80000768:	2c1a0a13          	addi	s4,s4,705 # 80002a25 <_end+0x415>
    8000076c:	b80a4c03          	lbu	s8,-1152(s4)
    80000770:	41ad02bb          	subw	t0,s10,s10
    80000774:	28c00393          	li	t2,652
    80000778:	02635abb          	divuw	s5,t1,t1
    8000077c:	cf200793          	li	a5,-782
    80000780:	fec78093          	addi	ra,a5,-20
    80000784:	02169833          	mulh	a6,a3,ra
    80000788:	1ef0dc63          	bge	ra,a5,80000980 <crash_forward>
    8000078c:	055d0b93          	addi	s7,s10,85
    80000790:	4094d5b3          	sra	a1,s1,s1
    80000794:	1de38c93          	addi	s9,t2,478
    80000798:	bb490203          	lb	tp,-1100(s2)
    8000079c:	1f93f263          	bgeu	t2,s9,80000980 <crash_forward>
    800007a0:	5ad507a3          	sb	a3,1455(a0)
    800007a4:	00002397          	auipc	t2,0x2
    800007a8:	e8838393          	addi	t2,t2,-376 # 8000262c <_end+0x1c>
    800007ac:	36900513          	li	a0,873
    800007b0:	00002a17          	auipc	s4,0x2
    800007b4:	277a0a13          	addi	s4,s4,631 # 80002a27 <_end+0x417>
    800007b8:	bd400d13          	li	s10,-1068
    800007bc:	03a56ebb          	remw	t4,a0,s10
    800007c0:	c9c3a823          	sw	t3,-880(t2)
    800007c4:	58a00593          	li	a1,1418
    800007c8:	00bd0ab3          	add	s5,s10,a1
    800007cc:	00010b13          	mv	s6,sp
    800007d0:	013ad4b3          	srl	s1,s5,s3
    800007d4:	02b5e43b          	remw	s0,a1,a1
    800007d8:	03f992b3          	mulh	t0,s3,t6
    800007dc:	1ae76263          	bltu	a4,a4,80000980 <crash_forward>
    800007e0:	000b0993          	mv	s3,s6
    800007e4:	00000513          	li	a0,0
    800007e8:	00000313          	li	t1,0
    800007ec:	00001133          	sll	sp,zero,zero
    800007f0:	00002c17          	auipc	s8,0x2
    800007f4:	d37c0c13          	addi	s8,s8,-713 # 80002527 <test_memory+0x327>
    800007f8:	00002697          	auipc	a3,0x2
    800007fc:	b7368693          	addi	a3,a3,-1165 # 8000236b <test_memory+0x16b>
    80000800:	a7a00e93          	li	t4,-1414
    80000804:	31200413          	li	s0,786
    80000808:	02c66db3          	rem	s11,a2,a2
    8000080c:	00002b97          	auipc	s7,0x2
    80000810:	d74b8b93          	addi	s7,s7,-652 # 80002580 <test_memory+0x380>
    80000814:	18800613          	li	a2,392
    80000818:	034ae093          	ori	ra,s5,52
    8000081c:	73e00293          	li	t0,1854
    80000820:	f67c4183          	lbu	gp,-153(s8)
    80000824:	32f28493          	addi	s1,t0,815
    80000828:	faf69ba3          	sh	a5,-73(a3)
    8000082c:	00000c93          	li	s9,0
    80000830:	02426e33          	rem	t3,tp,tp
    80000834:	f3700393          	li	t2,-201
    80000838:	02847abb          	remuw	s5,s0,s0
    8000083c:	0374f7bb          	remuw	a5,s1,s7
    80000840:	dd3b8203          	lb	tp,-557(s7)
    80000844:	0073f5b3          	and	a1,t2,t2
    80000848:	959346e3          	blt	t1,s9,80000194 <crash_backward>
    8000084c:	00000d13          	li	s10,0
    80000850:	02a5783b          	remuw	a6,a0,a0
    80000854:	02f6a3b3          	mulhsu	t2,a3,a5
    80000858:	f9ee8713          	addi	a4,t4,-98
    8000085c:	00100a93          	li	s5,1
    80000860:	02366fbb          	remw	t6,a2,gp
    80000864:	7d900f13          	li	t5,2009
    80000868:	00100c93          	li	s9,1
    8000086c:	03fc9c93          	slli	s9,s9,0x3f
    80000870:	37707c37          	lui	s8,0x37707
    80000874:	11a54663          	blt	a0,s10,80000980 <crash_forward>
    80000878:	00dfb433          	sltu	s0,t6,a3
    8000087c:	fff00113          	li	sp,-1
    80000880:	913b1ae3          	bne	s6,s3,80000194 <crash_backward>
    80000884:	8d1a5903          	lhu	s2,-1839(s4)
    80000888:	00100593          	li	a1,1
    8000088c:	008407b3          	add	a5,s0,s0
    80000890:	03fa9a93          	slli	s5,s5,0x3f
    80000894:	fff00d93          	li	s11,-1
    80000898:	00001317          	auipc	t1,0x1
    8000089c:	2ef30313          	addi	t1,t1,751 # 80001b87 <fromhost+0xb47>
    800008a0:	03f59593          	slli	a1,a1,0x3f
    800008a4:	41e658b3          	sra	a7,a2,t5
    800008a8:	015dcdb3          	xor	s11,s11,s5
    800008ac:	fff00193          	li	gp,-1
    800008b0:	6b132283          	lw	t0,1713(t1)
    800008b4:	010406bb          	addw	a3,s0,a6
    800008b8:	01914133          	xor	sp,sp,s9
    800008bc:	002ff833          	and	a6,t6,sp
    800008c0:	019f6e33          	or	t3,t5,s9
    800008c4:	01b7f0b3          	and	ra,a5,s11
    800008c8:	0bc80c63          	beq	a6,t3,80000980 <crash_forward>
    800008cc:	0150ebb3          	or	s7,ra,s5
    800008d0:	8d7082e3          	beq	ra,s7,80000194 <crash_backward>
    800008d4:	00b1c1b3          	xor	gp,gp,a1
    800008d8:	00317233          	and	tp,sp,gp
    800008dc:	00b264b3          	or	s1,tp,a1
    800008e0:	8a44dae3          	bge	s1,tp,80000194 <crash_backward>
    800008e4:	0040006f          	j	800008e8 <reg_dump>

00000000800008e8 <reg_dump>:
    800008e8:	00002097          	auipc	ra,0x2
    800008ec:	d1808093          	addi	ra,ra,-744 # 80002600 <loop_count>
    800008f0:	0000a103          	lw	sp,0(ra)
    800008f4:	fff10193          	addi	gp,sp,-1
    800008f8:	0030a023          	sw	gp,0(ra)
    800008fc:	940110e3          	bnez	sp,8000023c <pseg_0>
    80000900:	00002097          	auipc	ra,0x2
    80000904:	80008093          	addi	ra,ra,-2048 # 80002100 <begin_signature>
    80000908:	0000b023          	sd	zero,0(ra)
    8000090c:	0020b823          	sd	sp,16(ra)
    80000910:	0030bc23          	sd	gp,24(ra)
    80000914:	0240b023          	sd	tp,32(ra)
    80000918:	0250b423          	sd	t0,40(ra)
    8000091c:	0270bc23          	sd	t2,56(ra)
    80000920:	0480b023          	sd	s0,64(ra)
    80000924:	0490b423          	sd	s1,72(ra)
    80000928:	04a0b823          	sd	a0,80(ra)
    8000092c:	04b0bc23          	sd	a1,88(ra)
    80000930:	06c0b023          	sd	a2,96(ra)
    80000934:	06d0b423          	sd	a3,104(ra)
    80000938:	06e0b823          	sd	a4,112(ra)
    8000093c:	06f0bc23          	sd	a5,120(ra)
    80000940:	0900b023          	sd	a6,128(ra)
    80000944:	0910b423          	sd	a7,136(ra)
    80000948:	0920b823          	sd	s2,144(ra)
    8000094c:	0930bc23          	sd	s3,152(ra)
    80000950:	0b50b423          	sd	s5,168(ra)
    80000954:	0b60b823          	sd	s6,176(ra)
    80000958:	0b70bc23          	sd	s7,184(ra)
    8000095c:	0d80b023          	sd	s8,192(ra)
    80000960:	0d90b423          	sd	s9,200(ra)
    80000964:	0da0b823          	sd	s10,208(ra)
    80000968:	0db0bc23          	sd	s11,216(ra)
    8000096c:	0fc0b023          	sd	t3,224(ra)
    80000970:	0fd0b423          	sd	t4,232(ra)
    80000974:	0fe0b823          	sd	t5,240(ra)
    80000978:	0ff0bc23          	sd	t6,248(ra)
    8000097c:	0200006f          	j	8000099c <test_end>

0000000080000980 <crash_forward>:
    80000980:	0ff0000f          	fence
    80000984:	00018063          	beqz	gp,80000984 <crash_forward+0x4>
    80000988:	00119193          	slli	gp,gp,0x1
    8000098c:	0011e193          	ori	gp,gp,1
    80000990:	05d00893          	li	a7,93
    80000994:	00018513          	mv	a0,gp
    80000998:	00000073          	ecall

000000008000099c <test_end>:
    8000099c:	0ff0000f          	fence
    800009a0:	00100193          	li	gp,1
    800009a4:	05d00893          	li	a7,93
    800009a8:	00000513          	li	a0,0
    800009ac:	00000073          	ecall
    800009b0:	c0001073          	unimp
	...

Disassembly of section .tohost:

0000000080001000 <tohost>:
	...

0000000080001040 <fromhost>:
	...

Disassembly of section .data:

0000000080002000 <hidden_data>:
    80002000:	ff82                	sd	zero,504(sp)
    80002002:	ffff                	0xffff
    80002004:	ffff                	0xffff
    80002006:	ffff                	0xffff

0000000080002008 <reg_x1_init>:
    80002008:	d984                	sw	s1,48(a1)
    8000200a:	9b86                	add	s7,s7,ra
    8000200c:	7895                	lui	a7,0xfffe5
    8000200e:	4775                	li	a4,29

0000000080002010 <reg_x2_init>:
    80002010:	0009                	c.nop	2
    80002012:	8000                	0x8000
    80002014:	ffff                	0xffff
    80002016:	ffff                	0xffff

0000000080002018 <reg_x3_init>:
    80002018:	f987b963          	0xf987b963
    8000201c:	e259                	bnez	a2,800020a2 <reg_x20_init+0x2>
    8000201e:	0b9d                	addi	s7,s7,7

0000000080002020 <reg_x4_init>:
    80002020:	0006                	c.slli	zero,0x1
    80002022:	0000                	unimp
    80002024:	0000                	unimp
    80002026:	0800                	addi	s0,sp,16

0000000080002028 <reg_x5_init>:
    80002028:	0001                	nop
    8000202a:	0000                	unimp
    8000202c:	0000                	unimp
    8000202e:	0800                	addi	s0,sp,16

0000000080002030 <reg_x6_init>:
    80002030:	f1d6                	sd	s5,224(sp)
    80002032:	ab974a8b          	0xab974a8b
    80002036:	          	0x8973

0000000080002038 <reg_x7_init>:
	...

0000000080002040 <reg_x8_init>:
    80002040:	0001                	nop
    80002042:	8000                	0x8000
    80002044:	ffff                	0xffff
    80002046:	ffff                	0xffff

0000000080002048 <reg_x9_init>:
    80002048:	def0                	sw	a2,124(a3)
    8000204a:	705f 83a3 5c26      	0x5c2683a3705f

0000000080002050 <reg_x10_init>:
    80002050:	8006                	c.mv	zero,ra
    80002052:	ffff                	0xffff
    80002054:	ffff                	0xffff
    80002056:	ffff                	0xffff

0000000080002058 <reg_x11_init>:
    80002058:	ff89                	bnez	a5,80001f72 <fromhost+0xf32>
    8000205a:	ffff                	0xffff
    8000205c:	ffff                	0xffff
    8000205e:	ffff                	0xffff

0000000080002060 <reg_x12_init>:
    80002060:	0002                	c.slli64	zero
    80002062:	0000                	unimp
    80002064:	0000                	unimp
    80002066:	0800                	addi	s0,sp,16

0000000080002068 <reg_x13_init>:
    80002068:	fffe                	sd	t6,504(sp)
    8000206a:	ffff                	0xffff
    8000206c:	ffff                	0xffff
    8000206e:	ffff                	0xffff

0000000080002070 <reg_x14_init>:
    80002070:	3579                	addiw	a0,a0,-2
    80002072:	ac99                	j	800022c8 <test_memory+0xc8>
    80002074:	a841                	j	80002104 <begin_signature+0x4>
    80002076:	          	0x53b401af

0000000080002078 <reg_x15_init>:
    80002078:	53b4                	lw	a3,96(a5)
    8000207a:	5fee                	lw	t6,248(sp)
    8000207c:	2a80                	fld	fs0,16(a3)
    8000207e:	1d86                	slli	s11,s11,0x21

0000000080002080 <reg_x16_init>:
    80002080:	ffff                	0xffff
    80002082:	ffff                	0xffff
    80002084:	ffff                	0xffff
    80002086:	ffff                	0xffff

0000000080002088 <reg_x17_init>:
    80002088:	ff81                	bnez	a5,80001fa0 <fromhost+0xf60>
    8000208a:	ffff                	0xffff
    8000208c:	ffff                	0xffff
    8000208e:	ffff                	0xffff

0000000080002090 <reg_x18_init>:
    80002090:	1b22                	slli	s6,s6,0x28
    80002092:	9bd61c97          	auipc	s9,0x9bd61
    80002096:	          	0xf12b0827

0000000080002098 <reg_x19_init>:
    80002098:	e8fdf12b          	0xe8fdf12b
    8000209c:	5a7c                	lw	a5,116(a2)
    8000209e:	9960                	0x9960

00000000800020a0 <reg_x20_init>:
    800020a0:	edf5                	bnez	a1,8000219c <reg_x19_output+0x4>
    800020a2:	ce9d                	beqz	a3,800020e0 <reg_x28_init>
    800020a4:	6571                	lui	a0,0x1c
    800020a6:	5430                	lw	a2,104(s0)

00000000800020a8 <reg_x21_init>:
    800020a8:	0009                	c.nop	2
    800020aa:	8000                	0x8000
    800020ac:	ffff                	0xffff
    800020ae:	ffff                	0xffff

00000000800020b0 <reg_x22_init>:
    800020b0:	427f                	0x427f
    800020b2:	3bb5                	addiw	s7,s7,-19
    800020b4:	183e                	slli	a6,a6,0x2f
    800020b6:	bff1                	j	80002092 <reg_x18_init+0x2>

00000000800020b8 <reg_x23_init>:
    800020b8:	ffff                	0xffff
    800020ba:	ffff                	0xffff
    800020bc:	ffff                	0xffff
    800020be:	ffff                	0xffff

00000000800020c0 <reg_x24_init>:
    800020c0:	7ec9f5f3          	csrrci	a1,0x7ec,19
    800020c4:	7e6c                	ld	a1,248(a2)
    800020c6:	          	lwu	t6,-1(t5)

00000000800020c8 <reg_x25_init>:
    800020c8:	ffff                	0xffff
    800020ca:	ffff                	0xffff
    800020cc:	ffff                	0xffff
    800020ce:	ffff                	0xffff

00000000800020d0 <reg_x26_init>:
    800020d0:	9185                	srli	a1,a1,0x21
    800020d2:	4321                	li	t1,8
    800020d4:	809a                	mv	ra,t1
    800020d6:	b0c1                	j	80001996 <fromhost+0x956>

00000000800020d8 <reg_x27_init>:
    800020d8:	0004                	0x4
    800020da:	0000                	unimp
    800020dc:	0000                	unimp
    800020de:	0800                	addi	s0,sp,16

00000000800020e0 <reg_x28_init>:
    800020e0:	0001                	nop
    800020e2:	0000                	unimp
    800020e4:	0000                	unimp
	...

00000000800020e8 <reg_x29_init>:
    800020e8:	ffff                	0xffff
    800020ea:	ffff                	0xffff
    800020ec:	ffff                	0xffff
    800020ee:	ffff                	0xffff

00000000800020f0 <reg_x30_init>:
    800020f0:	9294                	0x9294
    800020f2:	da09                	beqz	a2,80002004 <hidden_data+0x4>
    800020f4:	b492                	fsd	ft4,104(sp)
    800020f6:	b569                	j	80001f80 <fromhost+0xf40>

00000000800020f8 <reg_x31_init>:
    800020f8:	f3f6                	sd	t4,480(sp)
    800020fa:	1bf0                	addi	a2,sp,508
    800020fc:	393e                	fld	fs2,488(sp)
    800020fe:	c7a0                	sw	s0,72(a5)

0000000080002100 <begin_signature>:
    80002100:	6d8d                	lui	s11,0x3
    80002102:	07f8                	addi	a4,sp,972
    80002104:	e81e                	sd	t2,16(sp)
    80002106:	7069                	c.lui	zero,0xffffa

0000000080002108 <reg_x1_output>:
    80002108:	0e19                	addi	t3,t3,6
    8000210a:	b1043c23          	sd	a6,-1256(s0)
    8000210e:	8011                	srli	s0,s0,0x4

0000000080002110 <reg_x2_output>:
    80002110:	f8d8                	sd	a4,176(s1)
    80002112:	8aa0                	0x8aa0
    80002114:	f71d                	bnez	a4,80002042 <reg_x8_init+0x2>
    80002116:	5c2e                	lw	s8,232(sp)

0000000080002118 <reg_x3_output>:
    80002118:	490253af          	0x490253af
    8000211c:	ceddd747          	fmsub.q	fa4,fs11,fa3,fs9,unknown

0000000080002120 <reg_x4_output>:
    80002120:	c9f0                	sw	a2,84(a1)
    80002122:	deec                	sw	a1,124(a3)
    80002124:	a472                	fsd	ft8,8(sp)
    80002126:	65c0                	ld	s0,136(a1)

0000000080002128 <reg_x5_output>:
    80002128:	8226                	mv	tp,s1
    8000212a:	54301a7b          	0x54301a7b
    8000212e:	f78c                	sd	a1,40(a5)

0000000080002130 <reg_x6_output>:
    80002130:	dda1                	beqz	a1,80002088 <reg_x17_init>
    80002132:	89e0                	0x89e0
    80002134:	24e5                	addiw	s1,s1,25
    80002136:	24ba                	fld	fs1,392(sp)

0000000080002138 <reg_x7_output>:
    80002138:	abda                	fsd	fs6,464(sp)
    8000213a:	bcc5                	j	80001c2a <fromhost+0xbea>
    8000213c:	2af2                	fld	fs5,280(sp)
    8000213e:	081f        	0x89c2dee0081f

0000000080002140 <reg_x8_output>:
    80002140:	dee0                	sw	s0,124(a3)
    80002142:	89c2                	mv	s3,a6
    80002144:	5a10                	lw	a2,48(a2)
    80002146:	5034                	lw	a3,96(s0)

0000000080002148 <reg_x9_output>:
    80002148:	37a50367          	jalr	t1,890(a0) # 1c37a <_start-0x7ffe3c86>
    8000214c:	62ae                	ld	t0,200(sp)
    8000214e:	1cfc                	addi	a5,sp,636

0000000080002150 <reg_x10_output>:
    80002150:	1640                	addi	s0,sp,804
    80002152:	b4f5                	j	80001c3e <fromhost+0xbfe>
    80002154:	e71f 9b4c       	0x9a389b4ce71f

0000000080002158 <reg_x11_output>:
    80002158:	9a38                	0x9a38
    8000215a:	697a                	ld	s2,408(sp)
    8000215c:	32d0                	fld	fa2,160(a3)
    8000215e:	b4a5                	j	80001bc6 <fromhost+0xb86>

0000000080002160 <reg_x12_output>:
    80002160:	b85d5cab          	0xb85d5cab
    80002164:	4dda                	lw	s11,148(sp)
    80002166:	          	lw	a7,-187(s8) # 37706f45 <_start-0x488f90bb>

0000000080002168 <reg_x13_output>:
    80002168:	f45c                	sd	a5,168(s0)
    8000216a:	f878                	sd	a4,240(s0)
    8000216c:	558911b7          	lui	gp,0x55891

0000000080002170 <reg_x14_output>:
    80002170:	054d                	addi	a0,a0,19
    80002172:	933c                	0x933c
    80002174:	57e2                	lw	a5,56(sp)
    80002176:	995c                	0x995c

0000000080002178 <reg_x15_output>:
    80002178:	85a0                	0x85a0
    8000217a:	ce6d                	beqz	a2,80002274 <test_memory+0x74>
    8000217c:	a3a8899b          	addiw	s3,a7,-1478

0000000080002180 <reg_x16_output>:
    80002180:	3332f2d3          	0x3332f2d3
    80002184:	6ffc503b          	0x6ffc503b

0000000080002188 <reg_x17_output>:
    80002188:	6bd9                	lui	s7,0x16
    8000218a:	e1fc                	sd	a5,192(a1)
    8000218c:	d095f7ab          	0xd095f7ab

0000000080002190 <reg_x18_output>:
    80002190:	4bd4                	lw	a3,20(a5)
    80002192:	428c                	lw	a1,0(a3)
    80002194:	d10a                	sw	sp,160(sp)
    80002196:	046c                	addi	a1,sp,524

0000000080002198 <reg_x19_output>:
    80002198:	fa81                	bnez	a3,800020a8 <reg_x21_init>
    8000219a:	d02c                	sw	a1,96(s0)
    8000219c:	9975                	andi	a0,a0,-3
    8000219e:	e8a0                	sd	s0,80(s1)

00000000800021a0 <reg_x20_output>:
    800021a0:	07d3828f          	0x7d3828f
    800021a4:	299e                	fld	fs3,448(sp)
    800021a6:	          	fnmsub.d	ft10,fs0,fs8,ft9,rdn

00000000800021a8 <reg_x21_output>:
    800021a8:	eb84                	sd	s1,16(a5)
    800021aa:	fffa                	sd	t5,504(sp)
    800021ac:	b5d88c8b          	0xb5d88c8b

00000000800021b0 <reg_x22_output>:
    800021b0:	07caa3d7          	0x7caa3d7
    800021b4:	a0b4                	fsd	fa3,64(s1)
    800021b6:	bbe8                	fsd	fa0,240(a5)

00000000800021b8 <reg_x23_output>:
    800021b8:	495c                	lw	a5,20(a0)
    800021ba:	d089                	beqz	s1,800020bc <reg_x23_init+0x4>
    800021bc:	a462                	fsd	fs8,8(sp)
    800021be:	7b60                	ld	s0,240(a4)

00000000800021c0 <reg_x24_output>:
    800021c0:	214a                	fld	ft2,144(sp)
    800021c2:	ccf1                	beqz	s1,8000229e <test_memory+0x9e>
    800021c4:	16f5                	addi	a3,a3,-3
    800021c6:	f4b6                	sd	a3,104(sp)

00000000800021c8 <reg_x25_output>:
    800021c8:	16d1665b          	0x16d1665b
    800021cc:	3a7d                	addiw	s4,s4,-1
    800021ce:	836d                	srli	a4,a4,0x1b

00000000800021d0 <reg_x26_output>:
    800021d0:	8ac9                	andi	a3,a3,18
    800021d2:	1970                	addi	a2,sp,188
    800021d4:	cdc4                	sw	s1,28(a1)
    800021d6:	3268                	fld	fa0,224(a2)

00000000800021d8 <reg_x27_output>:
    800021d8:	f2797547          	fmsub.d	fa0,fs2,ft7,ft10
    800021dc:	5cc9                	li	s9,-14
    800021de:	9e9d                	subw	a3,a3,a5

00000000800021e0 <reg_x28_output>:
    800021e0:	dc96eb23          	0xdc96eb23
    800021e4:	5635                	li	a2,-19
    800021e6:	48de                	lw	a7,212(sp)

00000000800021e8 <reg_x29_output>:
    800021e8:	9823972b          	0x9823972b
    800021ec:	fe4a                	sd	s2,312(sp)
    800021ee:	264d                	addiw	a2,a2,19

00000000800021f0 <reg_x30_output>:
    800021f0:	834dbc13          	sltiu	s8,s11,-1996
    800021f4:	ec60                	sd	s0,216(s0)
    800021f6:	48a1                	li	a7,8

00000000800021f8 <reg_x31_output>:
    800021f8:	726c                	ld	a1,224(a2)
    800021fa:	0df9033f  	0xa56c9b5d0df9033f

0000000080002200 <test_memory>:
    80002200:	a56c                	fsd	fa1,200(a0)
    80002202:	c2d8ce77          	0xc2d8ce77
    80002206:	2155                	addiw	sp,sp,21
    80002208:	a71a                	fsd	ft6,392(sp)
    8000220a:	cf75                	beqz	a4,80002306 <test_memory+0x106>
    8000220c:	81cc97e3          	bne	s9,t3,80001a1a <fromhost+0x9da>
    80002210:	7b92                	ld	s7,288(sp)
    80002212:	e20e                	sd	gp,256(sp)
    80002214:	0276                	slli	tp,tp,0x1d
    80002216:	b488d467          	0xb488d467
    8000221a:	9365                	srli	a4,a4,0x39
    8000221c:	549d                	li	s1,-25
    8000221e:	ee14                	sd	a3,24(a2)
    80002220:	312c                	fld	fa1,96(a0)
    80002222:	0f7e                	slli	t5,t5,0x1f
    80002224:	825c                	0x825c
    80002226:	241db09b          	0x241db09b
    8000222a:	a0e4                	fsd	fs1,192(s1)
    8000222c:	4ad8                	lw	a4,20(a3)
    8000222e:	4cf2                	lw	s9,28(sp)
    80002230:	3c50b017          	auipc	zero,0x3c50b
    80002234:	7c35                	lui	s8,0xfffed
    80002236:	5a74                	lw	a3,116(a2)
    80002238:	0d6c                	addi	a1,sp,668
    8000223a:	c370                	sw	a2,68(a4)
    8000223c:	674d                	lui	a4,0x13
    8000223e:	1871                	addi	a6,a6,-4
    80002240:	cd9d                	beqz	a1,8000227e <test_memory+0x7e>
    80002242:	2f09                	addiw	t5,t5,2
    80002244:	c0c0                	sw	s0,4(s1)
    80002246:	9351                	srli	a4,a4,0x34
    80002248:	4782                	lw	a5,0(sp)
    8000224a:	8174                	0x8174
    8000224c:	2edf 66e7 cde6      	0xcde666e72edf
    80002252:	6e51                	lui	t3,0x14
    80002254:	308e                	fld	ft1,224(sp)
    80002256:	e5f5                	bnez	a1,80002342 <test_memory+0x142>
    80002258:	db80                	sw	s0,48(a5)
    8000225a:	2959                	addiw	s2,s2,22
    8000225c:	ef01                	bnez	a4,80002274 <test_memory+0x74>
    8000225e:	2aaee917          	auipc	s2,0x2aaee
    80002262:	5d80                	lw	s0,56(a1)
    80002264:	7d09                	lui	s10,0xfffe2
    80002266:	c2be                	sw	a5,68(sp)
    80002268:	8c68                	0x8c68
    8000226a:	05b6                	slli	a1,a1,0xd
    8000226c:	1054                	addi	a3,sp,36
    8000226e:	913805c3          	fmadd.s	fa1,fa6,fs3,fs2,rne
    80002272:	747f                	0x747f
    80002274:	75b8                	ld	a4,104(a1)
    80002276:	883b94f3          	csrrw	s1,0x883,s7
    8000227a:	6f93fd3b          	0x6f93fd3b
    8000227e:	4b8130cf          	fnmadd.d	ft1,ft2,fs8,fs1,rup
    80002282:	a31f 65c0 e4e9      	0xe4e965c0a31f
    80002288:	9642                	add	a2,a2,a6
    8000228a:	80b5                	srli	s1,s1,0xd
    8000228c:	e0b2                	sd	a2,64(sp)
    8000228e:	6d69                	lui	s10,0x1a
    80002290:	88b9                	andi	s1,s1,14
    80002292:	6075                	c.lui	zero,0x1d
    80002294:	652845af          	0x652845af
    80002298:	56ac                	lw	a1,104(a3)
    8000229a:	6cb1                	lui	s9,0xc
    8000229c:	4046                	0x4046
    8000229e:	8ae6                	mv	s5,s9
    800022a0:	38ee                	fld	fa7,248(sp)
    800022a2:	8939                	andi	a0,a0,14
    800022a4:	c574                	sw	a3,76(a0)
    800022a6:	8ae8                	0x8ae8
    800022a8:	6759                	lui	a4,0x16
    800022aa:	b71eb26b          	0xb71eb26b
    800022ae:	2e55                	addiw	t3,t3,21
    800022b0:	700a                	0x700a
    800022b2:	eb31                	bnez	a4,80002306 <test_memory+0x106>
    800022b4:	72b2                	ld	t0,296(sp)
    800022b6:	08da                	slli	a7,a7,0x16
    800022b8:	81f4                	0x81f4
    800022ba:	8ddd                	or	a1,a1,a5
    800022bc:	143a                	slli	s0,s0,0x2e
    800022be:	83ff14cb          	fnmsub.d	fs1,ft10,ft11,fa6,rtz
    800022c2:	7f374b43          	fmadd.q	fs6,fa4,fs3,fa5,rmm
    800022c6:	e747ae2f          	amomaxu.w.aqrl	t3,s4,(a5)
    800022ca:	7236                	ld	tp,360(sp)
    800022cc:	60de                	ld	ra,464(sp)
    800022ce:	4670                	lw	a2,76(a2)
    800022d0:	5a40                	lw	s0,52(a2)
    800022d2:	6688                	ld	a0,8(a3)
    800022d4:	ebc5                	bnez	a5,80002384 <test_memory+0x184>
    800022d6:	abc90fbf 12fbec1f 	0x12fbec1fabc90fbf
    800022de:	af1f 9872 2864      	0x28649872af1f
    800022e4:	45ee1b1b          	0x45ee1b1b
    800022e8:	b97c                	fsd	fa5,240(a0)
    800022ea:	81da970b          	0x81da970b
    800022ee:	e05e                	sd	s7,0(sp)
    800022f0:	4726ac63          	0x4726ac63
    800022f4:	112e                	slli	sp,sp,0x2b
    800022f6:	9af57c13          	andi	s8,a0,-1617
    800022fa:	80f511db          	0x80f511db
    800022fe:	a8c2                	fsd	fa6,80(sp)
    80002300:	df3a                	sw	a4,188(sp)
    80002302:	1968                	addi	a0,sp,188
    80002304:	e2ba                	sd	a4,320(sp)
    80002306:	1dd8                	addi	a4,sp,756
    80002308:	63bc                	ld	a5,64(a5)
    8000230a:	1c56                	slli	s8,s8,0x35
    8000230c:	4522                	lw	a0,8(sp)
    8000230e:	d7de                	sw	s7,236(sp)
    80002310:	e7f0                	sd	a2,200(a5)
    80002312:	9fa4                	0x9fa4
    80002314:	18f8                	addi	a4,sp,124
    80002316:	f04e                	sd	s3,32(sp)
    80002318:	49d5                	li	s3,21
    8000231a:	c3e9                	beqz	a5,800023dc <test_memory+0x1dc>
    8000231c:	f7f5                	bnez	a5,80002308 <test_memory+0x108>
    8000231e:	829d                	srli	a3,a3,0x7
    80002320:	b0ff                	0xb0ff
    80002322:	0249                	addi	tp,tp,18
    80002324:	0db1                	addi	s11,s11,12
    80002326:	2fe5                	addiw	t6,t6,25
    80002328:	c49e                	sw	t2,72(sp)
    8000232a:	a7ce                	fsd	fs3,456(sp)
    8000232c:	9d66                	add	s10,s10,s9
    8000232e:	45589c1b          	0x45589c1b
    80002332:	8373ac7b          	0x8373ac7b
    80002336:	fe3e                	sd	a5,312(sp)
    80002338:	dc8844db          	0xdc8844db
    8000233c:	2fb2                	fld	ft11,264(sp)
    8000233e:	d12a                	sw	a0,160(sp)
    80002340:	1899                	addi	a7,a7,-26
    80002342:	71b0                	ld	a2,96(a1)
    80002344:	a2cefe23          	0xa2cefe23
    80002348:	21b2da0f          	0x21b2da0f
    8000234c:	1580                	addi	s0,sp,736
    8000234e:	831c                	0x831c
    80002350:	1e7f                	0x1e7f
    80002352:	ffde                	sd	s7,504(sp)
    80002354:	9fb2                	add	t6,t6,a2
    80002356:	c462                	sw	s8,8(sp)
    80002358:	590d                	li	s2,-29
    8000235a:	d4f0                	sw	a2,108(s1)
    8000235c:	1ef85643          	fmadd.q	fa2,fa6,fa5,ft3,unknown
    80002360:	6598                	ld	a4,8(a1)
    80002362:	241d                	addiw	s0,s0,7
    80002364:	377b8d33          	0x377b8d33
    80002368:	d7cd                	beqz	a5,80002312 <test_memory+0x112>
    8000236a:	30e60623          	sb	a4,780(a2)
    8000236e:	23a4                	fld	fs1,64(a5)
    80002370:	293d                	addiw	s2,s2,15
    80002372:	f3cd                	bnez	a5,80002314 <test_memory+0x114>
    80002374:	200c                	fld	fa1,0(s0)
    80002376:	9283f2c3          	fmadd.d	ft5,ft7,fs0,fs2
    8000237a:	15d9                	addi	a1,a1,-10
    8000237c:	f8a5                	bnez	s1,800022ec <test_memory+0xec>
    8000237e:	19bc                	addi	a5,sp,248
    80002380:	cba38ebf 5f86678a 	0x5f86678acba38ebf
    80002388:	8ded                	and	a1,a1,a1
    8000238a:	739f 5c39 d538      	0xd5385c39739f
    80002390:	81e0                	0x81e0
    80002392:	c7df be9c 84ba      	0x84babe9cc7df
    80002398:	8aec                	0x8aec
    8000239a:	1895                	addi	a7,a7,-27
    8000239c:	419f7b37          	lui	s6,0x419f7
    800023a0:	6485                	lui	s1,0x1
    800023a2:	79d91057          	0x79d91057
    800023a6:	1f566f8f          	0x1f566f8f
    800023aa:	bfd0                	fsd	fa2,184(a5)
    800023ac:	6db8                	ld	a4,88(a1)
    800023ae:	85a8081b          	addiw	a6,a6,-1958
    800023b2:	3796                	fld	fa5,352(sp)
    800023b4:	f1c2                	sd	a6,224(sp)
    800023b6:	f95d                	bnez	a0,8000236c <test_memory+0x16c>
    800023b8:	080a                	slli	a6,a6,0x2
    800023ba:	3b94                	fld	fa3,48(a5)
    800023bc:	223d                	addiw	tp,tp,15
    800023be:	c8d0                	sw	a2,20(s1)
    800023c0:	58e69393          	0x58e69393
    800023c4:	6d4c                	ld	a1,152(a0)
    800023c6:	6019                	c.lui	zero,0x6
    800023c8:	0844                	addi	s1,sp,20
    800023ca:	892c                	0x892c
    800023cc:	b5cc                	fsd	fa1,168(a1)
    800023ce:	c16c                	sw	a1,68(a0)
    800023d0:	7d4a                	ld	s10,176(sp)
    800023d2:	6541                	lui	a0,0x10
    800023d4:	b09f 9874 ea31      	0xea319874b09f
    800023da:	ee6c                	sd	a1,216(a2)
    800023dc:	aa5f 4fa6 7748      	0x77484fa6aa5f
    800023e2:	341aadfb          	0x341aadfb
    800023e6:	74c5580b          	0x74c5580b
    800023ea:	d120                	sw	s0,96(a0)
    800023ec:	9f7f                	0x9f7f
    800023ee:	176e29c7          	fmsub.q	fs3,ft8,fs6,ft2,rdn
    800023f2:	acbc                	fsd	fa5,88(s1)
    800023f4:	5e38479b          	0x5e38479b
    800023f8:	6acc                	ld	a1,144(a3)
    800023fa:	82c9                	srli	a3,a3,0x12
    800023fc:	afcb712b          	0xafcb712b
    80002400:	bc38                	fsd	fa4,120(s0)
    80002402:	f658                	sd	a4,168(a2)
    80002404:	a5fd                	j	80002af2 <_end+0x4e2>
    80002406:	cc26                	sw	s1,24(sp)
    80002408:	a7bfe73f c706e0fe 	0xc706e0fea7bfe73f
    80002410:	b331                	j	8000211c <reg_x3_output+0x4>
    80002412:	5091                	li	ra,-28
    80002414:	7c473ce3          	0x7c473ce3
    80002418:	aad9                	j	800025ee <test_memory+0x3ee>
    8000241a:	80c6                	mv	ra,a7
    8000241c:	2d90                	fld	fa2,24(a1)
    8000241e:	172d                	addi	a4,a4,-21
    80002420:	d2a8                	sw	a0,96(a3)
    80002422:	dcd6                	sw	s5,120(sp)
    80002424:	2cb2                	fld	fs9,264(sp)
    80002426:	5706                	lw	a4,96(sp)
    80002428:	2ee8                	fld	fa0,216(a3)
    8000242a:	3c1c572f          	0x3c1c572f
    8000242e:	ac0d                	j	80002660 <_end+0x50>
    80002430:	7aa4                	ld	s1,112(a3)
    80002432:	44e3fb4f          	0x44e3fb4f
    80002436:	fa81                	bnez	a3,80002346 <test_memory+0x146>
    80002438:	9168                	0x9168
    8000243a:	3861d6ab          	0x3861d6ab
    8000243e:	49c5                	li	s3,17
    80002440:	3114                	fld	fa3,32(a0)
    80002442:	ecad                	bnez	s1,800024bc <test_memory+0x2bc>
    80002444:	8079                	srli	s0,s0,0x1e
    80002446:	ae4d8d73          	0xae4d8d73
    8000244a:	ca4a                	sw	s2,20(sp)
    8000244c:	cecd                	beqz	a3,80002506 <test_memory+0x306>
    8000244e:	a3b5                	j	800029ba <_end+0x3aa>
    80002450:	be0f4d4b          	fnmsub.q	fs10,ft10,ft0,fs7,rmm
    80002454:	46d0                	lw	a2,12(a3)
    80002456:	e6bd                	bnez	a3,800024c4 <test_memory+0x2c4>
    80002458:	fa1f 9d0b 64d8      	0x64d89d0bfa1f
    8000245e:	ff6c                	sd	a1,248(a4)
    80002460:	66aa                	ld	a3,136(sp)
    80002462:	d3b1                	beqz	a5,800023a6 <test_memory+0x1a6>
    80002464:	7499                	lui	s1,0xfffe6
    80002466:	fb29                	bnez	a4,800023b8 <test_memory+0x1b8>
    80002468:	f1cc                	sd	a1,160(a1)
    8000246a:	1f3d                	addi	t5,t5,-17
    8000246c:	1e4df3af          	0x1e4df3af
    80002470:	7a9e                	ld	s5,480(sp)
    80002472:	8c85                	sub	s1,s1,s1
    80002474:	7122                	ld	sp,40(sp)
    80002476:	33b9ae8b          	0x33b9ae8b
    8000247a:	691171b3          	0x691171b3
    8000247e:	f942                	sd	a6,176(sp)
    80002480:	fdcd                	bnez	a1,8000243a <test_memory+0x23a>
    80002482:	4575                	li	a0,29
    80002484:	d3da                	sw	s6,228(sp)
    80002486:	2452                	fld	fs0,272(sp)
    80002488:	9619                	srai	a2,a2,0x26
    8000248a:	b27cf407          	0xb27cf407
    8000248e:	733a                	ld	t1,424(sp)
    80002490:	361b4c8b          	0x361b4c8b
    80002494:	b2755e13          	0xb2755e13
    80002498:	ce82                	sw	zero,92(sp)
    8000249a:	d68a9cef          	jal	s9,7ffaba02 <_start-0x545fe>
    8000249e:	9869                	andi	s0,s0,-6
    800024a0:	2e92                	fld	ft9,256(sp)
    800024a2:	4d07ad73          	csrrs	s10,0x4d0,a5
    800024a6:	e058                	sd	a4,128(s0)
    800024a8:	7ebd                	lui	t4,0xfffef
    800024aa:	c0990023          	sb	s1,-1024(s2) # aaaefe5e <__global_pointer$+0x2aaed04e>
    800024ae:	61f2daab          	0x61f2daab
    800024b2:	82e0                	0x82e0
    800024b4:	4820                	lw	s0,80(s0)
    800024b6:	de6e                	sw	s11,60(sp)
    800024b8:	badd                	j	80001eae <fromhost+0xe6e>
    800024ba:	4e1a                	lw	t3,132(sp)
    800024bc:	a2aa                	fsd	fa0,320(sp)
    800024be:	761a                	ld	a2,416(sp)
    800024c0:	6146                	ld	sp,80(sp)
    800024c2:	6f75b9a3          	sd	s7,1779(a1)
    800024c6:	5c92a2cf          	0x5c92a2cf
    800024ca:	fbd5                	bnez	a5,8000247e <test_memory+0x27e>
    800024cc:	118a                	slli	gp,gp,0x22
    800024ce:	5d7e                	lw	s10,252(sp)
    800024d0:	d928                	sw	a0,112(a0)
    800024d2:	6a5c                	ld	a5,144(a2)
    800024d4:	4e91                	li	t4,4
    800024d6:	1765                	addi	a4,a4,-7
    800024d8:	b7be                	fsd	fa5,488(sp)
    800024da:	3f373d73          	csrrc	s10,0x3f3,a4
    800024de:	bb4d                	j	80002290 <test_memory+0x90>
    800024e0:	80e6                	mv	ra,s9
    800024e2:	ca3d                	beqz	a2,80002558 <test_memory+0x358>
    800024e4:	4f9cb777          	0x4f9cb777
    800024e8:	8448                	0x8448
    800024ea:	aacd                	j	800026dc <_end+0xcc>
    800024ec:	dbaff77b          	0xdbaff77b
    800024f0:	4a75                	li	s4,29
    800024f2:	518e                	lw	gp,224(sp)
    800024f4:	c9e9                	beqz	a1,800025c6 <test_memory+0x3c6>
    800024f6:	11319a2b          	0x11319a2b
    800024fa:	eaad                	bnez	a3,8000256c <test_memory+0x36c>
    800024fc:	42dc                	lw	a5,4(a3)
    800024fe:	bc80                	fsd	fs0,56(s1)
    80002500:	1da5                	addi	s11,s11,-23
    80002502:	aae77e77          	0xaae77e77
    80002506:	079a                	slli	a5,a5,0x6
    80002508:	14e4                	addi	s1,sp,620
    8000250a:	1d22                	slli	s10,s10,0x28
    8000250c:	d3ba                	sw	a4,228(sp)
    8000250e:	3408                	fld	fa0,40(s0)
    80002510:	9296                	add	t0,t0,t0
    80002512:	dc99                	beqz	s1,80002430 <test_memory+0x230>
    80002514:	b074                	fsd	fa3,224(s0)
    80002516:	fc21                	bnez	s0,8000246e <test_memory+0x26e>
    80002518:	aed1                	j	800028ec <_end+0x2dc>
    8000251a:	80c0                	0x80c0
    8000251c:	a1ad                	j	80002986 <_end+0x376>
    8000251e:	ac5a                	fsd	fs6,24(sp)
    80002520:	5f6a                	lw	t5,184(sp)
    80002522:	e978                	sd	a4,208(a0)
    80002524:	05a0                	addi	s0,sp,712
    80002526:	f358                	sd	a4,160(a4)
    80002528:	6e3c                	ld	a5,88(a2)
    8000252a:	ded6                	sw	s5,124(sp)
    8000252c:	5736                	lw	a4,108(sp)
    8000252e:	89d6                	mv	s3,s5
    80002530:	27fb6d3b          	0x27fb6d3b
    80002534:	5a5a0ac3          	fmadd.d	fs5,fs4,ft5,fa1,rne
    80002538:	7251                	lui	tp,0xffff4
    8000253a:	20e8                	fld	fa0,192(s1)
    8000253c:	759c                	ld	a5,40(a1)
    8000253e:	0e2c                	addi	a1,sp,792
    80002540:	75ebc84f          	0x75ebc84f
    80002544:	f606                	sd	ra,296(sp)
    80002546:	71be                	ld	gp,488(sp)
    80002548:	f77c                	sd	a5,232(a4)
    8000254a:	db6a                	sw	s10,180(sp)
    8000254c:	530a                	lw	t1,160(sp)
    8000254e:	9fe1                	0x9fe1
    80002550:	df8a                	sw	sp,252(sp)
    80002552:	2c41                	addiw	s8,s8,16
    80002554:	68297827          	0x68297827
    80002558:	f7d3e5f7          	0xf7d3e5f7
    8000255c:	5700                	lw	s0,40(a4)
    8000255e:	ef90                	sd	a2,24(a5)
    80002560:	21d3c723          	0x21d3c723
    80002564:	697d                	lui	s2,0x1f
    80002566:	35a338b7          	lui	a7,0x35a33
    8000256a:	18ee302f          	sc.d	zero,a4,(t3)
    8000256e:	41fc                	lw	a5,68(a1)
    80002570:	729a                	ld	t0,416(sp)
    80002572:	a698                	fsd	fa4,8(a3)
    80002574:	7a50c337          	lui	t1,0x7a50c
    80002578:	3b1c                	fld	fa5,48(a4)
    8000257a:	0975                	addi	s2,s2,29
    8000257c:	4518                	lw	a4,8(a0)
    8000257e:	19e9d6af          	0x19e9d6af
    80002582:	8790                	0x8790
    80002584:	68ec                	ld	a1,208(s1)
    80002586:	e616                	sd	t0,264(sp)
    80002588:	05503207          	fld	ft4,85(zero) # 55 <_start-0x7fffffab>
    8000258c:	c0cc6bbf 1fb13df9 	0x1fb13df9c0cc6bbf
    80002594:	8651                	srai	a2,a2,0x14
    80002596:	6035                	c.lui	zero,0xd
    80002598:	98ad                	andi	s1,s1,-21
    8000259a:	10ff                	0x10ff
    8000259c:	1e81                	addi	t4,t4,-32
    8000259e:	c0e9                	beqz	s1,80002660 <_end+0x50>
    800025a0:	1c3d0057          	0x1c3d0057
    800025a4:	8544                	0x8544
    800025a6:	376c                	fld	fa1,232(a4)
    800025a8:	30cd                	addiw	ra,ra,-13
    800025aa:	cadd                	beqz	a3,80002660 <_end+0x50>
    800025ac:	fffe                	sd	t6,504(sp)
    800025ae:	95b2                	add	a1,a1,a2
    800025b0:	91d4c227          	fsq	ft9,-1788(s1) # fffffffffffe5904 <__global_pointer$+0xffffffff7ffe2af4>
    800025b4:	e010                	sd	a2,0(s0)
    800025b6:	d8da                	sw	s6,112(sp)
    800025b8:	b9ad                	j	80002232 <test_memory+0x32>
    800025ba:	2bf0                	fld	fa2,208(a5)
    800025bc:	a9c1                	j	80002a8c <_end+0x47c>
    800025be:	3e5883e3          	beq	a7,t0,800031a4 <__global_pointer$+0x394>
    800025c2:	26d6                	fld	fa3,336(sp)
    800025c4:	53f4                	lw	a3,100(a5)
    800025c6:	9f85                	subw	a5,a5,s1
    800025c8:	b772                	fsd	ft8,424(sp)
    800025ca:	e43c                	sd	a5,72(s0)
    800025cc:	8c55                	or	s0,s0,a3
    800025ce:	5ef2                	lw	t4,60(sp)
    800025d0:	9319                	srli	a4,a4,0x26
    800025d2:	be22                	fsd	fs0,312(sp)
    800025d4:	b58c37db          	0xb58c37db
    800025d8:	dbb1                	beqz	a5,8000252c <test_memory+0x32c>
    800025da:	2dbf483f ee8a6142 	0xee8a61422dbf483f
    800025e2:	fb7136c7          	fmsub.d	fa3,ft2,fs7,ft11,rup
    800025e6:	38a9                	addiw	a7,a7,-22
    800025e8:	e345                	bnez	a4,80002688 <_end+0x78>
    800025ea:	6a0ce1cb          	fnmsub.d	ft3,fs9,ft0,fa3,unknown
    800025ee:	8678                	0x8678
    800025f0:	d2b6                	sw	a3,100(sp)
    800025f2:	784c                	ld	a1,176(s0)
    800025f4:	486c1257          	0x486c1257
    800025f8:	fd62                	sd	s8,184(sp)
    800025fa:	9a49770b          	0x9a49770b
    800025fe:	          	flw	ft7,4(ra)

0000000080002600 <loop_count>:
    80002600:	0040                	addi	s0,sp,4
	...

Disassembly of section .riscv.attributes:

0000000000000000 <.riscv.attributes>:
   0:	1e41                	addi	t3,t3,-16
   2:	0000                	unimp
   4:	7200                	ld	s0,32(a2)
   6:	7369                	lui	t1,0xffffa
   8:	01007663          	bgeu	zero,a6,14 <_start-0x7fffffec>
   c:	0014                	0x14
   e:	0000                	unimp
  10:	7205                	lui	tp,0xfffe1
  12:	3676                	fld	fa2,376(sp)
  14:	6934                	ld	a3,80(a0)
  16:	7032                	0x7032
  18:	5f30                	lw	a2,120(a4)
  1a:	326d                	addiw	tp,tp,-5
  1c:	3070                	fld	fa2,224(s0)
	...
