
build/test53:     file format elf64-littleriscv


Disassembly of section .text.init:

0000000080000000 <_start>:
    80000000:	05c0006f          	j	8000005c <reset_vector>

0000000080000004 <trap_vector>:
    80000004:	34202f73          	csrr	t5,mcause
    80000008:	00800f93          	li	t6,8
    8000000c:	03ff0a63          	beq	t5,t6,80000040 <write_tohost>
    80000010:	00900f93          	li	t6,9
    80000014:	03ff0663          	beq	t5,t6,80000040 <write_tohost>
    80000018:	00b00f93          	li	t6,11
    8000001c:	03ff0263          	beq	t5,t6,80000040 <write_tohost>
    80000020:	80000f17          	auipc	t5,0x80000
    80000024:	fe0f0f13          	addi	t5,t5,-32 # 0 <_start-0x80000000>
    80000028:	000f0463          	beqz	t5,80000030 <trap_vector+0x2c>
    8000002c:	000f0067          	jr	t5
    80000030:	34202f73          	csrr	t5,mcause
    80000034:	000f5463          	bgez	t5,8000003c <handle_exception>
    80000038:	0040006f          	j	8000003c <handle_exception>

000000008000003c <handle_exception>:
    8000003c:	5391e193          	ori	gp,gp,1337

0000000080000040 <write_tohost>:
    80000040:	00001f17          	auipc	t5,0x1
    80000044:	fc3f2023          	sw	gp,-64(t5) # 80001000 <tohost>
    80000048:	000902b7          	lui	t0,0x90
    8000004c:	0012829b          	addiw	t0,t0,1
    80000050:	00c29293          	slli	t0,t0,0xc
    80000054:	0002af83          	lw	t6,0(t0) # 90000 <_start-0x7ff70000>
    80000058:	fe9ff06f          	j	80000040 <write_tohost>

000000008000005c <reset_vector>:
    8000005c:	00000093          	li	ra,0
    80000060:	00000113          	li	sp,0
    80000064:	00000193          	li	gp,0
    80000068:	00000213          	li	tp,0
    8000006c:	00000293          	li	t0,0
    80000070:	00000313          	li	t1,0
    80000074:	00000393          	li	t2,0
    80000078:	00000413          	li	s0,0
    8000007c:	00000493          	li	s1,0
    80000080:	00000513          	li	a0,0
    80000084:	00000593          	li	a1,0
    80000088:	00000613          	li	a2,0
    8000008c:	00000693          	li	a3,0
    80000090:	00000713          	li	a4,0
    80000094:	00000793          	li	a5,0
    80000098:	00000813          	li	a6,0
    8000009c:	00000893          	li	a7,0
    800000a0:	00000913          	li	s2,0
    800000a4:	00000993          	li	s3,0
    800000a8:	00000a13          	li	s4,0
    800000ac:	00000a93          	li	s5,0
    800000b0:	00000b13          	li	s6,0
    800000b4:	00000b93          	li	s7,0
    800000b8:	00000c13          	li	s8,0
    800000bc:	00000c93          	li	s9,0
    800000c0:	00000d13          	li	s10,0
    800000c4:	00000d93          	li	s11,0
    800000c8:	00000e13          	li	t3,0
    800000cc:	00000e93          	li	t4,0
    800000d0:	00000f13          	li	t5,0
    800000d4:	00000f93          	li	t6,0
    800000d8:	f1402573          	csrr	a0,mhartid
    800000dc:	00051063          	bnez	a0,800000dc <reset_vector+0x80>
    800000e0:	00000297          	auipc	t0,0x0
    800000e4:	01028293          	addi	t0,t0,16 # 800000f0 <reset_vector+0x94>
    800000e8:	30529073          	csrw	mtvec,t0
    800000ec:	18005073          	csrwi	satp,0
    800000f0:	00000297          	auipc	t0,0x0
    800000f4:	02428293          	addi	t0,t0,36 # 80000114 <reset_vector+0xb8>
    800000f8:	30529073          	csrw	mtvec,t0
    800000fc:	0010029b          	addiw	t0,zero,1
    80000100:	03529293          	slli	t0,t0,0x35
    80000104:	fff28293          	addi	t0,t0,-1
    80000108:	3b029073          	csrw	pmpaddr0,t0
    8000010c:	01f00293          	li	t0,31
    80000110:	3a029073          	csrw	pmpcfg0,t0
    80000114:	30405073          	csrwi	mie,0
    80000118:	00000297          	auipc	t0,0x0
    8000011c:	01428293          	addi	t0,t0,20 # 8000012c <reset_vector+0xd0>
    80000120:	30529073          	csrw	mtvec,t0
    80000124:	30205073          	csrwi	medeleg,0
    80000128:	30305073          	csrwi	mideleg,0
    8000012c:	00000193          	li	gp,0
    80000130:	00000297          	auipc	t0,0x0
    80000134:	ed428293          	addi	t0,t0,-300 # 80000004 <trap_vector>
    80000138:	30529073          	csrw	mtvec,t0
    8000013c:	00100513          	li	a0,1
    80000140:	01f51513          	slli	a0,a0,0x1f
    80000144:	00055c63          	bgez	a0,8000015c <reset_vector+0x100>
    80000148:	0ff0000f          	fence
    8000014c:	00100193          	li	gp,1
    80000150:	05d00893          	li	a7,93
    80000154:	00000513          	li	a0,0
    80000158:	00000073          	ecall
    8000015c:	80000297          	auipc	t0,0x80000
    80000160:	ea428293          	addi	t0,t0,-348 # 0 <_start-0x80000000>
    80000164:	00028a63          	beqz	t0,80000178 <reset_vector+0x11c>
    80000168:	10529073          	csrw	stvec,t0
    8000016c:	0000b2b7          	lui	t0,0xb
    80000170:	1092829b          	addiw	t0,t0,265
    80000174:	30229073          	csrw	medeleg,t0
    80000178:	30005073          	csrwi	mstatus,0
    8000017c:	00000297          	auipc	t0,0x0
    80000180:	01428293          	addi	t0,t0,20 # 80000190 <reset_vector+0x134>
    80000184:	34129073          	csrw	mepc,t0
    80000188:	f1402573          	csrr	a0,mhartid
    8000018c:	30200073          	mret
    80000190:	0200006f          	j	800001b0 <test_start>

0000000080000194 <crash_backward>:
    80000194:	0ff0000f          	fence
    80000198:	00018063          	beqz	gp,80000198 <crash_backward+0x4>
    8000019c:	00119193          	slli	gp,gp,0x1
    800001a0:	0011e193          	ori	gp,gp,1
    800001a4:	05d00893          	li	a7,93
    800001a8:	00018513          	mv	a0,gp
    800001ac:	00000073          	ecall

00000000800001b0 <test_start>:
    800001b0:	00002f97          	auipc	t6,0x2
    800001b4:	e50f8f93          	addi	t6,t6,-432 # 80002000 <hidden_data>
    800001b8:	000fb003          	ld	zero,0(t6)
    800001bc:	008fb083          	ld	ra,8(t6)
    800001c0:	010fb103          	ld	sp,16(t6)
    800001c4:	018fb183          	ld	gp,24(t6)
    800001c8:	020fb203          	ld	tp,32(t6)
    800001cc:	028fb283          	ld	t0,40(t6)
    800001d0:	030fb303          	ld	t1,48(t6)
    800001d4:	038fb383          	ld	t2,56(t6)
    800001d8:	040fb403          	ld	s0,64(t6)
    800001dc:	048fb483          	ld	s1,72(t6)
    800001e0:	050fb503          	ld	a0,80(t6)
    800001e4:	058fb583          	ld	a1,88(t6)
    800001e8:	060fb603          	ld	a2,96(t6)
    800001ec:	068fb683          	ld	a3,104(t6)
    800001f0:	070fb703          	ld	a4,112(t6)
    800001f4:	078fb783          	ld	a5,120(t6)
    800001f8:	080fb803          	ld	a6,128(t6)
    800001fc:	088fb883          	ld	a7,136(t6)
    80000200:	090fb903          	ld	s2,144(t6)
    80000204:	098fb983          	ld	s3,152(t6)
    80000208:	0a0fba03          	ld	s4,160(t6)
    8000020c:	0a8fba83          	ld	s5,168(t6)
    80000210:	0b0fbb03          	ld	s6,176(t6)
    80000214:	0b8fbb83          	ld	s7,184(t6)
    80000218:	0c0fbc03          	ld	s8,192(t6)
    8000021c:	0c8fbc83          	ld	s9,200(t6)
    80000220:	0d0fbd03          	ld	s10,208(t6)
    80000224:	0d8fbd83          	ld	s11,216(t6)
    80000228:	0e0fbe03          	ld	t3,224(t6)
    8000022c:	0e8fbe83          	ld	t4,232(t6)
    80000230:	0f0fbf03          	ld	t5,240(t6)
    80000234:	0f8fbf83          	ld	t6,248(t6)
    80000238:	0040006f          	j	8000023c <pseg_0>

000000008000023c <pseg_0>:
    8000023c:	66300793          	li	a5,1635
    80000240:	fb700613          	li	a2,-73
    80000244:	df500113          	li	sp,-523
    80000248:	78500293          	li	t0,1925
    8000024c:	51400f93          	li	t6,1300
    80000250:	87300493          	li	s1,-1933
    80000254:	06500093          	li	ra,101
    80000258:	02aa1b33          	mulh	s6,s4,a0
    8000025c:	7d800413          	li	s0,2008
    80000260:	01f60dbb          	addw	s11,a2,t6
    80000264:	02216f33          	rem	t5,sp,sp
    80000268:	028166bb          	remw	a3,sp,s0
    8000026c:	be400993          	li	s3,-1052
    80000270:	0052e733          	or	a4,t0,t0
    80000274:	46e43893          	sltiu	a7,s0,1134
    80000278:	0214fe33          	remu	t3,s1,ra
    8000027c:	d7900c93          	li	s9,-647
    80000280:	00002a97          	auipc	s5,0x2
    80000284:	43ba8a93          	addi	s5,s5,1083 # 800026bb <_end+0xab>
    80000288:	00002e97          	auipc	t4,0x2
    8000028c:	5c8e8e93          	addi	t4,t4,1480 # 80002850 <_end+0x240>
    80000290:	dc1ae303          	lwu	t1,-575(s5)
    80000294:	00bc9d33          	sll	s10,s9,a1
    80000298:	a3200813          	li	a6,-1486
    8000029c:	00000a93          	li	s5,0
    800002a0:	f3d00393          	li	t2,-195
    800002a4:	1ca00213          	li	tp,458
    800002a8:	94b00e13          	li	t3,-1717
    800002ac:	404fdb33          	sra	s6,t6,tp
    800002b0:	00002f97          	auipc	t6,0x2
    800002b4:	ce6f8f93          	addi	t6,t6,-794 # 80001f96 <fromhost+0xf56>
    800002b8:	03398a3b          	mulw	s4,s3,s3
    800002bc:	00002717          	auipc	a4,0x2
    800002c0:	fe170713          	addi	a4,a4,-31 # 8000229d <test_memory+0x9d>
    800002c4:	b7000993          	li	s3,-1168
    800002c8:	89500b93          	li	s7,-1899
    800002cc:	01080b3b          	addw	s6,a6,a6
    800002d0:	016b6f33          	or	t5,s6,s6
    800002d4:	00100d93          	li	s11,1
    800002d8:	00002d33          	sltz	s10,zero
    800002dc:	5fafe603          	lwu	a2,1530(t6)
    800002e0:	2f171ca3          	sh	a7,761(a4)
    800002e4:	01398a3b          	addw	s4,s3,s3
    800002e8:	4087853b          	subw	a0,a5,s0
    800002ec:	03ef1133          	mulh	sp,t5,t5
    800002f0:	e17b2513          	slti	a0,s6,-489
    800002f4:	417855b3          	sra	a1,a6,s7
    800002f8:	0719ab13          	slti	s6,s3,113
    800002fc:	03fd9d93          	slli	s11,s11,0x3f
    80000300:	019cf933          	and	s2,s9,s9
    80000304:	00000313          	li	t1,0
    80000308:	66c00493          	li	s1,1644
    8000030c:	00002d17          	auipc	s10,0x2
    80000310:	48ad0d13          	addi	s10,s10,1162 # 80002796 <_end+0x186>
    80000314:	00003633          	snez	a2,zero
    80000318:	00100713          	li	a4,1
    8000031c:	c5100813          	li	a6,-943
    80000320:	03f71713          	slli	a4,a4,0x3f
    80000324:	20f00f13          	li	t5,527
    80000328:	fff00413          	li	s0,-1
    8000032c:	00002c17          	auipc	s8,0x2
    80000330:	6c0c0c13          	addi	s8,s8,1728 # 800029ec <_end+0x3dc>
    80000334:	91cc0823          	sb	t3,-1776(s8)
    80000338:	fff00093          	li	ra,-1
    8000033c:	01ef2933          	slt	s2,t5,t5
    80000340:	e59c9ae3          	bne	s9,s9,80000194 <crash_backward>
    80000344:	00e44433          	xor	s0,s0,a4
    80000348:	a05e9723          	sh	t0,-1522(t4)
    8000034c:	009e66b3          	or	a3,t3,s1
    80000350:	01b0c0b3          	xor	ra,ra,s11
    80000354:	024391b3          	mulh	gp,t2,tp
    80000358:	5f800113          	li	sp,1528
    8000035c:	402157bb          	sraw	a5,sp,sp
    80000360:	d4fd3923          	sd	a5,-686(s10)
    80000364:	001478b3          	and	a7,s0,ra
    80000368:	008979b3          	and	s3,s2,s0
    8000036c:	00002797          	auipc	a5,0x2
    80000370:	c7278793          	addi	a5,a5,-910 # 80001fde <fromhost+0xf9e>
    80000374:	00002217          	auipc	tp,0x2
    80000378:	98120213          	addi	tp,tp,-1663 # 80001cf5 <fromhost+0xcb5>
    8000037c:	bc200b13          	li	s6,-1086
    80000380:	58a209a3          	sb	a0,1427(tp) # 593 <_start-0x7ffffa6d>
    80000384:	22100513          	li	a0,545
    80000388:	11700c13          	li	s8,279
    8000038c:	06a50b93          	addi	s7,a0,106
    80000390:	6067a923          	sw	t1,1554(a5)
    80000394:	00100f13          	li	t5,1
    80000398:	00e9efb3          	or	t6,s3,a4
    8000039c:	00002697          	auipc	a3,0x2
    800003a0:	da368693          	addi	a3,a3,-605 # 8000213f <reg_x7_output+0x7>
    800003a4:	01ef14bb          	sllw	s1,t5,t5
    800003a8:	00002197          	auipc	gp,0x2
    800003ac:	2c218193          	addi	gp,gp,706 # 8000266a <_end+0x5a>
    800003b0:	01bde2b3          	or	t0,s11,s11
    800003b4:	010855bb          	srlw	a1,a6,a6
    800003b8:	dd12eee3          	bltu	t0,a7,80000194 <crash_backward>
    800003bc:	41ad0333          	sub	t1,s10,s10
    800003c0:	9a300593          	li	a1,-1629
    800003c4:	00000213          	li	tp,0
    800003c8:	e7e00a13          	li	s4,-386
    800003cc:	00002817          	auipc	a6,0x2
    800003d0:	4f880813          	addi	a6,a6,1272 # 800028c4 <_end+0x2b4>
    800003d4:	b961aa83          	lw	s5,-1130(gp) # 800029a6 <_end+0x396>
    800003d8:	02b597b3          	mulh	a5,a1,a1
    800003dc:	1096be83          	ld	t4,265(a3)
    800003e0:	03ff1f13          	slli	t5,t5,0x3f
    800003e4:	1b800913          	li	s2,440
    800003e8:	bac83483          	ld	s1,-1108(a6)
    800003ec:	00823bb3          	sltu	s7,tp,s0
    800003f0:	00000513          	li	a0,0
    800003f4:	034b6cbb          	remw	s9,s6,s4
    800003f8:	08c00193          	li	gp,140
    800003fc:	413985bb          	subw	a1,s3,s3
    80000400:	a6000e93          	li	t4,-1440
    80000404:	fff00393          	li	t2,-1
    80000408:	00528dbb          	addw	s11,t0,t0
    8000040c:	83500113          	li	sp,-1995
    80000410:	8ffe8b93          	addi	s7,t4,-1793
    80000414:	c5400a13          	li	s4,-940
    80000418:	48500913          	li	s2,1157
    8000041c:	022c663b          	remw	a2,s8,sp
    80000420:	131c2613          	slti	a2,s8,305
    80000424:	4095579b          	sraiw	a5,a0,0x9
    80000428:	0141dcbb          	srlw	s9,gp,s4
    8000042c:	537eec63          	bltu	t4,s7,80000964 <crash_forward>
    80000430:	00100493          	li	s1,1
    80000434:	01e3c3b3          	xor	t2,t2,t5
    80000438:	00002217          	auipc	tp,0x2
    8000043c:	6ba20213          	addi	tp,tp,1722 # 80002af2 <_end+0x4e2>
    80000440:	c4400b93          	li	s7,-956
    80000444:	76800d93          	li	s11,1896
    80000448:	4253da13          	srai	s4,t2,0x25
    8000044c:	3ff00293          	li	t0,1023
    80000450:	018c4633          	xor	a2,s8,s8
    80000454:	007bfe33          	and	t3,s7,t2
    80000458:	005960b3          	or	ra,s2,t0
    8000045c:	35f00193          	li	gp,863
    80000460:	00000b13          	li	s6,0
    80000464:	00000a93          	li	s5,0
    80000468:	e7900513          	li	a0,-391
    8000046c:	9d623303          	ld	t1,-1578(tp) # fffffffffffff9d6 <__global_pointer$+0xffffffff7fffcbc6>
    80000470:	017bfeb3          	and	t4,s7,s7
    80000474:	03bdd5b3          	divu	a1,s11,s11
    80000478:	01e96d33          	or	s10,s2,t5
    8000047c:	00002997          	auipc	s3,0x2
    80000480:	48998993          	addi	s3,s3,1161 # 80002905 <_end+0x2f5>
    80000484:	40318cbb          	subw	s9,gp,gp
    80000488:	4f200313          	li	t1,1266
    8000048c:	0221ec33          	rem	s8,gp,sp
    80000490:	00100b93          	li	s7,1
    80000494:	00dbc933          	xor	s2,s7,a3
    80000498:	b6800d93          	li	s11,-1176
    8000049c:	aa700e13          	li	t3,-1369
    800004a0:	00002797          	auipc	a5,0x2
    800004a4:	2b078793          	addi	a5,a5,688 # 80002750 <_end+0x140>
    800004a8:	41b35233          	sra	tp,t1,s11
    800004ac:	00002117          	auipc	sp,0x2
    800004b0:	d9f10113          	addi	sp,sp,-609 # 8000224b <test_memory+0x4b>
    800004b4:	03ac3d33          	mulhu	s10,s8,s10
    800004b8:	00870633          	add	a2,a4,s0
    800004bc:	cb599703          	lh	a4,-843(s3)
    800004c0:	03fb9b93          	slli	s7,s7,0x3f
    800004c4:	02214eb3          	div	t4,sp,sp
    800004c8:	88700913          	li	s2,-1913
    800004cc:	02a57eb3          	remu	t4,a0,a0
    800004d0:	fff00293          	li	t0,-1
    800004d4:	35300193          	li	gp,851
    800004d8:	00010f13          	mv	t5,sp
    800004dc:	000f0c93          	mv	s9,t5
    800004e0:	4031d3b3          	sra	t2,gp,gp
    800004e4:	df500d93          	li	s11,-523
    800004e8:	ea978a03          	lb	s4,-343(a5)
    800004ec:	018c023b          	addw	tp,s8,s8
    800004f0:	aa8d8a93          	addi	s5,s11,-1368
    800004f4:	cb9f40e3          	blt	t5,s9,80000194 <crash_backward>
    800004f8:	366119a3          	sh	t1,883(sp)
    800004fc:	0172c2b3          	xor	t0,t0,s7
    80000500:	4b400f93          	li	t6,1204
    80000504:	b4900113          	li	sp,-1207
    80000508:	a2600e93          	li	t4,-1498
    8000050c:	03f49493          	slli	s1,s1,0x3f
    80000510:	4a200713          	li	a4,1186
    80000514:	02e77233          	remu	tp,a4,a4
    80000518:	01bd83b3          	add	t2,s11,s11
    8000051c:	03d12cb3          	mulhsu	s9,sp,t4
    80000520:	01f53433          	sltu	s0,a0,t6
    80000524:	005ff5b3          	and	a1,t6,t0
    80000528:	fff00893          	li	a7,-1
    8000052c:	cc800a93          	li	s5,-824
    80000530:	09e00d93          	li	s11,158
    80000534:	fdb00b13          	li	s6,-37
    80000538:	17d78e9b          	addiw	t4,a5,381
    8000053c:	01ce7c33          	and	s8,t3,t3
    80000540:	01bd97b3          	sll	a5,s11,s11
    80000544:	f1700413          	li	s0,-233
    80000548:	75c00c93          	li	s9,1884
    8000054c:	0178e0b3          	or	ra,a7,s7
    80000550:	30500a13          	li	s4,773
    80000554:	b7800213          	li	tp,-1160
    80000558:	ec900713          	li	a4,-311
    8000055c:	0098c8b3          	xor	a7,a7,s1
    80000560:	02e4453b          	divw	a0,s0,a4
    80000564:	1e800113          	li	sp,488
    80000568:	0169563b          	srlw	a2,s2,s6
    8000056c:	fbf00393          	li	t2,-65
    80000570:	40420eb3          	sub	t4,tp,tp
    80000574:	022159b3          	divu	s3,sp,sp
    80000578:	034af333          	remu	t1,s5,s4
    8000057c:	011d7833          	and	a6,s10,a7
    80000580:	007c9fbb          	sllw	t6,s9,t2
    80000584:	3eb0d063          	bge	ra,a1,80000964 <crash_forward>
    80000588:	009466b3          	or	a3,s0,s1
    8000058c:	00002197          	auipc	gp,0x2
    80000590:	2d018193          	addi	gp,gp,720 # 8000285c <_end+0x24c>
    80000594:	00001f17          	auipc	t5,0x1
    80000598:	722f0f13          	addi	t5,t5,1826 # 80001cb6 <fromhost+0xc76>
    8000059c:	c1c18d03          	lb	s10,-996(gp) # 80002a2c <_end+0x41c>
    800005a0:	7c7f2323          	sw	t2,1990(t5)
    800005a4:	1bf2c493          	xori	s1,t0,447
    800005a8:	40ca8c33          	sub	s8,s5,a2
    800005ac:	45400513          	li	a0,1108
    800005b0:	3b250813          	addi	a6,a0,946
    800005b4:	50e00413          	li	s0,1294
    800005b8:	00002097          	auipc	ra,0x2
    800005bc:	8c008093          	addi	ra,ra,-1856 # 80001e78 <fromhost+0xe38>
    800005c0:	00a55733          	srl	a4,a0,a0
    800005c4:	02300113          	li	sp,35
    800005c8:	c8400a93          	li	s5,-892
    800005cc:	0a800e13          	li	t3,168
    800005d0:	08fe0313          	addi	t1,t3,143
    800005d4:	003193b3          	sll	t2,gp,gp
    800005d8:	b9c00193          	li	gp,-1124
    800005dc:	00310cbb          	addw	s9,sp,gp
    800005e0:	033985b3          	mul	a1,s3,s3
    800005e4:	5e4a6a13          	ori	s4,s4,1508
    800005e8:	0294fb3b          	remuw	s6,s1,s1
    800005ec:	81b00913          	li	s2,-2021
    800005f0:	43c0e603          	lwu	a2,1084(ra)
    800005f4:	be290f93          	addi	t6,s2,-1054
    800005f8:	035409b3          	mul	s3,s0,s5
    800005fc:	b9ad6ce3          	bltu	s10,s10,80000194 <crash_backward>
    80000600:	00100b13          	li	s6,1
    80000604:	5fb00713          	li	a4,1531
    80000608:	72870413          	addi	s0,a4,1832
    8000060c:	723d4293          	xori	t0,s10,1827
    80000610:	c1600d13          	li	s10,-1002
    80000614:	5ab18613          	addi	a2,gp,1451 # 800033bb <__global_pointer$+0x5ab>
    80000618:	00001517          	auipc	a0,0x1
    8000061c:	79d50513          	addi	a0,a0,1949 # 80001db5 <fromhost+0xd75>
    80000620:	9e000e13          	li	t3,-1568
    80000624:	03fb1b13          	slli	s6,s6,0x3f
    80000628:	00002b97          	auipc	s7,0x2
    8000062c:	9fdb8b93          	addi	s7,s7,-1539 # 80002025 <reg_x4_init+0x5>
    80000630:	026326b3          	mulhsu	a3,t1,t1
    80000634:	0329683b          	remw	a6,s2,s2
    80000638:	ad200493          	li	s1,-1326
    8000063c:	fff00f93          	li	t6,-1
    80000640:	32001263          	bnez	zero,80000964 <crash_forward>
    80000644:	4172d11b          	sraiw	sp,t0,0x17
    80000648:	0061c633          	xor	a2,gp,t1
    8000064c:	0210adb3          	mulhsu	s11,ra,ra
    80000650:	49fbec03          	lwu	s8,1183(s7)
    80000654:	00949a33          	sll	s4,s1,s1
    80000658:	01ad523b          	srlw	tp,s10,s10
    8000065c:	00100193          	li	gp,1
    80000660:	7a900793          	li	a5,1961
    80000664:	016fcfb3          	xor	t6,t6,s6
    80000668:	00002717          	auipc	a4,0x2
    8000066c:	e0470713          	addi	a4,a4,-508 # 8000246c <test_memory+0x26c>
    80000670:	ee473283          	ld	t0,-284(a4)
    80000674:	b38c60e3          	bltu	s8,s8,80000194 <crash_backward>
    80000678:	db0e0593          	addi	a1,t3,-592
    8000067c:	01fcf933          	and	s2,s9,t6
    80000680:	00098f13          	mv	t5,s3
    80000684:	97400e93          	li	t4,-1676
    80000688:	000f0993          	mv	s3,t5
    8000068c:	33200413          	li	s0,818
    80000690:	008466b3          	or	a3,s0,s0
    80000694:	41d783b3          	sub	t2,a5,t4
    80000698:	015c6433          	or	s0,s8,s5
    8000069c:	29a00b93          	li	s7,666
    800006a0:	77351ea3          	sh	s3,1917(a0)
    800006a4:	03f19193          	slli	gp,gp,0x3f
    800006a8:	af3f46e3          	blt	t5,s3,80000194 <crash_backward>
    800006ac:	01696cb3          	or	s9,s2,s6
    800006b0:	6f600613          	li	a2,1782
    800006b4:	00c25e3b          	srlw	t3,tp,a2
    800006b8:	84e5fd37          	lui	s10,0x84e5f
    800006bc:	37100213          	li	tp,881
    800006c0:	024265bb          	remw	a1,tp,tp
    800006c4:	26400113          	li	sp,612
    800006c8:	41535a3b          	sraw	s4,t1,s5
    800006cc:	e1e00693          	li	a3,-482
    800006d0:	73400293          	li	t0,1844
    800006d4:	fff00893          	li	a7,-1
    800006d8:	4056d733          	sra	a4,a3,t0
    800006dc:	00018813          	mv	a6,gp
    800006e0:	03279213          	slli	tp,a5,0x32
    800006e4:	414a5b3b          	sraw	s6,s4,s4
    800006e8:	33800793          	li	a5,824
    800006ec:	00080d93          	mv	s11,a6
    800006f0:	42865593          	srai	a1,a2,0x28
    800006f4:	06112993          	slti	s3,sp,97
    800006f8:	002b84bb          	addw	s1,s7,sp
    800006fc:	97000293          	li	t0,-1680
    80000700:	01188fb3          	add	t6,a7,a7
    80000704:	f8428f13          	addi	t5,t0,-124
    80000708:	00f7993b          	sllw	s2,a5,a5
    8000070c:	00002e17          	auipc	t3,0x2
    80000710:	216e0e13          	addi	t3,t3,534 # 80002922 <_end+0x312>
    80000714:	0038c8b3          	xor	a7,a7,gp
    80000718:	03bd86b3          	mul	a3,s11,s11
    8000071c:	40195133          	sra	sp,s2,ra
    80000720:	000e8993          	mv	s3,t4
    80000724:	25e2e063          	bltu	t0,t5,80000964 <crash_forward>
    80000728:	00100e93          	li	t4,1
    8000072c:	4231da13          	srai	s4,gp,0x23
    80000730:	ab3e0d23          	sb	s3,-1350(t3)
    80000734:	00002b17          	auipc	s6,0x2
    80000738:	245b0b13          	addi	s6,s6,581 # 80002979 <_end+0x369>
    8000073c:	00002c97          	auipc	s9,0x2
    80000740:	e86c8c93          	addi	s9,s9,-378 # 800025c2 <test_memory+0x3c2>
    80000744:	006b971b          	slliw	a4,s7,0x6
    80000748:	c86b0203          	lb	tp,-890(s6)
    8000074c:	00098b93          	mv	s7,s3
    80000750:	03fe9e93          	slli	t4,t4,0x3f
    80000754:	d72cad03          	lw	s10,-654(s9)
    80000758:	fff00393          	li	t2,-1
    8000075c:	0110f333          	and	t1,ra,a7
    80000760:	01d3c3b3          	xor	t2,t2,t4
    80000764:	00777533          	and	a0,a4,t2
    80000768:	01dde0b3          	or	ra,s11,t4
    8000076c:	1d900c13          	li	s8,473
    80000770:	00386ab3          	or	s5,a6,gp
    80000774:	a21540e3          	blt	a0,ra,80000194 <crash_backward>
    80000778:	41860433          	sub	s0,a2,s8
    8000077c:	25c00a13          	li	s4,604
    80000780:	aac00393          	li	t2,-1364
    80000784:	1fdee063          	bltu	t4,t4,80000964 <crash_forward>
    80000788:	32300993          	li	s3,803
    8000078c:	42225813          	srai	a6,tp,0x22
    80000790:	00002897          	auipc	a7,0x2
    80000794:	0b588893          	addi	a7,a7,181 # 80002845 <_end+0x235>
    80000798:	1e2f2693          	slti	a3,t5,482
    8000079c:	2f00811b          	addiw	sp,ra,752
    800007a0:	40785733          	sra	a4,a6,t2
    800007a4:	00000813          	li	a6,0
    800007a8:	38000913          	li	s2,896
    800007ac:	9e0014e3          	bnez	zero,80000194 <crash_backward>
    800007b0:	1ba00293          	li	t0,442
    800007b4:	01398b3b          	addw	s6,s3,s3
    800007b8:	ce68c483          	lbu	s1,-794(a7)
    800007bc:	0089dd3b          	srlw	s10,s3,s0
    800007c0:	16400593          	li	a1,356
    800007c4:	96700193          	li	gp,-1689
    800007c8:	00000713          	li	a4,0
    800007cc:	18e86c63          	bltu	a6,a4,80000964 <crash_forward>
    800007d0:	0281f7bb          	remuw	a5,gp,s0
    800007d4:	4032dabb          	sraw	s5,t0,gp
    800007d8:	00002097          	auipc	ra,0x2
    800007dc:	cbb08093          	addi	ra,ra,-837 # 80002493 <test_memory+0x293>
    800007e0:	02a5d6b3          	divu	a3,a1,a0
    800007e4:	ee90a103          	lw	sp,-279(ra)
    800007e8:	00001617          	auipc	a2,0x1
    800007ec:	7a160613          	addi	a2,a2,1953 # 80001f89 <fromhost+0xf49>
    800007f0:	29766403          	lwu	s0,663(a2)
    800007f4:	32c00f13          	li	t5,812
    800007f8:	40b5823b          	subw	tp,a1,a1
    800007fc:	17800c13          	li	s8,376
    80000800:	0183d533          	srl	a0,t2,s8
    80000804:	37990f93          	addi	t6,s2,889
    80000808:	00002d97          	auipc	s11,0x2
    8000080c:	94fd8d93          	addi	s11,s11,-1713 # 80002157 <reg_x10_output+0x7>
    80000810:	039cfbb3          	remu	s7,s9,s9
    80000814:	2c8dce83          	lbu	t4,712(s11)
    80000818:	00020c93          	mv	s9,tp
    8000081c:	97f97ce3          	bgeu	s2,t6,80000194 <crash_backward>
    80000820:	000c8e13          	mv	t3,s9
    80000824:	01ea3333          	sltu	t1,s4,t5
    80000828:	00002b17          	auipc	s6,0x2
    8000082c:	8a2b0b13          	addi	s6,s6,-1886 # 800020ca <reg_x25_init+0x2>
    80000830:	14600d93          	li	s11,326
    80000834:	6c500093          	li	ra,1733
    80000838:	17a00493          	li	s1,378
    8000083c:	54700e93          	li	t4,1351
    80000840:	00048f13          	mv	t5,s1
    80000844:	ab800e13          	li	t3,-1352
    80000848:	55a48513          	addi	a0,s1,1370
    8000084c:	eb000593          	li	a1,-336
    80000850:	41ce0cbb          	subw	s9,t3,t3
    80000854:	0c300113          	li	sp,195
    80000858:	00944d33          	xor	s10,s0,s1
    8000085c:	039ed63b          	divuw	a2,t4,s9
    80000860:	03398fbb          	mulw	t6,s3,s3
    80000864:	00058b93          	mv	s7,a1
    80000868:	000b8813          	mv	a6,s7
    8000086c:	004dc333          	xor	t1,s11,tp
    80000870:	03ef4733          	div	a4,t5,t5
    80000874:	0137c433          	xor	s0,a5,s3
    80000878:	83100293          	li	t0,-1999
    8000087c:	02212233          	mulhsu	tp,sp,sp
    80000880:	0210f8b3          	remu	a7,ra,ra
    80000884:	03ddbab3          	mulhu	s5,s11,t4
    80000888:	2bab1183          	lh	gp,698(s6)
    8000088c:	000f0693          	mv	a3,t5
    80000890:	0255ca33          	div	s4,a1,t0
    80000894:	02b8d93b          	divuw	s2,a7,a1
    80000898:	00100393          	li	t2,1
    8000089c:	03f39393          	slli	t2,t2,0x3f
    800008a0:	fff00793          	li	a5,-1
    800008a4:	0077c7b3          	xor	a5,a5,t2
    800008a8:	00fff9b3          	and	s3,t6,a5
    800008ac:	007bec33          	or	s8,s7,t2
    800008b0:	016aebb3          	or	s7,s5,s6
    800008b4:	0b3c5863          	bge	s8,s3,80000964 <crash_forward>
    800008b8:	00f7d53b          	srlw	a0,a5,a5
    800008bc:	000f80bb          	addw	ra,t6,zero
    800008c0:	020022b3          	mulhsu	t0,zero,zero
    800008c4:	0040006f          	j	800008c8 <reg_dump>

00000000800008c8 <reg_dump>:
    800008c8:	00002097          	auipc	ra,0x2
    800008cc:	d3808093          	addi	ra,ra,-712 # 80002600 <loop_count>
    800008d0:	0000a103          	lw	sp,0(ra)
    800008d4:	fff10193          	addi	gp,sp,-1
    800008d8:	0030a023          	sw	gp,0(ra)
    800008dc:	960110e3          	bnez	sp,8000023c <pseg_0>
    800008e0:	00002097          	auipc	ra,0x2
    800008e4:	82008093          	addi	ra,ra,-2016 # 80002100 <begin_signature>
    800008e8:	0000b023          	sd	zero,0(ra)
    800008ec:	0020b823          	sd	sp,16(ra)
    800008f0:	0030bc23          	sd	gp,24(ra)
    800008f4:	0240b023          	sd	tp,32(ra)
    800008f8:	0250b423          	sd	t0,40(ra)
    800008fc:	0260b823          	sd	t1,48(ra)
    80000900:	0270bc23          	sd	t2,56(ra)
    80000904:	0480b023          	sd	s0,64(ra)
    80000908:	0490b423          	sd	s1,72(ra)
    8000090c:	04a0b823          	sd	a0,80(ra)
    80000910:	04b0bc23          	sd	a1,88(ra)
    80000914:	06c0b023          	sd	a2,96(ra)
    80000918:	06d0b423          	sd	a3,104(ra)
    8000091c:	06e0b823          	sd	a4,112(ra)
    80000920:	06f0bc23          	sd	a5,120(ra)
    80000924:	0900b023          	sd	a6,128(ra)
    80000928:	0910b423          	sd	a7,136(ra)
    8000092c:	0920b823          	sd	s2,144(ra)
    80000930:	0930bc23          	sd	s3,152(ra)
    80000934:	0b40b023          	sd	s4,160(ra)
    80000938:	0b50b423          	sd	s5,168(ra)
    8000093c:	0b70bc23          	sd	s7,184(ra)
    80000940:	0d80b023          	sd	s8,192(ra)
    80000944:	0d90b423          	sd	s9,200(ra)
    80000948:	0da0b823          	sd	s10,208(ra)
    8000094c:	0db0bc23          	sd	s11,216(ra)
    80000950:	0fc0b023          	sd	t3,224(ra)
    80000954:	0fd0b423          	sd	t4,232(ra)
    80000958:	0fe0b823          	sd	t5,240(ra)
    8000095c:	0ff0bc23          	sd	t6,248(ra)
    80000960:	0200006f          	j	80000980 <test_end>

0000000080000964 <crash_forward>:
    80000964:	0ff0000f          	fence
    80000968:	00018063          	beqz	gp,80000968 <crash_forward+0x4>
    8000096c:	00119193          	slli	gp,gp,0x1
    80000970:	0011e193          	ori	gp,gp,1
    80000974:	05d00893          	li	a7,93
    80000978:	00018513          	mv	a0,gp
    8000097c:	00000073          	ecall

0000000080000980 <test_end>:
    80000980:	0ff0000f          	fence
    80000984:	00100193          	li	gp,1
    80000988:	05d00893          	li	a7,93
    8000098c:	00000513          	li	a0,0
    80000990:	00000073          	ecall
    80000994:	c0001073          	unimp
	...

Disassembly of section .tohost:

0000000080001000 <tohost>:
	...

0000000080001040 <fromhost>:
	...

Disassembly of section .data:

0000000080002000 <hidden_data>:
    80002000:	4f01                	li	t5,0
    80002002:	1e02                	slli	t3,t3,0x20
    80002004:	de8e                	sw	gp,124(sp)
    80002006:	          	0x5b254d77

0000000080002008 <reg_x1_init>:
    80002008:	5b25                	li	s6,-23
    8000200a:	0b84                	addi	s1,sp,464
    8000200c:	4090                	lw	a2,0(s1)
    8000200e:	0c5a                	slli	s8,s8,0x16

0000000080002010 <reg_x2_init>:
    80002010:	7094                	ld	a3,32(s1)
    80002012:	e3d6                	sd	s5,448(sp)
    80002014:	6cc9189b          	0x6cc9189b

0000000080002018 <reg_x3_init>:
    80002018:	bdc807a7          	0xbdc807a7
    8000201c:	285e                	fld	fa6,464(sp)
    8000201e:	7219                	lui	tp,0xfffe6

0000000080002020 <reg_x4_init>:
    80002020:	3372                	fld	ft6,312(sp)
    80002022:	157c                	addi	a5,sp,684
    80002024:	bfe0ce43          	fmadd.q	ft8,ft1,ft10,fs7,rmm

0000000080002028 <reg_x5_init>:
    80002028:	ffff                	0xffff
    8000202a:	ffff                	0xffff
    8000202c:	ffff                	0xffff
    8000202e:	ffff                	0xffff

0000000080002030 <reg_x6_init>:
	...

0000000080002038 <reg_x7_init>:
	...

0000000080002040 <reg_x8_init>:
    80002040:	0009                	c.nop	2
    80002042:	8000                	0x8000
    80002044:	ffff                	0xffff
    80002046:	ffff                	0xffff

0000000080002048 <reg_x9_init>:
    80002048:	fffe                	sd	t6,504(sp)
    8000204a:	ffff                	0xffff
    8000204c:	ffff                	0xffff
    8000204e:	ffff                	0xffff

0000000080002050 <reg_x10_init>:
    80002050:	a939                	j	8000246e <test_memory+0x26e>
    80002052:	e164                	sd	s1,192(a0)
    80002054:	3b03503b          	0x3b03503b

0000000080002058 <reg_x11_init>:
    80002058:	7934                	ld	a3,112(a0)
    8000205a:	afcf146f          	jal	s0,7fff3356 <_start-0xccaa>
    8000205e:	3048                	fld	fa0,160(s0)

0000000080002060 <reg_x12_init>:
    80002060:	ff80                	sd	s0,56(a5)
    80002062:	ffff                	0xffff
    80002064:	ffff                	0xffff
    80002066:	ffff                	0xffff

0000000080002068 <reg_x13_init>:
	...

0000000080002070 <reg_x14_init>:
    80002070:	4f2e                	lw	t5,200(sp)
    80002072:	e48a                	sd	sp,72(sp)
    80002074:	333e                	fld	ft6,488(sp)
    80002076:	b4f5                	j	80001b62 <fromhost+0xb22>

0000000080002078 <reg_x15_init>:
    80002078:	1b11                	addi	s6,s6,-28
    8000207a:	44ac                	lw	a1,72(s1)
    8000207c:	e05f 7a12       	0x7a12e05f

0000000080002080 <reg_x16_init>:
	...

0000000080002088 <reg_x17_init>:
    80002088:	8008                	0x8008
    8000208a:	ffff                	0xffff
    8000208c:	ffff                	0xffff
    8000208e:	ffff                	0xffff

0000000080002090 <reg_x18_init>:
    80002090:	c5f0                	sw	a2,76(a1)
    80002092:	3e90                	fld	fa2,56(a3)
    80002094:	f12d                	bnez	a0,80001ff6 <fromhost+0xfb6>
    80002096:	          	fnmsub.q	fa7,ft10,ft11,ft11,rup

0000000080002098 <reg_x19_init>:
    80002098:	ffff                	0xffff
    8000209a:	ffff                	0xffff
    8000209c:	ffff                	0xffff
    8000209e:	ffff                	0xffff

00000000800020a0 <reg_x20_init>:
    800020a0:	4c7f1f73          	csrrw	t5,0x4c7,t5
    800020a4:	301a                	fld	ft0,416(sp)
    800020a6:	2426                	fld	fs0,72(sp)

00000000800020a8 <reg_x21_init>:
    800020a8:	6866                	ld	a6,88(sp)
    800020aa:	9a8c                	0x9a8c
    800020ac:	1376                	slli	t1,t1,0x3d
    800020ae:	7ca0                	ld	s0,120(s1)

00000000800020b0 <reg_x22_init>:
    800020b0:	ffff                	0xffff
    800020b2:	ffff                	0xffff
    800020b4:	ffff                	0xffff
    800020b6:	ffff                	0xffff

00000000800020b8 <reg_x23_init>:
    800020b8:	ef91                	bnez	a5,800020d4 <reg_x26_init+0x4>
    800020ba:	8ff6                	mv	t6,t4
    800020bc:	d9b8c3e7          	0xd9b8c3e7

00000000800020c0 <reg_x24_init>:
    800020c0:	6986                	ld	s3,64(sp)
    800020c2:	c6ea5793          	0xc6ea5793
    800020c6:	1b99                	addi	s7,s7,-26

00000000800020c8 <reg_x25_init>:
    800020c8:	ff85                	bnez	a5,80002000 <hidden_data>
    800020ca:	ffff                	0xffff
    800020cc:	ffff                	0xffff
    800020ce:	ffff                	0xffff

00000000800020d0 <reg_x26_init>:
    800020d0:	0002                	c.slli64	zero
    800020d2:	8000                	0x8000
    800020d4:	ffff                	0xffff
    800020d6:	ffff                	0xffff

00000000800020d8 <reg_x27_init>:
    800020d8:	b711                	j	80001fdc <fromhost+0xf9c>
    800020da:	bfde                	fsd	fs7,504(sp)
    800020dc:	e6e8                	sd	a0,200(a3)
    800020de:	2eff                	0x2eff

00000000800020e0 <reg_x28_init>:
    800020e0:	9c56ad37          	lui	s10,0x9c56a
    800020e4:	cd3d                	beqz	a0,80002162 <reg_x12_output+0x2>
    800020e6:	b5e4                	fsd	fs1,232(a1)

00000000800020e8 <reg_x29_init>:
    800020e8:	0000                	unimp
    800020ea:	0000                	unimp
    800020ec:	0000                	unimp
    800020ee:	0800                	addi	s0,sp,16

00000000800020f0 <reg_x30_init>:
    800020f0:	ffff8007          	0xffff8007
    800020f4:	ffff                	0xffff
    800020f6:	ffff                	0xffff

00000000800020f8 <reg_x31_init>:
    800020f8:	5028                	lw	a0,96(s0)
    800020fa:	d5aa9267          	0xd5aa9267
    800020fe:	325e                	fld	ft4,496(sp)

0000000080002100 <begin_signature>:
    80002100:	19b1                	addi	s3,s3,-20
    80002102:	7349                	lui	t1,0xffff2
    80002104:	7920003f  	0xaf6945c7920003f

0000000080002108 <reg_x1_output>:
    80002108:	945c                	0x945c
    8000210a:	0af6                	slli	s5,s5,0x1d
    8000210c:	362a                	fld	fa2,168(sp)
    8000210e:	ec0a                	sd	sp,24(sp)

0000000080002110 <reg_x2_output>:
    80002110:	e6ee                	sd	s11,328(sp)
    80002112:	f71c                	sd	a5,40(a4)
    80002114:	c84c                	sw	a1,20(s0)
    80002116:	1f51                	addi	t5,t5,-12

0000000080002118 <reg_x3_output>:
    80002118:	503d                	c.li	zero,-17
    8000211a:	e1ca                	sd	s2,192(sp)
    8000211c:	45fe                	lw	a1,220(sp)
    8000211e:	84e8                	0x84e8

0000000080002120 <reg_x4_output>:
    80002120:	682e                	ld	a6,200(sp)
    80002122:	db95                	beqz	a5,80002056 <reg_x10_init+0x6>
    80002124:	f9d2                	sd	s4,240(sp)
    80002126:	4628                	lw	a0,72(a2)

0000000080002128 <reg_x5_output>:
    80002128:	2d195adb          	0x2d195adb
    8000212c:	fdbd                	bnez	a1,800020aa <reg_x21_init+0x2>
    8000212e:	c4c0                	sw	s0,12(s1)

0000000080002130 <reg_x6_output>:
    80002130:	ada9                	j	8000278a <_end+0x17a>
    80002132:	7435                	lui	s0,0xfffed
    80002134:	9e3e                	add	t3,t3,a5
    80002136:	9014                	0x9014

0000000080002138 <reg_x7_output>:
    80002138:	a645023b          	0xa645023b
    8000213c:	ff36                	sd	a3,440(sp)
    8000213e:	7300                	ld	s0,32(a4)

0000000080002140 <reg_x8_output>:
    80002140:	7164                	ld	s1,224(a0)
    80002142:	66ec                	ld	a1,200(a3)
    80002144:	18e4cc1b          	0x18e4cc1b

0000000080002148 <reg_x9_output>:
    80002148:	487c                	lw	a5,84(s0)
    8000214a:	bbd1                	j	80001f1e <fromhost+0xede>
    8000214c:	cf1e868f          	0xcf1e868f

0000000080002150 <reg_x10_output>:
    80002150:	3dd6                	fld	fs11,368(sp)
    80002152:	9605                	srai	a2,a2,0x21
    80002154:	97d911c7          	fmsub.q	ft3,fs2,ft9,fs2,rtz

0000000080002158 <reg_x11_output>:
    80002158:	2518                	fld	fa4,8(a0)
    8000215a:	be50                	fsd	fa2,184(a2)
    8000215c:	3610                	fld	fa2,40(a2)
    8000215e:	ac2e                	fsd	fa1,24(sp)

0000000080002160 <reg_x12_output>:
    80002160:	dacd                	beqz	a3,80002112 <reg_x2_output+0x2>
    80002162:	06b2                	slli	a3,a3,0xc
    80002164:	576e                	lw	a4,248(sp)
    80002166:	ff1e                	sd	t2,440(sp)

0000000080002168 <reg_x13_output>:
    80002168:	166a                	slli	a2,a2,0x3a
    8000216a:	fce9                	bnez	s1,80002144 <reg_x8_output+0x4>
    8000216c:	11d84b3b          	0x11d84b3b

0000000080002170 <reg_x14_output>:
    80002170:	2492                	fld	fs1,256(sp)
    80002172:	41d9                	li	gp,22
    80002174:	6c2e                	ld	s8,200(sp)
    80002176:	0bf4                	addi	a3,sp,476

0000000080002178 <reg_x15_output>:
    80002178:	5809c76f          	jal	a4,8009e6f8 <__global_pointer$+0x9b8e8>
    8000217c:	9121                	srli	a0,a0,0x28
    8000217e:	          	fmadd.s	fa3,fs6,fs4,fs6,unknown

0000000080002180 <reg_x16_output>:
    80002180:	5e7ab14b          	fnmsub.q	ft2,fs5,ft7,fa1,rup
    80002184:	b29a                	fsd	ft6,352(sp)
    80002186:	3982                	fld	fs3,32(sp)

0000000080002188 <reg_x17_output>:
    80002188:	cdd0                	sw	a2,28(a1)
    8000218a:	2654                	fld	fa3,136(a2)
    8000218c:	440ca3ef          	jal	t2,800cc5cc <__global_pointer$+0xc97bc>

0000000080002190 <reg_x18_output>:
    80002190:	e8a0                	sd	s0,80(s1)
    80002192:	4c90                	lw	a2,24(s1)
    80002194:	a066                	fsd	fs9,0(sp)
    80002196:	5ce6                	lw	s9,120(sp)

0000000080002198 <reg_x19_output>:
    80002198:	c41f 85af 59cc      	0x59cc85afc41f
    8000219e:	1bb5                	addi	s7,s7,-19

00000000800021a0 <reg_x20_output>:
    800021a0:	71a1                	lui	gp,0xfffe8
    800021a2:	055e4a5b          	0x55e4a5b
    800021a6:	027e                	slli	tp,tp,0x1f

00000000800021a8 <reg_x21_output>:
    800021a8:	4461                	li	s0,24
    800021aa:	18a2                	slli	a7,a7,0x28
    800021ac:	64ea                	ld	s1,152(sp)
    800021ae:	ee61                	bnez	a2,80002286 <test_memory+0x86>

00000000800021b0 <reg_x22_output>:
    800021b0:	079e1ae7          	0x79e1ae7
    800021b4:	4d9a                	lw	s11,132(sp)
    800021b6:	ce1a                	sw	t1,28(sp)

00000000800021b8 <reg_x23_output>:
    800021b8:	86cc                	0x86cc
    800021ba:	82d2434b          	fnmsub.d	ft6,ft4,fa3,fa6,rmm
    800021be:	7472                	ld	s0,312(sp)

00000000800021c0 <reg_x24_output>:
    800021c0:	a0f8                	fsd	fa4,192(s1)
    800021c2:	9812                	add	a6,a6,tp
    800021c4:	32f0                	fld	fa2,224(a3)
    800021c6:	70e9                	lui	ra,0xffffa

00000000800021c8 <reg_x25_output>:
    800021c8:	a8d1                	j	8000229c <test_memory+0x9c>
    800021ca:	c34c                	sw	a1,4(a4)
    800021cc:	cd02                	sw	zero,152(sp)
    800021ce:	          	0xf6f01ce7

00000000800021d0 <reg_x26_output>:
    800021d0:	f6f0                	sd	a2,232(a3)
    800021d2:	5ac5                	li	s5,-15
    800021d4:	c3b291ab          	0xc3b291ab

00000000800021d8 <reg_x27_output>:
    800021d8:	e05c                	sd	a5,128(s0)
    800021da:	c761                	beqz	a4,800022a2 <test_memory+0xa2>
    800021dc:	8e88febf  	0xad6ef55c8e88febf

00000000800021e0 <reg_x28_output>:
    800021e0:	f55c                	sd	a5,168(a0)
    800021e2:	ad6e                	fsd	fs11,152(sp)
    800021e4:	5478                	lw	a4,108(s0)
    800021e6:	b1d2                	fsd	fs4,224(sp)

00000000800021e8 <reg_x29_output>:
    800021e8:	1f59                	addi	t5,t5,-10
    800021ea:	c645                	beqz	a2,80002292 <test_memory+0x92>
    800021ec:	d71fc423          	0xd71fc423

00000000800021f0 <reg_x30_output>:
    800021f0:	9369                	srli	a4,a4,0x3a
    800021f2:	0b46                	slli	s6,s6,0x11
    800021f4:	aba9                	j	8000274e <_end+0x13e>
    800021f6:	8c50                	0x8c50

00000000800021f8 <reg_x31_output>:
    800021f8:	eb7a                	sd	t5,400(sp)
    800021fa:	5518                	lw	a4,40(a0)
    800021fc:	6679                	lui	a2,0x1e
    800021fe:	b60e                	fsd	ft3,296(sp)

0000000080002200 <test_memory>:
    80002200:	0e3d                	addi	t3,t3,15
    80002202:	e4c8                	sd	a0,136(s1)
    80002204:	0394                	addi	a3,sp,448
    80002206:	33ea                	fld	ft7,184(sp)
    80002208:	3c426e37          	lui	t3,0x3c426
    8000220c:	69ca                	ld	s3,144(sp)
    8000220e:	24b4                	fld	fa3,72(s1)
    80002210:	a2a4                	fsd	fs1,64(a3)
    80002212:	8341                	srli	a4,a4,0x10
    80002214:	1ffb6e5b          	0x1ffb6e5b
    80002218:	0116                	slli	sp,sp,0x5
    8000221a:	6286                	ld	t0,64(sp)
    8000221c:	efb6                	sd	a3,472(sp)
    8000221e:	9d06                	add	s10,s10,ra
    80002220:	fe84bcef          	jal	s9,7ff4da08 <_start-0xb25f8>
    80002224:	665f74d3          	0x665f74d3
    80002228:	ba2c                	fsd	fa1,112(a2)
    8000222a:	b9a9                	j	80001e84 <fromhost+0xe44>
    8000222c:	f385                	bnez	a5,8000214c <reg_x9_output+0x4>
    8000222e:	c318decb          	fnmsub.d	ft9,fa7,fa7,fs8,unknown
    80002232:	268e                	fld	fa3,192(sp)
    80002234:	889282bf ca15bce2 	0xca15bce2889282bf
    8000223c:	b381                	j	80001f7c <fromhost+0xf3c>
    8000223e:	a344                	fsd	fs1,128(a4)
    80002240:	dd2a                	sw	a0,184(sp)
    80002242:	24f1                	addiw	s1,s1,28
    80002244:	623c                	ld	a5,64(a2)
    80002246:	5c35                	li	s8,-19
    80002248:	52fc                	lw	a5,100(a3)
    8000224a:	7422                	ld	s0,40(sp)
    8000224c:	db7f                	0xdb7f
    8000224e:	ef04                	sd	s1,24(a4)
    80002250:	5fdf 0457 7a7f      	0x7a7f04575fdf
    80002256:	11d70b77          	0x11d70b77
    8000225a:	ea40                	sd	s0,144(a2)
    8000225c:	777944bb          	0x777944bb
    80002260:	bd8a                	fsd	ft2,248(sp)
    80002262:	c5c3a5eb          	0xc5c3a5eb
    80002266:	fc59                	bnez	s0,80002204 <test_memory+0x4>
    80002268:	8ff1                	and	a5,a5,a2
    8000226a:	3726                	fld	fa4,104(sp)
    8000226c:	e67a5eef          	jal	t4,7ffa80d2 <_start-0x57f2e>
    80002270:	7f1e2137          	lui	sp,0x7f1e2
    80002274:	b280                	fsd	fs0,32(a3)
    80002276:	b756                	fsd	fs5,424(sp)
    80002278:	6eae                	ld	t4,200(sp)
    8000227a:	0afa                	slli	s5,s5,0x1e
    8000227c:	969a                	add	a3,a3,t1
    8000227e:	18100773          	0x18100773
    80002282:	b41c                	fsd	fa5,40(s0)
    80002284:	63d8                	ld	a4,128(a5)
    80002286:	660a                	ld	a2,128(sp)
    80002288:	bc59                	j	80001d1e <fromhost+0xcde>
    8000228a:	4ca24223          	0x4ca24223
    8000228e:	086a                	slli	a6,a6,0x1a
    80002290:	ed01                	bnez	a0,800022a8 <test_memory+0xa8>
    80002292:	05585713          	0x5585713
    80002296:	ac3a                	fsd	fa4,24(sp)
    80002298:	f268                	sd	a0,224(a2)
    8000229a:	1c99                	addi	s9,s9,-26
    8000229c:	3321                	addiw	t1,t1,-24
    8000229e:	bac4                	fsd	fs1,176(a3)
    800022a0:	9a9f 37ce 25dd      	0x25dd37ce9a9f
    800022a6:	d850                	sw	a2,52(s0)
    800022a8:	6cfb1403          	lh	s0,1743(s6)
    800022ac:	237a                	fld	ft6,408(sp)
    800022ae:	fd56                	sd	s5,184(sp)
    800022b0:	7745                	lui	a4,0xffff1
    800022b2:	5cdc                	lw	a5,60(s1)
    800022b4:	4dd2                	lw	s11,20(sp)
    800022b6:	b0c74f4f          	fnmadd.s	ft10,fa4,fa2,fs6,rmm
    800022ba:	c1ade817          	auipc	a6,0xc1ade
    800022be:	6041                	c.lui	zero,0x10
    800022c0:	ff80                	sd	s0,56(a5)
    800022c2:	f59d                	bnez	a1,800021f0 <reg_x30_output>
    800022c4:	44a2                	lw	s1,8(sp)
    800022c6:	cfc6ba9b          	0xcfc6ba9b
    800022ca:	f7f5                	bnez	a5,800022b6 <test_memory+0xb6>
    800022cc:	80ec                	0x80ec
    800022ce:	64b9                	lui	s1,0xe
    800022d0:	62ac                	ld	a1,64(a3)
    800022d2:	f524                	sd	s1,104(a0)
    800022d4:	b96c                	fsd	fa1,240(a0)
    800022d6:	9f0c                	0x9f0c
    800022d8:	06d2                	slli	a3,a3,0x14
    800022da:	14e9                	addi	s1,s1,-6
    800022dc:	dd70                	sw	a2,124(a0)
    800022de:	b5de0c27          	0xb5de0c27
    800022e2:	42f5177b          	0x42f5177b
    800022e6:	5bca                	lw	s7,176(sp)
    800022e8:	3c7e41fb          	0x3c7e41fb
    800022ec:	df85                	beqz	a5,80002224 <test_memory+0x24>
    800022ee:	f10464af          	0xf10464af
    800022f2:	7faa                	ld	t6,168(sp)
    800022f4:	079ceadb          	0x79ceadb
    800022f8:	ff55                	bnez	a4,800022b4 <test_memory+0xb4>
    800022fa:	fcdd                	bnez	s1,800022b8 <test_memory+0xb8>
    800022fc:	3bea                	fld	fs7,184(sp)
    800022fe:	61ca                	ld	gp,144(sp)
    80002300:	72d41a4b          	fnmsub.d	fs4,fs0,fa3,fa4,rtz
    80002304:	b80e                	fsd	ft3,48(sp)
    80002306:	9c25                	addw	s0,s0,s1
    80002308:	02fe                	slli	t0,t0,0x1f
    8000230a:	0c30                	addi	a2,sp,536
    8000230c:	a55f 2823 43c0      	0x43c02823a55f
    80002312:	a6a1                	j	8000265a <_end+0x4a>
    80002314:	ec81                	bnez	s1,8000232c <test_memory+0x12c>
    80002316:	6abc                	ld	a5,80(a3)
    80002318:	c75e                	sw	s7,140(sp)
    8000231a:	237622b7          	lui	t0,0x23762
    8000231e:	6916                	ld	s2,320(sp)
    80002320:	3f39                	addiw	t5,t5,-18
    80002322:	bcd1                	j	80001df6 <fromhost+0xdb6>
    80002324:	ea1f fe1a 2db0      	0x2db0fe1aea1f
    8000232a:	ec11                	bnez	s0,80002346 <test_memory+0x146>
    8000232c:	82ac                	0x82ac
    8000232e:	f560                	sd	s0,232(a0)
    80002330:	2c76                	fld	fs8,344(sp)
    80002332:	9581                	srai	a1,a1,0x20
    80002334:	f2fd                	bnez	a3,8000231a <test_memory+0x11a>
    80002336:	8975                	andi	a0,a0,29
    80002338:	32c1                	addiw	t0,t0,-16
    8000233a:	4469                	li	s0,26
    8000233c:	31be                	fld	ft3,488(sp)
    8000233e:	1d5c                	addi	a5,sp,692
    80002340:	4582                	lw	a1,0(sp)
    80002342:	3bfe                	fld	fs7,504(sp)
    80002344:	38d0                	fld	fa2,176(s1)
    80002346:	abf888bf 20338206 	0x20338206abf888bf
    8000234e:	8d5f2823          	sw	s5,-1840(t5)
    80002352:	18bd                	addi	a7,a7,-17
    80002354:	ef9d                	bnez	a5,80002392 <test_memory+0x192>
    80002356:	a15c                	fsd	fa5,128(a0)
    80002358:	5096                	lw	ra,100(sp)
    8000235a:	72416e33          	0x72416e33
    8000235e:	581c                	lw	a5,48(s0)
    80002360:	44e1                	li	s1,24
    80002362:	6ccd                	lui	s9,0x13
    80002364:	57b5                	li	a5,-19
    80002366:	7e66                	ld	t3,120(sp)
    80002368:	933d                	srli	a4,a4,0x2f
    8000236a:	7ad5                	lui	s5,0xffff5
    8000236c:	e3801dcf          	fnmadd.d	fs11,ft0,fs8,ft8,rtz
    80002370:	49da                	lw	s3,148(sp)
    80002372:	b1ee                	fsd	fs11,224(sp)
    80002374:	f2e0                	sd	s0,224(a3)
    80002376:	da41                	beqz	a2,80002306 <test_memory+0x106>
    80002378:	0fb6                	slli	t6,t6,0xd
    8000237a:	2810                	fld	fa2,16(s0)
    8000237c:	c4d4                	sw	a3,12(s1)
    8000237e:	97ce                	add	a5,a5,s3
    80002380:	7cc1c477          	0x7cc1c477
    80002384:	58dc                	lw	a5,52(s1)
    80002386:	28d5                	addiw	a7,a7,21
    80002388:	90ee                	add	ra,ra,s11
    8000238a:	60e9e743          	fmadd.s	fa4,fs3,fa4,fa2,unknown
    8000238e:	c13c                	sw	a5,64(a0)
    80002390:	c6e9                	beqz	a3,8000245a <test_memory+0x25a>
    80002392:	be59                	j	80001f28 <fromhost+0xee8>
    80002394:	5f01                	li	t5,-32
    80002396:	1479                	addi	s0,s0,-2
    80002398:	f341                	bnez	a4,80002318 <test_memory+0x118>
    8000239a:	d31c                	sw	a5,32(a4)
    8000239c:	941d                	srai	s0,s0,0x27
    8000239e:	67e1                	lui	a5,0x18
    800023a0:	7641c347          	fmsub.q	ft6,ft3,ft4,fa4,rmm
    800023a4:	e3dc8747          	fmsub.d	fa4,fs9,ft9,ft8,rne
    800023a8:	66fa                	ld	a3,408(sp)
    800023aa:	8f28                	0x8f28
    800023ac:	b306                	fsd	ft1,416(sp)
    800023ae:	1d70                	addi	a2,sp,700
    800023b0:	fbb2                	sd	a2,496(sp)
    800023b2:	e7fd                	bnez	a5,800024a0 <test_memory+0x2a0>
    800023b4:	ea69                	bnez	a2,80002486 <test_memory+0x286>
    800023b6:	c328                	sw	a0,64(a4)
    800023b8:	d71a                	sw	t1,172(sp)
    800023ba:	dc1990f7          	0xdc1990f7
    800023be:	dc68                	sw	a0,124(s0)
    800023c0:	50b9                	li	ra,-18
    800023c2:	1169754f          	fnmadd.s	fa0,fs2,fs6,ft2
    800023c6:	1e62                	slli	t3,t3,0x38
    800023c8:	7858                	ld	a4,176(s0)
    800023ca:	0182                	c.slli64	gp
    800023cc:	b03d                	j	80001bfa <fromhost+0xbba>
    800023ce:	de92                	sw	tp,124(sp)
    800023d0:	11ff                	0x11ff
    800023d2:	72373b7b          	0x72373b7b
    800023d6:	c142                	sw	a6,128(sp)
    800023d8:	c469                	beqz	s0,800024a2 <test_memory+0x2a2>
    800023da:	80989b3f b51ba937 	0xb51ba93780989b3f
    800023e2:	43ac                	lw	a1,64(a5)
    800023e4:	83ac                	0x83ac
    800023e6:	65814127          	fsq	fs8,1602(sp) # 7f1e2642 <_start-0xe1d9be>
    800023ea:	38e0                	fld	fs0,240(s1)
    800023ec:	c33d05b3          	0xc33d05b3
    800023f0:	678196bf 7b169cbc 	0x7b169cbc678196bf
    800023f8:	d618                	sw	a4,40(a2)
    800023fa:	f3bdc5ab          	0xf3bdc5ab
    800023fe:	d95c                	sw	a5,52(a0)
    80002400:	492d2a1b          	0x492d2a1b
    80002404:	49d412eb          	0x49d412eb
    80002408:	b8f1                	j	80001ce4 <fromhost+0xca4>
    8000240a:	83b1                	srli	a5,a5,0xc
    8000240c:	0029                	c.nop	10
    8000240e:	5051                	c.li	zero,-12
    80002410:	dca63a83          	ld	s5,-566(a2) # 1ddca <_start-0x7ffe2236>
    80002414:	4bff                	0x4bff
    80002416:	59a9                	li	s3,-22
    80002418:	016a2d57          	0x16a2d57
    8000241c:	2c80                	fld	fs0,24(s1)
    8000241e:	1141                	addi	sp,sp,-16
    80002420:	234e                	fld	ft6,208(sp)
    80002422:	d334                	sw	a3,96(a4)
    80002424:	700db6f7          	0x700db6f7
    80002428:	a3a9                	j	80002972 <_end+0x362>
    8000242a:	0050                	addi	a2,sp,4
    8000242c:	6a71                	lui	s4,0x1c
    8000242e:	2201734b          	fnmsub.d	ft6,ft2,ft0,ft4
    80002432:	bebd                	j	80001fb0 <fromhost+0xf70>
    80002434:	e03c                	sd	a5,64(s0)
    80002436:	1831                	addi	a6,a6,-20
    80002438:	f619                	bnez	a2,80002346 <test_memory+0x146>
    8000243a:	1cb8                	addi	a4,sp,632
    8000243c:	92d8ed2b          	0x92d8ed2b
    80002440:	26ad                	addiw	a3,a3,11
    80002442:	54a5                	li	s1,-23
    80002444:	59ab1517          	auipc	a0,0x59ab1
    80002448:	c9b0                	sw	a2,80(a1)
    8000244a:	64d6                	ld	s1,336(sp)
    8000244c:	bbee                	fsd	fs11,496(sp)
    8000244e:	cde6                	sw	s9,216(sp)
    80002450:	c695                	beqz	a3,8000247c <test_memory+0x27c>
    80002452:	db1e                	sw	t2,180(sp)
    80002454:	4a61                	li	s4,24
    80002456:	8f71                	and	a4,a4,a2
    80002458:	7b94                	ld	a3,48(a5)
    8000245a:	59dea5eb          	0x59dea5eb
    8000245e:	f0ac                	sd	a1,96(s1)
    80002460:	65c63513          	sltiu	a0,a2,1628
    80002464:	3a81                	addiw	s5,s5,-32
    80002466:	3a48                	fld	fa0,176(a2)
    80002468:	1e8d                	addi	t4,t4,-29
    8000246a:	971bfb0f          	0x971bfb0f
    8000246e:	6964                	ld	s1,208(a0)
    80002470:	217866bb          	0x217866bb
    80002474:	ee92                	sd	tp,344(sp)
    80002476:	4cc58dc7          	0x4cc58dc7
    8000247a:	cd4d                	beqz	a0,80002534 <test_memory+0x334>
    8000247c:	df0e                	sw	gp,188(sp)
    8000247e:	79a9                	lui	s3,0xfffea
    80002480:	c2c0                	sw	s0,4(a3)
    80002482:	f9d6                	sd	s5,240(sp)
    80002484:	26e2                	fld	fa3,24(sp)
    80002486:	b9c8                	fsd	fa0,176(a1)
    80002488:	b116d1cf          	fnmadd.s	ft3,fa3,fa7,fs6,unknown
    8000248c:	9806                	add	a6,a6,ra
    8000248e:	4118                	lw	a4,0(a0)
    80002490:	0696                	slli	a3,a3,0x5
    80002492:	6f0a                	ld	t5,128(sp)
    80002494:	863556a3          	0x863556a3
    80002498:	70ea                	ld	ra,184(sp)
    8000249a:	5d95                	li	s11,-27
    8000249c:	6804                	ld	s1,16(s0)
    8000249e:	ecff                	0xecff
    800024a0:	3fd9                	addiw	t6,t6,-10
    800024a2:	765d                	lui	a2,0xffff7
    800024a4:	26dc                	fld	fa5,136(a3)
    800024a6:	a48d                	j	80002708 <_end+0xf8>
    800024a8:	4b85                	li	s7,1
    800024aa:	df7f                	0xdf7f
    800024ac:	72d1                	lui	t0,0xffff4
    800024ae:	ad0e                	fsd	ft3,152(sp)
    800024b0:	006d                	c.nop	27
    800024b2:	d674                	sw	a3,108(a2)
    800024b4:	b49f 3bab ac06      	0xac063babb49f
    800024ba:	e55866db          	0xe55866db
    800024be:	30e5f273          	csrrci	tp,0x30e,11
    800024c2:	166d                	addi	a2,a2,-5
    800024c4:	fe82                	sd	zero,376(sp)
    800024c6:	3771                	addiw	a4,a4,-4
    800024c8:	38c6                	fld	fa7,112(sp)
    800024ca:	6230ee03          	lwu	t3,1571(ra) # ffffffffffffa623 <__global_pointer$+0xffffffff7fff7813>
    800024ce:	36e5                	addiw	a3,a3,-7
    800024d0:	2528                	fld	fa0,72(a0)
    800024d2:	f076                	sd	t4,32(sp)
    800024d4:	11613547          	fmsub.s	fa0,ft2,fs6,ft2,rup
    800024d8:	d360                	sw	s0,100(a4)
    800024da:	0441                	addi	s0,s0,16
    800024dc:	28fb237b          	0x28fb237b
    800024e0:	d751                	beqz	a4,8000246c <test_memory+0x26c>
    800024e2:	e3de4a67          	0xe3de4a67
    800024e6:	50cd                	li	ra,-13
    800024e8:	5020a82b          	0x5020a82b
    800024ec:	cc3ae5ef          	jal	a1,7ffb11ae <_start-0x4ee52>
    800024f0:	2c426cd7          	0x2c426cd7
    800024f4:	228c                	fld	fa1,0(a3)
    800024f6:	5409                	li	s0,-30
    800024f8:	3204                	fld	fs1,32(a2)
    800024fa:	f131b8c3          	fmadd.s	fa7,ft3,fs3,ft10,rup
    800024fe:	5a7d                	li	s4,-1
    80002500:	69ed                	lui	s3,0x1b
    80002502:	92f9                	srli	a3,a3,0x3e
    80002504:	496a                	lw	s2,152(sp)
    80002506:	ef0d                	bnez	a4,80002540 <test_memory+0x340>
    80002508:	3650                	fld	fa2,168(a2)
    8000250a:	6b2a                	ld	s6,136(sp)
    8000250c:	d16a                	sw	s10,160(sp)
    8000250e:	933e                	add	t1,t1,a5
    80002510:	8845372b          	0x8845372b
    80002514:	a31ed613          	0xa31ed613
    80002518:	fd40                	sd	s0,184(a0)
    8000251a:	96133bdb          	0x96133bdb
    8000251e:	8910                	0x8910
    80002520:	dd6e                	sw	s11,184(sp)
    80002522:	ac54                	fsd	fa3,152(s0)
    80002524:	789a                	ld	a7,416(sp)
    80002526:	2ca9                	addiw	s9,s9,10
    80002528:	d7a14a57          	0xd7a14a57
    8000252c:	aa11                	j	80002640 <_end+0x30>
    8000252e:	df4a                	sw	s2,188(sp)
    80002530:	96851bfb          	0x96851bfb
    80002534:	7bba                	ld	s7,424(sp)
    80002536:	9cac                	0x9cac
    80002538:	d929                	beqz	a0,8000248a <test_memory+0x28a>
    8000253a:	32fa                	fld	ft5,440(sp)
    8000253c:	9909                	andi	a0,a0,-30
    8000253e:	1711                	addi	a4,a4,-28
    80002540:	3cea                	fld	fs9,184(sp)
    80002542:	bcf0                	fsd	fa2,248(s1)
    80002544:	fc51                	bnez	s0,800024e0 <test_memory+0x2e0>
    80002546:	5888                	lw	a0,48(s1)
    80002548:	6264                	ld	s1,192(a2)
    8000254a:	55ed17eb          	0x55ed17eb
    8000254e:	e496                	sd	t0,72(sp)
    80002550:	4bc1                	li	s7,16
    80002552:	31fc                	fld	fa5,224(a1)
    80002554:	1137a40f          	0x1137a40f
    80002558:	6d14                	ld	a3,24(a0)
    8000255a:	40ee                	lw	ra,216(sp)
    8000255c:	d6d6                	sw	s5,108(sp)
    8000255e:	40ea                	lw	ra,152(sp)
    80002560:	925f a143 db68      	0xdb68a143925f
    80002566:	e112                	sd	tp,128(sp)
    80002568:	7022                	0x7022
    8000256a:	4eb4                	lw	a3,88(a3)
    8000256c:	1a16                	slli	s4,s4,0x25
    8000256e:	d364                	sw	s1,100(a4)
    80002570:	d48d801b          	addiw	zero,s11,-696
    80002574:	a6d1                	j	80002938 <_end+0x328>
    80002576:	50bd                	li	ra,-17
    80002578:	081d                	addi	a6,a6,7
    8000257a:	08c1                	addi	a7,a7,16
    8000257c:	e88c                	sd	a1,16(s1)
    8000257e:	7c6e                	ld	s8,248(sp)
    80002580:	5f2c                	lw	a1,120(a4)
    80002582:	5c4c                	lw	a1,60(s0)
    80002584:	a32c                	fsd	fa1,64(a4)
    80002586:	877e                	mv	a4,t6
    80002588:	453c                	lw	a5,72(a0)
    8000258a:	b790                	fsd	fa2,40(a5)
    8000258c:	e938                	sd	a4,80(a0)
    8000258e:	f43d                	bnez	s0,800024fc <test_memory+0x2fc>
    80002590:	7c4a                	ld	s8,176(sp)
    80002592:	0f76                	slli	t5,t5,0x1d
    80002594:	d57c                	sw	a5,108(a0)
    80002596:	94e9                	srai	s1,s1,0x3a
    80002598:	3db455a3          	0x3db455a3
    8000259c:	170cda13          	0x170cda13
    800025a0:	a495                	j	80002804 <_end+0x1f4>
    800025a2:	41dc2ad7          	0x41dc2ad7
    800025a6:	0fe5b82b          	0xfe5b82b
    800025aa:	a4ad                	j	80002814 <_end+0x204>
    800025ac:	0218                	addi	a4,sp,256
    800025ae:	381e                	fld	fa6,480(sp)
    800025b0:	1db6                	slli	s11,s11,0x2d
    800025b2:	4262                	lw	tp,24(sp)
    800025b4:	7db6                	ld	s11,360(sp)
    800025b6:	21ca27ef          	jal	a5,800a47d2 <__global_pointer$+0xa19c2>
    800025ba:	30a69e4f          	fnmadd.s	ft8,fa3,fa0,ft6,rtz
    800025be:	9954                	0x9954
    800025c0:	b5d47c43          	0xb5d47c43
    800025c4:	b12d                	j	800021ee <reg_x29_output+0x6>
    800025c6:	f406                	sd	ra,40(sp)
    800025c8:	e751                	bnez	a4,80002654 <_end+0x44>
    800025ca:	8ca8                	0x8ca8
    800025cc:	de0a                	sw	sp,60(sp)
    800025ce:	709c                	ld	a5,32(s1)
    800025d0:	4f7bfc67          	0x4f7bfc67
    800025d4:	bbe0                	fsd	fs0,240(a5)
    800025d6:	aab1                	j	80002732 <_end+0x122>
    800025d8:	c4af2df7          	0xc4af2df7
    800025dc:	4156                	lw	sp,84(sp)
    800025de:	40c20b83          	lb	s7,1036(tp) # fffffffffffe640c <__global_pointer$+0xffffffff7ffe35fc>
    800025e2:	6631                	lui	a2,0xc
    800025e4:	ee5070cb          	fnmsub.q	ft1,ft0,ft5,ft9
    800025e8:	6839                	lui	a6,0xe
    800025ea:	43dc                	lw	a5,4(a5)
    800025ec:	6f78                	ld	a4,216(a4)
    800025ee:	0d7e                	slli	s10,s10,0x1f
    800025f0:	9b8e                	add	s7,s7,gp
    800025f2:	1d8bb527          	fsd	fs8,458(s7)
    800025f6:	1558c823          	0x1558c823
    800025fa:	0a91                	addi	s5,s5,4
    800025fc:	3419d787          	0x3419d787

0000000080002600 <loop_count>:
    80002600:	0040                	addi	s0,sp,4
	...

Disassembly of section .riscv.attributes:

0000000000000000 <.riscv.attributes>:
   0:	1e41                	addi	t3,t3,-16
   2:	0000                	unimp
   4:	7200                	ld	s0,32(a2)
   6:	7369                	lui	t1,0xffffa
   8:	01007663          	bgeu	zero,a6,14 <_start-0x7fffffec>
   c:	0014                	0x14
   e:	0000                	unimp
  10:	7205                	lui	tp,0xfffe1
  12:	3676                	fld	fa2,376(sp)
  14:	6934                	ld	a3,80(a0)
  16:	7032                	0x7032
  18:	5f30                	lw	a2,120(a4)
  1a:	326d                	addiw	tp,tp,-5
  1c:	3070                	fld	fa2,224(s0)
	...
