
build/test29:     file format elf64-littleriscv


Disassembly of section .text.init:

0000000080000000 <_start>:
    80000000:	05c0006f          	j	8000005c <reset_vector>

0000000080000004 <trap_vector>:
    80000004:	34202f73          	csrr	t5,mcause
    80000008:	00800f93          	li	t6,8
    8000000c:	03ff0a63          	beq	t5,t6,80000040 <write_tohost>
    80000010:	00900f93          	li	t6,9
    80000014:	03ff0663          	beq	t5,t6,80000040 <write_tohost>
    80000018:	00b00f93          	li	t6,11
    8000001c:	03ff0263          	beq	t5,t6,80000040 <write_tohost>
    80000020:	80000f17          	auipc	t5,0x80000
    80000024:	fe0f0f13          	addi	t5,t5,-32 # 0 <_start-0x80000000>
    80000028:	000f0463          	beqz	t5,80000030 <trap_vector+0x2c>
    8000002c:	000f0067          	jr	t5
    80000030:	34202f73          	csrr	t5,mcause
    80000034:	000f5463          	bgez	t5,8000003c <handle_exception>
    80000038:	0040006f          	j	8000003c <handle_exception>

000000008000003c <handle_exception>:
    8000003c:	5391e193          	ori	gp,gp,1337

0000000080000040 <write_tohost>:
    80000040:	00001f17          	auipc	t5,0x1
    80000044:	fc3f2023          	sw	gp,-64(t5) # 80001000 <tohost>
    80000048:	000902b7          	lui	t0,0x90
    8000004c:	0012829b          	addiw	t0,t0,1
    80000050:	00c29293          	slli	t0,t0,0xc
    80000054:	0002af83          	lw	t6,0(t0) # 90000 <_start-0x7ff70000>
    80000058:	fe9ff06f          	j	80000040 <write_tohost>

000000008000005c <reset_vector>:
    8000005c:	00000093          	li	ra,0
    80000060:	00000113          	li	sp,0
    80000064:	00000193          	li	gp,0
    80000068:	00000213          	li	tp,0
    8000006c:	00000293          	li	t0,0
    80000070:	00000313          	li	t1,0
    80000074:	00000393          	li	t2,0
    80000078:	00000413          	li	s0,0
    8000007c:	00000493          	li	s1,0
    80000080:	00000513          	li	a0,0
    80000084:	00000593          	li	a1,0
    80000088:	00000613          	li	a2,0
    8000008c:	00000693          	li	a3,0
    80000090:	00000713          	li	a4,0
    80000094:	00000793          	li	a5,0
    80000098:	00000813          	li	a6,0
    8000009c:	00000893          	li	a7,0
    800000a0:	00000913          	li	s2,0
    800000a4:	00000993          	li	s3,0
    800000a8:	00000a13          	li	s4,0
    800000ac:	00000a93          	li	s5,0
    800000b0:	00000b13          	li	s6,0
    800000b4:	00000b93          	li	s7,0
    800000b8:	00000c13          	li	s8,0
    800000bc:	00000c93          	li	s9,0
    800000c0:	00000d13          	li	s10,0
    800000c4:	00000d93          	li	s11,0
    800000c8:	00000e13          	li	t3,0
    800000cc:	00000e93          	li	t4,0
    800000d0:	00000f13          	li	t5,0
    800000d4:	00000f93          	li	t6,0
    800000d8:	f1402573          	csrr	a0,mhartid
    800000dc:	00051063          	bnez	a0,800000dc <reset_vector+0x80>
    800000e0:	00000297          	auipc	t0,0x0
    800000e4:	01028293          	addi	t0,t0,16 # 800000f0 <reset_vector+0x94>
    800000e8:	30529073          	csrw	mtvec,t0
    800000ec:	18005073          	csrwi	satp,0
    800000f0:	00000297          	auipc	t0,0x0
    800000f4:	02428293          	addi	t0,t0,36 # 80000114 <reset_vector+0xb8>
    800000f8:	30529073          	csrw	mtvec,t0
    800000fc:	0010029b          	addiw	t0,zero,1
    80000100:	03529293          	slli	t0,t0,0x35
    80000104:	fff28293          	addi	t0,t0,-1
    80000108:	3b029073          	csrw	pmpaddr0,t0
    8000010c:	01f00293          	li	t0,31
    80000110:	3a029073          	csrw	pmpcfg0,t0
    80000114:	30405073          	csrwi	mie,0
    80000118:	00000297          	auipc	t0,0x0
    8000011c:	01428293          	addi	t0,t0,20 # 8000012c <reset_vector+0xd0>
    80000120:	30529073          	csrw	mtvec,t0
    80000124:	30205073          	csrwi	medeleg,0
    80000128:	30305073          	csrwi	mideleg,0
    8000012c:	00000193          	li	gp,0
    80000130:	00000297          	auipc	t0,0x0
    80000134:	ed428293          	addi	t0,t0,-300 # 80000004 <trap_vector>
    80000138:	30529073          	csrw	mtvec,t0
    8000013c:	00100513          	li	a0,1
    80000140:	01f51513          	slli	a0,a0,0x1f
    80000144:	00055c63          	bgez	a0,8000015c <reset_vector+0x100>
    80000148:	0ff0000f          	fence
    8000014c:	00100193          	li	gp,1
    80000150:	05d00893          	li	a7,93
    80000154:	00000513          	li	a0,0
    80000158:	00000073          	ecall
    8000015c:	80000297          	auipc	t0,0x80000
    80000160:	ea428293          	addi	t0,t0,-348 # 0 <_start-0x80000000>
    80000164:	00028a63          	beqz	t0,80000178 <reset_vector+0x11c>
    80000168:	10529073          	csrw	stvec,t0
    8000016c:	0000b2b7          	lui	t0,0xb
    80000170:	1092829b          	addiw	t0,t0,265
    80000174:	30229073          	csrw	medeleg,t0
    80000178:	30005073          	csrwi	mstatus,0
    8000017c:	00000297          	auipc	t0,0x0
    80000180:	01428293          	addi	t0,t0,20 # 80000190 <reset_vector+0x134>
    80000184:	34129073          	csrw	mepc,t0
    80000188:	f1402573          	csrr	a0,mhartid
    8000018c:	30200073          	mret
    80000190:	0200006f          	j	800001b0 <test_start>

0000000080000194 <crash_backward>:
    80000194:	0ff0000f          	fence
    80000198:	00018063          	beqz	gp,80000198 <crash_backward+0x4>
    8000019c:	00119193          	slli	gp,gp,0x1
    800001a0:	0011e193          	ori	gp,gp,1
    800001a4:	05d00893          	li	a7,93
    800001a8:	00018513          	mv	a0,gp
    800001ac:	00000073          	ecall

00000000800001b0 <test_start>:
    800001b0:	00002f97          	auipc	t6,0x2
    800001b4:	e50f8f93          	addi	t6,t6,-432 # 80002000 <hidden_data>
    800001b8:	000fb003          	ld	zero,0(t6)
    800001bc:	008fb083          	ld	ra,8(t6)
    800001c0:	010fb103          	ld	sp,16(t6)
    800001c4:	018fb183          	ld	gp,24(t6)
    800001c8:	020fb203          	ld	tp,32(t6)
    800001cc:	028fb283          	ld	t0,40(t6)
    800001d0:	030fb303          	ld	t1,48(t6)
    800001d4:	038fb383          	ld	t2,56(t6)
    800001d8:	040fb403          	ld	s0,64(t6)
    800001dc:	048fb483          	ld	s1,72(t6)
    800001e0:	050fb503          	ld	a0,80(t6)
    800001e4:	058fb583          	ld	a1,88(t6)
    800001e8:	060fb603          	ld	a2,96(t6)
    800001ec:	068fb683          	ld	a3,104(t6)
    800001f0:	070fb703          	ld	a4,112(t6)
    800001f4:	078fb783          	ld	a5,120(t6)
    800001f8:	080fb803          	ld	a6,128(t6)
    800001fc:	088fb883          	ld	a7,136(t6)
    80000200:	090fb903          	ld	s2,144(t6)
    80000204:	098fb983          	ld	s3,152(t6)
    80000208:	0a0fba03          	ld	s4,160(t6)
    8000020c:	0a8fba83          	ld	s5,168(t6)
    80000210:	0b0fbb03          	ld	s6,176(t6)
    80000214:	0b8fbb83          	ld	s7,184(t6)
    80000218:	0c0fbc03          	ld	s8,192(t6)
    8000021c:	0c8fbc83          	ld	s9,200(t6)
    80000220:	0d0fbd03          	ld	s10,208(t6)
    80000224:	0d8fbd83          	ld	s11,216(t6)
    80000228:	0e0fbe03          	ld	t3,224(t6)
    8000022c:	0e8fbe83          	ld	t4,232(t6)
    80000230:	0f0fbf03          	ld	t5,240(t6)
    80000234:	0f8fbf83          	ld	t6,248(t6)
    80000238:	0040006f          	j	8000023c <pseg_0>

000000008000023c <pseg_0>:
    8000023c:	015b50bb          	srlw	ra,s6,s5
    80000240:	02747333          	remu	t1,s0,t2
    80000244:	41ad5abb          	sraw	s5,s10,s10
    80000248:	00002517          	auipc	a0,0x2
    8000024c:	31650513          	addi	a0,a0,790 # 8000255e <test_memory+0x35e>
    80000250:	31300d93          	li	s11,787
    80000254:	f40060e3          	bltu	zero,zero,80000194 <crash_backward>
    80000258:	035ad6bb          	divuw	a3,s5,s5
    8000025c:	74400293          	li	t0,1860
    80000260:	007f1cb3          	sll	s9,t5,t2
    80000264:	00002097          	auipc	ra,0x2
    80000268:	36a08093          	addi	ra,ra,874 # 800025ce <test_memory+0x3ce>
    8000026c:	00100913          	li	s2,1
    80000270:	fa20aa83          	lw	s5,-94(ra)
    80000274:	564b3b13          	sltiu	s6,s6,1380
    80000278:	71000213          	li	tp,1808
    8000027c:	03f91913          	slli	s2,s2,0x3f
    80000280:	c6400793          	li	a5,-924
    80000284:	0204a833          	mulhsu	a6,s1,zero
    80000288:	40fdd1bb          	sraw	gp,s11,a5
    8000028c:	00003697          	auipc	a3,0x3
    80000290:	80a68693          	addi	a3,a3,-2038 # 80002a96 <_end+0x486>
    80000294:	00002617          	auipc	a2,0x2
    80000298:	9c160613          	addi	a2,a2,-1599 # 80001c55 <fromhost+0xc15>
    8000029c:	d0600e93          	li	t4,-762
    800002a0:	079507a3          	sb	s9,111(a0)
    800002a4:	6b000a13          	li	s4,1712
    800002a8:	00002a97          	auipc	s5,0x2
    800002ac:	626a8a93          	addi	s5,s5,1574 # 800028ce <_end+0x2be>
    800002b0:	db100413          	li	s0,-591
    800002b4:	034a43bb          	divw	t2,s4,s4
    800002b8:	00318fb3          	add	t6,gp,gp
    800002bc:	89969c23          	sh	s9,-1896(a3)
    800002c0:	03decbb3          	div	s7,t4,t4
    800002c4:	b3facb03          	lbu	s6,-1217(s5)
    800002c8:	29b00093          	li	ra,667
    800002cc:	fff00113          	li	sp,-1
    800002d0:	020065b3          	rem	a1,zero,zero
    800002d4:	025284b3          	mul	s1,t0,t0
    800002d8:	6a762da3          	sw	t2,1723(a2)
    800002dc:	39400313          	li	t1,916
    800002e0:	08400c13          	li	s8,132
    800002e4:	00608cbb          	addw	s9,ra,t1
    800002e8:	0078d71b          	srliw	a4,a7,0x7
    800002ec:	0be00d13          	li	s10,190
    800002f0:	03826f33          	rem	t5,tp,s8
    800002f4:	01a418bb          	sllw	a7,s0,s10
    800002f8:	01214133          	xor	sp,sp,s2
    800002fc:	002d7e33          	and	t3,s10,sp
    80000300:	012e69b3          	or	s3,t3,s2
    80000304:	02f55b33          	divu	s6,a0,a5
    80000308:	c9900793          	li	a5,-871
    8000030c:	b5100c93          	li	s9,-1199
    80000310:	1d700093          	li	ra,471
    80000314:	039cea3b          	remw	s4,s9,s9
    80000318:	00100493          	li	s1,1
    8000031c:	d8700f13          	li	t5,-633
    80000320:	46100e93          	li	t4,1121
    80000324:	00058313          	mv	t1,a1
    80000328:	01df173b          	sllw	a4,t5,t4
    8000032c:	69400693          	li	a3,1684
    80000330:	72e00413          	li	s0,1838
    80000334:	00002397          	auipc	t2,0x2
    80000338:	4de38393          	addi	t2,t2,1246 # 80002812 <_end+0x202>
    8000033c:	fbf00a93          	li	s5,-65
    80000340:	02f782bb          	mulw	t0,a5,a5
    80000344:	a4a34113          	xori	sp,t1,-1462
    80000348:	0286e23b          	remw	tp,a3,s0
    8000034c:	00002c17          	auipc	s8,0x2
    80000350:	86bc0c13          	addi	s8,s8,-1941 # 80001bb7 <fromhost+0xb77>
    80000354:	ddf00513          	li	a0,-545
    80000358:	66808b93          	addi	s7,ra,1640
    8000035c:	00aaa933          	slt	s2,s5,a0
    80000360:	e5e00893          	li	a7,-418
    80000364:	013d5e33          	srl	t3,s10,s3
    80000368:	0318dfbb          	divuw	t6,a7,a7
    8000036c:	00030613          	mv	a2,t1
    80000370:	036f69bb          	remw	s3,t5,s6
    80000374:	029b5813          	srli	a6,s6,0x29
    80000378:	03f49493          	slli	s1,s1,0x3f
    8000037c:	fff00193          	li	gp,-1
    80000380:	b7e3a583          	lw	a1,-1154(t2)
    80000384:	7c4c3ca3          	sd	tp,2009(s8)
    80000388:	0091c1b3          	xor	gp,gp,s1
    8000038c:	00397d33          	and	s10,s2,gp
    80000390:	009d6db3          	or	s11,s10,s1
    80000394:	0231c2b3          	div	t0,gp,gp
    80000398:	00100a13          	li	s4,1
    8000039c:	96f00993          	li	s3,-1681
    800003a0:	fd400913          	li	s2,-44
    800003a4:	6f800c93          	li	s9,1784
    800003a8:	00002317          	auipc	t1,0x2
    800003ac:	24930313          	addi	t1,t1,585 # 800025f1 <test_memory+0x3f1>
    800003b0:	00002417          	auipc	s0,0x2
    800003b4:	0df40413          	addi	s0,s0,223 # 8000248f <test_memory+0x28f>
    800003b8:	17f412a3          	sh	t6,357(s0)
    800003bc:	0d200613          	li	a2,210
    800003c0:	00100893          	li	a7,1
    800003c4:	88000e13          	li	t3,-1920
    800003c8:	0339cebb          	divw	t4,s3,s3
    800003cc:	00100093          	li	ra,1
    800003d0:	00c984b3          	add	s1,s3,a2
    800003d4:	4179df9b          	sraiw	t6,s3,0x17
    800003d8:	01ce5d33          	srl	s10,t3,t3
    800003dc:	03fa1a13          	slli	s4,s4,0x3f
    800003e0:	0399783b          	remuw	a6,s2,s9
    800003e4:	86200613          	li	a2,-1950
    800003e8:	03f09093          	slli	ra,ra,0x3f
    800003ec:	db400993          	li	s3,-588
    800003f0:	fff00b13          	li	s6,-1
    800003f4:	c6736783          	lwu	a5,-921(t1)
    800003f8:	fff00693          	li	a3,-1
    800003fc:	91e00913          	li	s2,-1762
    80000400:	03f89893          	slli	a7,a7,0x3f
    80000404:	001b4b33          	xor	s6,s6,ra
    80000408:	0139ceb3          	xor	t4,s3,s3
    8000040c:	8d800f93          	li	t6,-1832
    80000410:	0031b433          	sltu	s0,gp,gp
    80000414:	40845cb3          	sra	s9,s0,s0
    80000418:	03f674b3          	remu	s1,a2,t6
    8000041c:	03ce31b3          	mulhu	gp,t3,t3
    80000420:	1d000793          	li	a5,464
    80000424:	fff00293          	li	t0,-1
    80000428:	d212b813          	sltiu	a6,t0,-735
    8000042c:	aa800f13          	li	t5,-1368
    80000430:	c9000593          	li	a1,-880
    80000434:	0160f733          	and	a4,ra,s6
    80000438:	00126bb3          	or	s7,tp,ra
    8000043c:	00bf6c33          	or	s8,t5,a1
    80000440:	03294d3b          	divw	s10,s2,s2
    80000444:	23000613          	li	a2,560
    80000448:	2e578313          	addi	t1,a5,741
    8000044c:	3f800f93          	li	t6,1016
    80000450:	adf00913          	li	s2,-1313
    80000454:	5d500d93          	li	s11,1493
    80000458:	0146c6b3          	xor	a3,a3,s4
    8000045c:	00002e97          	auipc	t4,0x2
    80000460:	9dce8e93          	addi	t4,t4,-1572 # 80001e38 <fromhost+0xdf8>
    80000464:	ab100c93          	li	s9,-1359
    80000468:	01bdd3bb          	srlw	t2,s11,s11
    8000046c:	467ec183          	lbu	gp,1127(t4)
    80000470:	79d22d13          	slti	s10,tp,1949
    80000474:	00002817          	auipc	a6,0x2
    80000478:	2fa80813          	addi	a6,a6,762 # 8000276e <_end+0x15e>
    8000047c:	ac4800a3          	sb	tp,-1343(a6)
    80000480:	8301bd13          	sltiu	s10,gp,-2000
    80000484:	d17778e3          	bgeu	a4,s7,80000194 <crash_backward>
    80000488:	03fffebb          	remuw	t4,t6,t6
    8000048c:	0112c2b3          	xor	t0,t0,a7
    80000490:	019cddb3          	srl	s11,s9,s9
    80000494:	d3800193          	li	gp,-712
    80000498:	93000413          	li	s0,-1744
    8000049c:	005dfab3          	and	s5,s11,t0
    800004a0:	008f9c3b          	sllw	s8,t6,s0
    800004a4:	019614bb          	sllw	s1,a2,s9
    800004a8:	011ae133          	or	sp,s5,a7
    800004ac:	03290f3b          	mulw	t5,s2,s2
    800004b0:	03fffb33          	remu	s6,t6,t6
    800004b4:	542ace63          	blt	s5,sp,80000a10 <crash_forward>
    800004b8:	24000c93          	li	s9,576
    800004bc:	a7f18393          	addi	t2,gp,-1409 # 8000288f <_end+0x27f>
    800004c0:	06800c13          	li	s8,104
    800004c4:	01eb07b3          	add	a5,s6,t5
    800004c8:	fdb00313          	li	t1,-37
    800004cc:	00100493          	li	s1,1
    800004d0:	22e00f93          	li	t6,558
    800004d4:	03f49493          	slli	s1,s1,0x3f
    800004d8:	dc600b13          	li	s6,-570
    800004dc:	00d17533          	and	a0,sp,a3
    800004e0:	551f8093          	addi	ra,t6,1361
    800004e4:	036b47bb          	divw	a5,s6,s6
    800004e8:	ca1f86e3          	beq	t6,ra,80000194 <crash_backward>
    800004ec:	01ff9833          	sll	a6,t6,t6
    800004f0:	00030d93          	mv	s11,t1
    800004f4:	a1c00e13          	li	t3,-1508
    800004f8:	000d8e93          	mv	t4,s11
    800004fc:	0148e233          	or	tp,a7,s4
    80000500:	00be92bb          	sllw	t0,t4,a1
    80000504:	50450663          	beq	a0,tp,80000a10 <crash_forward>
    80000508:	63600593          	li	a1,1590
    8000050c:	40be59bb          	sraw	s3,t3,a1
    80000510:	018c173b          	sllw	a4,s8,s8
    80000514:	00100993          	li	s3,1
    80000518:	6ad00113          	li	sp,1709
    8000051c:	43400a93          	li	s5,1076
    80000520:	fff00613          	li	a2,-1
    80000524:	00100813          	li	a6,1
    80000528:	006cbf33          	sltu	t5,s9,t1
    8000052c:	00210533          	add	a0,sp,sp
    80000530:	00964633          	xor	a2,a2,s1
    80000534:	035158bb          	divuw	a7,sp,s5
    80000538:	4dddec63          	bltu	s11,t4,80000a10 <crash_forward>
    8000053c:	03f81813          	slli	a6,a6,0x3f
    80000540:	fff00f93          	li	t6,-1
    80000544:	03f99993          	slli	s3,s3,0x3f
    80000548:	3f700413          	li	s0,1015
    8000054c:	010fcfb3          	xor	t6,t6,a6
    80000550:	01ff70b3          	and	ra,t5,t6
    80000554:	02a48b3b          	mulw	s6,s1,a0
    80000558:	fff00213          	li	tp,-1
    8000055c:	58c40913          	addi	s2,s0,1420
    80000560:	4a896863          	bltu	s2,s0,80000a10 <crash_forward>
    80000564:	0100ea33          	or	s4,ra,a6
    80000568:	01324233          	xor	tp,tp,s3
    8000056c:	16b48913          	addi	s2,s1,363
    80000570:	56100d93          	li	s11,1377
    80000574:	00002c97          	auipc	s9,0x2
    80000578:	850c8c93          	addi	s9,s9,-1968 # 80001dc4 <fromhost+0xd84>
    8000057c:	00002117          	auipc	sp,0x2
    80000580:	13b10113          	addi	sp,sp,315 # 800026b7 <_end+0xa7>
    80000584:	0047f6b3          	and	a3,a5,tp
    80000588:	00002a97          	auipc	s5,0x2
    8000058c:	283a8a93          	addi	s5,s5,643 # 8000280b <_end+0x1fb>
    80000590:	ca0aaaa3          	sw	zero,-843(s5)
    80000594:	75acde83          	lhu	t4,1882(s9)
    80000598:	79300193          	li	gp,1939
    8000059c:	94000513          	li	a0,-1728
    800005a0:	01d785b3          	add	a1,a5,t4
    800005a4:	1a418c13          	addi	s8,gp,420 # 80002fb4 <__global_pointer$+0x1a4>
    800005a8:	ed811ca3          	sh	s8,-295(sp)
    800005ac:	00c47d33          	and	s10,s0,a2
    800005b0:	4781f063          	bgeu	gp,s8,80000a10 <crash_forward>
    800005b4:	ff000413          	li	s0,-16
    800005b8:	8a600793          	li	a5,-1882
    800005bc:	6c300a13          	li	s4,1731
    800005c0:	b0300f13          	li	t5,-1277
    800005c4:	009d6bb3          	or	s7,s10,s1
    800005c8:	00002197          	auipc	gp,0x2
    800005cc:	36418193          	addi	gp,gp,868 # 8000292c <_end+0x31c>
    800005d0:	0136ee33          	or	t3,a3,s3
    800005d4:	01ce75b3          	and	a1,t3,t3
    800005d8:	8ac50313          	addi	t1,a0,-1876
    800005dc:	00fd98bb          	sllw	a7,s11,a5
    800005e0:	adf18ba3          	sb	t6,-1321(gp) # 800028e7 <_end+0x2d7>
    800005e4:	cda00113          	li	sp,-806
    800005e8:	43abd463          	bge	s7,s10,80000a10 <crash_forward>
    800005ec:	4a600093          	li	ra,1190
    800005f0:	42654063          	blt	a0,t1,80000a10 <crash_forward>
    800005f4:	00ff27b3          	slt	a5,t5,a5
    800005f8:	40038233          	sub	tp,t2,zero
    800005fc:	98700893          	li	a7,-1657
    80000600:	d0900e93          	li	t4,-759
    80000604:	6ba00e13          	li	t3,1722
    80000608:	035a8c3b          	mulw	s8,s5,s5
    8000060c:	50b00993          	li	s3,1291
    80000610:	41d1093b          	subw	s2,sp,t4
    80000614:	9d000293          	li	t0,-1584
    80000618:	005f0b3b          	addw	s6,t5,t0
    8000061c:	8b500313          	li	t1,-1867
    80000620:	93f00193          	li	gp,-1729
    80000624:	0db00693          	li	a3,219
    80000628:	19b00d13          	li	s10,411
    8000062c:	e7100713          	li	a4,-399
    80000630:	5cb00c93          	li	s9,1483
    80000634:	008475b3          	and	a1,s0,s0
    80000638:	001a3833          	sltu	a6,s4,ra
    8000063c:	0339d633          	divu	a2,s3,s3
    80000640:	40e403b3          	sub	t2,s0,a4
    80000644:	02e00e93          	li	t4,46
    80000648:	00de7bb3          	and	s7,t3,a3
    8000064c:	00636c33          	or	s8,t1,t1
    80000650:	00b617b3          	sll	a5,a2,a1
    80000654:	83d00a93          	li	s5,-1987
    80000658:	56100b13          	li	s6,1377
    8000065c:	00002817          	auipc	a6,0x2
    80000660:	05380813          	addi	a6,a6,83 # 800026af <_end+0x9f>
    80000664:	9d700493          	li	s1,-1577
    80000668:	00002397          	auipc	t2,0x2
    8000066c:	b2138393          	addi	t2,t2,-1247 # 80002189 <reg_x17_output+0x1>
    80000670:	95100993          	li	s3,-1711
    80000674:	00002597          	auipc	a1,0x2
    80000678:	28458593          	addi	a1,a1,644 # 800028f8 <_end+0x2e8>
    8000067c:	f1d86f03          	lwu	t5,-227(a6)
    80000680:	009d2933          	slt	s2,s10,s1
    80000684:	00100413          	li	s0,1
    80000688:	01c00213          	li	tp,28
    8000068c:	24c38e03          	lb	t3,588(t2)
    80000690:	03398633          	mul	a2,s3,s3
    80000694:	ad200813          	li	a6,-1326
    80000698:	455c6913          	ori	s2,s8,1109
    8000069c:	02388db3          	mul	s11,a7,gp
    800006a0:	03a51e13          	slli	t3,a0,0x3a
    800006a4:	02af84bb          	mulw	s1,t6,a0
    800006a8:	016b073b          	addw	a4,s6,s6
    800006ac:	fd700293          	li	t0,-41
    800006b0:	3f500c13          	li	s8,1013
    800006b4:	02d1f9bb          	remuw	s3,gp,a3
    800006b8:	004ee533          	or	a0,t4,tp
    800006bc:	00002697          	auipc	a3,0x2
    800006c0:	ba168693          	addi	a3,a3,-1119 # 8000225d <test_memory+0x5d>
    800006c4:	c1659303          	lh	t1,-1002(a1)
    800006c8:	03f41413          	slli	s0,s0,0x3f
    800006cc:	e9f00a13          	li	s4,-353
    800006d0:	fff00093          	li	ra,-1
    800006d4:	0080c0b3          	xor	ra,ra,s0
    800006d8:	18300613          	li	a2,387
    800006dc:	0014f133          	and	sp,s1,ra
    800006e0:	035cbfb3          	mulhu	t6,s9,s5
    800006e4:	014c0bb3          	add	s7,s8,s4
    800006e8:	38500f13          	li	t5,901
    800006ec:	2b4698a3          	sh	s4,689(a3)
    800006f0:	008167b3          	or	a5,sp,s0
    800006f4:	aaf170e3          	bgeu	sp,a5,80000194 <crash_backward>
    800006f8:	025863b3          	rem	t2,a6,t0
    800006fc:	03e62d33          	mulhsu	s10,a2,t5
    80000700:	414c50b3          	sra	ra,s8,s4
    80000704:	5fb00213          	li	tp,1531
    80000708:	6d000f13          	li	t5,1744
    8000070c:	00093db3          	sltu	s11,s2,zero
    80000710:	3809b893          	sltiu	a7,s3,896
    80000714:	01ef0333          	add	t1,t5,t5
    80000718:	00002697          	auipc	a3,0x2
    8000071c:	2f168693          	addi	a3,a3,753 # 80002a09 <_end+0x3f9>
    80000720:	3c100d13          	li	s10,961
    80000724:	99000b93          	li	s7,-1648
    80000728:	00001717          	auipc	a4,0x1
    8000072c:	56470713          	addi	a4,a4,1380 # 80001c8c <fromhost+0xc4c>
    80000730:	07d00993          	li	s3,125
    80000734:	6c4fe3b7          	lui	t2,0x6c4fe
    80000738:	8c76ee83          	lwu	t4,-1849(a3)
    8000073c:	00001597          	auipc	a1,0x1
    80000740:	5ad58593          	addi	a1,a1,1453 # 80001ce9 <fromhost+0xca9>
    80000744:	9e400813          	li	a6,-1564
    80000748:	5375ae03          	lw	t3,1335(a1)
    8000074c:	034cf7b3          	remu	a5,s9,s4
    80000750:	03ad7433          	remu	s0,s10,s10
    80000754:	ea100f93          	li	t6,-351
    80000758:	41ffdb33          	sra	s6,t6,t6
    8000075c:	9e300a13          	li	s4,-1565
    80000760:	5c772423          	sw	t2,1480(a4)
    80000764:	91800613          	li	a2,-1768
    80000768:	033bd2b3          	divu	t0,s7,s3
    8000076c:	010211b3          	sll	gp,tp,a6
    80000770:	02c61c33          	mulh	s8,a2,a2
    80000774:	cd600993          	li	s3,-810
    80000778:	00005cbb          	srlw	s9,zero,zero
    8000077c:	84600813          	li	a6,-1978
    80000780:	b4600c93          	li	s9,-1210
    80000784:	7b500713          	li	a4,1973
    80000788:	a2980f93          	addi	t6,a6,-1495
    8000078c:	a5500c13          	li	s8,-1451
    80000790:	00002b17          	auipc	s6,0x2
    80000794:	2e8b0b13          	addi	s6,s6,744 # 80002a78 <_end+0x468>
    80000798:	e3900f13          	li	t5,-455
    8000079c:	0231d53b          	divuw	a0,gp,gp
    800007a0:	038c0933          	mul	s2,s8,s8
    800007a4:	b12c8893          	addi	a7,s9,-1262
    800007a8:	0139f333          	and	t1,s3,s3
    800007ac:	896b0683          	lb	a3,-1898(s6)
    800007b0:	92d00093          	li	ra,-1747
    800007b4:	43700193          	li	gp,1079
    800007b8:	9d1ccee3          	blt	s9,a7,80000194 <crash_backward>
    800007bc:	9d500a93          	li	s5,-1579
    800007c0:	035ae6bb          	remw	a3,s5,s5
    800007c4:	00001297          	auipc	t0,0x1
    800007c8:	7c428293          	addi	t0,t0,1988 # 80001f88 <fromhost+0xf48>
    800007cc:	dbf00e13          	li	t3,-577
    800007d0:	09200513          	li	a0,146
    800007d4:	01ce1bbb          	sllw	s7,t3,t3
    800007d8:	024243b3          	div	t2,tp,tp
    800007dc:	85200393          	li	t2,-1966
    800007e0:	ec800613          	li	a2,-312
    800007e4:	035af13b          	remuw	sp,s5,s5
    800007e8:	5c02b783          	ld	a5,1472(t0)
    800007ec:	74f00913          	li	s2,1871
    800007f0:	37a00e93          	li	t4,890
    800007f4:	11070d13          	addi	s10,a4,272
    800007f8:	92300113          	li	sp,-1757
    800007fc:	dc900c13          	li	s8,-567
    80000800:	03257b33          	remu	s6,a0,s2
    80000804:	036352bb          	divuw	t0,t1,s6
    80000808:	4073dcb3          	sra	s9,t2,t2
    8000080c:	41d0d23b          	sraw	tp,ra,t4
    80000810:	02cf65b3          	rem	a1,t5,a2
    80000814:	28900313          	li	t1,649
    80000818:	026c19b3          	mulh	s3,s8,t1
    8000081c:	f67a0493          	addi	s1,s4,-153
    80000820:	00a9b633          	sltu	a2,s3,a0
    80000824:	00001f17          	auipc	t5,0x1
    80000828:	730f0f13          	addi	t5,t5,1840 # 80001f54 <fromhost+0xf14>
    8000082c:	000e8213          	mv	tp,t4
    80000830:	51e00b93          	li	s7,1310
    80000834:	00020c13          	mv	s8,tp
    80000838:	00001617          	auipc	a2,0x1
    8000083c:	67460613          	addi	a2,a2,1652 # 80001eac <fromhost+0xe6c>
    80000840:	6f41b393          	sltiu	t2,gp,1780
    80000844:	0273afb3          	mulhsu	t6,t2,t2
    80000848:	1d826463          	bltu	tp,s8,80000a10 <crash_forward>
    8000084c:	00569cbb          	sllw	s9,a3,t0
    80000850:	95a752e3          	bge	a4,s10,80000194 <crash_backward>
    80000854:	46ff0583          	lb	a1,1135(t5)
    80000858:	03a409b3          	mul	s3,s0,s10
    8000085c:	92006ce3          	bltu	zero,zero,80000194 <crash_backward>
    80000860:	21b00913          	li	s2,539
    80000864:	04200e93          	li	t4,66
    80000868:	a5800513          	li	a0,-1448
    8000086c:	e9400413          	li	s0,-364
    80000870:	01de80b3          	add	ra,t4,t4
    80000874:	40500b13          	li	s6,1029
    80000878:	61162423          	sw	a7,1544(a2)
    8000087c:	be600a93          	li	s5,-1050
    80000880:	00819db3          	sll	s11,gp,s0
    80000884:	04600793          	li	a5,70
    80000888:	d6600e13          	li	t3,-666
    8000088c:	12790313          	addi	t1,s2,295
    80000890:	6fa00213          	li	tp,1786
    80000894:	008bd633          	srl	a2,s7,s0
    80000898:	38a00593          	li	a1,906
    8000089c:	00420f3b          	addw	t5,tp,tp
    800008a0:	415108bb          	subw	a7,sp,s5
    800008a4:	41548db3          	sub	s11,s1,s5
    800008a8:	036562b3          	rem	t0,a0,s6
    800008ac:	03e464bb          	remw	s1,s0,t5
    800008b0:	011fbf33          	sltu	t5,t6,a7
    800008b4:	00100193          	li	gp,1
    800008b8:	03cb86b3          	mul	a3,s7,t3
    800008bc:	00b5b733          	sltu	a4,a1,a1
    800008c0:	01ba6cb3          	or	s9,s4,s11
    800008c4:	8d2368e3          	bltu	t1,s2,80000194 <crash_backward>
    800008c8:	037ba233          	mulhsu	tp,s7,s7
    800008cc:	8c0014e3          	bnez	zero,80000194 <crash_backward>
    800008d0:	e6400d93          	li	s11,-412
    800008d4:	33200393          	li	t2,818
    800008d8:	b2700293          	li	t0,-1241
    800008dc:	8c900a13          	li	s4,-1847
    800008e0:	b7f00893          	li	a7,-1153
    800008e4:	40528133          	sub	sp,t0,t0
    800008e8:	40285c9b          	sraiw	s9,a6,0x2
    800008ec:	40fcde3b          	sraw	t3,s9,a5
    800008f0:	00100913          	li	s2,1
    800008f4:	ed600713          	li	a4,-298
    800008f8:	00001a97          	auipc	s5,0x1
    800008fc:	5daa8a93          	addi	s5,s5,1498 # 80001ed2 <fromhost+0xe92>
    80000900:	03f91913          	slli	s2,s2,0x3f
    80000904:	61aa9483          	lh	s1,1562(s5)
    80000908:	3ab00f13          	li	t5,939
    8000090c:	fff00513          	li	a0,-1
    80000910:	72200593          	li	a1,1826
    80000914:	034a1fb3          	mulh	t6,s4,s4
    80000918:	40bd823b          	subw	tp,s11,a1
    8000091c:	03e70bb3          	mul	s7,a4,t5
    80000920:	00f7c833          	xor	a6,a5,a5
    80000924:	c9700a93          	li	s5,-873
    80000928:	e46a8293          	addi	t0,s5,-442
    8000092c:	0273ac33          	mulhsu	s8,t2,t2
    80000930:	01254533          	xor	a0,a0,s2
    80000934:	03f19193          	slli	gp,gp,0x3f
    80000938:	00001e17          	auipc	t3,0x1
    8000093c:	330e0e13          	addi	t3,t3,816 # 80001c68 <fromhost+0xc28>
    80000940:	fff00d13          	li	s10,-1
    80000944:	003d4d33          	xor	s10,s10,gp
    80000948:	8552f6e3          	bgeu	t0,s5,80000194 <crash_backward>
    8000094c:	fd488b13          	addi	s6,a7,-44
    80000950:	00a2f6b3          	and	a3,t0,a0
    80000954:	0126e333          	or	t1,a3,s2
    80000958:	01adfeb3          	and	t4,s11,s10
    8000095c:	003960b3          	or	ra,s2,gp
    80000960:	7d7e1723          	sh	s7,1998(t3)
    80000964:	0b688663          	beq	a7,s6,80000a10 <crash_forward>
    80000968:	55e00993          	li	s3,1374
    8000096c:	01339433          	sll	s0,t2,s3
    80000970:	0040006f          	j	80000974 <reg_dump>

0000000080000974 <reg_dump>:
    80000974:	00002097          	auipc	ra,0x2
    80000978:	c8c08093          	addi	ra,ra,-884 # 80002600 <loop_count>
    8000097c:	0000a103          	lw	sp,0(ra)
    80000980:	fff10193          	addi	gp,sp,-1
    80000984:	0030a023          	sw	gp,0(ra)
    80000988:	8a011ae3          	bnez	sp,8000023c <pseg_0>
    8000098c:	00001097          	auipc	ra,0x1
    80000990:	77408093          	addi	ra,ra,1908 # 80002100 <begin_signature>
    80000994:	0000b023          	sd	zero,0(ra)
    80000998:	0020b823          	sd	sp,16(ra)
    8000099c:	0030bc23          	sd	gp,24(ra)
    800009a0:	0240b023          	sd	tp,32(ra)
    800009a4:	0250b423          	sd	t0,40(ra)
    800009a8:	0260b823          	sd	t1,48(ra)
    800009ac:	0270bc23          	sd	t2,56(ra)
    800009b0:	0480b023          	sd	s0,64(ra)
    800009b4:	0490b423          	sd	s1,72(ra)
    800009b8:	04a0b823          	sd	a0,80(ra)
    800009bc:	04b0bc23          	sd	a1,88(ra)
    800009c0:	06c0b023          	sd	a2,96(ra)
    800009c4:	06d0b423          	sd	a3,104(ra)
    800009c8:	06e0b823          	sd	a4,112(ra)
    800009cc:	06f0bc23          	sd	a5,120(ra)
    800009d0:	0900b023          	sd	a6,128(ra)
    800009d4:	0910b423          	sd	a7,136(ra)
    800009d8:	0920b823          	sd	s2,144(ra)
    800009dc:	0930bc23          	sd	s3,152(ra)
    800009e0:	0b40b023          	sd	s4,160(ra)
    800009e4:	0b50b423          	sd	s5,168(ra)
    800009e8:	0b60b823          	sd	s6,176(ra)
    800009ec:	0b70bc23          	sd	s7,184(ra)
    800009f0:	0d80b023          	sd	s8,192(ra)
    800009f4:	0d90b423          	sd	s9,200(ra)
    800009f8:	0da0b823          	sd	s10,208(ra)
    800009fc:	0db0bc23          	sd	s11,216(ra)
    80000a00:	0fd0b423          	sd	t4,232(ra)
    80000a04:	0fe0b823          	sd	t5,240(ra)
    80000a08:	0ff0bc23          	sd	t6,248(ra)
    80000a0c:	0200006f          	j	80000a2c <test_end>

0000000080000a10 <crash_forward>:
    80000a10:	0ff0000f          	fence
    80000a14:	00018063          	beqz	gp,80000a14 <crash_forward+0x4>
    80000a18:	00119193          	slli	gp,gp,0x1
    80000a1c:	0011e193          	ori	gp,gp,1
    80000a20:	05d00893          	li	a7,93
    80000a24:	00018513          	mv	a0,gp
    80000a28:	00000073          	ecall

0000000080000a2c <test_end>:
    80000a2c:	0ff0000f          	fence
    80000a30:	00100193          	li	gp,1
    80000a34:	05d00893          	li	a7,93
    80000a38:	00000513          	li	a0,0
    80000a3c:	00000073          	ecall
    80000a40:	c0001073          	unimp

Disassembly of section .tohost:

0000000080001000 <tohost>:
	...

0000000080001040 <fromhost>:
	...

Disassembly of section .data:

0000000080002000 <hidden_data>:
    80002000:	fffe                	sd	t6,504(sp)
    80002002:	ffff                	0xffff
    80002004:	ffff                	0xffff
    80002006:	ffff                	0xffff

0000000080002008 <reg_x1_init>:
    80002008:	c8d9                	beqz	s1,8000209e <reg_x19_init+0x6>
    8000200a:	f1c5                	bnez	a1,80001faa <fromhost+0xf6a>
    8000200c:	715e                	ld	sp,496(sp)
    8000200e:	          	auipc	a2,0x2cbdd

0000000080002010 <reg_x2_init>:
    80002010:	2cbd                	addiw	s9,s9,15
    80002012:	c31b5d93          	0xc31b5d93
    80002016:	b20a                	fsd	ft2,288(sp)

0000000080002018 <reg_x3_init>:
    80002018:	0008                	0x8
    8000201a:	0000                	unimp
    8000201c:	0000                	unimp
	...

0000000080002020 <reg_x4_init>:
    80002020:	2f84                	fld	fs1,24(a5)
    80002022:	7a18                	ld	a4,48(a2)
    80002024:	a928                	fsd	fa0,80(a0)
    80002026:	6121                	addi	sp,sp,64

0000000080002028 <reg_x5_init>:
    80002028:	c2fc                	sw	a5,68(a3)
    8000202a:	474d                	li	a4,19
    8000202c:	6780                	ld	s0,8(a5)
    8000202e:	          	0x93c0b

0000000080002030 <reg_x6_init>:
    80002030:	0009                	c.nop	2
    80002032:	8000                	0x8000
    80002034:	ffff                	0xffff
    80002036:	ffff                	0xffff

0000000080002038 <reg_x7_init>:
    80002038:	6262                	ld	tp,24(sp)
    8000203a:	55861de7          	0x55861de7
    8000203e:	          	fmsub.d	fs3,ft2,fs8,ft10,unknown

0000000080002040 <reg_x8_init>:
    80002040:	f381                	bnez	a5,80001f40 <fromhost+0xf00>
    80002042:	338ec047          	fmsub.d	ft0,ft9,fs8,ft6,rmm
    80002046:	8f91                	sub	a5,a5,a2

0000000080002048 <reg_x9_init>:
    80002048:	3df0                	fld	fa2,248(a1)
    8000204a:	2c1c                	fld	fa5,24(s0)
    8000204c:	4bf8                	lw	a4,84(a5)
    8000204e:	dbcd                	beqz	a5,80002000 <hidden_data>

0000000080002050 <reg_x10_init>:
    80002050:	b061                	j	800018d8 <fromhost+0x898>
    80002052:	b425                	j	80001a7a <fromhost+0xa3a>
    80002054:	88be                	mv	a7,a5
    80002056:	2b32                	fld	fs6,264(sp)

0000000080002058 <reg_x11_init>:
    80002058:	0008                	0x8
    8000205a:	8000                	0x8000
    8000205c:	ffff                	0xffff
    8000205e:	ffff                	0xffff

0000000080002060 <reg_x12_init>:
    80002060:	33b9                	addiw	t2,t2,-18
    80002062:	7f5a                	ld	t5,432(sp)
    80002064:	06e5                	addi	a3,a3,25
    80002066:	06e9                	addi	a3,a3,26

0000000080002068 <reg_x13_init>:
    80002068:	8001                	c.srli64	s0
    8000206a:	ffff                	0xffff
    8000206c:	ffff                	0xffff
    8000206e:	ffff                	0xffff

0000000080002070 <reg_x14_init>:
    80002070:	8516                	mv	a0,t0
    80002072:	b4ce                	fsd	fs3,104(sp)
    80002074:	33994fcf          	fnmadd.d	ft11,fs2,fs9,ft6,rmm

0000000080002078 <reg_x15_init>:
    80002078:	38a1                	addiw	a7,a7,-24
    8000207a:	7f5d                	lui	t5,0xffff7
    8000207c:	bfed                	j	80002076 <reg_x14_init+0x6>
    8000207e:	3262                	fld	ft4,56(sp)

0000000080002080 <reg_x16_init>:
    80002080:	fc16                	sd	t0,56(sp)
    80002082:	11ff                	0x11ff
    80002084:	75ee                	ld	a1,248(sp)
    80002086:	404d                	c.li	zero,19

0000000080002088 <reg_x17_init>:
    80002088:	0002                	c.slli64	zero
    8000208a:	0000                	unimp
    8000208c:	0000                	unimp
    8000208e:	0800                	addi	s0,sp,16

0000000080002090 <reg_x18_init>:
    80002090:	8ecd                	or	a3,a3,a1
    80002092:	3b1f 8aa8 47e1      	0x47e18aa83b1f

0000000080002098 <reg_x19_init>:
    80002098:	8002                	0x8002
    8000209a:	ffff                	0xffff
    8000209c:	ffff                	0xffff
    8000209e:	ffff                	0xffff

00000000800020a0 <reg_x20_init>:
    800020a0:	8536                	mv	a0,a3
    800020a2:	d119c4b7          	lui	s1,0xd119c
    800020a6:	1672                	slli	a2,a2,0x3c

00000000800020a8 <reg_x21_init>:
    800020a8:	0009                	c.nop	2
    800020aa:	0000                	unimp
    800020ac:	0000                	unimp
	...

00000000800020b0 <reg_x22_init>:
    800020b0:	8002                	0x8002
    800020b2:	ffff                	0xffff
    800020b4:	ffff                	0xffff
    800020b6:	ffff                	0xffff

00000000800020b8 <reg_x23_init>:
    800020b8:	fffffff7          	0xfffffff7
    800020bc:	ffff                	0xffff
    800020be:	ffff                	0xffff

00000000800020c0 <reg_x24_init>:
    800020c0:	80000007          	0x80000007
    800020c4:	ffff                	0xffff
    800020c6:	ffff                	0xffff

00000000800020c8 <reg_x25_init>:
    800020c8:	ffffff87          	0xffffff87
    800020cc:	ffff                	0xffff
    800020ce:	ffff                	0xffff

00000000800020d0 <reg_x26_init>:
    800020d0:	a066                	fsd	fs9,0(sp)
    800020d2:	1005                	c.nop	-31
    800020d4:	9209                	srli	a2,a2,0x22
    800020d6:	          	jal	t4,7ffc9e30 <_start-0x361d0>

00000000800020d8 <reg_x27_init>:
    800020d8:	d5bc                	sw	a5,104(a1)
    800020da:	1795                	addi	a5,a5,-27
    800020dc:	9f22f147          	fmsub.q	ft2,ft5,fs2,fs3

00000000800020e0 <reg_x28_init>:
    800020e0:	0a395d6f          	jal	s10,80097982 <__global_pointer$+0x94b72>
    800020e4:	60ff                	0x60ff
    800020e6:	39a8                	fld	fa0,112(a1)

00000000800020e8 <reg_x29_init>:
    800020e8:	8188                	0x8188
    800020ea:	6cf51eef          	jal	t4,80053fb8 <__global_pointer$+0x511a8>
    800020ee:	e80a                	sd	sp,16(sp)

00000000800020f0 <reg_x30_init>:
    800020f0:	90c77a93          	andi	s5,a4,-1780
    800020f4:	d4e7dbb7          	lui	s7,0xd4e7d

00000000800020f8 <reg_x31_init>:
    800020f8:	57f5                	li	a5,-3
    800020fa:	1575                	addi	a0,a0,-3
    800020fc:	28d98ebb          	0x28d98ebb

0000000080002100 <begin_signature>:
    80002100:	7f18696b          	0x7f18696b
    80002104:	a405                	j	80002324 <test_memory+0x124>
    80002106:	0020                	addi	s0,sp,8

0000000080002108 <reg_x1_output>:
    80002108:	7f5d7b03          	0x7f5d7b03
    8000210c:	c04a348b          	0xc04a348b

0000000080002110 <reg_x2_output>:
    80002110:	cc2a                	sw	a0,24(sp)
    80002112:	8ff4                	0x8ff4
    80002114:	8c510f83          	lb	t6,-1851(sp)

0000000080002118 <reg_x3_output>:
    80002118:	cf42                	sw	a6,156(sp)
    8000211a:	720c3423          	sd	zero,1832(s8)
    8000211e:	          	csrrc	t0,0xfdb,s11

0000000080002120 <reg_x4_output>:
    80002120:	fdbd                	bnez	a1,8000209e <reg_x19_init+0x6>
    80002122:	fabd996f          	jal	s2,7ffdc0cc <_start-0x23f34>
    80002126:	4325                	li	t1,9

0000000080002128 <reg_x5_output>:
    80002128:	bac9                	j	80001afa <fromhost+0xaba>
    8000212a:	b258c5f7          	0xb258c5f7
    8000212e:	          	auipc	t0,0x43a60

0000000080002130 <reg_x6_output>:
    80002130:	43a6                	lw	t2,72(sp)
    80002132:	550e                	lw	a0,224(sp)
    80002134:	1a59                	addi	s4,s4,-10
    80002136:	192c                	addi	a1,sp,184

0000000080002138 <reg_x7_output>:
    80002138:	5755                	li	a4,-11
    8000213a:	aac0                	fsd	fs0,144(a3)
    8000213c:	1566                	slli	a0,a0,0x39
    8000213e:	3ff9                	addiw	t6,t6,-2

0000000080002140 <reg_x8_output>:
    80002140:	08ba                	slli	a7,a7,0xe
    80002142:	cdd6                	sw	s5,216(sp)
    80002144:	a3ca                	fsd	fs2,448(sp)
    80002146:	          	0x39754d3b

0000000080002148 <reg_x9_output>:
    80002148:	3975                	addiw	s2,s2,-3
    8000214a:	9e44fbb3          	0x9e44fbb3
    8000214e:	ba31                	j	80001a6a <fromhost+0xa2a>

0000000080002150 <reg_x10_output>:
    80002150:	58f1                	li	a7,-4
    80002152:	b302                	fsd	ft0,416(sp)
    80002154:	e3fa                	sd	t5,448(sp)
    80002156:	          	0x8280d52f

0000000080002158 <reg_x11_output>:
    80002158:	8280                	0x8280
    8000215a:	d8df 645c 0f62      	0xf62645cd8df

0000000080002160 <reg_x12_output>:
    80002160:	c67d                	beqz	a2,8000224e <test_memory+0x4e>
    80002162:	e640                	sd	s0,136(a2)
    80002164:	d72f1c27          	0xd72f1c27

0000000080002168 <reg_x13_output>:
    80002168:	9dc8                	0x9dc8
    8000216a:	14f92303          	lw	t1,335(s2)
    8000216e:	df4e                	sw	s3,188(sp)

0000000080002170 <reg_x14_output>:
    80002170:	0c1d                	addi	s8,s8,7
    80002172:	9140                	0x9140
    80002174:	c909                	beqz	a0,80002186 <reg_x16_output+0x6>
    80002176:	5598                	lw	a4,40(a1)

0000000080002178 <reg_x15_output>:
    80002178:	d4e51d0f          	0xd4e51d0f
    8000217c:	8908                	0x8908
    8000217e:	          	0xb29c5b

0000000080002180 <reg_x16_output>:
    80002180:	00b2                	slli	ra,ra,0xc
    80002182:	74d6                	ld	s1,368(sp)
    80002184:	b836                	fsd	fa3,48(sp)
    80002186:	fc6e                	sd	s11,56(sp)

0000000080002188 <reg_x17_output>:
    80002188:	6839                	lui	a6,0xe
    8000218a:	5ce5                	li	s9,-7
    8000218c:	3c057323          	0x3c057323

0000000080002190 <reg_x18_output>:
    80002190:	b012                	fsd	ft4,32(sp)
    80002192:	e958                	sd	a4,144(a0)
    80002194:	8fc5                	or	a5,a5,s1
    80002196:	          	jal	s10,800404da <__global_pointer$+0x3d6ca>

0000000080002198 <reg_x19_output>:
    80002198:	9c053443          	0x9c053443
    8000219c:	69c9                	lui	s3,0x12
    8000219e:	2488                	fld	fa0,8(s1)

00000000800021a0 <reg_x20_output>:
    800021a0:	c52fad1b          	0xc52fad1b
    800021a4:	b25fac37          	lui	s8,0xb25fa

00000000800021a8 <reg_x21_output>:
    800021a8:	fc33f573          	csrrci	a0,0xfc3,7
    800021ac:	d1f1                	beqz	a1,80002170 <reg_x14_output>
    800021ae:	eaf0                	sd	a2,208(a3)

00000000800021b0 <reg_x22_output>:
    800021b0:	015ff10b          	0x15ff10b
    800021b4:	7896                	ld	a7,352(sp)
    800021b6:	          	0xc0d17d67

00000000800021b8 <reg_x23_output>:
    800021b8:	c0d1                	beqz	s1,8000223c <test_memory+0x3c>
    800021ba:	6dc333e7          	0x6dc333e7
    800021be:	c6be                	sw	a5,76(sp)

00000000800021c0 <reg_x24_output>:
    800021c0:	fd25dc0f          	0xfd25dc0f
    800021c4:	a4d6                	fsd	fs5,72(sp)
    800021c6:	543c                	lw	a5,104(s0)

00000000800021c8 <reg_x25_output>:
    800021c8:	50d5                	li	ra,-11
    800021ca:	4bcd                	li	s7,19
    800021cc:	939d                	srli	a5,a5,0x27
    800021ce:	          	0x2b19976b

00000000800021d0 <reg_x26_output>:
    800021d0:	2b19                	addiw	s6,s6,6
    800021d2:	06d6                	slli	a3,a3,0x15
    800021d4:	de85                	beqz	a3,8000210c <reg_x1_output+0x4>
    800021d6:	0e3d                	addi	t3,t3,15

00000000800021d8 <reg_x27_output>:
    800021d8:	2161                	addiw	sp,sp,24
    800021da:	515bcc27          	fsq	fs5,1304(s7) # ffffffffd4e7d518 <__global_pointer$+0xffffffff54e7a708>
    800021de:	c082                	sw	zero,64(sp)

00000000800021e0 <reg_x28_output>:
    800021e0:	f6f6                	sd	t4,360(sp)
    800021e2:	ef9eba77          	0xef9eba77
    800021e6:	75fe                	ld	a1,504(sp)

00000000800021e8 <reg_x29_output>:
    800021e8:	d6f0                	sw	a2,108(a3)
    800021ea:	456d                	li	a0,27
    800021ec:	ffdc                	sd	a5,184(a5)
    800021ee:	4ac9                	li	s5,18

00000000800021f0 <reg_x30_output>:
    800021f0:	109f 9317 67bf      	0x67bf9317109f
    800021f6:	ce3d                	beqz	a2,80002274 <test_memory+0x74>

00000000800021f8 <reg_x31_output>:
    800021f8:	6510                	ld	a2,8(a0)
    800021fa:	0abed233          	0xabed233
    800021fe:	b8bc                	fsd	fa5,112(s1)

0000000080002200 <test_memory>:
    80002200:	4ece                	lw	t4,208(sp)
    80002202:	33800bef          	jal	s7,8000253a <test_memory+0x33a>
    80002206:	3f14                	fld	fa3,56(a4)
    80002208:	a80d                	j	8000223a <test_memory+0x3a>
    8000220a:	8a6d                	andi	a2,a2,27
    8000220c:	f06c                	sd	a1,224(s0)
    8000220e:	ea16                	sd	t0,272(sp)
    80002210:	a0d4                	fsd	fa3,128(s1)
    80002212:	0786                	slli	a5,a5,0x1
    80002214:	c619                	beqz	a2,80002222 <test_memory+0x22>
    80002216:	bcc6                	fsd	fa7,120(sp)
    80002218:	65ee                	ld	a1,216(sp)
    8000221a:	f164                	sd	s1,224(a0)
    8000221c:	a252be5b          	0xa252be5b
    80002220:	faa9                	bnez	a3,80002172 <reg_x14_output+0x2>
    80002222:	1dd4                	addi	a3,sp,756
    80002224:	b94d                	j	80001ed6 <fromhost+0xe96>
    80002226:	23e2                	fld	ft7,24(sp)
    80002228:	eaa5                	bnez	a3,80002298 <test_memory+0x98>
    8000222a:	2ac9                	addiw	s5,s5,18
    8000222c:	8d90                	0x8d90
    8000222e:	a82a                	fsd	fa0,16(sp)
    80002230:	6e44                	ld	s1,152(a2)
    80002232:	7cf6                	ld	s9,376(sp)
    80002234:	09010787          	0x9010787
    80002238:	b381                	j	80001f78 <fromhost+0xf38>
    8000223a:	a844                	fsd	fs1,144(s0)
    8000223c:	c364                	sw	s1,68(a4)
    8000223e:	a5a2                	fsd	fs0,200(sp)
    80002240:	062d                	addi	a2,a2,11
    80002242:	52d5                	li	t0,-11
    80002244:	4440                	lw	s0,12(s0)
    80002246:	f35e                	sd	s7,416(sp)
    80002248:	dde6                	sw	s9,248(sp)
    8000224a:	1a8c2a23          	sw	s0,436(s8) # ffffffffb25fa1b4 <__global_pointer$+0xffffffff325f73a4>
    8000224e:	982c                	0x982c
    80002250:	36fd354f          	fnmadd.q	fa0,fs10,fa5,ft6,rup
    80002254:	76a4                	ld	s1,104(a3)
    80002256:	4d40eb13          	ori	s6,ra,1236
    8000225a:	735f b852 abff      	0xabffb852735f
    80002260:	f012                	sd	tp,32(sp)
    80002262:	cba8                	sw	a0,80(a5)
    80002264:	d42f7a73          	csrrci	s4,0xd42,30
    80002268:	bc35                	j	80001ca4 <fromhost+0xc64>
    8000226a:	3d9f d228 3cd0      	0x3cd0d2283d9f
    80002270:	c2a9                	beqz	a3,800022b2 <test_memory+0xb2>
    80002272:	293a                	fld	fs2,392(sp)
    80002274:	0b2d                	addi	s6,s6,11
    80002276:	2d19898b          	0x2d19898b
    8000227a:	8d1a                	mv	s10,t1
    8000227c:	a75e                	fsd	fs7,392(sp)
    8000227e:	9cb4                	0x9cb4
    80002280:	912378a7          	0x912378a7
    80002284:	dd69                	beqz	a0,8000225e <test_memory+0x5e>
    80002286:	6da7fb2f          	0x6da7fb2f
    8000228a:	f0cd                	bnez	s1,8000222c <test_memory+0x2c>
    8000228c:	d331                	beqz	a4,800021d0 <reg_x26_output>
    8000228e:	68e9                	lui	a7,0x1a
    80002290:	29d8                	fld	fa4,144(a1)
    80002292:	21c2                	fld	ft3,16(sp)
    80002294:	6a86                	ld	s5,64(sp)
    80002296:	4ecd                	li	t4,19
    80002298:	a1ec                	fsd	fa1,192(a1)
    8000229a:	3b08e967          	0x3b08e967
    8000229e:	1734                	addi	a3,sp,936
    800022a0:	c04e                	sw	s3,0(sp)
    800022a2:	5284ad77          	0x5284ad77
    800022a6:	9b3c                	0x9b3c
    800022a8:	0a86                	slli	s5,s5,0x1
    800022aa:	3b05                	addiw	s6,s6,-31
    800022ac:	1cfc                	addi	a5,sp,636
    800022ae:	4bb90613          	addi	a2,s2,1211
    800022b2:	9924                	0x9924
    800022b4:	ecbb7833          	0xecbb7833
    800022b8:	7a0e                	ld	s4,224(sp)
    800022ba:	6358                	ld	a4,128(a4)
    800022bc:	0295                	addi	t0,t0,5
    800022be:	b5fc7a6b          	0xb5fc7a6b
    800022c2:	82d5                	srli	a3,a3,0x15
    800022c4:	3b8d                	addiw	s7,s7,-29
    800022c6:	cca0                	sw	s0,88(s1)
    800022c8:	2dd2                	fld	fs11,272(sp)
    800022ca:	91e1                	srli	a1,a1,0x38
    800022cc:	9bd9                	andi	a5,a5,-10
    800022ce:	5e95                	li	t4,-27
    800022d0:	acfc                	fsd	fa5,216(s1)
    800022d2:	fdd4                	sd	a3,184(a1)
    800022d4:	765f 2ee5 fdc7      	0xfdc72ee5765f
    800022da:	09d8                	addi	a4,sp,212
    800022dc:	c689                	beqz	a3,800022e6 <test_memory+0xe6>
    800022de:	5565                	li	a0,-7
    800022e0:	d5ba                	sw	a4,232(sp)
    800022e2:	96b5                	srai	a3,a3,0x2d
    800022e4:	f09b1f2f          	0xf09b1f2f
    800022e8:	17bd                	addi	a5,a5,-17
    800022ea:	b0c1                	j	80001baa <fromhost+0xb6a>
    800022ec:	45a4                	lw	s1,72(a1)
    800022ee:	57ce                	lw	a5,240(sp)
    800022f0:	8de29ca3          	sh	t5,-1831(t0) # c3a61a07 <__global_pointer$+0x43a5ebf7>
    800022f4:	b65a                	fsd	fs6,296(sp)
    800022f6:	a5f2                	fsd	ft8,200(sp)
    800022f8:	b9d4                	fsd	fa3,176(a1)
    800022fa:	1822                	slli	a6,a6,0x28
    800022fc:	ed31                	bnez	a0,80002358 <test_memory+0x158>
    800022fe:	f1bd                	bnez	a1,80002264 <test_memory+0x64>
    80002300:	3726                	fld	fa4,104(sp)
    80002302:	da6e                	sw	s11,52(sp)
    80002304:	e17c                	sd	a5,192(a0)
    80002306:	63c2                	ld	t2,16(sp)
    80002308:	a02e                	fsd	fa1,0(sp)
    8000230a:	a07c                	fsd	fa5,192(s0)
    8000230c:	463a                	lw	a2,140(sp)
    8000230e:	a2ac                	fsd	fa1,64(a3)
    80002310:	7740aa87          	flw	fs5,1908(ra)
    80002314:	d914                	sw	a3,48(a0)
    80002316:	291e                	fld	fs2,448(sp)
    80002318:	19e5                	addi	s3,s3,-7
    8000231a:	6dad                	lui	s11,0xb
    8000231c:	847def1b          	0x847def1b
    80002320:	32eaebf3          	csrrsi	s7,mhpmevent14,21
    80002324:	28448c67          	jalr	s8,644(s1) # ffffffffd119c284 <__global_pointer$+0xffffffff51199474>
    80002328:	05b3f93f 48183bfc 	0x48183bfc05b3f93f
    80002330:	04146dd3          	0x4146dd3
    80002334:	9fa4                	0x9fa4
    80002336:	24ee                	fld	fs1,216(sp)
    80002338:	d320                	sw	s0,96(a4)
    8000233a:	48a6                	lw	a7,72(sp)
    8000233c:	b66fdb9b          	0xb66fdb9b
    80002340:	ae64                	fsd	fs1,216(a2)
    80002342:	a847a2a3          	sw	tp,-1403(a5)
    80002346:	8f45                	or	a4,a4,s1
    80002348:	5f6541bf 1f56844e 	0x1f56844e5f6541bf
    80002350:	0dc89b87          	0xdc89b87
    80002354:	b07e4bc3          	fmadd.s	fs7,ft8,ft7,fs6,rmm
    80002358:	1e9d                	addi	t4,t4,-25
    8000235a:	9d42                	add	s10,s10,a6
    8000235c:	a107ed47          	fmsub.s	fs10,fa5,fa6,fs4,unknown
    80002360:	dfd5                	beqz	a5,8000231c <test_memory+0x11c>
    80002362:	0228                	addi	a0,sp,264
    80002364:	245a                	fld	fs0,400(sp)
    80002366:	cee8                	sw	a0,92(a3)
    80002368:	e7b1                	bnez	a5,800023b4 <test_memory+0x1b4>
    8000236a:	aab1                	j	800024c6 <test_memory+0x2c6>
    8000236c:	981a                	add	a6,a6,t1
    8000236e:	acb6                	fsd	fa3,88(sp)
    80002370:	6cf6                	ld	s9,344(sp)
    80002372:	904ecedb          	0x904ecedb
    80002376:	c3e76d0b          	0xc3e76d0b
    8000237a:	a35d                	j	80002920 <_end+0x310>
    8000237c:	2e7c                	fld	fa5,216(a2)
    8000237e:	115d                	addi	sp,sp,-9
    80002380:	d732                	sw	a2,172(sp)
    80002382:	a4e1                	j	8000264a <_end+0x3a>
    80002384:	e0b2cf3f d3fddacb 	0xd3fddacbe0b2cf3f
    8000238c:	784d                	lui	a6,0xffff3
    8000238e:	9f21                	addw	a4,a4,s0
    80002390:	5648                	lw	a0,44(a2)
    80002392:	11cc70a3          	0x11cc70a3
    80002396:	459d                	li	a1,7
    80002398:	f381                	bnez	a5,80002298 <test_memory+0x98>
    8000239a:	1b54                	addi	a3,sp,436
    8000239c:	2dd9                	addiw	s11,s11,22
    8000239e:	dee2                	sw	s8,124(sp)
    800023a0:	7f7e                	ld	t5,504(sp)
    800023a2:	a0d6                	fsd	fs5,64(sp)
    800023a4:	fa605f7b          	0xfa605f7b
    800023a8:	8ef8                	0x8ef8
    800023aa:	78d2                	ld	a7,304(sp)
    800023ac:	2a5a                	fld	fs4,400(sp)
    800023ae:	a359                	j	80002934 <_end+0x324>
    800023b0:	0cf9                	addi	s9,s9,30
    800023b2:	5f84                	lw	s1,56(a5)
    800023b4:	76df 3ee9 f15f      	0xf15f3ee976df
    800023ba:	59ff                	0x59ff
    800023bc:	67cfc2bf b19e464e 	0xb19e464e67cfc2bf
    800023c4:	0bf5                	addi	s7,s7,29
    800023c6:	ced77157          	0xced77157
    800023ca:	44b1c12f          	0x44b1c12f
    800023ce:	de588bfb          	0xde588bfb
    800023d2:	854d                	srai	a0,a0,0x13
    800023d4:	08d1                	addi	a7,a7,20
    800023d6:	a9e0                	fsd	fs0,208(a1)
    800023d8:	8f69                	and	a4,a4,a0
    800023da:	e1d7632f          	0xe1d7632f
    800023de:	5a4bd173          	csrrwi	sp,0x5a4,23
    800023e2:	d7ce                	sw	s3,236(sp)
    800023e4:	b47a                	fsd	ft10,40(sp)
    800023e6:	df4a                	sw	s2,188(sp)
    800023e8:	5e39                	li	t3,-18
    800023ea:	8234                	0x8234
    800023ec:	8b51                	andi	a4,a4,20
    800023ee:	dd98                	sw	a4,56(a1)
    800023f0:	5609                	li	a2,-30
    800023f2:	06c1                	addi	a3,a3,16
    800023f4:	e414                	sd	a3,8(s0)
    800023f6:	3574                	fld	fa3,232(a0)
    800023f8:	77fc                	ld	a5,232(a5)
    800023fa:	392d                	addiw	s2,s2,-21
    800023fc:	7ed6818b          	0x7ed6818b
    80002400:	39b4                	fld	fa3,112(a1)
    80002402:	e781                	bnez	a5,8000240a <test_memory+0x20a>
    80002404:	eccb9a3b          	0xeccb9a3b
    80002408:	6f486ca7          	0x6f486ca7
    8000240c:	9c35                	addw	s0,s0,a3
    8000240e:	3484a673          	csrrs	a2,0x348,s1
    80002412:	0671                	addi	a2,a2,28
    80002414:	b8b6                	fsd	fa3,112(sp)
    80002416:	8e92                	mv	t4,tp
    80002418:	4868                	lw	a0,84(s0)
    8000241a:	8e8b0f0b          	0x8e8b0f0b
    8000241e:	4c66                	lw	s8,88(sp)
    80002420:	90d9                	srli	s1,s1,0x36
    80002422:	31d1                	addiw	gp,gp,-12
    80002424:	3cc3a84b          	0x3cc3a84b
    80002428:	d7d9                	beqz	a5,800023b6 <test_memory+0x1b6>
    8000242a:	abdbda33          	0xabdbda33
    8000242e:	29b8                	fld	fa4,80(a1)
    80002430:	3c7cb593          	sltiu	a1,s9,967
    80002434:	1aee                	slli	s5,s5,0x3b
    80002436:	7754                	ld	a3,168(a4)
    80002438:	3aca7b73          	csrrci	s6,0x3ac,20
    8000243c:	f04a                	sd	s2,32(sp)
    8000243e:	83a0                	0x83a0
    80002440:	68a1                	lui	a7,0x8
    80002442:	5662                	lw	a2,56(sp)
    80002444:	4c21                	li	s8,8
    80002446:	9224                	0x9224
    80002448:	3e40                	fld	fs0,184(a2)
    8000244a:	65ca                	ld	a1,144(sp)
    8000244c:	51ce                	lw	gp,240(sp)
    8000244e:	4e40                	lw	s0,28(a2)
    80002450:	26d8                	fld	fa4,136(a3)
    80002452:	e7dc                	sd	a5,136(a5)
    80002454:	80e66397          	auipc	t2,0x80e66
    80002458:	23d4                	fld	fa3,128(a5)
    8000245a:	9d7d9ba7          	0x9d7d9ba7
    8000245e:	a50525e3          	0xa50525e3
    80002462:	134e                	slli	t1,t1,0x33
    80002464:	6f46de1b          	0x6f46de1b
    80002468:	e17d                	bnez	a0,8000254e <test_memory+0x34e>
    8000246a:	1a16                	slli	s4,s4,0x25
    8000246c:	6512                	ld	a0,256(sp)
    8000246e:	ce45f12f          	0xce45f12f
    80002472:	bb39                	j	80002190 <reg_x18_output>
    80002474:	ddb820af          	0xddb820af
    80002478:	76b9                	lui	a3,0xfffee
    8000247a:	c0a3a80f          	0xc0a3a80f
    8000247e:	21de                	fld	ft3,464(sp)
    80002480:	9b19d393          	0x9b19d393
    80002484:	1cc199f7          	0x1cc199f7
    80002488:	7c3258e7          	0x7c3258e7
    8000248c:	e8b6                	sd	a3,80(sp)
    8000248e:	3505                	addiw	a0,a0,-31
    80002490:	20a1                	addiw	ra,ra,8
    80002492:	ec91                	bnez	s1,800024ae <test_memory+0x2ae>
    80002494:	15d8                	addi	a4,sp,740
    80002496:	13d5                	addi	t2,t2,-11
    80002498:	2641                	addiw	a2,a2,16
    8000249a:	7e12                	ld	t3,288(sp)
    8000249c:	ec79                	bnez	s0,8000257a <test_memory+0x37a>
    8000249e:	4355                	li	t1,21
    800024a0:	49ec                	lw	a1,84(a1)
    800024a2:	917c                	0x917c
    800024a4:	275c                	fld	fa5,136(a4)
    800024a6:	140a3bb3          	0x140a3bb3
    800024aa:	a72c                	fsd	fa1,72(a4)
    800024ac:	a5ef084b          	0xa5ef084b
    800024b0:	480a                	lw	a6,128(sp)
    800024b2:	7c0e                	ld	s8,224(sp)
    800024b4:	ccd9                	beqz	s1,80002552 <test_memory+0x352>
    800024b6:	b191                	j	800020fa <reg_x31_init+0x2>
    800024b8:	204d8c03          	lb	s8,516(s11) # b204 <_start-0x7fff4dfc>
    800024bc:	6082                	ld	ra,0(sp)
    800024be:	94463123          	sd	tp,-1726(a2) # acbde950 <__global_pointer$+0x2cbdbb40>
    800024c2:	5124                	lw	s1,96(a0)
    800024c4:	b251                	j	80001e48 <fromhost+0xe08>
    800024c6:	c5c6                	sw	a7,200(sp)
    800024c8:	e6b1ad23          	sw	a1,-390(gp) # 80002c8a <_end+0x67a>
    800024cc:	94642467          	0x94642467
    800024d0:	fa6e                	sd	s11,304(sp)
    800024d2:	b61a1be7          	0xb61a1be7
    800024d6:	88e8                	0x88e8
    800024d8:	a386                	fsd	ft1,448(sp)
    800024da:	80a9                	srli	s1,s1,0xa
    800024dc:	5d84                	lw	s1,56(a1)
    800024de:	33ea99af          	0x33ea99af
    800024e2:	85c8                	0x85c8
    800024e4:	93c0                	0x93c0
    800024e6:	a372                	fsd	ft8,384(sp)
    800024e8:	0ba5                	addi	s7,s7,9
    800024ea:	ff5e                	sd	s7,440(sp)
    800024ec:	ef22                	sd	s0,408(sp)
    800024ee:	5774                	lw	a3,108(a4)
    800024f0:	a010                	fsd	fa2,0(s0)
    800024f2:	e02d                	bnez	s0,80002554 <test_memory+0x354>
    800024f4:	d92a                	sw	a0,176(sp)
    800024f6:	602a                	0x602a
    800024f8:	d4c6                	sw	a7,104(sp)
    800024fa:	1966                	slli	s2,s2,0x39
    800024fc:	8a0e                	mv	s4,gp
    800024fe:	c24d                	beqz	a2,800025a0 <test_memory+0x3a0>
    80002500:	771dadb7          	lui	s11,0x771da
    80002504:	89fd                	andi	a1,a1,31
    80002506:	56b6cf33          	0x56b6cf33
    8000250a:	23da                	fld	ft7,400(sp)
    8000250c:	4046989b          	0x4046989b
    80002510:	ca0a                	sw	sp,20(sp)
    80002512:	153d02c3          	0x153d02c3
    80002516:	78e6                	ld	a7,120(sp)
    80002518:	8eb6                	mv	t4,a3
    8000251a:	66ea9c4b          	fnmsub.q	fs8,fs5,fa4,fa2,rtz
    8000251e:	0a32                	slli	s4,s4,0xc
    80002520:	e89d                	bnez	s1,80002556 <test_memory+0x356>
    80002522:	9a99                	andi	a3,a3,-26
    80002524:	8138                	0x8138
    80002526:	52c6                	lw	t0,112(sp)
    80002528:	b7b2                	fsd	fa2,488(sp)
    8000252a:	913a                	add	sp,sp,a4
    8000252c:	e89c0b6f          	jal	s6,7ffc33b4 <_start-0x3cc4c>
    80002530:	f8c5                	bnez	s1,800024e0 <test_memory+0x2e0>
    80002532:	9508                	0x9508
    80002534:	f1a6                	sd	s1,224(sp)
    80002536:	c822                	sw	s0,16(sp)
    80002538:	b1b8                	fsd	fa4,96(a1)
    8000253a:	aefa                	fsd	ft10,344(sp)
    8000253c:	95f2d3af          	0x95f2d3af
    80002540:	230adc23          	0x230adc23
    80002544:	ec0d                	bnez	s0,8000257e <test_memory+0x37e>
    80002546:	49a2                	lw	s3,8(sp)
    80002548:	f040eca7          	0xf040eca7
    8000254c:	3948                	fld	fa0,176(a0)
    8000254e:	2e79                	addiw	t3,t3,30
    80002550:	b282                	fsd	ft0,352(sp)
    80002552:	eddc                	sd	a5,152(a1)
    80002554:	fe62                	sd	s8,312(sp)
    80002556:	ca263d5b          	0xca263d5b
    8000255a:	c2bc                	sw	a5,64(a3)
    8000255c:	44bfa333          	0x44bfa333
    80002560:	8ee2                	mv	t4,s8
    80002562:	4e69                	li	t3,26
    80002564:	abf6                	fsd	ft9,464(sp)
    80002566:	aad87a37          	lui	s4,0xaad87
    8000256a:	e46e                	sd	s11,8(sp)
    8000256c:	774c                	ld	a1,168(a4)
    8000256e:	e9d49f33          	0xe9d49f33
    80002572:	0002                	c.slli64	zero
    80002574:	c48e                	sw	gp,72(sp)
    80002576:	ffd0                	sd	a2,184(a5)
    80002578:	1acd                	addi	s5,s5,-13
    8000257a:	d546                	sw	a7,168(sp)
    8000257c:	4011                	c.li	zero,4
    8000257e:	650844cf          	0x650844cf
    80002582:	237d                	addiw	t1,t1,31
    80002584:	05ac89d3          	0x5ac89d3
    80002588:	a511d13b          	0xa511d13b
    8000258c:	eaaa                	sd	a0,336(sp)
    8000258e:	4c80                	lw	s0,24(s1)
    80002590:	b424                	fsd	fs1,104(s0)
    80002592:	8a1d                	andi	a2,a2,7
    80002594:	1c1646eb          	0x1c1646eb
    80002598:	776d                	lui	a4,0xffffb
    8000259a:	61294f43          	fmadd.s	ft10,fs2,fs2,fa2,rmm
    8000259e:	bed618a7          	0xbed618a7
    800025a2:	2a2a                	fld	fs4,136(sp)
    800025a4:	3e68                	fld	fa0,248(a2)
    800025a6:	242a                	fld	fs0,136(sp)
    800025a8:	17b46afb          	0x17b46afb
    800025ac:	0512                	slli	a0,a0,0x4
    800025ae:	0659                	addi	a2,a2,22
    800025b0:	502c                	lw	a1,96(s0)
    800025b2:	12613eb7          	lui	t4,0x12613
    800025b6:	ef3ab607          	fld	fa2,-269(s5)
    800025ba:	ce1d44b7          	lui	s1,0xce1d4
    800025be:	a338                	fsd	fa4,64(a4)
    800025c0:	e722                	sd	s0,392(sp)
    800025c2:	6a86                	ld	s5,64(sp)
    800025c4:	0ade                	slli	s5,s5,0x17
    800025c6:	81f6e1eb          	0x81f6e1eb
    800025ca:	a69a                	fsd	ft6,328(sp)
    800025cc:	1138                	addi	a4,sp,168
    800025ce:	bcb8                	fsd	fa4,120(s1)
    800025d0:	7c7c                	ld	a5,248(s0)
    800025d2:	9816                	add	a6,a6,t0
    800025d4:	de78                	sw	a4,124(a2)
    800025d6:	7574                	ld	a3,232(a0)
    800025d8:	475e                	lw	a4,212(sp)
    800025da:	1275                	addi	tp,tp,-3
    800025dc:	33d4                	fld	fa3,160(a5)
    800025de:	dcff                	0xdcff
    800025e0:	51d6                	lw	gp,116(sp)
    800025e2:	e140a80b          	0xe140a80b
    800025e6:	5795                	li	a5,-27
    800025e8:	f937c13f 5c97cf57 	0x5c97cf57f937c13f
    800025f0:	1df9                	addi	s11,s11,-2
    800025f2:	bde108d7          	0xbde108d7
    800025f6:	8e3d                	xor	a2,a2,a5
    800025f8:	4575                	li	a0,29
    800025fa:	b339                	j	80002308 <test_memory+0x108>
    800025fc:	08f8                	addi	a4,sp,92
    800025fe:	          	auipc	a7,0x402

0000000080002600 <loop_count>:
    80002600:	0040                	addi	s0,sp,4
	...

Disassembly of section .riscv.attributes:

0000000000000000 <.riscv.attributes>:
   0:	1e41                	addi	t3,t3,-16
   2:	0000                	unimp
   4:	7200                	ld	s0,32(a2)
   6:	7369                	lui	t1,0xffffa
   8:	01007663          	bgeu	zero,a6,14 <_start-0x7fffffec>
   c:	0014                	0x14
   e:	0000                	unimp
  10:	7205                	lui	tp,0xfffe1
  12:	3676                	fld	fa2,376(sp)
  14:	6934                	ld	a3,80(a0)
  16:	7032                	0x7032
  18:	5f30                	lw	a2,120(a4)
  1a:	326d                	addiw	tp,tp,-5
  1c:	3070                	fld	fa2,224(s0)
	...
