
build/test46:     file format elf64-littleriscv


Disassembly of section .text.init:

0000000080000000 <_start>:
    80000000:	05c0006f          	j	8000005c <reset_vector>

0000000080000004 <trap_vector>:
    80000004:	34202f73          	csrr	t5,mcause
    80000008:	00800f93          	li	t6,8
    8000000c:	03ff0a63          	beq	t5,t6,80000040 <write_tohost>
    80000010:	00900f93          	li	t6,9
    80000014:	03ff0663          	beq	t5,t6,80000040 <write_tohost>
    80000018:	00b00f93          	li	t6,11
    8000001c:	03ff0263          	beq	t5,t6,80000040 <write_tohost>
    80000020:	80000f17          	auipc	t5,0x80000
    80000024:	fe0f0f13          	addi	t5,t5,-32 # 0 <_start-0x80000000>
    80000028:	000f0463          	beqz	t5,80000030 <trap_vector+0x2c>
    8000002c:	000f0067          	jr	t5
    80000030:	34202f73          	csrr	t5,mcause
    80000034:	000f5463          	bgez	t5,8000003c <handle_exception>
    80000038:	0040006f          	j	8000003c <handle_exception>

000000008000003c <handle_exception>:
    8000003c:	5391e193          	ori	gp,gp,1337

0000000080000040 <write_tohost>:
    80000040:	00001f17          	auipc	t5,0x1
    80000044:	fc3f2023          	sw	gp,-64(t5) # 80001000 <tohost>
    80000048:	000902b7          	lui	t0,0x90
    8000004c:	0012829b          	addiw	t0,t0,1
    80000050:	00c29293          	slli	t0,t0,0xc
    80000054:	0002af83          	lw	t6,0(t0) # 90000 <_start-0x7ff70000>
    80000058:	fe9ff06f          	j	80000040 <write_tohost>

000000008000005c <reset_vector>:
    8000005c:	00000093          	li	ra,0
    80000060:	00000113          	li	sp,0
    80000064:	00000193          	li	gp,0
    80000068:	00000213          	li	tp,0
    8000006c:	00000293          	li	t0,0
    80000070:	00000313          	li	t1,0
    80000074:	00000393          	li	t2,0
    80000078:	00000413          	li	s0,0
    8000007c:	00000493          	li	s1,0
    80000080:	00000513          	li	a0,0
    80000084:	00000593          	li	a1,0
    80000088:	00000613          	li	a2,0
    8000008c:	00000693          	li	a3,0
    80000090:	00000713          	li	a4,0
    80000094:	00000793          	li	a5,0
    80000098:	00000813          	li	a6,0
    8000009c:	00000893          	li	a7,0
    800000a0:	00000913          	li	s2,0
    800000a4:	00000993          	li	s3,0
    800000a8:	00000a13          	li	s4,0
    800000ac:	00000a93          	li	s5,0
    800000b0:	00000b13          	li	s6,0
    800000b4:	00000b93          	li	s7,0
    800000b8:	00000c13          	li	s8,0
    800000bc:	00000c93          	li	s9,0
    800000c0:	00000d13          	li	s10,0
    800000c4:	00000d93          	li	s11,0
    800000c8:	00000e13          	li	t3,0
    800000cc:	00000e93          	li	t4,0
    800000d0:	00000f13          	li	t5,0
    800000d4:	00000f93          	li	t6,0
    800000d8:	f1402573          	csrr	a0,mhartid
    800000dc:	00051063          	bnez	a0,800000dc <reset_vector+0x80>
    800000e0:	00000297          	auipc	t0,0x0
    800000e4:	01028293          	addi	t0,t0,16 # 800000f0 <reset_vector+0x94>
    800000e8:	30529073          	csrw	mtvec,t0
    800000ec:	18005073          	csrwi	satp,0
    800000f0:	00000297          	auipc	t0,0x0
    800000f4:	02428293          	addi	t0,t0,36 # 80000114 <reset_vector+0xb8>
    800000f8:	30529073          	csrw	mtvec,t0
    800000fc:	0010029b          	addiw	t0,zero,1
    80000100:	03529293          	slli	t0,t0,0x35
    80000104:	fff28293          	addi	t0,t0,-1
    80000108:	3b029073          	csrw	pmpaddr0,t0
    8000010c:	01f00293          	li	t0,31
    80000110:	3a029073          	csrw	pmpcfg0,t0
    80000114:	30405073          	csrwi	mie,0
    80000118:	00000297          	auipc	t0,0x0
    8000011c:	01428293          	addi	t0,t0,20 # 8000012c <reset_vector+0xd0>
    80000120:	30529073          	csrw	mtvec,t0
    80000124:	30205073          	csrwi	medeleg,0
    80000128:	30305073          	csrwi	mideleg,0
    8000012c:	00000193          	li	gp,0
    80000130:	00000297          	auipc	t0,0x0
    80000134:	ed428293          	addi	t0,t0,-300 # 80000004 <trap_vector>
    80000138:	30529073          	csrw	mtvec,t0
    8000013c:	00100513          	li	a0,1
    80000140:	01f51513          	slli	a0,a0,0x1f
    80000144:	00055c63          	bgez	a0,8000015c <reset_vector+0x100>
    80000148:	0ff0000f          	fence
    8000014c:	00100193          	li	gp,1
    80000150:	05d00893          	li	a7,93
    80000154:	00000513          	li	a0,0
    80000158:	00000073          	ecall
    8000015c:	80000297          	auipc	t0,0x80000
    80000160:	ea428293          	addi	t0,t0,-348 # 0 <_start-0x80000000>
    80000164:	00028a63          	beqz	t0,80000178 <reset_vector+0x11c>
    80000168:	10529073          	csrw	stvec,t0
    8000016c:	0000b2b7          	lui	t0,0xb
    80000170:	1092829b          	addiw	t0,t0,265
    80000174:	30229073          	csrw	medeleg,t0
    80000178:	30005073          	csrwi	mstatus,0
    8000017c:	00000297          	auipc	t0,0x0
    80000180:	01428293          	addi	t0,t0,20 # 80000190 <reset_vector+0x134>
    80000184:	34129073          	csrw	mepc,t0
    80000188:	f1402573          	csrr	a0,mhartid
    8000018c:	30200073          	mret
    80000190:	0200006f          	j	800001b0 <test_start>

0000000080000194 <crash_backward>:
    80000194:	0ff0000f          	fence
    80000198:	00018063          	beqz	gp,80000198 <crash_backward+0x4>
    8000019c:	00119193          	slli	gp,gp,0x1
    800001a0:	0011e193          	ori	gp,gp,1
    800001a4:	05d00893          	li	a7,93
    800001a8:	00018513          	mv	a0,gp
    800001ac:	00000073          	ecall

00000000800001b0 <test_start>:
    800001b0:	00002f97          	auipc	t6,0x2
    800001b4:	e50f8f93          	addi	t6,t6,-432 # 80002000 <hidden_data>
    800001b8:	000fb003          	ld	zero,0(t6)
    800001bc:	008fb083          	ld	ra,8(t6)
    800001c0:	010fb103          	ld	sp,16(t6)
    800001c4:	018fb183          	ld	gp,24(t6)
    800001c8:	020fb203          	ld	tp,32(t6)
    800001cc:	028fb283          	ld	t0,40(t6)
    800001d0:	030fb303          	ld	t1,48(t6)
    800001d4:	038fb383          	ld	t2,56(t6)
    800001d8:	040fb403          	ld	s0,64(t6)
    800001dc:	048fb483          	ld	s1,72(t6)
    800001e0:	050fb503          	ld	a0,80(t6)
    800001e4:	058fb583          	ld	a1,88(t6)
    800001e8:	060fb603          	ld	a2,96(t6)
    800001ec:	068fb683          	ld	a3,104(t6)
    800001f0:	070fb703          	ld	a4,112(t6)
    800001f4:	078fb783          	ld	a5,120(t6)
    800001f8:	080fb803          	ld	a6,128(t6)
    800001fc:	088fb883          	ld	a7,136(t6)
    80000200:	090fb903          	ld	s2,144(t6)
    80000204:	098fb983          	ld	s3,152(t6)
    80000208:	0a0fba03          	ld	s4,160(t6)
    8000020c:	0a8fba83          	ld	s5,168(t6)
    80000210:	0b0fbb03          	ld	s6,176(t6)
    80000214:	0b8fbb83          	ld	s7,184(t6)
    80000218:	0c0fbc03          	ld	s8,192(t6)
    8000021c:	0c8fbc83          	ld	s9,200(t6)
    80000220:	0d0fbd03          	ld	s10,208(t6)
    80000224:	0d8fbd83          	ld	s11,216(t6)
    80000228:	0e0fbe03          	ld	t3,224(t6)
    8000022c:	0e8fbe83          	ld	t4,232(t6)
    80000230:	0f0fbf03          	ld	t5,240(t6)
    80000234:	0f8fbf83          	ld	t6,248(t6)
    80000238:	0040006f          	j	8000023c <pseg_0>

000000008000023c <pseg_0>:
    8000023c:	96b00a13          	li	s4,-1685
    80000240:	e0b00c13          	li	s8,-501
    80000244:	023932b3          	mulhu	t0,s2,gp
    80000248:	65700e13          	li	t3,1623
    8000024c:	67a7019b          	addiw	gp,a4,1658
    80000250:	7d900593          	li	a1,2009
    80000254:	0634a513          	slti	a0,s1,99
    80000258:	00002697          	auipc	a3,0x2
    8000025c:	09a68693          	addi	a3,a3,154 # 800022f2 <test_memory+0xf2>
    80000260:	3026a983          	lw	s3,770(a3)
    80000264:	001bdb9b          	srliw	s7,s7,0x1
    80000268:	414a0933          	sub	s2,s4,s4
    8000026c:	00b28b3b          	addw	s6,t0,a1
    80000270:	02bc57b3          	divu	a5,s8,a1
    80000274:	0379dfbb          	divuw	t6,s3,s7
    80000278:	00100b13          	li	s6,1
    8000027c:	25e00793          	li	a5,606
    80000280:	01340533          	add	a0,s0,s3
    80000284:	7bb00913          	li	s2,1979
    80000288:	ee100493          	li	s1,-287
    8000028c:	01ce2db3          	slt	s11,t3,t3
    80000290:	5ea00813          	li	a6,1514
    80000294:	00002a97          	auipc	s5,0x2
    80000298:	fc6a8a93          	addi	s5,s5,-58 # 8000225a <test_memory+0x5a>
    8000029c:	13900d13          	li	s10,313
    800002a0:	03a803bb          	mulw	t2,a6,s10
    800002a4:	00e70a3b          	addw	s4,a4,a4
    800002a8:	47000293          	li	t0,1136
    800002ac:	01291c3b          	sllw	s8,s2,s2
    800002b0:	14837b93          	andi	s7,t1,328
    800002b4:	b7100613          	li	a2,-1167
    800002b8:	03fb1b13          	slli	s6,s6,0x3f
    800002bc:	3f800f93          	li	t6,1016
    800002c0:	01f7913b          	sllw	sp,a5,t6
    800002c4:	cb500e93          	li	t4,-843
    800002c8:	82c00593          	li	a1,-2004
    800002cc:	03d4fcbb          	remuw	s9,s1,t4
    800002d0:	c1a00313          	li	t1,-998
    800002d4:	fff00193          	li	gp,-1
    800002d8:	02665733          	divu	a4,a2,t1
    800002dc:	00002217          	auipc	tp,0x2
    800002e0:	c6620213          	addi	tp,tp,-922 # 80001f42 <fromhost+0xf02>
    800002e4:	00003097          	auipc	ra,0x3
    800002e8:	a4908093          	addi	ra,ra,-1463 # 80002d2d <_end+0x71d>
    800002ec:	0161c1b3          	xor	gp,gp,s6
    800002f0:	003476b3          	and	a3,s0,gp
    800002f4:	4118d53b          	sraw	a0,a7,a7
    800002f8:	01ffaeb3          	slt	t4,t6,t6
    800002fc:	03ad7333          	remu	t1,s10,s10
    80000300:	403cd81b          	sraiw	a6,s9,0x3
    80000304:	00002717          	auipc	a4,0x2
    80000308:	74770713          	addi	a4,a4,1863 # 80002a4b <_end+0x43b>
    8000030c:	47a00b93          	li	s7,1146
    80000310:	0165e8b3          	or	a7,a1,s6
    80000314:	21500e13          	li	t3,533
    80000318:	a9670ea3          	sb	s6,-1379(a4)
    8000031c:	83600913          	li	s2,-1994
    80000320:	56100613          	li	a2,1377
    80000324:	01eab403          	ld	s0,30(s5)
    80000328:	fd100d93          	li	s11,-47
    8000032c:	68620f03          	lb	t5,1670(tp) # 686 <_start-0x7ffff97a>
    80000330:	01bdacb3          	slt	s9,s11,s11
    80000334:	00b2a9b3          	slt	s3,t0,a1
    80000338:	e9700393          	li	t2,-361
    8000033c:	77560d13          	addi	s10,a2,1909
    80000340:	03cbf13b          	remuw	sp,s7,t3
    80000344:	8be090a3          	sh	t5,-1887(ra)
    80000348:	9bc00493          	li	s1,-1604
    8000034c:	e5a604e3          	beq	a2,s10,80000194 <crash_backward>
    80000350:	aff00213          	li	tp,-1281
    80000354:	015c0133          	add	sp,s8,s5
    80000358:	00002297          	auipc	t0,0x2
    8000035c:	10c28293          	addi	t0,t0,268 # 80002464 <test_memory+0x264>
    80000360:	0f300b13          	li	s6,243
    80000364:	62200093          	li	ra,1570
    80000368:	e682aa23          	sw	s0,-396(t0)
    8000036c:	42e65793          	srai	a5,a2,0x2e
    80000370:	efe00313          	li	t1,-258
    80000374:	e20040e3          	bltz	zero,80000194 <crash_backward>
    80000378:	ba200c93          	li	s9,-1118
    8000037c:	c8a00b93          	li	s7,-886
    80000380:	f5900c13          	li	s8,-167
    80000384:	037bf1b3          	remu	gp,s7,s7
    80000388:	9a900f13          	li	t5,-1623
    8000038c:	38800813          	li	a6,904
    80000390:	031d7ebb          	remuw	t4,s10,a7
    80000394:	1eb00993          	li	s3,491
    80000398:	01297db3          	and	s11,s2,s2
    8000039c:	036b7533          	remu	a0,s6,s6
    800003a0:	030841b3          	div	gp,a6,a6
    800003a4:	030f4433          	div	s0,t5,a6
    800003a8:	0094e2b3          	or	t0,s1,s1
    800003ac:	00002b97          	auipc	s7,0x2
    800003b0:	5f8b8b93          	addi	s7,s7,1528 # 800029a4 <_end+0x394>
    800003b4:	01ce66b3          	or	a3,t3,t3
    800003b8:	60006263          	bltu	zero,zero,800009bc <crash_forward>
    800003bc:	01890fbb          	addw	t6,s2,s8
    800003c0:	30a48893          	addi	a7,s1,778
    800003c4:	00620e3b          	addw	t3,tp,t1
    800003c8:	0139d5bb          	srlw	a1,s3,s3
    800003cc:	019cdab3          	srl	s5,s9,s9
    800003d0:	0294f333          	remu	t1,s1,s1
    800003d4:	00002897          	auipc	a7,0x2
    800003d8:	c6c88893          	addi	a7,a7,-916 # 80002040 <reg_x8_init>
    800003dc:	02938a3b          	mulw	s4,t2,s1
    800003e0:	96f00413          	li	s0,-1681
    800003e4:	50700813          	li	a6,1287
    800003e8:	03ef2533          	mulhsu	a0,t5,t5
    800003ec:	001e9f3b          	sllw	t5,t4,ra
    800003f0:	00002e17          	auipc	t3,0x2
    800003f4:	270e0e13          	addi	t3,t3,624 # 80002660 <_end+0x50>
    800003f8:	037b99b3          	mulh	s3,s7,s7
    800003fc:	5a080193          	addi	gp,a6,1440
    80000400:	021b1733          	mulh	a4,s6,ra
    80000404:	00000913          	li	s2,0
    80000408:	b3f00e93          	li	t4,-1217
    8000040c:	03295d3b          	divuw	s10,s2,s2
    80000410:	00000693          	li	a3,0
    80000414:	3a589923          	sh	t0,946(a7)
    80000418:	000b0293          	mv	t0,s6
    8000041c:	c7ce5d83          	lhu	s11,-900(t3)
    80000420:	7b400113          	li	sp,1972
    80000424:	58380c63          	beq	a6,gp,800009bc <crash_forward>
    80000428:	035ac5b3          	div	a1,s5,s5
    8000042c:	002e863b          	addw	a2,t4,sp
    80000430:	00028213          	mv	tp,t0
    80000434:	89400a93          	li	s5,-1900
    80000438:	5d400f93          	li	t6,1492
    8000043c:	b7ab9783          	lh	a5,-1158(s7)
    80000440:	2b200c93          	li	s9,690
    80000444:	56d91c63          	bne	s2,a3,800009bc <crash_forward>
    80000448:	eed00793          	li	a5,-275
    8000044c:	01145ebb          	srlw	t4,s0,a7
    80000450:	40f7d9b3          	sra	s3,a5,a5
    80000454:	00002817          	auipc	a6,0x2
    80000458:	ec880813          	addi	a6,a6,-312 # 8000231c <test_memory+0x11c>
    8000045c:	00100d93          	li	s11,1
    80000460:	02d6c8bb          	divw	a7,a3,a3
    80000464:	5f400493          	li	s1,1524
    80000468:	039a8333          	mul	t1,s5,s9
    8000046c:	03f46c33          	rem	s8,s0,t6
    80000470:	014f893b          	addw	s2,t6,s4
    80000474:	00100613          	li	a2,1
    80000478:	50200b93          	li	s7,1282
    8000047c:	96b00313          	li	t1,-1685
    80000480:	bbc00393          	li	t2,-1092
    80000484:	03fd9d93          	slli	s11,s11,0x3f
    80000488:	02635cb3          	divu	s9,t1,t1
    8000048c:	037b8d33          	mul	s10,s7,s7
    80000490:	35300313          	li	t1,851
    80000494:	e6800713          	li	a4,-408
    80000498:	2e000993          	li	s3,736
    8000049c:	fff00b13          	li	s6,-1
    800004a0:	5f800b93          	li	s7,1528
    800004a4:	033988b3          	mul	a7,s3,s3
    800004a8:	00321193          	slli	gp,tp,0x3
    800004ac:	0269dc13          	srli	s8,s3,0x26
    800004b0:	02925ebb          	divuw	t4,tp,s1
    800004b4:	0e600413          	li	s0,230
    800004b8:	01a6dd33          	srl	s10,a3,s10
    800004bc:	5042c063          	blt	t0,tp,800009bc <crash_forward>
    800004c0:	01700f93          	li	t6,23
    800004c4:	03734cb3          	div	s9,t1,s7
    800004c8:	01f40933          	add	s2,s0,t6
    800004cc:	03f61613          	slli	a2,a2,0x3f
    800004d0:	bb838a13          	addi	s4,t2,-1096
    800004d4:	01bb4b33          	xor	s6,s6,s11
    800004d8:	016070b3          	and	ra,zero,s6
    800004dc:	e7870113          	addi	sp,a4,-392
    800004e0:	009495bb          	sllw	a1,s1,s1
    800004e4:	01b66f33          	or	t5,a2,s11
    800004e8:	00002e17          	auipc	t3,0x2
    800004ec:	427e0e13          	addi	t3,t3,1063 # 8000290f <_end+0x2ff>
    800004f0:	fff00a93          	li	s5,-1
    800004f4:	00cacab3          	xor	s5,s5,a2
    800004f8:	0153f6b3          	and	a3,t2,s5
    800004fc:	adfe1fa3          	sh	t6,-1313(t3)
    80000500:	0cc83503          	ld	a0,204(a6)
    80000504:	00c567b3          	or	a5,a0,a2
    80000508:	00cbdc33          	srl	s8,s7,a2
    8000050c:	67600f93          	li	t6,1654
    80000510:	01de8eb3          	add	t4,t4,t4
    80000514:	b8700e13          	li	t3,-1145
    80000518:	018c68b3          	or	a7,s8,s8
    8000051c:	fc700693          	li	a3,-57
    80000520:	66f00b13          	li	s6,1647
    80000524:	44600b93          	li	s7,1094
    80000528:	016b5233          	srl	tp,s6,s6
    8000052c:	00422433          	slt	s0,tp,tp
    80000530:	01ce6933          	or	s2,t3,t3
    80000534:	00100d13          	li	s10,1
    80000538:	00df83b3          	add	t2,t6,a3
    8000053c:	d8800293          	li	t0,-632
    80000540:	00002517          	auipc	a0,0x2
    80000544:	2db50513          	addi	a0,a0,731 # 8000281b <_end+0x20b>
    80000548:	413989bb          	subw	s3,s3,s3
    8000054c:	03fd1d13          	slli	s10,s10,0x3f
    80000550:	5f000613          	li	a2,1520
    80000554:	00c65abb          	srlw	s5,a2,a2
    80000558:	00100093          	li	ra,1
    8000055c:	03f09093          	slli	ra,ra,0x3f
    80000560:	017bf5b3          	and	a1,s7,s7
    80000564:	01bd9b33          	sll	s6,s11,s11
    80000568:	1fc00693          	li	a3,508
    8000056c:	021bf833          	remu	a6,s7,ra
    80000570:	00100f93          	li	t6,1
    80000574:	00002897          	auipc	a7,0x2
    80000578:	1d688893          	addi	a7,a7,470 # 8000274a <_end+0x13a>
    8000057c:	40d6d13b          	sraw	sp,a3,a3
    80000580:	ebc00993          	li	s3,-324
    80000584:	c9c00c13          	li	s8,-868
    80000588:	88d98213          	addi	tp,s3,-1907
    8000058c:	0252f1b3          	remu	gp,t0,t0
    80000590:	03ff9f93          	slli	t6,t6,0x3f
    80000594:	fff00c93          	li	s9,-1
    80000598:	fff00a13          	li	s4,-1
    8000059c:	fff00b93          	li	s7,-1
    800005a0:	17c00f13          	li	t5,380
    800005a4:	c621b613          	sltiu	a2,gp,-926
    800005a8:	00002a97          	auipc	s5,0x2
    800005ac:	030a8a93          	addi	s5,s5,48 # 800025d8 <test_memory+0x3d8>
    800005b0:	c7c8bb23          	sd	t3,-906(a7)
    800005b4:	01fbcbb3          	xor	s7,s7,t6
    800005b8:	01ef7333          	and	t1,t5,t5
    800005bc:	c5000b13          	li	s6,-944
    800005c0:	01aa4a33          	xor	s4,s4,s10
    800005c4:	f42ad903          	lhu	s2,-190(s5)
    800005c8:	001cccb3          	xor	s9,s9,ra
    800005cc:	cb4502a3          	sb	s4,-859(a0)
    800005d0:	019efdb3          	and	s11,t4,s9
    800005d4:	55368e93          	addi	t4,a3,1363
    800005d8:	3edee263          	bltu	t4,a3,800009bc <crash_forward>
    800005dc:	014574b3          	and	s1,a0,s4
    800005e0:	0231ae33          	mulhsu	t3,gp,gp
    800005e4:	32d00313          	li	t1,813
    800005e8:	41380f33          	sub	t5,a6,s3
    800005ec:	fea00813          	li	a6,-22
    800005f0:	00100513          	li	a0,1
    800005f4:	010b52b3          	srl	t0,s6,a6
    800005f8:	2bf00193          	li	gp,703
    800005fc:	b8001ce3          	bnez	zero,80000194 <crash_backward>
    80000600:	01a4e733          	or	a4,s1,s10
    80000604:	f0700613          	li	a2,-249
    80000608:	03f51513          	slli	a0,a0,0x3f
    8000060c:	017875b3          	and	a1,a6,s7
    80000610:	006309b3          	add	s3,t1,t1
    80000614:	01f5e433          	or	s0,a1,t6
    80000618:	fff00913          	li	s2,-1
    8000061c:	4031dab3          	sra	s5,gp,gp
    80000620:	00a94933          	xor	s2,s2,a0
    80000624:	01880333          	add	t1,a6,s8
    80000628:	d1a60213          	addi	tp,a2,-742
    8000062c:	038c33b3          	mulhu	t2,s8,s8
    80000630:	b6400813          	li	a6,-1180
    80000634:	79900993          	li	s3,1945
    80000638:	a937a693          	slti	a3,a5,-1389
    8000063c:	b4e4fce3          	bgeu	s1,a4,80000194 <crash_backward>
    80000640:	78a00e13          	li	t3,1930
    80000644:	01086b33          	or	s6,a6,a6
    80000648:	0017e7b3          	or	a5,a5,ra
    8000064c:	a2d00e93          	li	t4,-1491
    80000650:	01247133          	and	sp,s0,s2
    80000654:	36fdc463          	blt	s11,a5,800009bc <crash_forward>
    80000658:	00002a97          	auipc	s5,0x2
    8000065c:	263a8a93          	addi	s5,s5,611 # 800028bb <_end+0x2ab>
    80000660:	03decf3b          	divw	t5,t4,t4
    80000664:	a77ab6a3          	sd	s7,-1427(s5)
    80000668:	34460a63          	beq	a2,tp,800009bc <crash_forward>
    8000066c:	037bd333          	divu	t1,s7,s7
    80000670:	03c9f2b3          	remu	t0,s3,t3
    80000674:	3ad00193          	li	gp,941
    80000678:	00a168b3          	or	a7,sp,a0
    8000067c:	b1110ce3          	beq	sp,a7,80000194 <crash_backward>
    80000680:	10000c13          	li	s8,256
    80000684:	018183b3          	add	t2,gp,s8
    80000688:	3b900993          	li	s3,953
    8000068c:	d4200e93          	li	t4,-702
    80000690:	03d98c33          	mul	s8,s3,t4
    80000694:	02424cb3          	div	s9,tp,tp
    80000698:	01ce1633          	sll	a2,t3,t3
    8000069c:	00100093          	li	ra,1
    800006a0:	89200793          	li	a5,-1902
    800006a4:	8b200293          	li	t0,-1870
    800006a8:	e4a00b93          	li	s7,-438
    800006ac:	020ccfbb          	divw	t6,s9,zero
    800006b0:	00002c17          	auipc	s8,0x2
    800006b4:	08cc0c13          	addi	s8,s8,140 # 8000273c <_end+0x12c>
    800006b8:	88700b13          	li	s6,-1913
    800006bc:	e3a00313          	li	t1,-454
    800006c0:	026b2e33          	mulhsu	t3,s6,t1
    800006c4:	4264d713          	srai	a4,s1,0x26
    800006c8:	e6800193          	li	gp,-408
    800006cc:	03369933          	mulh	s2,a3,s3
    800006d0:	03f09093          	slli	ra,ra,0x3f
    800006d4:	46e00813          	li	a6,1134
    800006d8:	fff00413          	li	s0,-1
    800006dc:	75a00393          	li	t2,1882
    800006e0:	00002e97          	auipc	t4,0x2
    800006e4:	d46e8e93          	addi	t4,t4,-698 # 80002426 <test_memory+0x226>
    800006e8:	027fbcb3          	mulhu	s9,t6,t2
    800006ec:	43b80693          	addi	a3,a6,1083
    800006f0:	049eb523          	sd	s1,74(t4)
    800006f4:	85f00513          	li	a0,-1953
    800006f8:	0077bab3          	sltu	s5,a5,t2
    800006fc:	00144433          	xor	s0,s0,ra
    80000700:	008bf8b3          	and	a7,s7,s0
    80000704:	0252aa33          	mulhsu	s4,t0,t0
    80000708:	0019e133          	or	sp,s3,ra
    8000070c:	fab18213          	addi	tp,gp,-85 # 80002dbb <_end+0x7ab>
    80000710:	ee200593          	li	a1,-286
    80000714:	00b564b3          	or	s1,a0,a1
    80000718:	69200f13          	li	t5,1682
    8000071c:	00001d17          	auipc	s10,0x1
    80000720:	63dd0d13          	addi	s10,s10,1597 # 80001d59 <fromhost+0xd19>
    80000724:	6f7d1ca3          	sh	s7,1785(s10)
    80000728:	01eb8dbb          	addw	s11,s7,t5
    8000072c:	d3bc0983          	lb	s3,-709(s8)
    80000730:	28d87663          	bgeu	a6,a3,800009bc <crash_forward>
    80000734:	caddfe13          	andi	t3,s11,-851
    80000738:	46100e93          	li	t4,1121
    8000073c:	ff22f593          	andi	a1,t0,-14
    80000740:	bd300f13          	li	t5,-1069
    80000744:	e5e00413          	li	s0,-418
    80000748:	417f8533          	sub	a0,t6,s7
    8000074c:	4221da93          	srai	s5,gp,0x22
    80000750:	00100693          	li	a3,1
    80000754:	412e561b          	sraiw	a2,t3,0x12
    80000758:	bce00913          	li	s2,-1074
    8000075c:	00002117          	auipc	sp,0x2
    80000760:	1cb10113          	addi	sp,sp,459 # 80002927 <_end+0x317>
    80000764:	01ef0fb3          	add	t6,t5,t5
    80000768:	cc000193          	li	gp,-832
    8000076c:	02318abb          	mulw	s5,gp,gp
    80000770:	00002f17          	auipc	t5,0x2
    80000774:	272f0f13          	addi	t5,t5,626 # 800029e2 <_end+0x3d2>
    80000778:	a249acb7          	lui	s9,0xa249a
    8000077c:	69500613          	li	a2,1685
    80000780:	02c634b3          	mulhu	s1,a2,a2
    80000784:	01dedc3b          	srlw	s8,t4,t4
    80000788:	73d00813          	li	a6,1853
    8000078c:	2d900713          	li	a4,729
    80000790:	00002897          	auipc	a7,0x2
    80000794:	ce688893          	addi	a7,a7,-794 # 80002476 <test_memory+0x276>
    80000798:	02e95a33          	divu	s4,s2,a4
    8000079c:	b4bf2123          	sw	a1,-1214(t5)
    800007a0:	028c01b3          	mul	gp,s8,s0
    800007a4:	caf00f93          	li	t6,-849
    800007a8:	d2c00d93          	li	s11,-724
    800007ac:	cb800493          	li	s1,-840
    800007b0:	00001717          	auipc	a4,0x1
    800007b4:	7e970713          	addi	a4,a4,2025 # 80001f99 <fromhost+0xf59>
    800007b8:	004c8ab3          	add	s5,s9,tp
    800007bc:	ea35af13          	slti	t5,a1,-349
    800007c0:	73000513          	li	a0,1840
    800007c4:	40a602b3          	sub	t0,a2,a0
    800007c8:	00002197          	auipc	gp,0x2
    800007cc:	ddf18193          	addi	gp,gp,-545 # 800025a7 <test_memory+0x3a7>
    800007d0:	029fdebb          	divuw	t4,t6,s1
    800007d4:	a0f124a3          	sw	a5,-1527(sp)
    800007d8:	00002c17          	auipc	s8,0x2
    800007dc:	05fc0c13          	addi	s8,s8,95 # 80002837 <_end+0x227>
    800007e0:	03f69693          	slli	a3,a3,0x3f
    800007e4:	fff00313          	li	t1,-1
    800007e8:	58700f13          	li	t5,1415
    800007ec:	00100e93          	li	t4,1
    800007f0:	034afb33          	remu	s6,s5,s4
    800007f4:	01ce063b          	addw	a2,t3,t3
    800007f8:	41ef54bb          	sraw	s1,t5,t5
    800007fc:	010400b3          	add	ra,s0,a6
    80000800:	03ef6fb3          	rem	t6,t5,t5
    80000804:	01decb33          	xor	s6,t4,t4
    80000808:	00000213          	li	tp,0
    8000080c:	51200093          	li	ra,1298
    80000810:	12e89383          	lh	t2,302(a7)
    80000814:	00d34333          	xor	t1,t1,a3
    80000818:	16900493          	li	s1,361
    8000081c:	00000b93          	li	s7,0
    80000820:	19726e63          	bltu	tp,s7,800009bc <crash_forward>
    80000824:	00002e17          	auipc	t3,0x2
    80000828:	023e0e13          	addi	t3,t3,35 # 80002847 <_end+0x237>
    8000082c:	d41e3583          	ld	a1,-703(t3)
    80000830:	006ffd33          	and	s10,t6,t1
    80000834:	81a00813          	li	a6,-2022
    80000838:	03fe9e93          	slli	t4,t4,0x3f
    8000083c:	fff00c93          	li	s9,-1
    80000840:	0304cf3b          	divw	t5,s1,a6
    80000844:	b0900893          	li	a7,-1271
    80000848:	00dce9b3          	or	s3,s9,a3
    8000084c:	01dcccb3          	xor	s9,s9,t4
    80000850:	ceb19903          	lh	s2,-789(gp) # 80002afb <_end+0x4eb>
    80000854:	0010a133          	slt	sp,ra,ra
    80000858:	41bdd7b3          	sra	a5,s11,s11
    8000085c:	8f700413          	li	s0,-1801
    80000860:	0193f2b3          	and	t0,t2,s9
    80000864:	0000153b          	sllw	a0,zero,zero
    80000868:	48b74a03          	lbu	s4,1163(a4)
    8000086c:	1f400513          	li	a0,500
    80000870:	be9c24a3          	sw	s1,-1047(s8)
    80000874:	d4a00b93          	li	s7,-694
    80000878:	25600793          	li	a5,598
    8000087c:	58e00493          	li	s1,1422
    80000880:	0280e633          	rem	a2,ra,s0
    80000884:	01d2eab3          	or	s5,t0,t4
    80000888:	95100e13          	li	t3,-1711
    8000088c:	41ce0f33          	sub	t5,t3,t3
    80000890:	00fb8133          	add	sp,s7,a5
    80000894:	50f00913          	li	s2,1295
    80000898:	0fd00b13          	li	s6,253
    8000089c:	03650833          	mul	a6,a0,s6
    800008a0:	032485bb          	mulw	a1,s1,s2
    800008a4:	60200393          	li	t2,1538
    800008a8:	02789fb3          	mulh	t6,a7,t2
    800008ac:	01bdbfb3          	sltu	t6,s11,s11
    800008b0:	00020593          	mv	a1,tp
    800008b4:	7bd54993          	xori	s3,a0,1981
    800008b8:	20e00893          	li	a7,526
    800008bc:	032bd433          	divu	s0,s7,s2
    800008c0:	ad800913          	li	s2,-1320
    800008c4:	0118d3bb          	srlw	t2,a7,a7
    800008c8:	4ec00713          	li	a4,1260
    800008cc:	01bd90bb          	sllw	ra,s11,s11
    800008d0:	ca900293          	li	t0,-855
    800008d4:	00058b93          	mv	s7,a1
    800008d8:	0f75e263          	bltu	a1,s7,800009bc <crash_forward>
    800008dc:	95400213          	li	tp,-1708
    800008e0:	f9c28313          	addi	t1,t0,-100
    800008e4:	00100f13          	li	t5,1
    800008e8:	03ff1f13          	slli	t5,t5,0x3f
    800008ec:	0047113b          	sllw	sp,a4,tp
    800008f0:	016907b3          	add	a5,s2,s6
    800008f4:	7e200193          	li	gp,2018
    800008f8:	03291533          	mulh	a0,s2,s2
    800008fc:	fff00a13          	li	s4,-1
    80000900:	4031db3b          	sraw	s6,gp,gp
    80000904:	00002e17          	auipc	t3,0x2
    80000908:	0b3e0e13          	addi	t3,t3,179 # 800029b7 <_end+0x3a7>
    8000090c:	0a535863          	bge	t1,t0,800009bc <crash_forward>
    80000910:	ad0e22a3          	sw	a6,-1339(t3)
    80000914:	01ea4a33          	xor	s4,s4,t5
    80000918:	0142fdb3          	and	s11,t0,s4
    8000091c:	01edeab3          	or	s5,s11,t5
    80000920:	0040006f          	j	80000924 <reg_dump>

0000000080000924 <reg_dump>:
    80000924:	00002097          	auipc	ra,0x2
    80000928:	cdc08093          	addi	ra,ra,-804 # 80002600 <loop_count>
    8000092c:	0000a103          	lw	sp,0(ra)
    80000930:	fff10193          	addi	gp,sp,-1
    80000934:	0030a023          	sw	gp,0(ra)
    80000938:	900112e3          	bnez	sp,8000023c <pseg_0>
    8000093c:	00001097          	auipc	ra,0x1
    80000940:	7c408093          	addi	ra,ra,1988 # 80002100 <begin_signature>
    80000944:	0000b023          	sd	zero,0(ra)
    80000948:	0020b823          	sd	sp,16(ra)
    8000094c:	0030bc23          	sd	gp,24(ra)
    80000950:	0240b023          	sd	tp,32(ra)
    80000954:	0250b423          	sd	t0,40(ra)
    80000958:	0260b823          	sd	t1,48(ra)
    8000095c:	0270bc23          	sd	t2,56(ra)
    80000960:	0480b023          	sd	s0,64(ra)
    80000964:	0490b423          	sd	s1,72(ra)
    80000968:	04a0b823          	sd	a0,80(ra)
    8000096c:	04b0bc23          	sd	a1,88(ra)
    80000970:	06c0b023          	sd	a2,96(ra)
    80000974:	06d0b423          	sd	a3,104(ra)
    80000978:	06e0b823          	sd	a4,112(ra)
    8000097c:	06f0bc23          	sd	a5,120(ra)
    80000980:	0900b023          	sd	a6,128(ra)
    80000984:	0910b423          	sd	a7,136(ra)
    80000988:	0920b823          	sd	s2,144(ra)
    8000098c:	0930bc23          	sd	s3,152(ra)
    80000990:	0b40b023          	sd	s4,160(ra)
    80000994:	0b50b423          	sd	s5,168(ra)
    80000998:	0b60b823          	sd	s6,176(ra)
    8000099c:	0b70bc23          	sd	s7,184(ra)
    800009a0:	0d90b423          	sd	s9,200(ra)
    800009a4:	0da0b823          	sd	s10,208(ra)
    800009a8:	0db0bc23          	sd	s11,216(ra)
    800009ac:	0fd0b423          	sd	t4,232(ra)
    800009b0:	0fe0b823          	sd	t5,240(ra)
    800009b4:	0ff0bc23          	sd	t6,248(ra)
    800009b8:	0200006f          	j	800009d8 <test_end>

00000000800009bc <crash_forward>:
    800009bc:	0ff0000f          	fence
    800009c0:	00018063          	beqz	gp,800009c0 <crash_forward+0x4>
    800009c4:	00119193          	slli	gp,gp,0x1
    800009c8:	0011e193          	ori	gp,gp,1
    800009cc:	05d00893          	li	a7,93
    800009d0:	00018513          	mv	a0,gp
    800009d4:	00000073          	ecall

00000000800009d8 <test_end>:
    800009d8:	0ff0000f          	fence
    800009dc:	00100193          	li	gp,1
    800009e0:	05d00893          	li	a7,93
    800009e4:	00000513          	li	a0,0
    800009e8:	00000073          	ecall
    800009ec:	c0001073          	unimp
	...

Disassembly of section .tohost:

0000000080001000 <tohost>:
	...

0000000080001040 <fromhost>:
	...

Disassembly of section .data:

0000000080002000 <hidden_data>:
    80002000:	8002                	0x8002
    80002002:	ffff                	0xffff
    80002004:	ffff                	0xffff
    80002006:	ffff                	0xffff

0000000080002008 <reg_x1_init>:
    80002008:	0002                	c.slli64	zero
    8000200a:	0000                	unimp
    8000200c:	0000                	unimp
    8000200e:	0800                	addi	s0,sp,16

0000000080002010 <reg_x2_init>:
    80002010:	65c32fe3          	0x65c32fe3
    80002014:	99be5c57          	0x99be5c57

0000000080002018 <reg_x3_init>:
    80002018:	ffff                	0xffff
    8000201a:	ffff                	0xffff
    8000201c:	ffff                	0xffff
    8000201e:	ffff                	0xffff

0000000080002020 <reg_x4_init>:
    80002020:	ffff                	0xffff
    80002022:	ffff                	0xffff
    80002024:	ffff                	0xffff
    80002026:	ffff                	0xffff

0000000080002028 <reg_x5_init>:
    80002028:	7c31                	lui	s8,0xfffec
    8000202a:	f269                	bnez	a2,80001fec <fromhost+0xfac>
    8000202c:	a061                	j	800020b4 <reg_x22_init+0x4>
    8000202e:	289e                	fld	fa7,448(sp)

0000000080002030 <reg_x6_init>:
    80002030:	8000                	0x8000
    80002032:	ffff                	0xffff
    80002034:	ffff                	0xffff
    80002036:	ffff                	0xffff

0000000080002038 <reg_x7_init>:
	...

0000000080002040 <reg_x8_init>:
    80002040:	00000007          	0x7
    80002044:	0000                	unimp
	...

0000000080002048 <reg_x9_init>:
    80002048:	ff85                	bnez	a5,80001f80 <fromhost+0xf40>
    8000204a:	ffff                	0xffff
    8000204c:	ffff                	0xffff
    8000204e:	ffff                	0xffff

0000000080002050 <reg_x10_init>:
    80002050:	e07a                	sd	t5,0(sp)
    80002052:	6d8e                	ld	s11,192(sp)
    80002054:	93fd                	srli	a5,a5,0x3f
    80002056:	7525                	lui	a0,0xfffe9

0000000080002058 <reg_x11_init>:
    80002058:	7946                	ld	s2,112(sp)
    8000205a:	52328b8f          	0x52328b8f
    8000205e:	8a85                	andi	a3,a3,1

0000000080002060 <reg_x12_init>:
    80002060:	0000                	unimp
    80002062:	0000                	unimp
    80002064:	0000                	unimp
    80002066:	0800                	addi	s0,sp,16

0000000080002068 <reg_x13_init>:
    80002068:	3d5e                	fld	fs10,496(sp)
    8000206a:	c372                	sw	t3,132(sp)
    8000206c:	08e6                	slli	a7,a7,0x19
    8000206e:	232a                	fld	ft6,136(sp)

0000000080002070 <reg_x14_init>:
    80002070:	1c4c8853          	0x1c4c8853
    80002074:	763c                	ld	a5,104(a2)
    80002076:	021f        	0x80000008021f

0000000080002078 <reg_x15_init>:
    80002078:	0008                	0x8
    8000207a:	8000                	0x8000
    8000207c:	ffff                	0xffff
    8000207e:	ffff                	0xffff

0000000080002080 <reg_x16_init>:
    80002080:	0001                	nop
    80002082:	0000                	unimp
    80002084:	0000                	unimp
	...

0000000080002088 <reg_x17_init>:
    80002088:	bdb2                	fsd	fa2,248(sp)
    8000208a:	cbc0                	sw	s0,20(a5)
    8000208c:	2fa8                	fld	fa0,88(a5)
    8000208e:	f9b1                	bnez	a1,80001fe2 <fromhost+0xfa2>

0000000080002090 <reg_x18_init>:
    80002090:	0002                	c.slli64	zero
    80002092:	8000                	0x8000
    80002094:	ffff                	0xffff
    80002096:	ffff                	0xffff

0000000080002098 <reg_x19_init>:
    80002098:	fa37c5af          	0xfa37c5af
    8000209c:	1706                	slli	a4,a4,0x21
    8000209e:	7d29                	lui	s10,0xfffea

00000000800020a0 <reg_x20_init>:
    800020a0:	4994                	lw	a3,16(a1)
    800020a2:	caf0                	sw	a2,84(a3)
    800020a4:	b76c                	fsd	fa1,232(a4)
    800020a6:	          	lui	a7,0x49

00000000800020a8 <reg_x21_init>:
    800020a8:	0004                	0x4
    800020aa:	0000                	unimp
    800020ac:	0000                	unimp
    800020ae:	0800                	addi	s0,sp,16

00000000800020b0 <reg_x22_init>:
	...

00000000800020b8 <reg_x23_init>:
    800020b8:	ff84                	sd	s1,56(a5)
    800020ba:	ffff                	0xffff
    800020bc:	ffff                	0xffff
    800020be:	ffff                	0xffff

00000000800020c0 <reg_x24_init>:
    800020c0:	0000                	unimp
    800020c2:	8000                	0x8000
    800020c4:	ffff                	0xffff
    800020c6:	ffff                	0xffff

00000000800020c8 <reg_x25_init>:
    800020c8:	ffff                	0xffff
    800020ca:	ffff                	0xffff
    800020cc:	ffff                	0xffff
    800020ce:	ffff                	0xffff

00000000800020d0 <reg_x26_init>:
    800020d0:	e0b2                	sd	a2,64(sp)
    800020d2:	587e                	lw	a6,252(sp)
    800020d4:	dc1c                	sw	a5,56(s0)
    800020d6:	          	0x9f34268f

00000000800020d8 <reg_x27_init>:
    800020d8:	9f34                	0x9f34
    800020da:	18830c43          	fmadd.s	fs8,ft6,fs0,ft3,rne
    800020de:	bdde                	fsd	fs7,248(sp)

00000000800020e0 <reg_x28_init>:
    800020e0:	ff86                	sd	ra,504(sp)
    800020e2:	ffff                	0xffff
    800020e4:	ffff                	0xffff
    800020e6:	ffff                	0xffff

00000000800020e8 <reg_x29_init>:
    800020e8:	0002                	c.slli64	zero
    800020ea:	8000                	0x8000
    800020ec:	ffff                	0xffff
    800020ee:	ffff                	0xffff

00000000800020f0 <reg_x30_init>:
    800020f0:	bceb60e3          	bltu	s6,a4,80001cb0 <fromhost+0xc70>
    800020f4:	7c5c                	ld	a5,184(s0)
    800020f6:	          	fmsub.s	ft6,fa0,ft0,ft0,rne

00000000800020f8 <reg_x31_init>:
    800020f8:	0005                	c.nop	1
    800020fa:	8000                	0x8000
    800020fc:	ffff                	0xffff
    800020fe:	ffff                	0xffff

0000000080002100 <begin_signature>:
    80002100:	017a                	slli	sp,sp,0x1e
    80002102:	865c                	0x865c
    80002104:	eed2e7db          	0xeed2e7db

0000000080002108 <reg_x1_output>:
    80002108:	817c                	0x817c
    8000210a:	4fdd8803          	lb	a6,1277(s11)
    8000210e:	          	0x7d9051af

0000000080002110 <reg_x2_output>:
    80002110:	7d90                	ld	a2,56(a1)
    80002112:	a29b3d83          	ld	s11,-1495(s6)
    80002116:	3b70                	fld	fa2,240(a4)

0000000080002118 <reg_x3_output>:
    80002118:	1675                	addi	a2,a2,-3
    8000211a:	4295                	li	t0,5
    8000211c:	e29bef37          	lui	t5,0xe29be

0000000080002120 <reg_x4_output>:
    80002120:	a020                	fsd	fs0,64(s0)
    80002122:	8e5c                	0x8e5c
    80002124:	f676                	sd	t4,296(sp)
    80002126:	82bd                	srli	a3,a3,0xf

0000000080002128 <reg_x5_output>:
    80002128:	d83402b7          	lui	t0,0xd8340
    8000212c:	3519                	addiw	a0,a0,-26
    8000212e:	  	0x74003e727546923f

0000000080002130 <reg_x6_output>:
    80002130:	7546                	ld	a0,112(sp)
    80002132:	3e72                	fld	ft8,312(sp)
    80002134:	7400                	ld	s0,40(s0)
    80002136:	          	0xec05d92f

0000000080002138 <reg_x7_output>:
    80002138:	ec05                	bnez	s0,80002170 <reg_x14_output>
    8000213a:	f9fe                	sd	t6,240(sp)
    8000213c:	6cb18eb3          	0x6cb18eb3

0000000080002140 <reg_x8_output>:
    80002140:	2a5f 296a 2815      	0x2815296a2a5f
    80002146:	791d                	lui	s2,0xfffe7

0000000080002148 <reg_x9_output>:
    80002148:	892c                	0x892c
    8000214a:	ab70                	fsd	fa2,208(a4)
    8000214c:	41ec7e33          	0x41ec7e33

0000000080002150 <reg_x10_output>:
    80002150:	bb6e3bab          	0xbb6e3bab
    80002154:	c999                	beqz	a1,8000216a <reg_x13_output+0x2>
    80002156:	807a                	c.mv	zero,t5

0000000080002158 <reg_x11_output>:
    80002158:	c246                	sw	a7,4(sp)
    8000215a:	159d                	addi	a1,a1,-25
    8000215c:	619d                	lui	gp,0x7
    8000215e:	5b9e                	lw	s7,228(sp)

0000000080002160 <reg_x12_output>:
    80002160:	582d                	li	a6,-21
    80002162:	ec6c                	sd	a1,216(s0)
    80002164:	69f88e67          	jalr	t3,1695(a7) # 4969f <_start-0x7ffb6961>

0000000080002168 <reg_x13_output>:
    80002168:	113d                	addi	sp,sp,-17
    8000216a:	c3ff                	0xc3ff
    8000216c:	52dc                	lw	a5,36(a3)
    8000216e:	          	csrrwi	t5,0x1fd,13

0000000080002170 <reg_x14_output>:
    80002170:	1fd6                	slli	t6,t6,0x35
    80002172:	db850df3          	0xdb850df3
    80002176:	          	fsq	fs0,-390(t3)

0000000080002178 <reg_x15_output>:
    80002178:	e68e                	sd	gp,328(sp)
    8000217a:	5b50                	lw	a2,52(a4)
    8000217c:	751f 3083       	0x1fe23083751f

0000000080002180 <reg_x16_output>:
    80002180:	1fe2                	slli	t6,t6,0x38
    80002182:	44942aab          	0x44942aab
    80002186:	333e                	fld	ft6,488(sp)

0000000080002188 <reg_x17_output>:
    80002188:	718f164f          	fnmadd.s	fa2,ft10,fs8,fa4,rtz
    8000218c:	435d                	li	t1,23
    8000218e:	acc8                	fsd	fa0,152(s1)

0000000080002190 <reg_x18_output>:
    80002190:	b180                	fsd	fs0,32(a1)
    80002192:	2038                	fld	fa4,64(s0)
    80002194:	e8c48e8f          	0xe8c48e8f

0000000080002198 <reg_x19_output>:
    80002198:	9172                	add	sp,sp,t3
    8000219a:	b437cbcb          	0xb437cbcb
    8000219e:	177f                	0x177f

00000000800021a0 <reg_x20_output>:
    800021a0:	9eb8                	0x9eb8
    800021a2:	a90a                	fsd	ft2,144(sp)
    800021a4:	a9b1                	j	80002600 <loop_count>
    800021a6:	ff26                	sd	s1,440(sp)

00000000800021a8 <reg_x21_output>:
    800021a8:	9be0ef4b          	fnmsub.d	ft10,ft1,ft10,fs3,unknown
    800021ac:	470a                	lw	a4,128(sp)
    800021ae:	287d                	addiw	a6,a6,31

00000000800021b0 <reg_x22_output>:
    800021b0:	b189                	j	80001df2 <fromhost+0xdb2>
    800021b2:	d6ba0573          	0xd6ba0573
    800021b6:	b6f4                	fsd	fa3,232(a3)

00000000800021b8 <reg_x23_output>:
    800021b8:	d9058b4f          	fnmadd.s	fs6,fa1,fa6,fs11,rne
    800021bc:	4e3c                	lw	a5,88(a2)
    800021be:	afd6                	fsd	fs5,472(sp)

00000000800021c0 <reg_x24_output>:
    800021c0:	9151                	srli	a0,a0,0x34
    800021c2:	6b4f08ab          	0x6b4f08ab
    800021c6:	4bf5                	li	s7,29

00000000800021c8 <reg_x25_output>:
    800021c8:	3b1d                	addiw	s6,s6,-25
    800021ca:	f34c                	sd	a1,160(a4)
    800021cc:	0ad5                	addi	s5,s5,21
    800021ce:	b658                	fsd	fa4,168(a2)

00000000800021d0 <reg_x26_output>:
    800021d0:	9271                	srli	a2,a2,0x3c
    800021d2:	d135                	beqz	a0,80002136 <reg_x6_output+0x6>
    800021d4:	e9bd                	bnez	a1,8000224a <test_memory+0x4a>
    800021d6:	4a29                	li	s4,10

00000000800021d8 <reg_x27_output>:
    800021d8:	e0c2                	sd	a6,64(sp)
    800021da:	6d53a76b          	0x6d53a76b
    800021de:	          	0x5c30030b

00000000800021e0 <reg_x28_output>:
    800021e0:	5c30                	lw	a2,120(s0)
    800021e2:	1af2                	slli	s5,s5,0x3c
    800021e4:	5fea                	lw	t6,184(sp)
    800021e6:	d5e1                	beqz	a1,800021ae <reg_x21_output+0x6>

00000000800021e8 <reg_x29_output>:
    800021e8:	5d38                	lw	a4,120(a0)
    800021ea:	8fbeddf7          	0x8fbeddf7
    800021ee:	          	0x88df8df3

00000000800021f0 <reg_x30_output>:
    800021f0:	88df be0b 4183      	0x4183be0b88df
    800021f6:	041d                	addi	s0,s0,7

00000000800021f8 <reg_x31_output>:
    800021f8:	a730                	fsd	fa2,72(a4)
    800021fa:	3cfb4bc3          	0x3cfb4bc3
    800021fe:	1571                	addi	a0,a0,-4

0000000080002200 <test_memory>:
    80002200:	a43e                	fsd	fa5,8(sp)
    80002202:	cf36                	sw	a3,156(sp)
    80002204:	3178                	fld	fa4,224(a0)
    80002206:	d32d                	beqz	a4,80002168 <reg_x13_output>
    80002208:	0a11                	addi	s4,s4,4
    8000220a:	00d2                	slli	ra,ra,0x14
    8000220c:	195c                	addi	a5,sp,180
    8000220e:	2c1e4787          	flq	fa5,705(t3)
    80002212:	6eabd5bf d13f08b9 	0xd13f08b96eabd5bf
    8000221a:	83f0                	0x83f0
    8000221c:	407e                	0x407e
    8000221e:	8fdf 7747 709d      	0x709d77478fdf
    80002224:	d7e5                	beqz	a5,8000220c <test_memory+0xc>
    80002226:	29ba                	fld	fs3,392(sp)
    80002228:	e3a0                	sd	s0,64(a5)
    8000222a:	53a4                	lw	s1,96(a5)
    8000222c:	882c6c57          	0x882c6c57
    80002230:	77daa69b          	0x77daa69b
    80002234:	bb08                	fsd	fa0,48(a4)
    80002236:	155a                	slli	a0,a0,0x36
    80002238:	3d13135b          	0x3d13135b
    8000223c:	f986                	sd	ra,240(sp)
    8000223e:	7f8d                	lui	t6,0xfffe3
    80002240:	78e0047b          	0x78e0047b
    80002244:	e389                	bnez	a5,80002246 <test_memory+0x46>
    80002246:	25e224a3          	sw	t5,585(tp) # 249 <_start-0x7ffffdb7>
    8000224a:	87c8                	0x87c8
    8000224c:	5cec                	lw	a1,124(s1)
    8000224e:	7668603f 9c1f4d52 	0x9c1f4d527668603f
    80002256:	6191                	lui	gp,0x4
    80002258:	d832                	sw	a2,48(sp)
    8000225a:	55aa                	lw	a1,168(sp)
    8000225c:	de86                	sw	ra,124(sp)
    8000225e:	0e50                	addi	a2,sp,788
    80002260:	e4ed                	bnez	s1,8000234a <test_memory+0x14a>
    80002262:	5300                	lw	s0,32(a4)
    80002264:	b7a097b7          	lui	a5,0xb7a09
    80002268:	6359                	lui	t1,0x16
    8000226a:	ad702953          	0xad702953
    8000226e:	e7b0                	sd	a2,72(a5)
    80002270:	bdbd                	j	800020ee <reg_x29_init+0x6>
    80002272:	7276                	ld	tp,376(sp)
    80002274:	69d0f5ab          	0x69d0f5ab
    80002278:	4538                	lw	a4,72(a0)
    8000227a:	6eb8                	ld	a4,88(a3)
    8000227c:	62a8a14b          	fnmsub.d	ft2,fa7,fa0,fa2,rdn
    80002280:	0731f417          	auipc	s0,0x731f
    80002284:	8d47d533          	0x8d47d533
    80002288:	518a                	lw	gp,160(sp)
    8000228a:	4ad8                	lw	a4,20(a3)
    8000228c:	3cc5                	addiw	s9,s9,-15
    8000228e:	8566                	mv	a0,s9
    80002290:	2371                	addiw	t1,t1,28
    80002292:	e28e                	sd	gp,320(sp)
    80002294:	2c1a                	fld	fs8,384(sp)
    80002296:	67b2                	ld	a5,264(sp)
    80002298:	4f24                	lw	s1,88(a4)
    8000229a:	4b06                	lw	s6,64(sp)
    8000229c:	c575                	beqz	a0,80002388 <test_memory+0x188>
    8000229e:	b8548c67          	jalr	s8,-1147(s1)
    800022a2:	ef6c                	sd	a1,216(a4)
    800022a4:	d4b5                	beqz	s1,80002210 <test_memory+0x10>
    800022a6:	f471                	bnez	s0,80002272 <test_memory+0x72>
    800022a8:	a57e                	fsd	ft11,136(sp)
    800022aa:	bbfa                	fsd	ft10,496(sp)
    800022ac:	84e6                	mv	s1,s9
    800022ae:	1802                	slli	a6,a6,0x20
    800022b0:	4385                	li	t2,1
    800022b2:	7abc                	ld	a5,112(a3)
    800022b4:	0712                	slli	a4,a4,0x4
    800022b6:	46b9                	li	a3,14
    800022b8:	de71                	beqz	a2,80002294 <test_memory+0x94>
    800022ba:	86f73013          	sltiu	zero,a4,-1937
    800022be:	5b657fe3          	bgeu	a0,s6,8000307c <__global_pointer$+0x26c>
    800022c2:	427f                	0x427f
    800022c4:	b16c                	fsd	fa1,224(a0)
    800022c6:	00424047          	fmsub.s	ft0,ft4,ft4,ft0,rmm
    800022ca:	6961c377          	0x6961c377
    800022ce:	e7ad                	bnez	a5,80002338 <test_memory+0x138>
    800022d0:	af9a                	fsd	ft6,472(sp)
    800022d2:	3c15                	addiw	s8,s8,-27
    800022d4:	63e6                	ld	t2,88(sp)
    800022d6:	17c1                	addi	a5,a5,-16
    800022d8:	03de                	slli	t2,t2,0x17
    800022da:	f84d                	bnez	s0,8000228c <test_memory+0x8c>
    800022dc:	1098                	addi	a4,sp,96
    800022de:	32eda6eb          	0x32eda6eb
    800022e2:	7990                	ld	a2,48(a1)
    800022e4:	c376                	sw	t4,132(sp)
    800022e6:	55c9                	li	a1,-14
    800022e8:	156aeb67          	0x156aeb67
    800022ec:	55d9                	li	a1,-10
    800022ee:	e1b8                	sd	a4,64(a1)
    800022f0:	7f75                	lui	t5,0xffffd
    800022f2:	b820cf03          	lbu	t5,-1150(ra)
    800022f6:	6080                	ld	s0,0(s1)
    800022f8:	0a863cef          	jal	s9,800653a0 <__global_pointer$+0x62590>
    800022fc:	7bff0277          	0x7bff0277
    80002300:	d8f5                	beqz	s1,800022f4 <test_memory+0xf4>
    80002302:	5259                	li	tp,-10
    80002304:	ca69                	beqz	a2,800023d6 <test_memory+0x1d6>
    80002306:	f0d6                	sd	s5,96(sp)
    80002308:	e582                	sd	zero,200(sp)
    8000230a:	ac8046ef          	jal	a3,7ff065d2 <_start-0xf9a2e>
    8000230e:	71822037          	lui	zero,0x71822
    80002312:	ac58                	fsd	fa4,152(s0)
    80002314:	27c56403          	lwu	s0,636(a0) # fffffffffffe927c <__global_pointer$+0xffffffff7ffe646c>
    80002318:	c869                	beqz	s0,800023ea <test_memory+0x1ea>
    8000231a:	488136eb          	0x488136eb
    8000231e:	d469f983          	0xd469f983
    80002322:	76a1                	lui	a3,0xfffe8
    80002324:	e7ce                	sd	s3,456(sp)
    80002326:	a1fd                	j	80002814 <_end+0x204>
    80002328:	7ead                	lui	t4,0xfffeb
    8000232a:	84a2505b          	0x84a2505b
    8000232e:	9b4e28eb          	0x9b4e28eb
    80002332:	bab9                	j	80001c90 <fromhost+0xc50>
    80002334:	d4fe                	sw	t6,104(sp)
    80002336:	4a5d                	li	s4,23
    80002338:	0ada                	slli	s5,s5,0x16
    8000233a:	40f88dd7          	0x40f88dd7
    8000233e:	63e5                	lui	t2,0x19
    80002340:	d198                	sw	a4,32(a1)
    80002342:	699f9fab          	0x699f9fab
    80002346:	a5a5                	j	800029ae <_end+0x39e>
    80002348:	8504                	0x8504
    8000234a:	c7b6                	sw	a3,204(sp)
    8000234c:	a011b91b          	0xa011b91b
    80002350:	aa0c                	fsd	fa1,16(a2)
    80002352:	a13c                	fsd	fa5,64(a0)
    80002354:	7839                	lui	a6,0xfffee
    80002356:	77d1                	lui	a5,0xffff4
    80002358:	030e                	slli	t1,t1,0x3
    8000235a:	a13c                	fsd	fa5,64(a0)
    8000235c:	1af032f7          	0x1af032f7
    80002360:	6ab8                	ld	a4,80(a3)
    80002362:	64d162ab          	0x64d162ab
    80002366:	7c50                	ld	a2,184(s0)
    80002368:	4129                	li	sp,10
    8000236a:	5d3d                	li	s10,-17
    8000236c:	46e0                	lw	s0,76(a3)
    8000236e:	b31164fb          	0xb31164fb
    80002372:	8a5d                	andi	a2,a2,23
    80002374:	31557d0f          	0x31557d0f
    80002378:	45a0ce9b          	0x45a0ce9b
    8000237c:	14e8                	addi	a0,sp,620
    8000237e:	abca                	fsd	fs2,464(sp)
    80002380:	805f b176 1fc4      	0x1fc4b176805f
    80002386:	9b0d                	andi	a4,a4,-29
    80002388:	c2c1                	beqz	a3,80002408 <test_memory+0x208>
    8000238a:	cbfa                	sw	t5,212(sp)
    8000238c:	2f7efb73          	csrrci	s6,0x2f7,29
    80002390:	9459                	srai	s0,s0,0x36
    80002392:	94ae                	add	s1,s1,a1
    80002394:	678d                	lui	a5,0x3
    80002396:	3e5648a7          	fsq	ft5,1009(a2)
    8000239a:	d3d1                	beqz	a5,8000231e <test_memory+0x11e>
    8000239c:	a30a                	fsd	ft2,384(sp)
    8000239e:	5252                	lw	tp,52(sp)
    800023a0:	80fa220b          	0x80fa220b
    800023a4:	a2564cd3          	0xa2564cd3
    800023a8:	3cf5                	addiw	s9,s9,-3
    800023aa:	e0d1                	bnez	s1,8000242e <test_memory+0x22e>
    800023ac:	cea3736f          	jal	t1,7ff39896 <_start-0xc676a>
    800023b0:	e4ff                	0xe4ff
    800023b2:	b8e1                	j	80001c8a <fromhost+0xc4a>
    800023b4:	72f8                	ld	a4,224(a3)
    800023b6:	7adca7b7          	lui	a5,0x7adca
    800023ba:	20c0                	fld	fs0,128(s1)
    800023bc:	75dec5f3          	0x75dec5f3
    800023c0:	069c                	addi	a5,sp,832
    800023c2:	f534                	sd	a3,104(a0)
    800023c4:	14cc                	addi	a1,sp,612
    800023c6:	48f1                	li	a7,28
    800023c8:	72f2                	ld	t0,312(sp)
    800023ca:	7281                	lui	t0,0xfffe0
    800023cc:	6904                	ld	s1,16(a0)
    800023ce:	1a1a                	slli	s4,s4,0x26
    800023d0:	75c8                	ld	a0,168(a1)
    800023d2:	c4457f13          	andi	t5,a0,-956
    800023d6:	9d4c                	0x9d4c
    800023d8:	dd4ab90b          	0xdd4ab90b
    800023dc:	728a4907          	flq	fs2,1832(s4)
    800023e0:	94d5                	srai	s1,s1,0x35
    800023e2:	e8b2                	sd	a2,80(sp)
    800023e4:	f16d                	bnez	a0,800023c6 <test_memory+0x1c6>
    800023e6:	8f91                	sub	a5,a5,a2
    800023e8:	3469                	addiw	s0,s0,-6
    800023ea:	526f2583          	lw	a1,1318(t5) # ffffffffffffd526 <__global_pointer$+0xffffffff7fffa716>
    800023ee:	61998167          	jalr	sp,1561(s3)
    800023f2:	7770                	ld	a2,232(a4)
    800023f4:	6c9e                	ld	s9,448(sp)
    800023f6:	860d                	srai	a2,a2,0x3
    800023f8:	fe85                	bnez	a3,80002330 <test_memory+0x130>
    800023fa:	d3c8                	sw	a0,36(a5)
    800023fc:	e105                	bnez	a0,8000241c <test_memory+0x21c>
    800023fe:	2d99                	addiw	s11,s11,6
    80002400:	7bde                	ld	s7,496(sp)
    80002402:	a3dd                	j	800029e8 <_end+0x3d8>
    80002404:	57ec                	lw	a1,108(a5)
    80002406:	e152                	sd	s4,128(sp)
    80002408:	9ec0ea0f          	0x9ec0ea0f
    8000240c:	5088                	lw	a0,32(s1)
    8000240e:	adfde4cb          	0xadfde4cb
    80002412:	0ca0                	addi	s0,sp,600
    80002414:	6c943be3          	0x6c943be3
    80002418:	f634                	sd	a3,104(a2)
    8000241a:	85a8                	0x85a8
    8000241c:	88a7827b          	0x88a7827b
    80002420:	dbc4                	sw	s1,52(a5)
    80002422:	1e88                	addi	a0,sp,880
    80002424:	3372                	fld	ft6,312(sp)
    80002426:	7c41                	lui	s8,0xffff0
    80002428:	321e                	fld	ft4,480(sp)
    8000242a:	5888                	lw	a0,48(s1)
    8000242c:	6d3a                	ld	s10,392(sp)
    8000242e:	0d50                	addi	a2,sp,660
    80002430:	7ba0                	ld	s0,112(a5)
    80002432:	f094                	sd	a3,32(s1)
    80002434:	6325                	lui	t1,0x9
    80002436:	267e                	fld	fa2,472(sp)
    80002438:	d4c0                	sw	s0,44(s1)
    8000243a:	ff7a                	sd	t5,440(sp)
    8000243c:	084c                	addi	a1,sp,20
    8000243e:	fdf8c493          	xori	s1,a7,-33
    80002442:	3494                	fld	fa3,40(s1)
    80002444:	2f9a                	fld	ft11,384(sp)
    80002446:	dc98                	sw	a4,56(s1)
    80002448:	a5418cd3          	0xa5418cd3
    8000244c:	29ff                	0x29ff
    8000244e:	aa8e                	fsd	ft3,336(sp)
    80002450:	c6d6                	sw	s5,76(sp)
    80002452:	1696                	slli	a3,a3,0x25
    80002454:	e72d                	bnez	a4,800024be <test_memory+0x2be>
    80002456:	879a                	mv	a5,t1
    80002458:	56274d1b          	0x56274d1b
    8000245c:	4a712a33          	0x4a712a33
    80002460:	9dcc                	0x9dcc
    80002462:	cc9c                	sw	a5,24(s1)
    80002464:	d2f5                	beqz	a3,80002448 <test_memory+0x248>
    80002466:	ec5f 18ee 8bc1      	0x8bc118eeec5f
    8000246c:	5e6c                	lw	a1,124(a2)
    8000246e:	3601                	addiw	a2,a2,-32
    80002470:	b815                	j	80001ca4 <fromhost+0xc64>
    80002472:	e2f3e7c7          	fmsub.d	fa5,ft7,fa5,ft8,unknown
    80002476:	7fa5                	lui	t6,0xfffe9
    80002478:	94f6                	add	s1,s1,t4
    8000247a:	c337243f c0f91df2 	0xc0f91df2c337243f
    80002482:	698a0df3          	0x698a0df3
    80002486:	688c                	ld	a1,16(s1)
    80002488:	6035                	c.lui	zero,0xd
    8000248a:	1142                	slli	sp,sp,0x30
    8000248c:	7d1166a7          	0x7d1166a7
    80002490:	8476                	mv	s0,t4
    80002492:	2160                	fld	fs0,192(a0)
    80002494:	9a29                	andi	a2,a2,-22
    80002496:	5a39                	li	s4,-18
    80002498:	7949                	lui	s2,0xffff2
    8000249a:	8a99                	andi	a3,a3,6
    8000249c:	6839                	lui	a6,0xe
    8000249e:	71fe                	ld	gp,504(sp)
    800024a0:	201c                	fld	fa5,0(s0)
    800024a2:	6979                	lui	s2,0x1e
    800024a4:	bf4e                	fsd	fs3,440(sp)
    800024a6:	43dd                	li	t2,23
    800024a8:	33f1                	addiw	t2,t2,-4
    800024aa:	3561                	addiw	a0,a0,-8
    800024ac:	dc1ca1e7          	0xdc1ca1e7
    800024b0:	de38                	sw	a4,120(a2)
    800024b2:	9662                	add	a2,a2,s8
    800024b4:	5bae                	lw	s7,232(sp)
    800024b6:	e3df 82cf aba9      	0xaba982cfe3df
    800024bc:	75764e6f          	jal	t3,80067412 <__global_pointer$+0x64602>
    800024c0:	1f34                	addi	a3,sp,952
    800024c2:	66fc                	ld	a5,200(a3)
    800024c4:	aab0                	fsd	fa2,80(a3)
    800024c6:	996fcf0b          	0x996fcf0b
    800024ca:	5ca1                	li	s9,-24
    800024cc:	40fa                	lw	ra,156(sp)
    800024ce:	6626                	ld	a2,72(sp)
    800024d0:	f53d                	bnez	a0,8000243e <test_memory+0x23e>
    800024d2:	e095                	bnez	s1,800024f6 <test_memory+0x2f6>
    800024d4:	ea6a341b          	0xea6a341b
    800024d8:	554d2a87          	flw	fs5,1364(s10) # fffffffffffea554 <__global_pointer$+0xffffffff7ffe7744>
    800024dc:	81e0                	0x81e0
    800024de:	7364                	ld	s1,224(a4)
    800024e0:	5626                	lw	a2,104(sp)
    800024e2:	df39                	beqz	a4,80002440 <test_memory+0x240>
    800024e4:	1509670f          	0x1509670f
    800024e8:	c680                	sw	s0,8(a3)
    800024ea:	2658                	fld	fa4,136(a2)
    800024ec:	4dff64c3          	0x4dff64c3
    800024f0:	078c                	addi	a1,sp,960
    800024f2:	7039e6f3          	csrrsi	a3,0x703,19
    800024f6:	6a05                	lui	s4,0x1
    800024f8:	1e34                	addi	a3,sp,824
    800024fa:	6be490f7          	0x6be490f7
    800024fe:	a939cf07          	flq	ft10,-1389(s3)
    80002502:	bf4288af          	0xbf4288af
    80002506:	2969                	addiw	s2,s2,26
    80002508:	2df9                	addiw	s11,s11,30
    8000250a:	b309                	j	8000220c <test_memory+0xc>
    8000250c:	8cb6                	mv	s9,a3
    8000250e:	e705                	bnez	a4,80002536 <test_memory+0x336>
    80002510:	81cd                	srli	a1,a1,0x13
    80002512:	ef8901e3          	beq	s2,s8,800023f4 <test_memory+0x1f4>
    80002516:	bba0                	fsd	fs0,112(a5)
    80002518:	94de                	add	s1,s1,s7
    8000251a:	a9b01e6f          	jal	t3,7ff03fb4 <_start-0xfc04c>
    8000251e:	3978                	fld	fa4,240(a0)
    80002520:	83cff19b          	0x83cff19b
    80002524:	0810                	addi	a2,sp,16
    80002526:	1e2e                	slli	t3,t3,0x2b
    80002528:	9c34                	0x9c34
    8000252a:	555f3083          	ld	ra,1365(t5)
    8000252e:	7cd0                	ld	a2,184(s1)
    80002530:	afd0                	fsd	fa2,152(a5)
    80002532:	6ff2                	ld	t6,280(sp)
    80002534:	46bc                	lw	a5,72(a3)
    80002536:	44a5                	li	s1,9
    80002538:	719ab34f          	fnmadd.s	ft6,fs5,fs9,fa4,rup
    8000253c:	bbe832c3          	fmadd.d	ft5,fa6,ft10,fs7,rup
    80002540:	35da                	fld	fa1,432(sp)
    80002542:	e149                	bnez	a0,800025c4 <test_memory+0x3c4>
    80002544:	eab6                	sd	a3,336(sp)
    80002546:	f589                	bnez	a1,80002450 <test_memory+0x250>
    80002548:	638e                	ld	t2,192(sp)
    8000254a:	195f 86da 1268      	0x126886da195f
    80002550:	fd06                	sd	ra,184(sp)
    80002552:	bfd4                	fsd	fa3,184(a5)
    80002554:	7b19b237          	lui	tp,0x7b19b
    80002558:	a7f70097          	auipc	ra,0xa7f70
    8000255c:	cf76                	sw	t4,156(sp)
    8000255e:	d6a5                	beqz	a3,800024c6 <test_memory+0x2c6>
    80002560:	f373726b          	0xf373726b
    80002564:	ff65                	bnez	a4,8000255c <test_memory+0x35c>
    80002566:	2b65                	addiw	s6,s6,25
    80002568:	f59b98e7          	0xf59b98e7
    8000256c:	d2e27357          	0xd2e27357
    80002570:	c506                	sw	ra,136(sp)
    80002572:	cee6                	sw	s9,92(sp)
    80002574:	8ca5d897          	auipc	a7,0x8ca5d
    80002578:	ea89                	bnez	a3,8000258a <test_memory+0x38a>
    8000257a:	0ec5                	addi	t4,t4,17
    8000257c:	0272df77          	0x272df77
    80002580:	f226                	sd	s1,288(sp)
    80002582:	9a1a                	add	s4,s4,t1
    80002584:	37c1                	addiw	a5,a5,-16
    80002586:	602561ab          	0x602561ab
    8000258a:	a59f927b          	0xa59f927b
    8000258e:	9e75                	0x9e75
    80002590:	b40a                	fsd	ft2,40(sp)
    80002592:	fd84                	sd	s1,56(a1)
    80002594:	5d2a                	lw	s10,168(sp)
    80002596:	9a19                	andi	a2,a2,-26
    80002598:	5a3c                	lw	a5,112(a2)
    8000259a:	3f10                	fld	fa2,56(a4)
    8000259c:	56d67043          	fmadd.q	ft0,fa2,fa3,fa0
    800025a0:	9e2e36c7          	fmsub.q	fa3,ft8,ft2,fs3,rup
    800025a4:	1962                	slli	s2,s2,0x38
    800025a6:	51a1                	li	gp,-24
    800025a8:	48b1                	li	a7,12
    800025aa:	df8a97ef          	jal	a5,7ffabba2 <_start-0x5445e>
    800025ae:	b76fa86b          	0xb76fa86b
    800025b2:	44df 4274 4463      	0x4463427444df
    800025b8:	588a                	lw	a7,160(sp)
    800025ba:	88f9                	andi	s1,s1,30
    800025bc:	a3ad                	j	80002b26 <_end+0x516>
    800025be:	f56d                	bnez	a0,800025a8 <test_memory+0x3a8>
    800025c0:	a110716f          	jal	sp,7ff09fd0 <_start-0xf6030>
    800025c4:	c856                	sw	s5,16(sp)
    800025c6:	63e8                	ld	a0,192(a5)
    800025c8:	1a1db9f7          	0x1a1db9f7
    800025cc:	6886                	ld	a7,64(sp)
    800025ce:	8b81                	andi	a5,a5,0
    800025d0:	7e39                	lui	t3,0xfffee
    800025d2:	ec2e                	sd	a1,24(sp)
    800025d4:	1ca8                	addi	a0,sp,632
    800025d6:	c2943b23          	sd	s1,-970(s0) # 87320eb6 <__global_pointer$+0x731e0a6>
    800025da:	6410                	ld	a2,8(s0)
    800025dc:	6661                	lui	a2,0x18
    800025de:	1f72                	slli	t5,t5,0x3c
    800025e0:	8b22                	mv	s6,s0
    800025e2:	1992                	slli	s3,s3,0x24
    800025e4:	e19e                	sd	t2,192(sp)
    800025e6:	37de                	fld	fa5,496(sp)
    800025e8:	45dc6feb          	0x45dc6feb
    800025ec:	ac14                	fsd	fa3,24(s0)
    800025ee:	9390                	0x9390
    800025f0:	898c                	0x898c
    800025f2:	b55e                	fsd	fs7,168(sp)
    800025f4:	1434                	addi	a3,sp,552
    800025f6:	983e                	add	a6,a6,a5
    800025f8:	0e3c                	addi	a5,sp,792
    800025fa:	de98                	sw	a4,56(a3)
    800025fc:	7655                	lui	a2,0xffff5
    800025fe:	87f2                	mv	a5,t3

0000000080002600 <loop_count>:
    80002600:	0040                	addi	s0,sp,4
	...

Disassembly of section .riscv.attributes:

0000000000000000 <.riscv.attributes>:
   0:	1e41                	addi	t3,t3,-16
   2:	0000                	unimp
   4:	7200                	ld	s0,32(a2)
   6:	7369                	lui	t1,0xffffa
   8:	01007663          	bgeu	zero,a6,14 <_start-0x7fffffec>
   c:	0014                	0x14
   e:	0000                	unimp
  10:	7205                	lui	tp,0xfffe1
  12:	3676                	fld	fa2,376(sp)
  14:	6934                	ld	a3,80(a0)
  16:	7032                	0x7032
  18:	5f30                	lw	a2,120(a4)
  1a:	326d                	addiw	tp,tp,-5
  1c:	3070                	fld	fa2,224(s0)
	...
