
build/test11:     file format elf64-littleriscv


Disassembly of section .text.init:

0000000080000000 <_start>:
    80000000:	05c0006f          	j	8000005c <reset_vector>

0000000080000004 <trap_vector>:
    80000004:	34202f73          	csrr	t5,mcause
    80000008:	00800f93          	li	t6,8
    8000000c:	03ff0a63          	beq	t5,t6,80000040 <write_tohost>
    80000010:	00900f93          	li	t6,9
    80000014:	03ff0663          	beq	t5,t6,80000040 <write_tohost>
    80000018:	00b00f93          	li	t6,11
    8000001c:	03ff0263          	beq	t5,t6,80000040 <write_tohost>
    80000020:	80000f17          	auipc	t5,0x80000
    80000024:	fe0f0f13          	addi	t5,t5,-32 # 0 <_start-0x80000000>
    80000028:	000f0463          	beqz	t5,80000030 <trap_vector+0x2c>
    8000002c:	000f0067          	jr	t5
    80000030:	34202f73          	csrr	t5,mcause
    80000034:	000f5463          	bgez	t5,8000003c <handle_exception>
    80000038:	0040006f          	j	8000003c <handle_exception>

000000008000003c <handle_exception>:
    8000003c:	5391e193          	ori	gp,gp,1337

0000000080000040 <write_tohost>:
    80000040:	00001f17          	auipc	t5,0x1
    80000044:	fc3f2023          	sw	gp,-64(t5) # 80001000 <tohost>
    80000048:	000902b7          	lui	t0,0x90
    8000004c:	0012829b          	addiw	t0,t0,1
    80000050:	00c29293          	slli	t0,t0,0xc
    80000054:	0002af83          	lw	t6,0(t0) # 90000 <_start-0x7ff70000>
    80000058:	fe9ff06f          	j	80000040 <write_tohost>

000000008000005c <reset_vector>:
    8000005c:	00000093          	li	ra,0
    80000060:	00000113          	li	sp,0
    80000064:	00000193          	li	gp,0
    80000068:	00000213          	li	tp,0
    8000006c:	00000293          	li	t0,0
    80000070:	00000313          	li	t1,0
    80000074:	00000393          	li	t2,0
    80000078:	00000413          	li	s0,0
    8000007c:	00000493          	li	s1,0
    80000080:	00000513          	li	a0,0
    80000084:	00000593          	li	a1,0
    80000088:	00000613          	li	a2,0
    8000008c:	00000693          	li	a3,0
    80000090:	00000713          	li	a4,0
    80000094:	00000793          	li	a5,0
    80000098:	00000813          	li	a6,0
    8000009c:	00000893          	li	a7,0
    800000a0:	00000913          	li	s2,0
    800000a4:	00000993          	li	s3,0
    800000a8:	00000a13          	li	s4,0
    800000ac:	00000a93          	li	s5,0
    800000b0:	00000b13          	li	s6,0
    800000b4:	00000b93          	li	s7,0
    800000b8:	00000c13          	li	s8,0
    800000bc:	00000c93          	li	s9,0
    800000c0:	00000d13          	li	s10,0
    800000c4:	00000d93          	li	s11,0
    800000c8:	00000e13          	li	t3,0
    800000cc:	00000e93          	li	t4,0
    800000d0:	00000f13          	li	t5,0
    800000d4:	00000f93          	li	t6,0
    800000d8:	f1402573          	csrr	a0,mhartid
    800000dc:	00051063          	bnez	a0,800000dc <reset_vector+0x80>
    800000e0:	00000297          	auipc	t0,0x0
    800000e4:	01028293          	addi	t0,t0,16 # 800000f0 <reset_vector+0x94>
    800000e8:	30529073          	csrw	mtvec,t0
    800000ec:	18005073          	csrwi	satp,0
    800000f0:	00000297          	auipc	t0,0x0
    800000f4:	02428293          	addi	t0,t0,36 # 80000114 <reset_vector+0xb8>
    800000f8:	30529073          	csrw	mtvec,t0
    800000fc:	0010029b          	addiw	t0,zero,1
    80000100:	03529293          	slli	t0,t0,0x35
    80000104:	fff28293          	addi	t0,t0,-1
    80000108:	3b029073          	csrw	pmpaddr0,t0
    8000010c:	01f00293          	li	t0,31
    80000110:	3a029073          	csrw	pmpcfg0,t0
    80000114:	30405073          	csrwi	mie,0
    80000118:	00000297          	auipc	t0,0x0
    8000011c:	01428293          	addi	t0,t0,20 # 8000012c <reset_vector+0xd0>
    80000120:	30529073          	csrw	mtvec,t0
    80000124:	30205073          	csrwi	medeleg,0
    80000128:	30305073          	csrwi	mideleg,0
    8000012c:	00000193          	li	gp,0
    80000130:	00000297          	auipc	t0,0x0
    80000134:	ed428293          	addi	t0,t0,-300 # 80000004 <trap_vector>
    80000138:	30529073          	csrw	mtvec,t0
    8000013c:	00100513          	li	a0,1
    80000140:	01f51513          	slli	a0,a0,0x1f
    80000144:	00055c63          	bgez	a0,8000015c <reset_vector+0x100>
    80000148:	0ff0000f          	fence
    8000014c:	00100193          	li	gp,1
    80000150:	05d00893          	li	a7,93
    80000154:	00000513          	li	a0,0
    80000158:	00000073          	ecall
    8000015c:	80000297          	auipc	t0,0x80000
    80000160:	ea428293          	addi	t0,t0,-348 # 0 <_start-0x80000000>
    80000164:	00028a63          	beqz	t0,80000178 <reset_vector+0x11c>
    80000168:	10529073          	csrw	stvec,t0
    8000016c:	0000b2b7          	lui	t0,0xb
    80000170:	1092829b          	addiw	t0,t0,265
    80000174:	30229073          	csrw	medeleg,t0
    80000178:	30005073          	csrwi	mstatus,0
    8000017c:	00000297          	auipc	t0,0x0
    80000180:	01428293          	addi	t0,t0,20 # 80000190 <reset_vector+0x134>
    80000184:	34129073          	csrw	mepc,t0
    80000188:	f1402573          	csrr	a0,mhartid
    8000018c:	30200073          	mret
    80000190:	0200006f          	j	800001b0 <test_start>

0000000080000194 <crash_backward>:
    80000194:	0ff0000f          	fence
    80000198:	00018063          	beqz	gp,80000198 <crash_backward+0x4>
    8000019c:	00119193          	slli	gp,gp,0x1
    800001a0:	0011e193          	ori	gp,gp,1
    800001a4:	05d00893          	li	a7,93
    800001a8:	00018513          	mv	a0,gp
    800001ac:	00000073          	ecall

00000000800001b0 <test_start>:
    800001b0:	00002f97          	auipc	t6,0x2
    800001b4:	e50f8f93          	addi	t6,t6,-432 # 80002000 <hidden_data>
    800001b8:	000fb003          	ld	zero,0(t6)
    800001bc:	008fb083          	ld	ra,8(t6)
    800001c0:	010fb103          	ld	sp,16(t6)
    800001c4:	018fb183          	ld	gp,24(t6)
    800001c8:	020fb203          	ld	tp,32(t6)
    800001cc:	028fb283          	ld	t0,40(t6)
    800001d0:	030fb303          	ld	t1,48(t6)
    800001d4:	038fb383          	ld	t2,56(t6)
    800001d8:	040fb403          	ld	s0,64(t6)
    800001dc:	048fb483          	ld	s1,72(t6)
    800001e0:	050fb503          	ld	a0,80(t6)
    800001e4:	058fb583          	ld	a1,88(t6)
    800001e8:	060fb603          	ld	a2,96(t6)
    800001ec:	068fb683          	ld	a3,104(t6)
    800001f0:	070fb703          	ld	a4,112(t6)
    800001f4:	078fb783          	ld	a5,120(t6)
    800001f8:	080fb803          	ld	a6,128(t6)
    800001fc:	088fb883          	ld	a7,136(t6)
    80000200:	090fb903          	ld	s2,144(t6)
    80000204:	098fb983          	ld	s3,152(t6)
    80000208:	0a0fba03          	ld	s4,160(t6)
    8000020c:	0a8fba83          	ld	s5,168(t6)
    80000210:	0b0fbb03          	ld	s6,176(t6)
    80000214:	0b8fbb83          	ld	s7,184(t6)
    80000218:	0c0fbc03          	ld	s8,192(t6)
    8000021c:	0c8fbc83          	ld	s9,200(t6)
    80000220:	0d0fbd03          	ld	s10,208(t6)
    80000224:	0d8fbd83          	ld	s11,216(t6)
    80000228:	0e0fbe03          	ld	t3,224(t6)
    8000022c:	0e8fbe83          	ld	t4,232(t6)
    80000230:	0f0fbf03          	ld	t5,240(t6)
    80000234:	0f8fbf83          	ld	t6,248(t6)
    80000238:	0040006f          	j	8000023c <pseg_0>

000000008000023c <pseg_0>:
    8000023c:	032903bb          	mulw	t2,s2,s2
    80000240:	00211233          	sll	tp,sp,sp
    80000244:	15800193          	li	gp,344
    80000248:	013547b3          	xor	a5,a0,s3
    8000024c:	84300b13          	li	s6,-1981
    80000250:	86300513          	li	a0,-1949
    80000254:	33b00e93          	li	t4,827
    80000258:	01000c13          	li	s8,16
    8000025c:	a4100913          	li	s2,-1471
    80000260:	02a55dbb          	divuw	s11,a0,a0
    80000264:	0031d833          	srl	a6,gp,gp
    80000268:	31100593          	li	a1,785
    8000026c:	0301863b          	mulw	a2,gp,a6
    80000270:	59800313          	li	t1,1432
    80000274:	018ef0b3          	and	ra,t4,s8
    80000278:	01294fb3          	xor	t6,s2,s2
    8000027c:	00002f17          	auipc	t5,0x2
    80000280:	75af0f13          	addi	t5,t5,1882 # 800029d6 <_end+0x3c6>
    80000284:	00100d13          	li	s10,1
    80000288:	435b5893          	srai	a7,s6,0x35
    8000028c:	01a492b3          	sll	t0,s1,s10
    80000290:	00002497          	auipc	s1,0x2
    80000294:	8b648493          	addi	s1,s1,-1866 # 80001b46 <fromhost+0xb06>
    80000298:	35c00413          	li	s0,860
    8000029c:	000c8c13          	mv	s8,s9
    800002a0:	008b19bb          	sllw	s3,s6,s0
    800002a4:	3a800c93          	li	s9,936
    800002a8:	54600513          	li	a0,1350
    800002ac:	e9500b13          	li	s6,-363
    800002b0:	40a507bb          	subw	a5,a0,a0
    800002b4:	8de00e13          	li	t3,-1826
    800002b8:	001091b3          	sll	gp,ra,ra
    800002bc:	00100f93          	li	t6,1
    800002c0:	0393073b          	mulw	a4,t1,s9
    800002c4:	79c00093          	li	ra,1948
    800002c8:	03fd1d13          	slli	s10,s10,0x3f
    800002cc:	fff00a93          	li	s5,-1
    800002d0:	83f00413          	li	s0,-1985
    800002d4:	028b78b3          	remu	a7,s6,s0
    800002d8:	01b5dd9b          	srliw	s11,a1,0x1b
    800002dc:	03ff9f93          	slli	t6,t6,0x3f
    800002e0:	01c5ea33          	or	s4,a1,t3
    800002e4:	000c0913          	mv	s2,s8
    800002e8:	3d200813          	li	a6,978
    800002ec:	eb2c64e3          	bltu	s8,s2,80000194 <crash_backward>
    800002f0:	fff00213          	li	tp,-1
    800002f4:	76f49523          	sh	a5,1898(s1)
    800002f8:	01aacab3          	xor	s5,s5,s10
    800002fc:	015af6b3          	and	a3,s5,s5
    80000300:	010093bb          	sllw	t2,ra,a6
    80000304:	01f24233          	xor	tp,tp,t6
    80000308:	01a86133          	or	sp,a6,s10
    8000030c:	8e0f5b83          	lhu	s7,-1824(t5)
    80000310:	004d7633          	and	a2,s10,tp
    80000314:	01f96eb3          	or	t4,s2,t6
    80000318:	00100493          	li	s1,1
    8000031c:	11b00f93          	li	t6,283
    80000320:	00002517          	auipc	a0,0x2
    80000324:	dfd50513          	addi	a0,a0,-515 # 8000211d <reg_x3_output+0x5>
    80000328:	0000193b          	sllw	s2,zero,zero
    8000032c:	03f49493          	slli	s1,s1,0x3f
    80000330:	fff00413          	li	s0,-1
    80000334:	00100e93          	li	t4,1
    80000338:	8de00c13          	li	s8,-1826
    8000033c:	24b00213          	li	tp,587
    80000340:	00944433          	xor	s0,s0,s1
    80000344:	03ffcbbb          	divw	s7,t6,t6
    80000348:	00002297          	auipc	t0,0x2
    8000034c:	e8828293          	addi	t0,t0,-376 # 800021d0 <reg_x26_output>
    80000350:	024209b3          	mul	s3,tp,tp
    80000354:	03fe9e93          	slli	t4,t4,0x3f
    80000358:	fff00d93          	li	s11,-1
    8000035c:	00000d13          	li	s10,0
    80000360:	00002817          	auipc	a6,0x2
    80000364:	0d580813          	addi	a6,a6,213 # 80002435 <test_memory+0x235>
    80000368:	00100793          	li	a5,1
    8000036c:	00827cb3          	and	s9,tp,s0
    80000370:	0318ab33          	mulhsu	s6,a7,a7
    80000374:	c3100a93          	li	s5,-975
    80000378:	00000313          	li	t1,0
    8000037c:	ea300713          	li	a4,-349
    80000380:	009def33          	or	t5,s11,s1
    80000384:	e19f58e3          	bge	t5,s9,80000194 <crash_backward>
    80000388:	038c60b3          	rem	ra,s8,s8
    8000038c:	40ead8b3          	sra	a7,s5,a4
    80000390:	1e3529a3          	sw	gp,499(a0)
    80000394:	03f79793          	slli	a5,a5,0x3f
    80000398:	01ddcdb3          	xor	s11,s11,t4
    8000039c:	00010a13          	mv	s4,sp
    800003a0:	000a0593          	mv	a1,s4
    800003a4:	14c823a3          	sw	a2,327(a6)
    800003a8:	de6d46e3          	blt	s10,t1,80000194 <crash_backward>
    800003ac:	01bbf6b3          	and	a3,s7,s11
    800003b0:	01d76133          	or	sp,a4,t4
    800003b4:	3a82e183          	lwu	gp,936(t0)
    800003b8:	6c26fc63          	bgeu	a3,sp,80000a90 <crash_forward>
    800003bc:	fff00613          	li	a2,-1
    800003c0:	00f64633          	xor	a2,a2,a5
    800003c4:	00ce73b3          	and	t2,t3,a2
    800003c8:	00f3ee33          	or	t3,t2,a5
    800003cc:	a3a00b93          	li	s7,-1478
    800003d0:	6c004063          	bltz	zero,80000a90 <crash_forward>
    800003d4:	029e39b3          	mulhu	s3,t3,s1
    800003d8:	00100713          	li	a4,1
    800003dc:	03f71713          	slli	a4,a4,0x3f
    800003e0:	37900913          	li	s2,889
    800003e4:	7c000313          	li	t1,1984
    800003e8:	0299c633          	div	a2,s3,s1
    800003ec:	410f55b3          	sra	a1,t5,a6
    800003f0:	01ce54bb          	srlw	s1,t3,t3
    800003f4:	fff00c93          	li	s9,-1
    800003f8:	037badb3          	mulhsu	s11,s7,s7
    800003fc:	76190e93          	addi	t4,s2,1889
    80000400:	e7b00813          	li	a6,-389
    80000404:	29100113          	li	sp,657
    80000408:	0010d533          	srl	a0,ra,ra
    8000040c:	419c8a33          	sub	s4,s9,s9
    80000410:	e1d00a93          	li	s5,-483
    80000414:	016b1c3b          	sllw	s8,s6,s6
    80000418:	035a8e3b          	mulw	t3,s5,s5
    8000041c:	75500f13          	li	t5,1877
    80000420:	401453b3          	sra	t2,s0,ra
    80000424:	dba00793          	li	a5,-582
    80000428:	672ec463          	blt	t4,s2,80000a90 <crash_forward>
    8000042c:	7dd00f93          	li	t6,2013
    80000430:	03ef70b3          	remu	ra,t5,t5
    80000434:	00f30233          	add	tp,t1,a5
    80000438:	00ecccb3          	xor	s9,s9,a4
    8000043c:	019b76b3          	and	a3,s6,s9
    80000440:	00002897          	auipc	a7,0x2
    80000444:	60d88893          	addi	a7,a7,1549 # 80002a4d <_end+0x43d>
    80000448:	03f14b3b          	divw	s6,sp,t6
    8000044c:	0339ba33          	mulhu	s4,s3,s3
    80000450:	d0200593          	li	a1,-766
    80000454:	cb600493          	li	s1,-842
    80000458:	4094d0bb          	sraw	ra,s1,s1
    8000045c:	02b5e933          	rem	s2,a1,a1
    80000460:	b0000793          	li	a5,-1280
    80000464:	1d000313          	li	t1,464
    80000468:	034f62b3          	rem	t0,t5,s4
    8000046c:	5fe00b93          	li	s7,1534
    80000470:	00002497          	auipc	s1,0x2
    80000474:	d9d48493          	addi	s1,s1,-611 # 8000220d <test_memory+0xd>
    80000478:	01b91e93          	slli	t4,s2,0x1b
    8000047c:	03736e33          	rem	t3,t1,s7
    80000480:	00e061b3          	or	gp,zero,a4
    80000484:	41c00533          	neg	a0,t3
    80000488:	00002397          	auipc	t2,0x2
    8000048c:	08d38393          	addi	t2,t2,141 # 80002515 <test_memory+0x315>
    80000490:	02334fbb          	divw	t6,t1,gp
    80000494:	da100d93          	li	s11,-607
    80000498:	d0b3ca83          	lbu	s5,-757(t2)
    8000049c:	40d609bb          	subw	s3,a2,a3
    800004a0:	5e36f863          	bgeu	a3,gp,80000a90 <crash_forward>
    800004a4:	001e05b3          	add	a1,t3,ra
    800004a8:	1eb4cb03          	lbu	s6,491(s1)
    800004ac:	74800093          	li	ra,1864
    800004b0:	40300293          	li	t0,1027
    800004b4:	41928113          	addi	sp,t0,1049
    800004b8:	01b7ec33          	or	s8,a5,s11
    800004bc:	21d00d13          	li	s10,541
    800004c0:	03a80433          	mul	s0,a6,s10
    800004c4:	8978a1a3          	sw	s7,-1917(a7)
    800004c8:	2e800e93          	li	t4,744
    800004cc:	dba00713          	li	a4,-582
    800004d0:	00002597          	auipc	a1,0x2
    800004d4:	ac058593          	addi	a1,a1,-1344 # 80001f90 <fromhost+0xf50>
    800004d8:	00002a17          	auipc	s4,0x2
    800004dc:	42ba0a13          	addi	s4,s4,1067 # 80002903 <_end+0x2f3>
    800004e0:	03dec833          	div	a6,t4,t4
    800004e4:	00000113          	li	sp,0
    800004e8:	00e71e3b          	sllw	t3,a4,a4
    800004ec:	419cdfbb          	sraw	t6,s9,s9
    800004f0:	02f8443b          	divw	s0,a6,a5
    800004f4:	2d200f13          	li	t5,722
    800004f8:	00000313          	li	t1,0
    800004fc:	2ca08913          	addi	s2,ra,714
    80000500:	9b500393          	li	t2,-1611
    80000504:	4ee00b13          	li	s6,1262
    80000508:	03675533          	divu	a0,a4,s6
    8000050c:	a8ca3ea3          	sd	a2,-1379(s4)
    80000510:	00a119bb          	sllw	s3,sp,a0
    80000514:	0310d23b          	divuw	tp,ra,a7
    80000518:	d5900413          	li	s0,-679
    8000051c:	00100793          	li	a5,1
    80000520:	fdd00e93          	li	t4,-35
    80000524:	00100513          	li	a0,1
    80000528:	41758183          	lb	gp,1047(a1)
    8000052c:	c6400d13          	li	s10,-924
    80000530:	038c5fb3          	divu	t6,s8,s8
    80000534:	028449bb          	divw	s3,s0,s0
    80000538:	55208c63          	beq	ra,s2,80000a90 <crash_forward>
    8000053c:	03f51513          	slli	a0,a0,0x3f
    80000540:	01dedabb          	srlw	s5,t4,t4
    80000544:	c6300213          	li	tp,-925
    80000548:	ae900a13          	li	s4,-1303
    8000054c:	03f79793          	slli	a5,a5,0x3f
    80000550:	024228b3          	mulhsu	a7,tp,tp
    80000554:	85e00c93          	li	s9,-1954
    80000558:	8eca0593          	addi	a1,s4,-1812
    8000055c:	fff00d93          	li	s11,-1
    80000560:	019d14b3          	sll	s1,s10,s9
    80000564:	00100113          	li	sp,1
    80000568:	03f11113          	slli	sp,sp,0x3f
    8000056c:	fff00993          	li	s3,-1
    80000570:	c2000e93          	li	t4,-992
    80000574:	a021019b          	addiw	gp,sp,-1534
    80000578:	ec400313          	li	t1,-316
    8000057c:	0029c9b3          	xor	s3,s3,sp
    80000580:	00738bbb          	addw	s7,t2,t2
    80000584:	15200c13          	li	s8,338
    80000588:	aaf00213          	li	tp,-1361
    8000058c:	0ee00093          	li	ra,238
    80000590:	00fdcdb3          	xor	s11,s11,a5
    80000594:	4f45de63          	bge	a1,s4,80000a90 <crash_forward>
    80000598:	0213093b          	mulw	s2,t1,ra
    8000059c:	00100a93          	li	s5,1
    800005a0:	0a000193          	li	gp,160
    800005a4:	01397fb3          	and	t6,s2,s3
    800005a8:	fff00b13          	li	s6,-1
    800005ac:	018c4e33          	xor	t3,s8,s8
    800005b0:	01ef563b          	srlw	a2,t5,t5
    800005b4:	01bf76b3          	and	a3,t5,s11
    800005b8:	00f6e2b3          	or	t0,a3,a5
    800005bc:	002fe433          	or	s0,t6,sp
    800005c0:	03fa9a93          	slli	s5,s5,0x3f
    800005c4:	00ab4b33          	xor	s6,s6,a0
    800005c8:	0031e3b3          	or	t2,gp,gp
    800005cc:	004e8cb3          	add	s9,t4,tp
    800005d0:	01637833          	and	a6,t1,s6
    800005d4:	02c66ebb          	remw	t4,a2,a2
    800005d8:	00a06733          	or	a4,zero,a0
    800005dc:	01b00613          	li	a2,27
    800005e0:	00001597          	auipc	a1,0x1
    800005e4:	7c858593          	addi	a1,a1,1992 # 80001da8 <fromhost+0xd68>
    800005e8:	ffc00f13          	li	t5,-4
    800005ec:	fff00493          	li	s1,-1
    800005f0:	e1300b93          	li	s7,-493
    800005f4:	cab00913          	li	s2,-853
    800005f8:	037b8fb3          	mul	t6,s7,s7
    800005fc:	02424dbb          	divw	s11,tp,tp
    80000600:	17f00793          	li	a5,383
    80000604:	73e5ac23          	sw	t5,1848(a1)
    80000608:	02f90233          	mul	tp,s2,a5
    8000060c:	f4e00e13          	li	t3,-178
    80000610:	019cbcb3          	sltu	s9,s9,s9
    80000614:	0339d3bb          	divuw	t2,s3,s3
    80000618:	4af00313          	li	t1,1199
    8000061c:	0154c4b3          	xor	s1,s1,s5
    80000620:	ef100a13          	li	s4,-271
    80000624:	03cf7133          	remu	sp,t5,t3
    80000628:	009d78b3          	and	a7,s10,s1
    8000062c:	25500193          	li	gp,597
    80000630:	0052abb3          	slt	s7,t0,t0
    80000634:	01596d33          	or	s10,s2,s5
    80000638:	004263b3          	or	t2,tp,tp
    8000063c:	02b59533          	mulh	a0,a1,a1
    80000640:	00100d93          	li	s11,1
    80000644:	03256833          	rem	a6,a0,s2
    80000648:	51600913          	li	s2,1302
    8000064c:	0367c7b3          	div	a5,a5,s6
    80000650:	03fd9d93          	slli	s11,s11,0x3f
    80000654:	00100893          	li	a7,1
    80000658:	023342b3          	div	t0,t1,gp
    8000065c:	00100593          	li	a1,1
    80000660:	00db143b          	sllw	s0,s6,a3
    80000664:	73f00093          	li	ra,1855
    80000668:	021a49b3          	div	s3,s4,ra
    8000066c:	02637d33          	remu	s10,t1,t1
    80000670:	fff00e93          	li	t4,-1
    80000674:	01cc9c33          	sll	s8,s9,t3
    80000678:	02c646b3          	div	a3,a2,a2
    8000067c:	51100b13          	li	s6,1297
    80000680:	03f59593          	slli	a1,a1,0x3f
    80000684:	01697f33          	and	t5,s2,s6
    80000688:	00002b97          	auipc	s7,0x2
    8000068c:	f7bb8b93          	addi	s7,s7,-133 # 80002603 <loop_count+0x3>
    80000690:	fff00f93          	li	t6,-1
    80000694:	00002717          	auipc	a4,0x2
    80000698:	2b470713          	addi	a4,a4,692 # 80002948 <_end+0x338>
    8000069c:	01beceb3          	xor	t4,t4,s11
    800006a0:	03f89893          	slli	a7,a7,0x3f
    800006a4:	fff00513          	li	a0,-1
    800006a8:	c65ba383          	lw	t2,-923(s7)
    800006ac:	934701a3          	sb	s4,-1757(a4)
    800006b0:	01154533          	xor	a0,a0,a7
    800006b4:	03bac2b3          	div	t0,s5,s11
    800006b8:	f0100193          	li	gp,-255
    800006bc:	00001617          	auipc	a2,0x1
    800006c0:	65660613          	addi	a2,a2,1622 # 80001d12 <fromhost+0xcd2>
    800006c4:	00c663b3          	or	t2,a2,a2
    800006c8:	b3500793          	li	a5,-1227
    800006cc:	00002d17          	auipc	s10,0x2
    800006d0:	d1ad0d13          	addi	s10,s10,-742 # 800023e6 <test_memory+0x1e6>
    800006d4:	1ded3523          	sd	t5,458(s10)
    800006d8:	03082733          	mulhsu	a4,a6,a6
    800006dc:	6cd62f23          	sw	a3,1758(a2)
    800006e0:	6aa00c13          	li	s8,1706
    800006e4:	00bfcfb3          	xor	t6,t6,a1
    800006e8:	c0500913          	li	s2,-1019
    800006ec:	00002b17          	auipc	s6,0x2
    800006f0:	1d4b0b13          	addi	s6,s6,468 # 800028c0 <_end+0x2b0>
    800006f4:	01290833          	add	a6,s2,s2
    800006f8:	01f7fe33          	and	t3,a5,t6
    800006fc:	403cd39b          	sraiw	t2,s9,0x3
    80000700:	e3c00693          	li	a3,-452
    80000704:	40d6d333          	sra	t1,a3,a3
    80000708:	0118873b          	addw	a4,a7,a7
    8000070c:	40f7d43b          	sraw	s0,a5,a5
    80000710:	01d0f233          	and	tp,ra,t4
    80000714:	7f000093          	li	ra,2032
    80000718:	02ec8833          	mul	a6,s9,a4
    8000071c:	00001297          	auipc	t0,0x1
    80000720:	6a628293          	addi	t0,t0,1702 # 80001dc2 <fromhost+0xd82>
    80000724:	01b56cb3          	or	s9,a0,s11
    80000728:	54629903          	lh	s2,1350(t0)
    8000072c:	0181da33          	srl	s4,gp,s8
    80000730:	a3fb4983          	lbu	s3,-1473(s6)
    80000734:	00b16133          	or	sp,sp,a1
    80000738:	e0500f13          	li	t5,-507
    8000073c:	00aefab3          	and	s5,t4,a0
    80000740:	03e0abb3          	mulhsu	s7,ra,t5
    80000744:	011fe4b3          	or	s1,t6,a7
    80000748:	a554d6e3          	bge	s1,s5,80000194 <crash_backward>
    8000074c:	0088e1b3          	or	gp,a7,s0
    80000750:	034a5933          	divu	s2,s4,s4
    80000754:	00318ab3          	add	s5,gp,gp
    80000758:	01bddf1b          	srliw	t5,s11,0x1b
    8000075c:	00100c13          	li	s8,1
    80000760:	00100113          	li	sp,1
    80000764:	70900d93          	li	s11,1801
    80000768:	fad00b13          	li	s6,-83
    8000076c:	02003333          	mulhu	t1,zero,zero
    80000770:	01bda9b3          	slt	s3,s11,s11
    80000774:	99700813          	li	a6,-1641
    80000778:	22a00393          	li	t2,554
    8000077c:	41df5a3b          	sraw	s4,t5,t4
    80000780:	03ef0abb          	mulw	s5,t5,t5
    80000784:	03fc1c13          	slli	s8,s8,0x3f
    80000788:	03f11113          	slli	sp,sp,0x3f
    8000078c:	02e72fb3          	mulhsu	t6,a4,a4
    80000790:	00001d97          	auipc	s11,0x1
    80000794:	4f7d8d93          	addi	s11,s11,1271 # 80001c87 <fromhost+0xc47>
    80000798:	016b3533          	sltu	a0,s6,s6
    8000079c:	aa34ff13          	andi	t5,s1,-1373
    800007a0:	01082433          	slt	s0,a6,a6
    800007a4:	fba00793          	li	a5,-70
    800007a8:	00002997          	auipc	s3,0x2
    800007ac:	06698993          	addi	s3,s3,102 # 8000280e <_end+0x1fe>
    800007b0:	b7e00193          	li	gp,-1154
    800007b4:	020074bb          	remuw	s1,zero,zero
    800007b8:	659db303          	ld	t1,1625(s11)
    800007bc:	53e00693          	li	a3,1342
    800007c0:	038c64b3          	rem	s1,s8,s8
    800007c4:	8962e593          	ori	a1,t0,-1898
    800007c8:	6e838e93          	addi	t4,t2,1768
    800007cc:	fff00713          	li	a4,-1
    800007d0:	fff00213          	li	tp,-1
    800007d4:	81400b13          	li	s6,-2028
    800007d8:	01824233          	xor	tp,tp,s8
    800007dc:	0031b933          	sltu	s2,gp,gp
    800007e0:	004ef633          	and	a2,t4,tp
    800007e4:	ee260f93          	addi	t6,a2,-286
    800007e8:	00100513          	li	a0,1
    800007ec:	ace99c23          	sh	a4,-1320(s3)
    800007f0:	02d79bb3          	mulh	s7,a5,a3
    800007f4:	59e00393          	li	t2,1438
    800007f8:	03f51513          	slli	a0,a0,0x3f
    800007fc:	0182e8b3          	or	a7,t0,s8
    80000800:	0d800f13          	li	t5,216
    80000804:	02a4c5b3          	div	a1,s1,a0
    80000808:	41eb5833          	sra	a6,s6,t5
    8000080c:	7e700693          	li	a3,2023
    80000810:	70800e93          	li	t4,1800
    80000814:	00274733          	xor	a4,a4,sp
    80000818:	fff00a93          	li	s5,-1
    8000081c:	00aacab3          	xor	s5,s5,a0
    80000820:	4bc78b9b          	addiw	s7,a5,1212
    80000824:	01d3d4bb          	srlw	s1,t2,t4
    80000828:	0153f433          	and	s0,t2,s5
    8000082c:	02f7c1bb          	divw	gp,a5,a5
    80000830:	00002997          	auipc	s3,0x2
    80000834:	3c798993          	addi	s3,s3,967 # 80002bf7 <_end+0x5e7>
    80000838:	00a3ea33          	or	s4,t2,a0
    8000083c:	20f00913          	li	s2,527
    80000840:	0326ddbb          	divuw	s11,a3,s2
    80000844:	9e99bf83          	ld	t6,-1559(s3)
    80000848:	00ed7e33          	and	t3,s10,a4
    8000084c:	00226cb3          	or	s9,tp,sp
    80000850:	002167b3          	or	a5,sp,sp
    80000854:	75300613          	li	a2,1875
    80000858:	3c800493          	li	s1,968
    8000085c:	0052feb3          	and	t4,t0,t0
    80000860:	c3100c13          	li	s8,-975
    80000864:	71500a93          	li	s5,1813
    80000868:	038c7e33          	remu	t3,s8,s8
    8000086c:	00100093          	li	ra,1
    80000870:	0294d533          	divu	a0,s1,s1
    80000874:	03f09093          	slli	ra,ra,0x3f
    80000878:	19000793          	li	a5,400
    8000087c:	fff00b13          	li	s6,-1
    80000880:	00100f93          	li	t6,1
    80000884:	03ff9f93          	slli	t6,t6,0x3f
    80000888:	dcb00693          	li	a3,-565
    8000088c:	00f7ba33          	sltu	s4,a5,a5
    80000890:	00d6d43b          	srlw	s0,a3,a3
    80000894:	73100f13          	li	t5,1841
    80000898:	001b4b33          	xor	s6,s6,ra
    8000089c:	00100293          	li	t0,1
    800008a0:	01eac3b3          	xor	t2,s5,t5
    800008a4:	03f29293          	slli	t0,t0,0x3f
    800008a8:	fff00593          	li	a1,-1
    800008ac:	fff00313          	li	t1,-1
    800008b0:	55100c93          	li	s9,1361
    800008b4:	41960bb3          	sub	s7,a2,s9
    800008b8:	00534333          	xor	t1,t1,t0
    800008bc:	006ef9b3          	and	s3,t4,t1
    800008c0:	24300893          	li	a7,579
    800008c4:	01f5c5b3          	xor	a1,a1,t6
    800008c8:	29600d13          	li	s10,662
    800008cc:	01a8b833          	sltu	a6,a7,s10
    800008d0:	016ff233          	and	tp,t6,s6
    800008d4:	00126733          	or	a4,tp,ra
    800008d8:	00b87db3          	and	s11,a6,a1
    800008dc:	01fde1b3          	or	gp,s11,t6
    800008e0:	1ae24863          	blt	tp,a4,80000a90 <crash_forward>
    800008e4:	005e6133          	or	sp,t3,t0
    800008e8:	1b315463          	bge	sp,s3,80000a90 <crash_forward>
    800008ec:	40420db3          	sub	s11,tp,tp
    800008f0:	0059da13          	srli	s4,s3,0x5
    800008f4:	01ad193b          	sllw	s2,s10,s10
    800008f8:	00002817          	auipc	a6,0x2
    800008fc:	adf80813          	addi	a6,a6,-1313 # 800023d7 <test_memory+0x1d7>
    80000900:	f4d00693          	li	a3,-179
    80000904:	7f082193          	slti	gp,a6,2032
    80000908:	0073fb33          	and	s6,t2,t2
    8000090c:	00100393          	li	t2,1
    80000910:	c7868793          	addi	a5,a3,-904
    80000914:	00048593          	mv	a1,s1
    80000918:	03f39393          	slli	t2,t2,0x3f
    8000091c:	00100293          	li	t0,1
    80000920:	00058c93          	mv	s9,a1
    80000924:	84600e93          	li	t4,-1978
    80000928:	1795c463          	blt	a1,s9,80000a90 <crash_forward>
    8000092c:	fff00b93          	li	s7,-1
    80000930:	00002497          	auipc	s1,0x2
    80000934:	f1d48493          	addi	s1,s1,-227 # 8000284d <_end+0x23d>
    80000938:	21200993          	li	s3,530
    8000093c:	f1785703          	lhu	a4,-233(a6)
    80000940:	a884ada3          	sw	s0,-1381(s1)
    80000944:	031ee133          	rem	sp,t4,a7
    80000948:	00100213          	li	tp,1
    8000094c:	1f198093          	addi	ra,s3,497
    80000950:	03f21213          	slli	tp,tp,0x3f
    80000954:	0312f4bb          	remuw	s1,t0,a7
    80000958:	fff00513          	li	a0,-1
    8000095c:	67a00613          	li	a2,1658
    80000960:	40200193          	li	gp,1026
    80000964:	01e44733          	xor	a4,s0,t5
    80000968:	03f29293          	slli	t0,t0,0x3f
    8000096c:	00001117          	auipc	sp,0x1
    80000970:	61610113          	addi	sp,sp,1558 # 80001f82 <fromhost+0xf42>
    80000974:	37811083          	lh	ra,888(sp)
    80000978:	40ce88bb          	subw	a7,t4,a2
    8000097c:	00100593          	li	a1,1
    80000980:	03f59593          	slli	a1,a1,0x3f
    80000984:	00100913          	li	s2,1
    80000988:	fff00d93          	li	s11,-1
    8000098c:	03f91913          	slli	s2,s2,0x3f
    80000990:	fff00813          	li	a6,-1
    80000994:	fff00f93          	li	t6,-1
    80000998:	00454533          	xor	a0,a0,tp
    8000099c:	007bcbb3          	xor	s7,s7,t2
    800009a0:	00bdcdb3          	xor	s11,s11,a1
    800009a4:	00a97d33          	and	s10,s2,a0
    800009a8:	0231cc33          	div	s8,gp,gp
    800009ac:	1e263c93          	sltiu	s9,a2,482
    800009b0:	01b47b33          	and	s6,s0,s11
    800009b4:	017ba9b3          	slt	s3,s7,s7
    800009b8:	004d6f33          	or	t5,s10,tp
    800009bc:	005fcfb3          	xor	t6,t6,t0
    800009c0:	00bb6a33          	or	s4,s6,a1
    800009c4:	01f6fe33          	and	t3,a3,t6
    800009c8:	017df433          	and	s0,s11,s7
    800009cc:	00746ab3          	or	s5,s0,t2
    800009d0:	fdaf6263          	bltu	t5,s10,80000194 <crash_backward>
    800009d4:	0b4b7e63          	bgeu	s6,s4,80000a90 <crash_forward>
    800009d8:	0059e333          	or	t1,s3,t0
    800009dc:	01284833          	xor	a6,a6,s2
    800009e0:	fbc36a63          	bltu	t1,t3,80000194 <crash_backward>
    800009e4:	0b540663          	beq	s0,s5,80000a90 <crash_forward>
    800009e8:	010377b3          	and	a5,t1,a6
    800009ec:	0127e6b3          	or	a3,a5,s2
    800009f0:	0040006f          	j	800009f4 <reg_dump>

00000000800009f4 <reg_dump>:
    800009f4:	00002097          	auipc	ra,0x2
    800009f8:	c0c08093          	addi	ra,ra,-1012 # 80002600 <loop_count>
    800009fc:	0000a103          	lw	sp,0(ra)
    80000a00:	fff10193          	addi	gp,sp,-1
    80000a04:	0030a023          	sw	gp,0(ra)
    80000a08:	82011ae3          	bnez	sp,8000023c <pseg_0>
    80000a0c:	00001097          	auipc	ra,0x1
    80000a10:	6f408093          	addi	ra,ra,1780 # 80002100 <begin_signature>
    80000a14:	0000b023          	sd	zero,0(ra)
    80000a18:	0030bc23          	sd	gp,24(ra)
    80000a1c:	0240b023          	sd	tp,32(ra)
    80000a20:	0250b423          	sd	t0,40(ra)
    80000a24:	0260b823          	sd	t1,48(ra)
    80000a28:	0270bc23          	sd	t2,56(ra)
    80000a2c:	0480b023          	sd	s0,64(ra)
    80000a30:	0490b423          	sd	s1,72(ra)
    80000a34:	04a0b823          	sd	a0,80(ra)
    80000a38:	04b0bc23          	sd	a1,88(ra)
    80000a3c:	06c0b023          	sd	a2,96(ra)
    80000a40:	06d0b423          	sd	a3,104(ra)
    80000a44:	06e0b823          	sd	a4,112(ra)
    80000a48:	06f0bc23          	sd	a5,120(ra)
    80000a4c:	0900b023          	sd	a6,128(ra)
    80000a50:	0910b423          	sd	a7,136(ra)
    80000a54:	0920b823          	sd	s2,144(ra)
    80000a58:	0930bc23          	sd	s3,152(ra)
    80000a5c:	0b40b023          	sd	s4,160(ra)
    80000a60:	0b50b423          	sd	s5,168(ra)
    80000a64:	0b60b823          	sd	s6,176(ra)
    80000a68:	0b70bc23          	sd	s7,184(ra)
    80000a6c:	0d80b023          	sd	s8,192(ra)
    80000a70:	0d90b423          	sd	s9,200(ra)
    80000a74:	0da0b823          	sd	s10,208(ra)
    80000a78:	0db0bc23          	sd	s11,216(ra)
    80000a7c:	0fc0b023          	sd	t3,224(ra)
    80000a80:	0fd0b423          	sd	t4,232(ra)
    80000a84:	0fe0b823          	sd	t5,240(ra)
    80000a88:	0ff0bc23          	sd	t6,248(ra)
    80000a8c:	0200006f          	j	80000aac <test_end>

0000000080000a90 <crash_forward>:
    80000a90:	0ff0000f          	fence
    80000a94:	00018063          	beqz	gp,80000a94 <crash_forward+0x4>
    80000a98:	00119193          	slli	gp,gp,0x1
    80000a9c:	0011e193          	ori	gp,gp,1
    80000aa0:	05d00893          	li	a7,93
    80000aa4:	00018513          	mv	a0,gp
    80000aa8:	00000073          	ecall

0000000080000aac <test_end>:
    80000aac:	0ff0000f          	fence
    80000ab0:	00100193          	li	gp,1
    80000ab4:	05d00893          	li	a7,93
    80000ab8:	00000513          	li	a0,0
    80000abc:	00000073          	ecall
    80000ac0:	c0001073          	unimp

Disassembly of section .tohost:

0000000080001000 <tohost>:
	...

0000000080001040 <fromhost>:
	...

Disassembly of section .data:

0000000080002000 <hidden_data>:
    80002000:	9272fa03          	0x9272fa03
    80002004:	3285                	addiw	t0,t0,-31
    80002006:	2cda                	fld	fs9,400(sp)

0000000080002008 <reg_x1_init>:
    80002008:	0008                	0x8
    8000200a:	0000                	unimp
    8000200c:	0000                	unimp
	...

0000000080002010 <reg_x2_init>:
    80002010:	0001                	nop
    80002012:	0000                	unimp
    80002014:	0000                	unimp
	...

0000000080002018 <reg_x3_init>:
    80002018:	42d5                	li	t0,21
    8000201a:	a519                	j	80002620 <_end+0x10>
    8000201c:	0269                	addi	tp,tp,26
    8000201e:	0395                	addi	t2,t2,5

0000000080002020 <reg_x4_init>:
    80002020:	0002                	c.slli64	zero
    80002022:	0000                	unimp
    80002024:	0000                	unimp
    80002026:	0800                	addi	s0,sp,16

0000000080002028 <reg_x5_init>:
    80002028:	0004                	0x4
    8000202a:	0000                	unimp
    8000202c:	0000                	unimp
    8000202e:	0800                	addi	s0,sp,16

0000000080002030 <reg_x6_init>:
    80002030:	d6977a97          	auipc	s5,0xd6977
    80002034:	9e08                	0x9e08
    80002036:	          	0xf4b42fc3

0000000080002038 <reg_x7_init>:
    80002038:	f4b4                	sd	a3,104(s1)
    8000203a:	75ce                	ld	a1,240(sp)
    8000203c:	c8f30303          	lb	t1,-881(t1)

0000000080002040 <reg_x8_init>:
    80002040:	9fcf9dd3          	0x9fcf9dd3
    80002044:	2fbe                	fld	ft11,456(sp)
    80002046:	5605                	li	a2,-31

0000000080002048 <reg_x9_init>:
    80002048:	8d3d                	xor	a0,a0,a5
    8000204a:	27e5                	addiw	a5,a5,25
    8000204c:	18e2                	slli	a7,a7,0x38
    8000204e:	40da                	lw	ra,148(sp)

0000000080002050 <reg_x10_init>:
    80002050:	8000                	0x8000
    80002052:	ffff                	0xffff
    80002054:	ffff                	0xffff
    80002056:	ffff                	0xffff

0000000080002058 <reg_x11_init>:
    80002058:	10ac                	addi	a1,sp,104
    8000205a:	3c50                	fld	fa2,184(s0)
    8000205c:	c768                	sw	a0,76(a4)
    8000205e:	7988                	ld	a0,48(a1)

0000000080002060 <reg_x12_init>:
    80002060:	ff81                	bnez	a5,80001f78 <fromhost+0xf38>
    80002062:	ffff                	0xffff
    80002064:	ffff                	0xffff
    80002066:	ffff                	0xffff

0000000080002068 <reg_x13_init>:
    80002068:	d998                	sw	a4,48(a1)
    8000206a:	729af727          	0x729af727
    8000206e:	          	0xed0ecf7

0000000080002070 <reg_x14_init>:
    80002070:	0ed0                	addi	a2,sp,852
    80002072:	7d6e                	ld	s10,248(sp)
    80002074:	629c                	ld	a5,0(a3)
    80002076:	33ca                	fld	ft7,176(sp)

0000000080002078 <reg_x15_init>:
    80002078:	73f2                	ld	t2,312(sp)
    8000207a:	65fe                	ld	a1,472(sp)
    8000207c:	ee8d                	bnez	a3,800020b6 <reg_x22_init+0x6>
    8000207e:	04c6                	slli	s1,s1,0x11

0000000080002080 <reg_x16_init>:
    80002080:	8002                	0x8002
    80002082:	ffff                	0xffff
    80002084:	ffff                	0xffff
    80002086:	ffff                	0xffff

0000000080002088 <reg_x17_init>:
    80002088:	a2a2                	fsd	fs0,320(sp)
    8000208a:	d246                	sw	a7,36(sp)
    8000208c:	e2e2                	sd	s8,320(sp)
    8000208e:	          	lbu	s0,1355(t6)

0000000080002090 <reg_x18_init>:
    80002090:	747a54bf 8e3335ff 	0x8e3335ff747a54bf

0000000080002098 <reg_x19_init>:
    80002098:	159896db          	0x159896db
    8000209c:	928d4c0f          	0x928d4c0f

00000000800020a0 <reg_x20_init>:
    800020a0:	dce43843          	0xdce43843
    800020a4:	1df1                	addi	s11,s11,-4
    800020a6:	8654                	0x8654

00000000800020a8 <reg_x21_init>:
    800020a8:	0002                	c.slli64	zero
    800020aa:	0000                	unimp
    800020ac:	0000                	unimp
    800020ae:	0800                	addi	s0,sp,16

00000000800020b0 <reg_x22_init>:
    800020b0:	620e                	ld	tp,192(sp)
    800020b2:	07e6121b          	0x7e6121b
    800020b6:	db64                	sw	s1,116(a4)

00000000800020b8 <reg_x23_init>:
    800020b8:	3c6e                	fld	fs8,248(sp)
    800020ba:	994a3467          	0x994a3467
    800020be:	b901                	j	80001cce <fromhost+0xc8e>

00000000800020c0 <reg_x24_init>:
    800020c0:	c8a8                	sw	a0,80(s1)
    800020c2:	4d3a                	lw	s10,140(sp)
    800020c4:	8632                	mv	a2,a2
    800020c6:	          	0xe857

00000000800020c8 <reg_x25_init>:
	...

00000000800020d0 <reg_x26_init>:
    800020d0:	de5f 992b 0f03      	0xf03992bde5f
    800020d6:	          	0xe6ab

00000000800020d8 <reg_x27_init>:
	...

00000000800020e0 <reg_x28_init>:
    800020e0:	2296                	fld	ft5,320(sp)
    800020e2:	88b6                	mv	a7,a3
    800020e4:	51f9                	li	gp,-2
    800020e6:	8b60                	0x8b60

00000000800020e8 <reg_x29_init>:
    800020e8:	429c                	lw	a5,0(a3)
    800020ea:	c64d                	beqz	a2,80002194 <reg_x18_output+0x4>
    800020ec:	6950                	ld	a2,144(a0)
    800020ee:	3f19                	addiw	t5,t5,-26

00000000800020f0 <reg_x30_init>:
    800020f0:	28ff                	0x28ff
    800020f2:	7ed234c3          	fmadd.q	fs1,ft4,fa3,fa5,rup
    800020f6:	          	fnmsub.s	fa7,ft1,ft0,ft0,unknown

00000000800020f8 <reg_x31_init>:
	...

0000000080002100 <begin_signature>:
    80002100:	e17a                	sd	t5,128(sp)
    80002102:	1910                	addi	a2,sp,176
    80002104:	2f940553          	fmin.q	fa0,fs0,fs9

0000000080002108 <reg_x1_output>:
    80002108:	484e55f7          	0x484e55f7
    8000210c:	09f6                	slli	s3,s3,0x1d
    8000210e:	1781                	addi	a5,a5,-32

0000000080002110 <reg_x2_output>:
    80002110:	9540                	0x9540
    80002112:	721f 3c8c eb56      	0xeb563c8c721f

0000000080002118 <reg_x3_output>:
    80002118:	e7f5                	bnez	a5,80002204 <test_memory+0x4>
    8000211a:	ca9e                	sw	t2,84(sp)
    8000211c:	b62c                	fsd	fa1,104(a2)
    8000211e:	f008                	sd	a0,32(s0)

0000000080002120 <reg_x4_output>:
    80002120:	03a9                	addi	t2,t2,10
    80002122:	0f693d4f          	fnmadd.q	fs10,fs2,fs6,ft1,rup
    80002126:	5d64                	lw	s1,124(a0)

0000000080002128 <reg_x5_output>:
    80002128:	57905c0b          	0x57905c0b
    8000212c:	71ec                	ld	a1,224(a1)
    8000212e:	c25e                	sw	s7,4(sp)

0000000080002130 <reg_x6_output>:
    80002130:	dbf6d3ef          	jal	t2,7ff6feee <_start-0x90112>
    80002134:	199c                	addi	a5,sp,240
    80002136:	0100                	addi	s0,sp,128

0000000080002138 <reg_x7_output>:
    80002138:	089e                	slli	a7,a7,0x7
    8000213a:	fa46                	sd	a7,304(sp)
    8000213c:	9bac                	0x9bac
    8000213e:	bc7e                	fsd	ft11,56(sp)

0000000080002140 <reg_x8_output>:
    80002140:	eed0                	sd	a2,152(a3)
    80002142:	a9a8                	fsd	fa0,80(a1)
    80002144:	742c                	ld	a1,104(s0)
    80002146:	          	0x583bafaf

0000000080002148 <reg_x9_output>:
    80002148:	e94f583b          	0xe94f583b
    8000214c:	22682f27          	fsw	ft6,574(a6)

0000000080002150 <reg_x10_output>:
    80002150:	09a5                	addi	s3,s3,9
    80002152:	31cd                	addiw	gp,gp,-13
    80002154:	1056                	c.slli	zero,0x35
    80002156:	b7c6                	fsd	fa7,488(sp)

0000000080002158 <reg_x11_output>:
    80002158:	9ccc                	0x9ccc
    8000215a:	ce62                	sw	s8,28(sp)
    8000215c:	f4d6                	sd	s5,104(sp)
    8000215e:	6eba                	ld	t4,392(sp)

0000000080002160 <reg_x12_output>:
    80002160:	4eb2                	lw	t4,12(sp)
    80002162:	ab01                	j	80002672 <_end+0x62>
    80002164:	0ca35cab          	0xca35cab

0000000080002168 <reg_x13_output>:
    80002168:	6206                	ld	tp,64(sp)
    8000216a:	5715                	li	a4,-27
    8000216c:	b78aa5b7          	lui	a1,0xb78aa

0000000080002170 <reg_x14_output>:
    80002170:	b6be                	fsd	fa5,360(sp)
    80002172:	016c                	addi	a1,sp,140
    80002174:	9886                	add	a7,a7,ra
    80002176:	1a31                	addi	s4,s4,-20

0000000080002178 <reg_x15_output>:
    80002178:	f325                	bnez	a4,800020d8 <reg_x27_init>
    8000217a:	4fa2                	lw	t6,8(sp)
    8000217c:	fc5a074b          	0xfc5a074b

0000000080002180 <reg_x16_output>:
    80002180:	e7e6                	sd	s9,456(sp)
    80002182:	46e4                	lw	s1,76(a3)
    80002184:	7999                	lui	s3,0xfffe6
    80002186:	e17c                	sd	a5,192(a0)

0000000080002188 <reg_x17_output>:
    80002188:	bca907db          	0xbca907db
    8000218c:	43e4                	lw	s1,68(a5)
    8000218e:	2fdd                	addiw	t6,t6,23

0000000080002190 <reg_x18_output>:
    80002190:	adae                	fsd	fa1,216(sp)
    80002192:	0b92                	slli	s7,s7,0x4
    80002194:	07e2                	slli	a5,a5,0x18
    80002196:	7a5a                	ld	s4,432(sp)

0000000080002198 <reg_x19_output>:
    80002198:	cc85                	beqz	s1,800021d0 <reg_x26_output>
    8000219a:	bacd                	j	80001b8c <fromhost+0xb4c>
    8000219c:	c4530327          	0xc4530327

00000000800021a0 <reg_x20_output>:
    800021a0:	5e58                	lw	a4,60(a2)
    800021a2:	38dd                	addiw	a7,a7,-9
    800021a4:	d3c9                	beqz	a5,80002126 <reg_x4_output+0x6>
    800021a6:	206a                	fld	ft0,152(sp)

00000000800021a8 <reg_x21_output>:
    800021a8:	b99f 8ac1 06c7      	0x6c78ac1b99f
    800021ae:	a038                	fsd	fa4,64(s0)

00000000800021b0 <reg_x22_output>:
    800021b0:	c178                	sw	a4,68(a0)
    800021b2:	6c16                	ld	s8,320(sp)
    800021b4:	2e64ea83          	lwu	s5,742(s1)

00000000800021b8 <reg_x23_output>:
    800021b8:	ee7a                	sd	t5,280(sp)
    800021ba:	0042                	c.slli	zero,0x10
    800021bc:	13114f93          	xori	t6,sp,305

00000000800021c0 <reg_x24_output>:
    800021c0:	4bc8                	lw	a0,20(a5)
    800021c2:	33e6                	fld	ft7,120(sp)
    800021c4:	1bef2cb7          	lui	s9,0x1bef2

00000000800021c8 <reg_x25_output>:
    800021c8:	62ef032b          	0x62ef032b
    800021cc:	0eb5                	addi	t4,t4,13
    800021ce:	5345                	li	t1,-15

00000000800021d0 <reg_x26_output>:
    800021d0:	c438                	sw	a4,72(s0)
    800021d2:	eb63c40b          	0xeb63c40b
    800021d6:	de88                	sw	a0,56(a3)

00000000800021d8 <reg_x27_output>:
    800021d8:	85c6                	mv	a1,a7
    800021da:	e736bb0b          	0xe736bb0b
    800021de:	6eba                	ld	t4,392(sp)

00000000800021e0 <reg_x28_output>:
    800021e0:	a649                	j	80002562 <test_memory+0x362>
    800021e2:	cbfe                	sw	t6,212(sp)
    800021e4:	ef00                	sd	s0,24(a4)
    800021e6:	          	0x96cc3f53

00000000800021e8 <reg_x29_output>:
    800021e8:	96cc                	0x96cc
    800021ea:	023c                	addi	a5,sp,264
    800021ec:	43c8                	lw	a0,4(a5)
    800021ee:	5c80                	lw	s0,56(s1)

00000000800021f0 <reg_x30_output>:
    800021f0:	cf70d59b          	0xcf70d59b
    800021f4:	4ce4                	lw	s1,92(s1)
    800021f6:	7c55                	lui	s8,0xffff5

00000000800021f8 <reg_x31_output>:
    800021f8:	58e1                	li	a7,-8
    800021fa:	f3a4                	sd	s1,96(a5)
    800021fc:	fe35c4bf  	0x311076c4fe35c4bf

0000000080002200 <test_memory>:
    80002200:	76c4                	ld	s1,168(a3)
    80002202:	3110                	fld	fa2,32(a0)
    80002204:	aee9                	j	800025de <test_memory+0x3de>
    80002206:	27c23623          	sd	t3,620(tp) # 26c <_start-0x7ffffd94>
    8000220a:	675d                	lui	a4,0x17
    8000220c:	0a61                	addi	s4,s4,24
    8000220e:	016298d7          	0x16298d7
    80002212:	a94e                	fsd	fs3,144(sp)
    80002214:	f14a                	sd	s2,160(sp)
    80002216:	ca75713f 5f5e9deb 	0x5f5e9debca75713f
    8000221e:	5dbe                	lw	s11,236(sp)
    80002220:	11a8df73          	csrrwi	t5,0x11a,17
    80002224:	3ad4                	fld	fa3,176(a3)
    80002226:	14c1aebf 07a27066 	0x7a2706614c1aebf
    8000222e:	8ada                	mv	s5,s6
    80002230:	c2562de3          	0xc2562de3
    80002234:	f33c                	sd	a5,96(a4)
    80002236:	abe090bb          	0xabe090bb
    8000223a:	84dd                	srai	s1,s1,0x17
    8000223c:	3748                	fld	fa0,168(a4)
    8000223e:	fc21                	bnez	s0,80002196 <reg_x18_output+0x6>
    80002240:	7266                	ld	tp,120(sp)
    80002242:	913a                	add	sp,sp,a4
    80002244:	3bce                	fld	fs7,240(sp)
    80002246:	8675                	srai	a2,a2,0x1d
    80002248:	e365e273          	csrrsi	tp,0xe36,11
    8000224c:	f5f1                	bnez	a1,80002218 <test_memory+0x18>
    8000224e:	8cb2                	mv	s9,a2
    80002250:	37685a87          	0x37685a87
    80002254:	ce48                	sw	a0,28(a2)
    80002256:	e05a                	sd	s6,0(sp)
    80002258:	dfb5                	beqz	a5,800021d4 <reg_x26_output+0x4>
    8000225a:	4206                	lw	tp,64(sp)
    8000225c:	7238                	ld	a4,96(a2)
    8000225e:	abe9                	j	80002838 <_end+0x228>
    80002260:	d801                	beqz	s0,80002170 <reg_x14_output>
    80002262:	66053ae3          	0x66053ae3
    80002266:	d7bd                	beqz	a5,800021d4 <reg_x26_output+0x4>
    80002268:	345f85f3          	0x345f85f3
    8000226c:	897c                	0x897c
    8000226e:	2650                	fld	fa2,136(a2)
    80002270:	2e4d                	addiw	t3,t3,19
    80002272:	c68a                	sw	sp,76(sp)
    80002274:	175c                	addi	a5,sp,932
    80002276:	56ba                	lw	a3,172(sp)
    80002278:	f1dacc3b          	0xf1dacc3b
    8000227c:	6c1687e7          	jalr	a5,1729(a3)
    80002280:	c57c                	sw	a5,76(a0)
    80002282:	3ef4                	fld	fa3,248(a3)
    80002284:	394a                	fld	fs2,176(sp)
    80002286:	1579                	addi	a0,a0,-2
    80002288:	62747f53          	0x62747f53
    8000228c:	64b1                	lui	s1,0xc
    8000228e:	f27a                	sd	t5,288(sp)
    80002290:	d646                	sw	a7,44(sp)
    80002292:	1a35                	addi	s4,s4,-19
    80002294:	c54e                	sw	s3,136(sp)
    80002296:	9dec483f fe9a9154 	0xfe9a91549dec483f
    8000229e:	8c2a                	mv	s8,a0
    800022a0:	4362                	lw	t1,24(sp)
    800022a2:	519316ab          	0x519316ab
    800022a6:	185c                	addi	a5,sp,52
    800022a8:	f547c417          	auipc	s0,0xf547c
    800022ac:	1cc1                	addi	s9,s9,-16
    800022ae:	341761bf 09538415 	0x9538415341761bf
    800022b6:	59f856e7          	0x59f856e7
    800022ba:	548e                	lw	s1,224(sp)
    800022bc:	3796                	fld	fa5,352(sp)
    800022be:	37a6                	fld	fa5,104(sp)
    800022c0:	4412                	lw	s0,4(sp)
    800022c2:	477bdee3          	bge	s7,s7,80002f3e <__global_pointer$+0x12e>
    800022c6:	c5de                	sw	s7,200(sp)
    800022c8:	79b8                	ld	a4,112(a1)
    800022ca:	4e277ae3          	bgeu	a4,sp,80002fbe <__global_pointer$+0x1ae>
    800022ce:	d66e                	sw	s11,44(sp)
    800022d0:	5c7a                	lw	s8,188(sp)
    800022d2:	8984                	0x8984
    800022d4:	609fb78b          	0x609fb78b
    800022d8:	c0c0                	sw	s0,4(s1)
    800022da:	4ba1d137          	lui	sp,0x4ba1d
    800022de:	8a41253b          	0x8a41253b
    800022e2:	57b2                	lw	a5,44(sp)
    800022e4:	20c1                	addiw	ra,ra,16
    800022e6:	c258                	sw	a4,4(a2)
    800022e8:	e5ab8023          	sb	s10,-448(s7)
    800022ec:	c119                	beqz	a0,800022f2 <test_memory+0xf2>
    800022ee:	0910                	addi	a2,sp,144
    800022f0:	65bd                	lui	a1,0xf
    800022f2:	d575                	beqz	a0,800022de <test_memory+0xde>
    800022f4:	3f74                	fld	fa3,248(a4)
    800022f6:	1602                	slli	a2,a2,0x20
    800022f8:	8b17005b          	0x8b17005b
    800022fc:	9e56f78b          	0x9e56f78b
    80002300:	df76                	sw	t4,188(sp)
    80002302:	7c2a                	ld	s8,168(sp)
    80002304:	50c5                	li	ra,-15
    80002306:	cc37722f          	0xcc37722f
    8000230a:	d126                	sw	s1,160(sp)
    8000230c:	61109e1b          	0x61109e1b
    80002310:	8641                	srai	a2,a2,0x10
    80002312:	34733c8f          	0x34733c8f
    80002316:	995a                	add	s2,s2,s6
    80002318:	3714                	fld	fa3,40(a4)
    8000231a:	4bfd                	li	s7,31
    8000231c:	98a5                	andi	s1,s1,-23
    8000231e:	53c6                	lw	t2,112(sp)
    80002320:	9a8d                	andi	a3,a3,-29
    80002322:	12bc                	addi	a5,sp,360
    80002324:	490e                	lw	s2,192(sp)
    80002326:	6830                	ld	a2,80(s0)
    80002328:	924a                	add	tp,tp,s2
    8000232a:	03a9                	addi	t2,t2,10
    8000232c:	b270                	fsd	fa2,224(a2)
    8000232e:	82fcf183          	0x82fcf183
    80002332:	664f81a3          	sb	tp,1635(t6)
    80002336:	c449                	beqz	s0,800023c0 <test_memory+0x1c0>
    80002338:	c5e9                	beqz	a1,80002402 <test_memory+0x202>
    8000233a:	b3d8                	fsd	fa4,160(a5)
    8000233c:	3941                	addiw	s2,s2,-16
    8000233e:	7c92                	ld	s9,288(sp)
    80002340:	7635                	lui	a2,0xfffed
    80002342:	99c66bf3          	csrrsi	s7,0x99c,12
    80002346:	417a                	lw	sp,156(sp)
    80002348:	40a5                	li	ra,9
    8000234a:	7a2a                	ld	s4,168(sp)
    8000234c:	1649c49b          	0x1649c49b
    80002350:	6df8                	ld	a4,216(a1)
    80002352:	89b671cf          	fnmadd.s	ft3,fa2,fs11,fa7
    80002356:	7885                	lui	a7,0xfffe1
    80002358:	730e                	ld	t1,224(sp)
    8000235a:	ad3c98cf          	0xad3c98cf
    8000235e:	b7728c5b          	0xb7728c5b
    80002362:	a23bc287          	flq	ft5,-1501(s7)
    80002366:	d9a0                	sw	s0,112(a1)
    80002368:	eacb4a03          	lbu	s4,-340(s6)
    8000236c:	f8ea                	sd	s10,112(sp)
    8000236e:	41f0                	lw	a2,68(a1)
    80002370:	b4d2                	fsd	fs4,104(sp)
    80002372:	70b4c0eb          	0x70b4c0eb
    80002376:	ae72                	fsd	ft8,280(sp)
    80002378:	5c68                	lw	a0,124(s0)
    8000237a:	228a                	fld	ft5,128(sp)
    8000237c:	be72                	fsd	ft8,312(sp)
    8000237e:	66d4                	ld	a3,136(a3)
    80002380:	54fda41b          	0x54fda41b
    80002384:	d161                	beqz	a0,80002344 <test_memory+0x144>
    80002386:	b3dc                	fsd	fa5,160(a5)
    80002388:	c016                	sw	t0,0(sp)
    8000238a:	45ebf1e3          	bgeu	s7,t5,80002fcc <__global_pointer$+0x1bc>
    8000238e:	6912                	ld	s2,256(sp)
    80002390:	c81b7f3b          	0xc81b7f3b
    80002394:	d342                	sw	a6,164(sp)
    80002396:	ca9a                	sw	t1,84(sp)
    80002398:	071dba13          	sltiu	s4,s11,113
    8000239c:	561e6943          	fmadd.q	fs2,ft8,ft1,fa0,unknown
    800023a0:	495d                	li	s2,23
    800023a2:	5e4d                	li	t3,-13
    800023a4:	764c                	ld	a1,168(a2)
    800023a6:	707e                	0x707e
    800023a8:	be02                	fsd	ft0,312(sp)
    800023aa:	0c90                	addi	a2,sp,592
    800023ac:	f8f4                	sd	a3,240(s1)
    800023ae:	5d7b9c17          	auipc	s8,0x5d7b9
    800023b2:	e99a                	sd	t1,208(sp)
    800023b4:	2149a7b7          	lui	a5,0x2149a
    800023b8:	70dd                	lui	ra,0xffff7
    800023ba:	f336                	sd	a3,416(sp)
    800023bc:	2914                	fld	fa3,16(a0)
    800023be:	92363223          	sd	gp,-1756(a2) # fffffffffffec924 <__global_pointer$+0xffffffff7ffe9b14>
    800023c2:	884c                	0x884c
    800023c4:	20b5                	addiw	ra,ra,13
    800023c6:	27f0                	fld	fa2,200(a5)
    800023c8:	a2e0                	fsd	fs0,192(a3)
    800023ca:	1b19                	addi	s6,s6,-26
    800023cc:	4a98                	lw	a4,16(a3)
    800023ce:	cca0                	sw	s0,88(s1)
    800023d0:	46e9                	li	a3,26
    800023d2:	e621                	bnez	a2,8000241a <test_memory+0x21a>
    800023d4:	0b4d                	addi	s6,s6,19
    800023d6:	75c6                	ld	a1,112(sp)
    800023d8:	74c8                	ld	a0,168(s1)
    800023da:	54d0f277          	0x54d0f277
    800023de:	173e                	slli	a4,a4,0x2f
    800023e0:	4fd5adfb          	0x4fd5adfb
    800023e4:	917f                	0x917f
    800023e6:	8ef9                	and	a3,a3,a4
    800023e8:	1c3d                	addi	s8,s8,-17
    800023ea:	64b1                	lui	s1,0xc
    800023ec:	0335                	addi	t1,t1,13
    800023ee:	6fee                	ld	t6,216(sp)
    800023f0:	e874                	sd	a3,208(s0)
    800023f2:	e17c                	sd	a5,192(a0)
    800023f4:	baa6                	fsd	fs1,368(sp)
    800023f6:	fb8cb0f3          	csrrc	ra,0xfb8,s9
    800023fa:	a030                	fsd	fa2,64(s0)
    800023fc:	8b62                	mv	s6,s8
    800023fe:	c2c2                	sw	a6,68(sp)
    80002400:	c6d2                	sw	s4,76(sp)
    80002402:	3b2717e3          	bne	a4,s2,80002fb0 <__global_pointer$+0x1a0>
    80002406:	da1f 0098 fd5d      	0xfd5d0098da1f
    8000240c:	ac192f67          	0xac192f67
    80002410:	431d                	li	t1,7
    80002412:	1a462d2f          	sc.w.rl	s10,tp,(a2)
    80002416:	015a                	slli	sp,sp,0x16
    80002418:	7f12                	ld	t5,288(sp)
    8000241a:	303e03db          	0x303e03db
    8000241e:	2c31                	addiw	s8,s8,12
    80002420:	0839                	addi	a6,a6,14
    80002422:	5620                	lw	s0,104(a2)
    80002424:	5255                	li	tp,-11
    80002426:	7041                	c.lui	zero,0xffff0
    80002428:	fe0ef9e7          	0xfe0ef9e7
    8000242c:	e495                	bnez	s1,80002458 <test_memory+0x258>
    8000242e:	01f1                	addi	gp,gp,28
    80002430:	9a7a                	add	s4,s4,t5
    80002432:	3136                	fld	ft2,360(sp)
    80002434:	cf14                	sw	a3,24(a4)
    80002436:	8ffa14d3          	0x8ffa14d3
    8000243a:	4000                	lw	s0,0(s0)
    8000243c:	3a34f7d7          	0x3a34f7d7
    80002440:	f57d                	bnez	a0,8000242e <test_memory+0x22e>
    80002442:	5898                	lw	a4,48(s1)
    80002444:	6e54                	ld	a3,152(a2)
    80002446:	9edc                	0x9edc
    80002448:	36380013          	addi	zero,a6,867
    8000244c:	1565                	addi	a0,a0,-7
    8000244e:	b335f1c7          	fmsub.d	ft3,fa1,fs3,fs6
    80002452:	e6dcf453          	0xe6dcf453
    80002456:	2268                	fld	fa0,192(a2)
    80002458:	7816                	ld	a6,352(sp)
    8000245a:	8425a57b          	0x8425a57b
    8000245e:	82b1                	srli	a3,a3,0xc
    80002460:	1044                	addi	s1,sp,36
    80002462:	a19e                	fsd	ft7,192(sp)
    80002464:	b990                	fsd	fa2,48(a1)
    80002466:	ac8d                	j	800026d8 <_end+0xc8>
    80002468:	dd60a377          	0xdd60a377
    8000246c:	7640                	ld	s0,168(a2)
    8000246e:	618bed83          	lwu	s11,1560(s7)
    80002472:	d669                	beqz	a2,8000243c <test_memory+0x23c>
    80002474:	90d0                	0x90d0
    80002476:	0915                	addi	s2,s2,5
    80002478:	aced                	j	80002772 <_end+0x162>
    8000247a:	1128503b          	0x1128503b
    8000247e:	dd7a                	sw	t5,184(sp)
    80002480:	cf04                	sw	s1,24(a4)
    80002482:	bbf9                	j	80002260 <test_memory+0x60>
    80002484:	b21d                	j	80001daa <fromhost+0xd6a>
    80002486:	d8bc                	sw	a5,112(s1)
    80002488:	2765                	addiw	a4,a4,25
    8000248a:	5290                	lw	a2,32(a3)
    8000248c:	71d8                	ld	a4,160(a1)
    8000248e:	06d2                	slli	a3,a3,0x14
    80002490:	67ce                	ld	a5,208(sp)
    80002492:	660308cf          	fnmadd.q	fa7,ft6,ft0,fa2,rne
    80002496:	de7f                	0xde7f
    80002498:	1239                	addi	tp,tp,-18
    8000249a:	315f2df3          	csrrs	s11,0x315,t5
    8000249e:	3181                	addiw	gp,gp,-32
    800024a0:	e389                	bnez	a5,800024a2 <test_memory+0x2a2>
    800024a2:	7a32b703          	ld	a4,1955(t0)
    800024a6:	118c                	addi	a1,sp,224
    800024a8:	6ca1                	lui	s9,0x8
    800024aa:	268c                	fld	fa1,8(a3)
    800024ac:	2d9e                	fld	fs11,448(sp)
    800024ae:	a4e32c3f 41ed31b2 	0x41ed31b2a4e32c3f
    800024b6:	0c69e6db          	0xc69e6db
    800024ba:	325a                	fld	ft4,432(sp)
    800024bc:	9a50                	0x9a50
    800024be:	d1734c93          	xori	s9,t1,-745
    800024c2:	2f45                	addiw	t5,t5,17
    800024c4:	6b76b8a7          	fsd	fs7,1713(a3)
    800024c8:	abe4                	fsd	fs1,208(a5)
    800024ca:	853c                	0x853c
    800024cc:	9e49                	0x9e49
    800024ce:	747f                	0x747f
    800024d0:	92c5                	srli	a3,a3,0x31
    800024d2:	70dc                	ld	a5,160(s1)
    800024d4:	aaea                	fsd	fs10,336(sp)
    800024d6:	1585                	addi	a1,a1,-31
    800024d8:	6320                	ld	s0,64(a4)
    800024da:	010387f3          	0x10387f3
    800024de:	c5f0                	sw	a2,76(a1)
    800024e0:	d4b5                	beqz	s1,8000244c <test_memory+0x24c>
    800024e2:	097ae5ab          	0x97ae5ab
    800024e6:	b032                	fsd	fa2,32(sp)
    800024e8:	005a                	c.slli	zero,0x16
    800024ea:	91b9                	srli	a1,a1,0x2e
    800024ec:	ac56                	fsd	fs5,24(sp)
    800024ee:	eb5d                	bnez	a4,800025a4 <test_memory+0x3a4>
    800024f0:	1500                	addi	s0,sp,672
    800024f2:	ad7c                	fsd	fa5,216(a0)
    800024f4:	caba                	sw	a4,84(sp)
    800024f6:	f3b4e40f          	0xf3b4e40f
    800024fa:	bf79                	j	80002498 <test_memory+0x298>
    800024fc:	e44e0687          	0xe44e0687
    80002500:	6c7c1817          	auipc	a6,0x6c7c1
    80002504:	fe50                	sd	a2,184(a2)
    80002506:	acc5                	j	800027f6 <_end+0x1e6>
    80002508:	c224                	sw	s1,64(a2)
    8000250a:	6fd0                	ld	a2,152(a5)
    8000250c:	6884                	ld	s1,16(s1)
    8000250e:	8ff0                	0x8ff0
    80002510:	adc99737          	lui	a4,0xadc99
    80002514:	f702                	sd	zero,424(sp)
    80002516:	83c2                	mv	t2,a6
    80002518:	5b6233af          	0x5b6233af
    8000251c:	346d                	addiw	s0,s0,-5
    8000251e:	4026                	0x4026
    80002520:	3bb5                	addiw	s7,s7,-19
    80002522:	5e8e                	lw	t4,224(sp)
    80002524:	40eeaeeb          	0x40eeaeeb
    80002528:	8511b0d7          	0x8511b0d7
    8000252c:	5054                	lw	a3,36(s0)
    8000252e:	7b9eb817          	auipc	a6,0x7b9eb
    80002532:	faa0                	sd	s0,112(a3)
    80002534:	c9ca                	sw	s2,208(sp)
    80002536:	2bdc                	fld	fa5,144(a5)
    80002538:	8352                	mv	t1,s4
    8000253a:	9819                	andi	s0,s0,-26
    8000253c:	634d0947          	fmsub.d	fs2,fs10,fs4,fa2,rne
    80002540:	2b7f                	0x2b7f
    80002542:	ea7d                	bnez	a2,80002638 <_end+0x28>
    80002544:	9431d9b7          	lui	s3,0x9431d
    80002548:	edfc                	sd	a5,216(a1)
    8000254a:	f299                	bnez	a3,80002450 <test_memory+0x250>
    8000254c:	a28e                	fsd	ft3,320(sp)
    8000254e:	d969                	beqz	a0,80002520 <test_memory+0x320>
    80002550:	d980                	sw	s0,48(a1)
    80002552:	c9fefa67          	0xc9fefa67
    80002556:	8d05                	sub	a0,a0,s1
    80002558:	500d                	c.li	zero,-29
    8000255a:	fced                	bnez	s1,80002554 <test_memory+0x354>
    8000255c:	1532                	slli	a0,a0,0x2c
    8000255e:	45b7f733          	0x45b7f733
    80002562:	38cd                	addiw	a7,a7,-13
    80002564:	9444                	0x9444
    80002566:	c78e3f47          	fmsub.q	ft10,ft8,fs8,fs8,rup
    8000256a:	683e                	ld	a6,456(sp)
    8000256c:	c3c0                	sw	s0,4(a5)
    8000256e:	8bbacc0b          	0x8bbacc0b
    80002572:	ffe4                	sd	s1,248(a5)
    80002574:	a3ed                	j	80002b5e <_end+0x54e>
    80002576:	40c4                	lw	s1,4(s1)
    80002578:	0708                	addi	a0,sp,896
    8000257a:	14c4                	addi	s1,sp,612
    8000257c:	264a                	fld	fa2,144(sp)
    8000257e:	2b5c                	fld	fa5,144(a4)
    80002580:	d176                	sw	t4,160(sp)
    80002582:	5940                	lw	s0,52(a0)
    80002584:	8bc2                	mv	s7,a6
    80002586:	aab8                	fsd	fa4,80(a3)
    80002588:	527f                	0x527f
    8000258a:	38d2                	fld	fa7,304(sp)
    8000258c:	b2b4                	fsd	fa3,96(a3)
    8000258e:	f81c                	sd	a5,48(s0)
    80002590:	8f3e                	mv	t5,a5
    80002592:	42ce                	lw	t0,208(sp)
    80002594:	f1ce                	sd	s3,224(sp)
    80002596:	d79e61ef          	jal	gp,7ffe930e <_start-0x16cf2>
    8000259a:	a911                	j	800029ae <_end+0x39e>
    8000259c:	852e                	mv	a0,a1
    8000259e:	dddf c526 f0d4      	0xf0d4c526dddf
    800025a4:	d586                	sw	ra,232(sp)
    800025a6:	d5335dd3          	0xd5335dd3
    800025aa:	0691                	addi	a3,a3,4
    800025ac:	8d01                	sub	a0,a0,s0
    800025ae:	82ad                	srli	a3,a3,0xb
    800025b0:	b192                	fsd	ft4,224(sp)
    800025b2:	9434d943          	0x9434d943
    800025b6:	5960                	lw	s0,116(a0)
    800025b8:	45dc                	lw	a5,12(a1)
    800025ba:	4186fcb3          	0x4186fcb3
    800025be:	dd09b803          	ld	a6,-560(s3) # ffffffff9431cdd0 <__global_pointer$+0xffffffff14319fc0>
    800025c2:	d71f 4f8e 7b5e      	0x7b5e4f8ed71f
    800025c8:	0202                	c.slli64	tp
    800025ca:	237c7607          	0x237c7607
    800025ce:	7b75                	lui	s6,0xffffd
    800025d0:	8f4e                	mv	t5,s3
    800025d2:	d271                	beqz	a2,80002596 <test_memory+0x396>
    800025d4:	9aa0                	0x9aa0
    800025d6:	5066                	0x5066
    800025d8:	cf978d07          	0xcf978d07
    800025dc:	8e7a                	mv	t3,t5
    800025de:	e144                	sd	s1,128(a0)
    800025e0:	01b1                	addi	gp,gp,12
    800025e2:	2f0e                	fld	ft10,192(sp)
    800025e4:	90f5                	srli	s1,s1,0x3d
    800025e6:	339d                	addiw	t2,t2,-25
    800025e8:	14e601bb          	0x14e601bb
    800025ec:	9ec2                	add	t4,t4,a6
    800025ee:	40b1                	li	ra,12
    800025f0:	e2a2                	sd	s0,320(sp)
    800025f2:	8410                	0x8410
    800025f4:	bbf1                	j	800023d0 <test_memory+0x1d0>
    800025f6:	a8c2                	fsd	fa6,80(sp)
    800025f8:	6764d213          	0x6764d213
    800025fc:	2f38                	fld	fa4,88(a4)
    800025fe:	235f        	0x40235f

0000000080002600 <loop_count>:
    80002600:	0040                	addi	s0,sp,4
	...

Disassembly of section .riscv.attributes:

0000000000000000 <.riscv.attributes>:
   0:	1e41                	addi	t3,t3,-16
   2:	0000                	unimp
   4:	7200                	ld	s0,32(a2)
   6:	7369                	lui	t1,0xffffa
   8:	01007663          	bgeu	zero,a6,14 <_start-0x7fffffec>
   c:	0014                	0x14
   e:	0000                	unimp
  10:	7205                	lui	tp,0xfffe1
  12:	3676                	fld	fa2,376(sp)
  14:	6934                	ld	a3,80(a0)
  16:	7032                	0x7032
  18:	5f30                	lw	a2,120(a4)
  1a:	326d                	addiw	tp,tp,-5
  1c:	3070                	fld	fa2,224(s0)
	...
