
build/test78:     file format elf64-littleriscv


Disassembly of section .text.init:

0000000080000000 <_start>:
    80000000:	05c0006f          	j	8000005c <reset_vector>

0000000080000004 <trap_vector>:
    80000004:	34202f73          	csrr	t5,mcause
    80000008:	00800f93          	li	t6,8
    8000000c:	03ff0a63          	beq	t5,t6,80000040 <write_tohost>
    80000010:	00900f93          	li	t6,9
    80000014:	03ff0663          	beq	t5,t6,80000040 <write_tohost>
    80000018:	00b00f93          	li	t6,11
    8000001c:	03ff0263          	beq	t5,t6,80000040 <write_tohost>
    80000020:	80000f17          	auipc	t5,0x80000
    80000024:	fe0f0f13          	addi	t5,t5,-32 # 0 <_start-0x80000000>
    80000028:	000f0463          	beqz	t5,80000030 <trap_vector+0x2c>
    8000002c:	000f0067          	jr	t5
    80000030:	34202f73          	csrr	t5,mcause
    80000034:	000f5463          	bgez	t5,8000003c <handle_exception>
    80000038:	0040006f          	j	8000003c <handle_exception>

000000008000003c <handle_exception>:
    8000003c:	5391e193          	ori	gp,gp,1337

0000000080000040 <write_tohost>:
    80000040:	00001f17          	auipc	t5,0x1
    80000044:	fc3f2023          	sw	gp,-64(t5) # 80001000 <tohost>
    80000048:	000902b7          	lui	t0,0x90
    8000004c:	0012829b          	addiw	t0,t0,1
    80000050:	00c29293          	slli	t0,t0,0xc
    80000054:	0002af83          	lw	t6,0(t0) # 90000 <_start-0x7ff70000>
    80000058:	fe9ff06f          	j	80000040 <write_tohost>

000000008000005c <reset_vector>:
    8000005c:	00000093          	li	ra,0
    80000060:	00000113          	li	sp,0
    80000064:	00000193          	li	gp,0
    80000068:	00000213          	li	tp,0
    8000006c:	00000293          	li	t0,0
    80000070:	00000313          	li	t1,0
    80000074:	00000393          	li	t2,0
    80000078:	00000413          	li	s0,0
    8000007c:	00000493          	li	s1,0
    80000080:	00000513          	li	a0,0
    80000084:	00000593          	li	a1,0
    80000088:	00000613          	li	a2,0
    8000008c:	00000693          	li	a3,0
    80000090:	00000713          	li	a4,0
    80000094:	00000793          	li	a5,0
    80000098:	00000813          	li	a6,0
    8000009c:	00000893          	li	a7,0
    800000a0:	00000913          	li	s2,0
    800000a4:	00000993          	li	s3,0
    800000a8:	00000a13          	li	s4,0
    800000ac:	00000a93          	li	s5,0
    800000b0:	00000b13          	li	s6,0
    800000b4:	00000b93          	li	s7,0
    800000b8:	00000c13          	li	s8,0
    800000bc:	00000c93          	li	s9,0
    800000c0:	00000d13          	li	s10,0
    800000c4:	00000d93          	li	s11,0
    800000c8:	00000e13          	li	t3,0
    800000cc:	00000e93          	li	t4,0
    800000d0:	00000f13          	li	t5,0
    800000d4:	00000f93          	li	t6,0
    800000d8:	f1402573          	csrr	a0,mhartid
    800000dc:	00051063          	bnez	a0,800000dc <reset_vector+0x80>
    800000e0:	00000297          	auipc	t0,0x0
    800000e4:	01028293          	addi	t0,t0,16 # 800000f0 <reset_vector+0x94>
    800000e8:	30529073          	csrw	mtvec,t0
    800000ec:	18005073          	csrwi	satp,0
    800000f0:	00000297          	auipc	t0,0x0
    800000f4:	02428293          	addi	t0,t0,36 # 80000114 <reset_vector+0xb8>
    800000f8:	30529073          	csrw	mtvec,t0
    800000fc:	0010029b          	addiw	t0,zero,1
    80000100:	03529293          	slli	t0,t0,0x35
    80000104:	fff28293          	addi	t0,t0,-1
    80000108:	3b029073          	csrw	pmpaddr0,t0
    8000010c:	01f00293          	li	t0,31
    80000110:	3a029073          	csrw	pmpcfg0,t0
    80000114:	30405073          	csrwi	mie,0
    80000118:	00000297          	auipc	t0,0x0
    8000011c:	01428293          	addi	t0,t0,20 # 8000012c <reset_vector+0xd0>
    80000120:	30529073          	csrw	mtvec,t0
    80000124:	30205073          	csrwi	medeleg,0
    80000128:	30305073          	csrwi	mideleg,0
    8000012c:	00000193          	li	gp,0
    80000130:	00000297          	auipc	t0,0x0
    80000134:	ed428293          	addi	t0,t0,-300 # 80000004 <trap_vector>
    80000138:	30529073          	csrw	mtvec,t0
    8000013c:	00100513          	li	a0,1
    80000140:	01f51513          	slli	a0,a0,0x1f
    80000144:	00055c63          	bgez	a0,8000015c <reset_vector+0x100>
    80000148:	0ff0000f          	fence
    8000014c:	00100193          	li	gp,1
    80000150:	05d00893          	li	a7,93
    80000154:	00000513          	li	a0,0
    80000158:	00000073          	ecall
    8000015c:	80000297          	auipc	t0,0x80000
    80000160:	ea428293          	addi	t0,t0,-348 # 0 <_start-0x80000000>
    80000164:	00028a63          	beqz	t0,80000178 <reset_vector+0x11c>
    80000168:	10529073          	csrw	stvec,t0
    8000016c:	0000b2b7          	lui	t0,0xb
    80000170:	1092829b          	addiw	t0,t0,265
    80000174:	30229073          	csrw	medeleg,t0
    80000178:	30005073          	csrwi	mstatus,0
    8000017c:	00000297          	auipc	t0,0x0
    80000180:	01428293          	addi	t0,t0,20 # 80000190 <reset_vector+0x134>
    80000184:	34129073          	csrw	mepc,t0
    80000188:	f1402573          	csrr	a0,mhartid
    8000018c:	30200073          	mret
    80000190:	0200006f          	j	800001b0 <test_start>

0000000080000194 <crash_backward>:
    80000194:	0ff0000f          	fence
    80000198:	00018063          	beqz	gp,80000198 <crash_backward+0x4>
    8000019c:	00119193          	slli	gp,gp,0x1
    800001a0:	0011e193          	ori	gp,gp,1
    800001a4:	05d00893          	li	a7,93
    800001a8:	00018513          	mv	a0,gp
    800001ac:	00000073          	ecall

00000000800001b0 <test_start>:
    800001b0:	00002f97          	auipc	t6,0x2
    800001b4:	e50f8f93          	addi	t6,t6,-432 # 80002000 <hidden_data>
    800001b8:	000fb003          	ld	zero,0(t6)
    800001bc:	008fb083          	ld	ra,8(t6)
    800001c0:	010fb103          	ld	sp,16(t6)
    800001c4:	018fb183          	ld	gp,24(t6)
    800001c8:	020fb203          	ld	tp,32(t6)
    800001cc:	028fb283          	ld	t0,40(t6)
    800001d0:	030fb303          	ld	t1,48(t6)
    800001d4:	038fb383          	ld	t2,56(t6)
    800001d8:	040fb403          	ld	s0,64(t6)
    800001dc:	048fb483          	ld	s1,72(t6)
    800001e0:	050fb503          	ld	a0,80(t6)
    800001e4:	058fb583          	ld	a1,88(t6)
    800001e8:	060fb603          	ld	a2,96(t6)
    800001ec:	068fb683          	ld	a3,104(t6)
    800001f0:	070fb703          	ld	a4,112(t6)
    800001f4:	078fb783          	ld	a5,120(t6)
    800001f8:	080fb803          	ld	a6,128(t6)
    800001fc:	088fb883          	ld	a7,136(t6)
    80000200:	090fb903          	ld	s2,144(t6)
    80000204:	098fb983          	ld	s3,152(t6)
    80000208:	0a0fba03          	ld	s4,160(t6)
    8000020c:	0a8fba83          	ld	s5,168(t6)
    80000210:	0b0fbb03          	ld	s6,176(t6)
    80000214:	0b8fbb83          	ld	s7,184(t6)
    80000218:	0c0fbc03          	ld	s8,192(t6)
    8000021c:	0c8fbc83          	ld	s9,200(t6)
    80000220:	0d0fbd03          	ld	s10,208(t6)
    80000224:	0d8fbd83          	ld	s11,216(t6)
    80000228:	0e0fbe03          	ld	t3,224(t6)
    8000022c:	0e8fbe83          	ld	t4,232(t6)
    80000230:	0f0fbf03          	ld	t5,240(t6)
    80000234:	0f8fbf83          	ld	t6,248(t6)
    80000238:	0040006f          	j	8000023c <pseg_0>

000000008000023c <pseg_0>:
    8000023c:	d9b00093          	li	ra,-613
    80000240:	00c3561b          	srliw	a2,t1,0xc
    80000244:	40758dbb          	subw	s11,a1,t2
    80000248:	59000813          	li	a6,1424
    8000024c:	a7500493          	li	s1,-1419
    80000250:	57f00413          	li	s0,1407
    80000254:	f6100213          	li	tp,-159
    80000258:	0042113b          	sllw	sp,tp,tp
    8000025c:	57200d93          	li	s11,1394
    80000260:	90000513          	li	a0,-1792
    80000264:	02decf3b          	divw	t5,t4,a3
    80000268:	992ed7b7          	lui	a5,0x992ed
    8000026c:	00100293          	li	t0,1
    80000270:	98c00b93          	li	s7,-1652
    80000274:	80700d13          	li	s10,-2041
    80000278:	5b400613          	li	a2,1460
    8000027c:	004203b3          	add	t2,tp,tp
    80000280:	02cd88bb          	mulw	a7,s11,a2
    80000284:	03ad6fbb          	remw	t6,s10,s10
    80000288:	00100a13          	li	s4,1
    8000028c:	cbb00213          	li	tp,-837
    80000290:	03fa1a13          	slli	s4,s4,0x3f
    80000294:	0b700113          	li	sp,183
    80000298:	02808cbb          	mulw	s9,ra,s0
    8000029c:	3f800f13          	li	t5,1016
    800002a0:	fff00e93          	li	t4,-1
    800002a4:	039ca333          	mulhsu	t1,s9,s9
    800002a8:	daa00c13          	li	s8,-598
    800002ac:	00a4e1b3          	or	gp,s1,a0
    800002b0:	0242763b          	remuw	a2,tp,tp
    800002b4:	03ef47b3          	div	a5,t5,t5
    800002b8:	5bd00f93          	li	t6,1469
    800002bc:	03f29293          	slli	t0,t0,0x3f
    800002c0:	7e05ec93          	ori	s9,a1,2016
    800002c4:	03f15d3b          	divuw	s10,sp,t6
    800002c8:	038845b3          	div	a1,a6,s8
    800002cc:	0252d0bb          	divuw	ra,t0,t0
    800002d0:	014eceb3          	xor	t4,t4,s4
    800002d4:	63600793          	li	a5,1590
    800002d8:	038c5d3b          	divuw	s10,s8,s8
    800002dc:	022d5dbb          	divuw	s11,s10,sp
    800002e0:	fc000093          	li	ra,-64
    800002e4:	fff00a93          	li	s5,-1
    800002e8:	68300893          	li	a7,1667
    800002ec:	0318f3bb          	remuw	t2,a7,a7
    800002f0:	00f7d33b          	srlw	t1,a5,a5
    800002f4:	17200593          	li	a1,370
    800002f8:	00b0813b          	addw	sp,ra,a1
    800002fc:	4f100c93          	li	s9,1265
    80000300:	005acab3          	xor	s5,s5,t0
    80000304:	015ff9b3          	and	s3,t6,s5
    80000308:	01dbfb33          	and	s6,s7,t4
    8000030c:	0059ee33          	or	t3,s3,t0
    80000310:	52c00413          	li	s0,1324
    80000314:	039cc833          	div	a6,s9,s9
    80000318:	40aa8113          	addi	sp,s5,1034
    8000031c:	014b66b3          	or	a3,s6,s4
    80000320:	e766eae3          	bltu	a3,s6,80000194 <crash_backward>
    80000324:	41eb0fbb          	subw	t6,s6,t5
    80000328:	38c00f13          	li	t5,908
    8000032c:	e4600f93          	li	t6,-442
    80000330:	32600193          	li	gp,806
    80000334:	dd200793          	li	a5,-558
    80000338:	03b006bb          	mulw	a3,zero,s11
    8000033c:	05518493          	addi	s1,gp,85 # 80002e65 <__global_pointer$+0x55>
    80000340:	03ef4633          	div	a2,t5,t5
    80000344:	59c00213          	li	tp,1436
    80000348:	02007dbb          	remuw	s11,zero,zero
    8000034c:	40335a3b          	sraw	s4,t1,gp
    80000350:	00100c13          	li	s8,1
    80000354:	03fc1c13          	slli	s8,s8,0x3f
    80000358:	82a00d13          	li	s10,-2006
    8000035c:	05400e13          	li	t3,84
    80000360:	bae00913          	li	s2,-1106
    80000364:	ece78893          	addi	a7,a5,-306 # ffffffff992ecece <__global_pointer$+0xffffffff192ea0be>
    80000368:	5e400693          	li	a3,1508
    8000036c:	66500313          	li	t1,1637
    80000370:	00440533          	add	a0,s0,tp
    80000374:	026d0cb3          	mul	s9,s10,t1
    80000378:	02d69db3          	mulh	s11,a3,a3
    8000037c:	00002f17          	auipc	t5,0x2
    80000380:	0b8f0f13          	addi	t5,t5,184 # 80002434 <test_memory+0x234>
    80000384:	00002e97          	auipc	t4,0x2
    80000388:	94be8e93          	addi	t4,t4,-1717 # 80001ccf <fromhost+0xc8f>
    8000038c:	87200a93          	li	s5,-1934
    80000390:	7c1e8b03          	lb	s6,1985(t4)
    80000394:	ec8f2283          	lw	t0,-312(t5)
    80000398:	032ba733          	mulhsu	a4,s7,s2
    8000039c:	415e09b3          	sub	s3,t3,s5
    800003a0:	5eb00293          	li	t0,1515
    800003a4:	4c800313          	li	t1,1224
    800003a8:	00000d13          	li	s10,0
    800003ac:	83300493          	li	s1,-1997
    800003b0:	da200d93          	li	s11,-606
    800003b4:	41bd8e33          	sub	t3,s11,s11
    800003b8:	2f400193          	li	gp,756
    800003bc:	fff00093          	li	ra,-1
    800003c0:	0180c0b3          	xor	ra,ra,s8
    800003c4:	02001bb3          	mulh	s7,zero,zero
    800003c8:	00000e93          	li	t4,0
    800003cc:	032bbb33          	mulhu	s6,s7,s2
    800003d0:	02297a33          	remu	s4,s2,sp
    800003d4:	0234cab3          	div	s5,s1,gp
    800003d8:	0063123b          	sllw	tp,t1,t1
    800003dc:	6b100713          	li	a4,1713
    800003e0:	9f100613          	li	a2,-1551
    800003e4:	78500693          	li	a3,1925
    800003e8:	001675b3          	and	a1,a2,ra
    800003ec:	00f99793          	slli	a5,s3,0xf
    800003f0:	25300993          	li	s3,595
    800003f4:	02e718b3          	mulh	a7,a4,a4
    800003f8:	ea600393          	li	t2,-346
    800003fc:	027f813b          	mulw	sp,t6,t2
    80000400:	00002a17          	auipc	s4,0x2
    80000404:	84fa0a13          	addi	s4,s4,-1969 # 80001c4f <fromhost+0xc0f>
    80000408:	c2cc0b1b          	addiw	s6,s8,-980
    8000040c:	03b2f43b          	remuw	s0,t0,s11
    80000410:	9a500393          	li	t2,-1627
    80000414:	02308e33          	mul	t3,ra,gp
    80000418:	00002117          	auipc	sp,0x2
    8000041c:	b0310113          	addi	sp,sp,-1277 # 80001f1b <fromhost+0xedb>
    80000420:	641a2b83          	lw	s7,1601(s4)
    80000424:	018be833          	or	a6,s7,s8
    80000428:	37611aa3          	sh	s6,885(sp)
    8000042c:	00100d13          	li	s10,1
    80000430:	63d00f13          	li	t5,1597
    80000434:	00100713          	li	a4,1
    80000438:	01e67533          	and	a0,a2,t5
    8000043c:	a6200a13          	li	s4,-1438
    80000440:	0336a933          	mulhsu	s2,a3,s3
    80000444:	f87cbb93          	sltiu	s7,s9,-121
    80000448:	bc100913          	li	s2,-1087
    8000044c:	014a1133          	sll	sp,s4,s4
    80000450:	00002497          	auipc	s1,0x2
    80000454:	00948493          	addi	s1,s1,9 # 80002459 <test_memory+0x259>
    80000458:	ba390f13          	addi	t5,s2,-1117
    8000045c:	00002d97          	auipc	s11,0x2
    80000460:	be8d8d93          	addi	s11,s11,-1048 # 80002044 <reg_x8_init+0x4>
    80000464:	572f7e63          	bgeu	t5,s2,800009e0 <crash_forward>
    80000468:	03f71713          	slli	a4,a4,0x3f
    8000046c:	0273f233          	remu	tp,t2,t2
    80000470:	03ad5e3b          	divuw	t3,s10,s10
    80000474:	26900f93          	li	t6,617
    80000478:	4cc00b93          	li	s7,1228
    8000047c:	401086bb          	subw	a3,ra,ra
    80000480:	03fd1d13          	slli	s10,s10,0x3f
    80000484:	fff00893          	li	a7,-1
    80000488:	fff00193          	li	gp,-1
    8000048c:	00e1c1b3          	xor	gp,gp,a4
    80000490:	18fb8993          	addi	s3,s7,399
    80000494:	523da623          	sw	gp,1324(s11)
    80000498:	9df00613          	li	a2,-1569
    8000049c:	d5500293          	li	t0,-683
    800004a0:	11e4cb03          	lbu	s6,286(s1)
    800004a4:	01ffccb3          	xor	s9,t6,t6
    800004a8:	00387333          	and	t1,a6,gp
    800004ac:	02c66533          	rem	a0,a2,a2
    800004b0:	00e367b3          	or	a5,t1,a4
    800004b4:	01a8c8b3          	xor	a7,a7,s10
    800004b8:	01187ab3          	and	s5,a6,a7
    800004bc:	44e00993          	li	s3,1102
    800004c0:	01aaeeb3          	or	t4,s5,s10
    800004c4:	515ede63          	bge	t4,s5,800009e0 <crash_forward>
    800004c8:	7c300393          	li	t2,1987
    800004cc:	0253e333          	rem	t1,t2,t0
    800004d0:	00002717          	auipc	a4,0x2
    800004d4:	20070713          	addi	a4,a4,512 # 800026d0 <_end+0xc0>
    800004d8:	c6600d93          	li	s11,-922
    800004dc:	01b39f3b          	sllw	t5,t2,s11
    800004e0:	01208ebb          	addw	t4,ra,s2
    800004e4:	01f78a9b          	addiw	s5,a5,31
    800004e8:	4d100093          	li	ra,1233
    800004ec:	34100113          	li	sp,833
    800004f0:	00100a13          	li	s4,1
    800004f4:	99428413          	addi	s0,t0,-1644
    800004f8:	03fa1a13          	slli	s4,s4,0x3f
    800004fc:	8f900b13          	li	s6,-1799
    80000500:	0210d83b          	divuw	a6,ra,ra
    80000504:	0361553b          	divuw	a0,sp,s6
    80000508:	0339c233          	div	tp,s3,s3
    8000050c:	00000793          	li	a5,0
    80000510:	033500bb          	mulw	ra,a0,s3
    80000514:	40400213          	li	tp,1028
    80000518:	a1200b13          	li	s6,-1518
    8000051c:	fff00c93          	li	s9,-1
    80000520:	22500693          	li	a3,549
    80000524:	9c400b93          	li	s7,-1596
    80000528:	00100c13          	li	s8,1
    8000052c:	03ef1093          	slli	ra,t5,0x3e
    80000530:	014cccb3          	xor	s9,s9,s4
    80000534:	03fc1c13          	slli	s8,s8,0x3f
    80000538:	036b29b3          	mulhsu	s3,s6,s6
    8000053c:	5e300e13          	li	t3,1507
    80000540:	4176d4b3          	sra	s1,a3,s7
    80000544:	4052d533          	sra	a0,t0,t0
    80000548:	00000593          	li	a1,0
    8000054c:	c0871723          	sh	s0,-1010(a4)
    80000550:	00000993          	li	s3,0
    80000554:	40420db3          	sub	s11,tp,tp
    80000558:	37de0f93          	addi	t6,t3,893
    8000055c:	4882e263          	bltu	t0,s0,800009e0 <crash_forward>
    80000560:	00100813          	li	a6,1
    80000564:	a8c00293          	li	t0,-1396
    80000568:	00001b97          	auipc	s7,0x1
    8000056c:	7d5b8b93          	addi	s7,s7,2005 # 80001d3d <fromhost+0xcfd>
    80000570:	03f81813          	slli	a6,a6,0x3f
    80000574:	543bb083          	ld	ra,1347(s7)
    80000578:	014b5213          	srli	tp,s6,0x14
    8000057c:	0169843b          	addw	s0,s3,s6
    80000580:	c0b7cae3          	blt	a5,a1,80000194 <crash_backward>
    80000584:	fff00193          	li	gp,-1
    80000588:	01937633          	and	a2,t1,s9
    8000058c:	a5200393          	li	t2,-1454
    80000590:	4165053b          	subw	a0,a0,s6
    80000594:	78400b93          	li	s7,1924
    80000598:	0052d73b          	srlw	a4,t0,t0
    8000059c:	0181c1b3          	xor	gp,gp,s8
    800005a0:	00739333          	sll	t1,t2,t2
    800005a4:	2db00e13          	li	t3,731
    800005a8:	e256ef13          	ori	t5,a3,-475
    800005ac:	01d3121b          	slliw	tp,t1,0x1d
    800005b0:	00000b13          	li	s6,0
    800005b4:	0144e933          	or	s2,s1,s4
    800005b8:	02ab8dbb          	mulw	s11,s7,a0
    800005bc:	fff00a93          	li	s5,-1
    800005c0:	010acab3          	xor	s5,s5,a6
    800005c4:	09500693          	li	a3,149
    800005c8:	03cbbfb3          	mulhu	t6,s7,t3
    800005cc:	0150feb3          	and	t4,ra,s5
    800005d0:	0105e133          	or	sp,a1,a6
    800005d4:	02d6e4bb          	remw	s1,a3,a3
    800005d8:	73dda093          	slti	ra,s11,1853
    800005dc:	0039f8b3          	and	a7,s3,gp
    800005e0:	01866d33          	or	s10,a2,s8
    800005e4:	01298fbb          	addw	t6,s3,s2
    800005e8:	01a76c33          	or	s8,a4,s10
    800005ec:	05b00893          	li	a7,91
    800005f0:	a9000513          	li	a0,-1392
    800005f4:	02a540b3          	div	ra,a0,a0
    800005f8:	30a00213          	li	tp,778
    800005fc:	0260f433          	remu	s0,ra,t1
    80000600:	a6400813          	li	a6,-1436
    80000604:	dd600a93          	li	s5,-554
    80000608:	e5400313          	li	t1,-428
    8000060c:	96b00b13          	li	s6,-1685
    80000610:	0273a6b3          	mulhsu	a3,t2,t2
    80000614:	a6400c93          	li	s9,-1436
    80000618:	415854bb          	sraw	s1,a6,s5
    8000061c:	58d00713          	li	a4,1421
    80000620:	06600e93          	li	t4,102
    80000624:	d1a00613          	li	a2,-742
    80000628:	00100293          	li	t0,1
    8000062c:	01dcaa33          	slt	s4,s9,t4
    80000630:	02425d33          	divu	s10,tp,tp
    80000634:	ffb00993          	li	s3,-5
    80000638:	033b2e33          	mulhsu	t3,s6,s3
    8000063c:	00002117          	auipc	sp,0x2
    80000640:	f0c10113          	addi	sp,sp,-244 # 80002548 <test_memory+0x348>
    80000644:	03f29293          	slli	t0,t0,0x3f
    80000648:	039c87b3          	mul	a5,s9,s9
    8000064c:	00100693          	li	a3,1
    80000650:	01551e33          	sll	t3,a0,s5
    80000654:	03189933          	mulh	s2,a7,a7
    80000658:	00002d17          	auipc	s10,0x2
    8000065c:	839d0d13          	addi	s10,s10,-1991 # 80001e91 <fromhost+0xe51>
    80000660:	ee200e93          	li	t4,-286
    80000664:	66800413          	li	s0,1640
    80000668:	02c30db3          	mul	s11,t1,a2
    8000066c:	d0e00213          	li	tp,-754
    80000670:	00002197          	auipc	gp,0x2
    80000674:	18118193          	addi	gp,gp,385 # 800027f1 <_end+0x1e1>
    80000678:	05610ea3          	sb	s6,93(sp)
    8000067c:	03f69693          	slli	a3,a3,0x3f
    80000680:	fff00593          	li	a1,-1
    80000684:	fff00793          	li	a5,-1
    80000688:	02e73f33          	mulhu	t5,a4,a4
    8000068c:	0242583b          	divuw	a6,tp,tp
    80000690:	24700d93          	li	s11,583
    80000694:	37d00093          	li	ra,893
    80000698:	a9b18c83          	lb	s9,-1381(gp) # 800028ab <_end+0x29b>
    8000069c:	0055c5b3          	xor	a1,a1,t0
    800006a0:	02d704bb          	mulw	s1,a4,a3
    800006a4:	3d7d25a3          	sw	s7,971(s10)
    800006a8:	87000a93          	li	s5,-1936
    800006ac:	00100813          	li	a6,1
    800006b0:	ad200313          	li	t1,-1326
    800006b4:	f0900613          	li	a2,-247
    800006b8:	03f81813          	slli	a6,a6,0x3f
    800006bc:	021ecb3b          	divw	s6,t4,ra
    800006c0:	81d00993          	li	s3,-2019
    800006c4:	02cd9e33          	mulh	t3,s11,a2
    800006c8:	92700d13          	li	s10,-1753
    800006cc:	4154053b          	subw	a0,s0,s5
    800006d0:	03bda8b3          	mulhsu	a7,s11,s11
    800006d4:	00d7c7b3          	xor	a5,a5,a3
    800006d8:	017bacb3          	slt	s9,s7,s7
    800006dc:	fff00113          	li	sp,-1
    800006e0:	00f67fb3          	and	t6,a2,a5
    800006e4:	013501b3          	add	gp,a0,s3
    800006e8:	37400e13          	li	t3,884
    800006ec:	00dfea33          	or	s4,t6,a3
    800006f0:	01014133          	xor	sp,sp,a6
    800006f4:	4e1e0e93          	addi	t4,t3,1249
    800006f8:	0029f233          	and	tp,s3,sp
    800006fc:	0339cc3b          	divw	s8,s3,s3
    80000700:	00c32933          	slt	s2,t1,a2
    80000704:	036b5f3b          	divuw	t5,s6,s6
    80000708:	bce00513          	li	a0,-1074
    8000070c:	2dde7a63          	bgeu	t3,t4,800009e0 <crash_forward>
    80000710:	025d9b13          	slli	s6,s11,0x25
    80000714:	00a518bb          	sllw	a7,a0,a0
    80000718:	a7fa5ee3          	bge	s4,t6,80000194 <crash_backward>
    8000071c:	77400893          	li	a7,1908
    80000720:	6ef00f93          	li	t6,1775
    80000724:	01bdb433          	sltu	s0,s11,s11
    80000728:	b3ad0493          	addi	s1,s10,-1222
    8000072c:	88300693          	li	a3,-1917
    80000730:	b5900a13          	li	s4,-1191
    80000734:	414687bb          	subw	a5,a3,s4
    80000738:	01ffd63b          	srlw	a2,t6,t6
    8000073c:	00ba73b3          	and	t2,s4,a1
    80000740:	011891bb          	sllw	gp,a7,a7
    80000744:	a5a4d8e3          	bge	s1,s10,80000194 <crash_backward>
    80000748:	9df00a93          	li	s5,-1569
    8000074c:	01026733          	or	a4,tp,a6
    80000750:	81700c93          	li	s9,-2025
    80000754:	0053ebb3          	or	s7,t2,t0
    80000758:	019a80bb          	addw	ra,s5,s9
    8000075c:	96a00793          	li	a5,-1686
    80000760:	01065f1b          	srliw	t5,a2,0x10
    80000764:	02a5423b          	divw	tp,a0,a0
    80000768:	6f700e13          	li	t3,1783
    8000076c:	00002297          	auipc	t0,0x2
    80000770:	68128293          	addi	t0,t0,1665 # 80002ded <_end+0x7dd>
    80000774:	00100a93          	li	s5,1
    80000778:	00002317          	auipc	t1,0x2
    8000077c:	2fa30313          	addi	t1,t1,762 # 80002a72 <_end+0x462>
    80000780:	0061ddbb          	srlw	s11,gp,t1
    80000784:	f8800493          	li	s1,-120
    80000788:	8032ec03          	lwu	s8,-2045(t0)
    8000078c:	19100693          	li	a3,401
    80000790:	009493b3          	sll	t2,s1,s1
    80000794:	4688051b          	addiw	a0,a6,1128
    80000798:	009a2fb3          	slt	t6,s4,s1
    8000079c:	00100d13          	li	s10,1
    800007a0:	11900893          	li	a7,281
    800007a4:	78f00813          	li	a6,1935
    800007a8:	0106c1b3          	xor	gp,a3,a6
    800007ac:	03fa9a93          	slli	s5,s5,0x3f
    800007b0:	b2300193          	li	gp,-1245
    800007b4:	00f7a733          	slt	a4,a5,a5
    800007b8:	03fd1d13          	slli	s10,s10,0x3f
    800007bc:	ecb00f93          	li	t6,-309
    800007c0:	b27d6b13          	ori	s6,s10,-1241
    800007c4:	0231c6b3          	div	a3,gp,gp
    800007c8:	87400f13          	li	t5,-1932
    800007cc:	03da6833          	rem	a6,s4,t4
    800007d0:	c83f8213          	addi	tp,t6,-893
    800007d4:	fff00113          	li	sp,-1
    800007d8:	11c88a13          	addi	s4,a7,284
    800007dc:	fff00413          	li	s0,-1
    800007e0:	e0100d93          	li	s11,-511
    800007e4:	01bf54b3          	srl	s1,t5,s11
    800007e8:	01544433          	xor	s0,s0,s5
    800007ec:	0083f9b3          	and	s3,t2,s0
    800007f0:	1e4fc863          	blt	t6,tp,800009e0 <crash_forward>
    800007f4:	00100913          	li	s2,1
    800007f8:	03cad813          	srli	a6,s5,0x3c
    800007fc:	01a14133          	xor	sp,sp,s10
    80000800:	02d6a4b3          	mulhsu	s1,a3,a3
    80000804:	002afcb3          	and	s9,s5,sp
    80000808:	0156eeb3          	or	t4,a3,s5
    8000080c:	98c00093          	li	ra,-1652
    80000810:	401086bb          	subw	a3,ra,ra
    80000814:	03ce7bb3          	remu	s7,t3,t3
    80000818:	24b00f93          	li	t6,587
    8000081c:	01ace5b3          	or	a1,s9,s10
    80000820:	96bcfae3          	bgeu	s9,a1,80000194 <crash_backward>
    80000824:	a2800613          	li	a2,-1496
    80000828:	8ad00d93          	li	s11,-1875
    8000082c:	47600f13          	li	t5,1142
    80000830:	9748d2e3          	bge	a7,s4,80000194 <crash_backward>
    80000834:	9afd8813          	addi	a6,s11,-1617
    80000838:	03ef9233          	mulh	tp,t6,t5
    8000083c:	03f91913          	slli	s2,s2,0x3f
    80000840:	fff00193          	li	gp,-1
    80000844:	b7132f23          	sw	a7,-1154(t1)
    80000848:	00c6073b          	addw	a4,a2,a2
    8000084c:	92000393          	li	t2,-1760
    80000850:	0121c1b3          	xor	gp,gp,s2
    80000854:	95b850e3          	bge	a6,s11,80000194 <crash_backward>
    80000858:	16900c93          	li	s9,361
    8000085c:	c5d98293          	addi	t0,s3,-931
    80000860:	0035fb33          	and	s6,a1,gp
    80000864:	be200a93          	li	s5,-1054
    80000868:	012b67b3          	or	a5,s6,s2
    8000086c:	00100413          	li	s0,1
    80000870:	36100093          	li	ra,865
    80000874:	bcf00e93          	li	t4,-1073
    80000878:	02f7d5bb          	divuw	a1,a5,a5
    8000087c:	17ef1263          	bne	t5,t5,800009e0 <crash_forward>
    80000880:	14500893          	li	a7,325
    80000884:	cab00693          	li	a3,-853
    80000888:	03f41413          	slli	s0,s0,0x3f
    8000088c:	00000b13          	li	s6,0
    80000890:	d1300493          	li	s1,-749
    80000894:	c4700593          	li	a1,-953
    80000898:	02dabe33          	mulhu	t3,s5,a3
    8000089c:	009eea33          	or	s4,t4,s1
    800008a0:	f7b00d13          	li	s10,-133
    800008a4:	10e00d93          	li	s11,270
    800008a8:	40b5d83b          	sraw	a6,a1,a1
    800008ac:	00000193          	li	gp,0
    800008b0:	fff00113          	li	sp,-1
    800008b4:	032937b3          	mulhu	a5,s2,s2
    800008b8:	5cf88f93          	addi	t6,a7,1487
    800008bc:	00814133          	xor	sp,sp,s0
    800008c0:	0210cc33          	div	s8,ra,ra
    800008c4:	475a091b          	addiw	s2,s4,1141
    800008c8:	fdf38513          	addi	a0,t2,-33
    800008cc:	032977b3          	remu	a5,s2,s2
    800008d0:	01dd5a3b          	srlw	s4,s10,t4
    800008d4:	035a8e3b          	mulw	t3,s5,s5
    800008d8:	00001817          	auipc	a6,0x1
    800008dc:	5d880813          	addi	a6,a6,1496 # 80001eb0 <fromhost+0xe70>
    800008e0:	10e71063          	bne	a4,a4,800009e0 <crash_forward>
    800008e4:	01ac8733          	add	a4,s9,s10
    800008e8:	8aa3e6e3          	bltu	t2,a0,80000194 <crash_backward>
    800008ec:	002bfbb3          	and	s7,s7,sp
    800008f0:	008be633          	or	a2,s7,s0
    800008f4:	00100993          	li	s3,1
    800008f8:	3b8802a3          	sb	s8,933(a6)
    800008fc:	5ae00913          	li	s2,1454
    80000900:	68200093          	li	ra,1666
    80000904:	012941b3          	xor	gp,s2,s2
    80000908:	0cc61c63          	bne	a2,a2,800009e0 <crash_forward>
    8000090c:	03f99993          	slli	s3,s3,0x3f
    80000910:	14a00e93          	li	t4,330
    80000914:	5a200c13          	li	s8,1442
    80000918:	fff00313          	li	t1,-1
    8000091c:	018c0b3b          	addw	s6,s8,s8
    80000920:	4ad00893          	li	a7,1197
    80000924:	03bd82b3          	mul	t0,s11,s11
    80000928:	03deeabb          	remw	s5,t4,t4
    8000092c:	006f26b3          	slt	a3,t5,t1
    80000930:	01108fbb          	addw	t6,ra,a7
    80000934:	01334333          	xor	t1,t1,s3
    80000938:	00607f33          	and	t5,zero,t1
    8000093c:	013ce233          	or	tp,s9,s3
    80000940:	0040006f          	j	80000944 <reg_dump>

0000000080000944 <reg_dump>:
    80000944:	00002097          	auipc	ra,0x2
    80000948:	cbc08093          	addi	ra,ra,-836 # 80002600 <loop_count>
    8000094c:	0000a103          	lw	sp,0(ra)
    80000950:	fff10193          	addi	gp,sp,-1
    80000954:	0030a023          	sw	gp,0(ra)
    80000958:	8e0112e3          	bnez	sp,8000023c <pseg_0>
    8000095c:	00001097          	auipc	ra,0x1
    80000960:	7a408093          	addi	ra,ra,1956 # 80002100 <begin_signature>
    80000964:	0000b023          	sd	zero,0(ra)
    80000968:	0020b823          	sd	sp,16(ra)
    8000096c:	0030bc23          	sd	gp,24(ra)
    80000970:	0240b023          	sd	tp,32(ra)
    80000974:	0250b423          	sd	t0,40(ra)
    80000978:	0260b823          	sd	t1,48(ra)
    8000097c:	0270bc23          	sd	t2,56(ra)
    80000980:	0480b023          	sd	s0,64(ra)
    80000984:	0490b423          	sd	s1,72(ra)
    80000988:	04a0b823          	sd	a0,80(ra)
    8000098c:	04b0bc23          	sd	a1,88(ra)
    80000990:	06c0b023          	sd	a2,96(ra)
    80000994:	06d0b423          	sd	a3,104(ra)
    80000998:	06e0b823          	sd	a4,112(ra)
    8000099c:	06f0bc23          	sd	a5,120(ra)
    800009a0:	0910b423          	sd	a7,136(ra)
    800009a4:	0920b823          	sd	s2,144(ra)
    800009a8:	0930bc23          	sd	s3,152(ra)
    800009ac:	0b40b023          	sd	s4,160(ra)
    800009b0:	0b50b423          	sd	s5,168(ra)
    800009b4:	0b60b823          	sd	s6,176(ra)
    800009b8:	0b70bc23          	sd	s7,184(ra)
    800009bc:	0d80b023          	sd	s8,192(ra)
    800009c0:	0d90b423          	sd	s9,200(ra)
    800009c4:	0da0b823          	sd	s10,208(ra)
    800009c8:	0db0bc23          	sd	s11,216(ra)
    800009cc:	0fc0b023          	sd	t3,224(ra)
    800009d0:	0fd0b423          	sd	t4,232(ra)
    800009d4:	0fe0b823          	sd	t5,240(ra)
    800009d8:	0ff0bc23          	sd	t6,248(ra)
    800009dc:	0200006f          	j	800009fc <test_end>

00000000800009e0 <crash_forward>:
    800009e0:	0ff0000f          	fence
    800009e4:	00018063          	beqz	gp,800009e4 <crash_forward+0x4>
    800009e8:	00119193          	slli	gp,gp,0x1
    800009ec:	0011e193          	ori	gp,gp,1
    800009f0:	05d00893          	li	a7,93
    800009f4:	00018513          	mv	a0,gp
    800009f8:	00000073          	ecall

00000000800009fc <test_end>:
    800009fc:	0ff0000f          	fence
    80000a00:	00100193          	li	gp,1
    80000a04:	05d00893          	li	a7,93
    80000a08:	00000513          	li	a0,0
    80000a0c:	00000073          	ecall
    80000a10:	c0001073          	unimp
	...

Disassembly of section .tohost:

0000000080001000 <tohost>:
	...

0000000080001040 <fromhost>:
	...

Disassembly of section .data:

0000000080002000 <hidden_data>:
    80002000:	7fbbcf2f          	0x7fbbcf2f
    80002004:	5f15                	li	t5,-27
    80002006:	aca9                	j	80002260 <test_memory+0x60>

0000000080002008 <reg_x1_init>:
    80002008:	2d2c                	fld	fa1,88(a0)
    8000200a:	9228                	0x9228
    8000200c:	754091af          	0x754091af

0000000080002010 <reg_x2_init>:
    80002010:	80000007          	0x80000007
    80002014:	ffff                	0xffff
    80002016:	ffff                	0xffff

0000000080002018 <reg_x3_init>:
    80002018:	62e5d72f          	0x62e5d72f
    8000201c:	ebcb5f67          	0xebcb5f67

0000000080002020 <reg_x4_init>:
    80002020:	0004                	0x4
    80002022:	0000                	unimp
    80002024:	0000                	unimp
	...

0000000080002028 <reg_x5_init>:
    80002028:	0010                	0x10
    8000202a:	0000                	unimp
    8000202c:	0000                	unimp
	...

0000000080002030 <reg_x6_init>:
    80002030:	a4f562eb          	0xa4f562eb
    80002034:	c89846eb          	0xc89846eb

0000000080002038 <reg_x7_init>:
    80002038:	ff85                	bnez	a5,80001f70 <fromhost+0xf30>
    8000203a:	ffff                	0xffff
    8000203c:	ffff                	0xffff
    8000203e:	ffff                	0xffff

0000000080002040 <reg_x8_init>:
    80002040:	552b606b          	0x552b606b
    80002044:	bf9c                	fsd	fa5,56(a5)
    80002046:	d009                	beqz	s0,80001f48 <fromhost+0xf08>

0000000080002048 <reg_x9_init>:
    80002048:	ea29                	bnez	a2,8000209a <reg_x19_init+0x2>
    8000204a:	5920                	lw	s0,112(a0)
    8000204c:	e38e                	sd	gp,448(sp)
    8000204e:	5c25                	li	s8,-23

0000000080002050 <reg_x10_init>:
    80002050:	49d2300b          	0x49d2300b
    80002054:	0c3c                	addi	a5,sp,536
    80002056:	a9f4                	fsd	fa3,208(a1)

0000000080002058 <reg_x11_init>:
    80002058:	053a                	slli	a0,a0,0xe
    8000205a:	0d0aa887          	flw	fa7,208(s5)
    8000205e:	          	amomin.d	a1,zero,(gp)

0000000080002060 <reg_x12_init>:
    80002060:	8001                	c.srli64	s0
    80002062:	ffff                	0xffff
    80002064:	ffff                	0xffff
    80002066:	ffff                	0xffff

0000000080002068 <reg_x13_init>:
    80002068:	0008                	0x8
    8000206a:	0000                	unimp
    8000206c:	0000                	unimp
    8000206e:	0800                	addi	s0,sp,16

0000000080002070 <reg_x14_init>:
    80002070:	7744                	ld	s1,168(a4)
    80002072:	8c82                	jr	s9
    80002074:	1469                	addi	s0,s0,-6
    80002076:	f88e                	sd	gp,112(sp)

0000000080002078 <reg_x15_init>:
    80002078:	a205                	j	80002198 <reg_x19_output>
    8000207a:	24f5                	addiw	s1,s1,29
    8000207c:	e75e                	sd	s7,392(sp)
    8000207e:	a99f        	0x7f8d7c81a99f

0000000080002080 <reg_x16_init>:
    80002080:	7c81                	lui	s9,0xfffe0
    80002082:	7f8d                	lui	t6,0xfffe3
    80002084:	cc78                	sw	a4,92(s0)
    80002086:	          	0x983c70f

0000000080002088 <reg_x17_init>:
    80002088:	43af0983          	lb	s3,1082(t5)
    8000208c:	b17dd0af          	0xb17dd0af

0000000080002090 <reg_x18_init>:
	...

0000000080002098 <reg_x19_init>:
    80002098:	4b7e                	lw	s6,220(sp)
    8000209a:	ff7f                	0xff7f
    8000209c:	1fcc752b          	0x1fcc752b

00000000800020a0 <reg_x20_init>:
    800020a0:	8004                	0x8004
    800020a2:	ffff                	0xffff
    800020a4:	ffff                	0xffff
    800020a6:	ffff                	0xffff

00000000800020a8 <reg_x21_init>:
	...

00000000800020b0 <reg_x22_init>:
    800020b0:	0004                	0x4
    800020b2:	0000                	unimp
    800020b4:	0000                	unimp
    800020b6:	0800                	addi	s0,sp,16

00000000800020b8 <reg_x23_init>:
    800020b8:	c3683e03          	ld	t3,-970(a6)
    800020bc:	6b11                	lui	s6,0x4
    800020be:	fdc1                	bnez	a1,80002056 <reg_x10_init+0x6>

00000000800020c0 <reg_x24_init>:
    800020c0:	c8ca                	sw	s2,80(sp)
    800020c2:	46d5                	li	a3,21
    800020c4:	c69f8fd3          	0xc69f8fd3

00000000800020c8 <reg_x25_init>:
    800020c8:	ffff                	0xffff
    800020ca:	ffff                	0xffff
    800020cc:	ffff                	0xffff
    800020ce:	ffff                	0xffff

00000000800020d0 <reg_x26_init>:
    800020d0:	ffff                	0xffff
    800020d2:	ffff                	0xffff
    800020d4:	ffff                	0xffff
    800020d6:	ffff                	0xffff

00000000800020d8 <reg_x27_init>:
	...

00000000800020e0 <reg_x28_init>:
    800020e0:	ffff                	0xffff
    800020e2:	ffff                	0xffff
    800020e4:	ffff                	0xffff
    800020e6:	ffff                	0xffff

00000000800020e8 <reg_x29_init>:
    800020e8:	ffff                	0xffff
    800020ea:	ffff                	0xffff
    800020ec:	ffff                	0xffff
    800020ee:	ffff                	0xffff

00000000800020f0 <reg_x30_init>:
    800020f0:	ffff                	0xffff
    800020f2:	ffff                	0xffff
    800020f4:	ffff                	0xffff
    800020f6:	ffff                	0xffff

00000000800020f8 <reg_x31_init>:
    800020f8:	ffffff87          	0xffffff87
    800020fc:	ffff                	0xffff
    800020fe:	ffff                	0xffff

0000000080002100 <begin_signature>:
    80002100:	b52d                	j	80001f2a <fromhost+0xeea>
    80002102:	0360                	addi	s0,sp,396
    80002104:	bef1                	j	80001ce0 <fromhost+0xca0>
    80002106:	          	0xf761ee0b

0000000080002108 <reg_x1_output>:
    80002108:	f761                	bnez	a4,800020d0 <reg_x26_init>
    8000210a:	f780                	sd	s0,40(a5)
    8000210c:	2179                	addiw	sp,sp,30
    8000210e:	ef52                	sd	s4,408(sp)

0000000080002110 <reg_x2_output>:
    80002110:	62ff                	0x62ff
    80002112:	b7aeefbf  	0xbd0a7832b7aeefbf

0000000080002118 <reg_x3_output>:
    80002118:	bd0a                	fsd	ft2,184(sp)
    8000211a:	9ee4                	0x9ee4
    8000211c:	eddf72b3          	0xeddf72b3

0000000080002120 <reg_x4_output>:
    80002120:	a86e                	fsd	fs11,16(sp)
    80002122:	20e0b203          	ld	tp,526(ra)
    80002126:	cf58                	sw	a4,28(a4)

0000000080002128 <reg_x5_output>:
    80002128:	5a75                	li	s4,-3
    8000212a:	1925                	addi	s2,s2,-23
    8000212c:	c4bc                	sw	a5,72(s1)
    8000212e:	49fd                	li	s3,31

0000000080002130 <reg_x6_output>:
    80002130:	3c79                	addiw	s8,s8,-2
    80002132:	4ff8                	lw	a4,92(a5)
    80002134:	c1e30c03          	lb	s8,-994(t1)

0000000080002138 <reg_x7_output>:
    80002138:	3d9d                	addiw	s11,s11,-25
    8000213a:	956d                	srai	a0,a0,0x3b
    8000213c:	97b1                	srai	a5,a5,0x2c
    8000213e:	          	fnmadd.s	ft0,fa1,fs1,fa7,rup

0000000080002140 <reg_x8_output>:
    80002140:	8895                	andi	s1,s1,5
    80002142:	b426fbfb          	0xb426fbfb
    80002146:	4aa4                	lw	s1,80(a3)

0000000080002148 <reg_x9_output>:
    80002148:	c4b9                	beqz	s1,80002196 <reg_x18_output+0x6>
    8000214a:	58d37eeb          	0x58d37eeb
    8000214e:	67fa                	ld	a5,408(sp)

0000000080002150 <reg_x10_output>:
    80002150:	cf05                	beqz	a4,80002188 <reg_x17_output>
    80002152:	770c                	ld	a1,40(a4)
    80002154:	d919                	beqz	a0,8000206a <reg_x13_init+0x2>
    80002156:	7a7c                	ld	a5,240(a2)

0000000080002158 <reg_x11_output>:
    80002158:	a7393eaf          	amomax.d.aqrl	t4,s3,(s2)
    8000215c:	2c42                	fld	fs8,16(sp)
    8000215e:	101f        	0x1754e26f101f

0000000080002160 <reg_x12_output>:
    80002160:	1754e26f          	jal	tp,80050ad4 <__global_pointer$+0x4dcc4>
    80002164:	28c2                	fld	fa7,16(sp)
    80002166:	6046                	0x6046

0000000080002168 <reg_x13_output>:
    80002168:	fec5                	bnez	a3,80002120 <reg_x4_output>
    8000216a:	3315                	addiw	t1,t1,-27
    8000216c:	0f0c                	addi	a1,sp,912
    8000216e:	d170                	sw	a2,100(a0)

0000000080002170 <reg_x14_output>:
    80002170:	42ac                	lw	a1,64(a3)
    80002172:	4cca                	lw	s9,144(sp)
    80002174:	5ad1                	li	s5,-12
    80002176:	c3d5                	beqz	a5,8000221a <test_memory+0x1a>

0000000080002178 <reg_x15_output>:
    80002178:	779e                	ld	a5,480(sp)
    8000217a:	4a5a                	lw	s4,148(sp)
    8000217c:	9566                	add	a0,a0,s9
    8000217e:	b566                	fsd	fs9,168(sp)

0000000080002180 <reg_x16_output>:
    80002180:	b2df d739 e296      	0xe296d739b2df
    80002186:	          	0x9163385b

0000000080002188 <reg_x17_output>:
    80002188:	eed99163          	bne	s3,a3,8000186a <fromhost+0x82a>
    8000218c:	1131c937          	lui	s2,0x1131c

0000000080002190 <reg_x18_output>:
    80002190:	9cc8                	0x9cc8
    80002192:	a3f9                	j	80002760 <_end+0x150>
    80002194:	5b31                	li	s6,-20
    80002196:	8429                	srai	s0,s0,0xa

0000000080002198 <reg_x19_output>:
    80002198:	3c55af3f 7fc4ecdf 	0x7fc4ecdf3c55af3f

00000000800021a0 <reg_x20_output>:
    800021a0:	d55a                	sw	s6,168(sp)
    800021a2:	371f 11ed 9dd5      	0x9dd511ed371f

00000000800021a8 <reg_x21_output>:
    800021a8:	1811                	addi	a6,a6,-28
    800021aa:	70bc                	ld	a5,96(s1)
    800021ac:	262d                	addiw	a2,a2,11
    800021ae:	8cc9                	or	s1,s1,a0

00000000800021b0 <reg_x22_output>:
    800021b0:	968a                	add	a3,a3,sp
    800021b2:	3176                	fld	ft2,376(sp)
    800021b4:	52e6                	lw	t0,120(sp)
    800021b6:	          	0xb65d2b8b

00000000800021b8 <reg_x23_output>:
    800021b8:	b65d                	j	80001d5e <fromhost+0xd1e>
    800021ba:	2ee1                	addiw	t4,t4,24
    800021bc:	fdd055b3          	0xfdd055b3

00000000800021c0 <reg_x24_output>:
    800021c0:	c269                	beqz	a2,80002282 <test_memory+0x82>
    800021c2:	9ae6                	add	s5,s5,s9
    800021c4:	5bf0                	lw	a2,116(a5)
    800021c6:	0ed0                	addi	a2,sp,852

00000000800021c8 <reg_x25_output>:
    800021c8:	6382                	ld	t2,0(sp)
    800021ca:	9e436237          	lui	tp,0x9e436
    800021ce:	          	fmsub.d	fa6,fs0,fs7,fs8,rdn

00000000800021d0 <reg_x26_output>:
    800021d0:	c374                	sw	a3,68(a4)
    800021d2:	15da                	slli	a1,a1,0x36
    800021d4:	19bc                	addi	a5,sp,248
    800021d6:	bfc5                	j	800021c6 <reg_x24_output+0x6>

00000000800021d8 <reg_x27_output>:
    800021d8:	3232                	fld	ft4,296(sp)
    800021da:	60b05e9b          	0x60b05e9b
    800021de:	4d8c                	lw	a1,24(a1)

00000000800021e0 <reg_x28_output>:
    800021e0:	947e9e2b          	0x947e9e2b
    800021e4:	1332                	slli	t1,t1,0x2c
    800021e6:	1d18                	addi	a4,sp,688

00000000800021e8 <reg_x29_output>:
    800021e8:	6c1d                	lui	s8,0x7
    800021ea:	afd75fcf          	fnmadd.q	ft11,fa4,ft9,fs5,unknown
    800021ee:	e36e                	sd	s11,384(sp)

00000000800021f0 <reg_x30_output>:
    800021f0:	07df f9f7 2725      	0x2725f9f707df
    800021f6:	          	0x36ef938f

00000000800021f8 <reg_x31_output>:
    800021f8:	6f7736ef          	jal	a3,800760ee <__global_pointer$+0x732de>
    800021fc:	80e2                	mv	ra,s8
    800021fe:	9a98                	0x9a98

0000000080002200 <test_memory>:
    80002200:	96d0                	0x96d0
    80002202:	b8f2                	fsd	ft8,112(sp)
    80002204:	afbd0027          	0xafbd0027
    80002208:	147d                	addi	s0,s0,-1
    8000220a:	3204                	fld	fs1,32(a2)
    8000220c:	fe011bcb          	fnmsub.q	fs7,ft2,ft0,ft11,rtz
    80002210:	cb955f77          	0xcb955f77
    80002214:	083f62b7          	lui	t0,0x83f6
    80002218:	b23a                	fsd	fa4,288(sp)
    8000221a:	d9fe                	sw	t6,240(sp)
    8000221c:	901e                	c.add	zero,t2
    8000221e:	9308                	0x9308
    80002220:	931f aff0 b9a5      	0xb9a5aff0931f
    80002226:	1511                	addi	a0,a0,-28
    80002228:	e8c8bbef          	jal	s7,7ff8d8b4 <_start-0x7274c>
    8000222c:	594f3203          	ld	tp,1428(t5)
    80002230:	f3b9                	bnez	a5,80002176 <reg_x14_output+0x6>
    80002232:	9d3c                	0x9d3c
    80002234:	84ae                	mv	s1,a1
    80002236:	bb51                	j	80001fca <fromhost+0xf8a>
    80002238:	cb9ca5ab          	0xcb9ca5ab
    8000223c:	637c                	ld	a5,192(a4)
    8000223e:	9819                	andi	s0,s0,-26
    80002240:	30f1                	addiw	ra,ra,-4
    80002242:	3228                	fld	fa0,96(a2)
    80002244:	8d6a                	mv	s10,s10
    80002246:	ba88                	fsd	fa0,48(a3)
    80002248:	566ba0f7          	0x566ba0f7
    8000224c:	bd502deb          	0xbd502deb
    80002250:	827c                	0x827c
    80002252:	08f2                	slli	a7,a7,0x1c
    80002254:	0668                	addi	a0,sp,780
    80002256:	314e8b6b          	0x314e8b6b
    8000225a:	9b89                	andi	a5,a5,-30
    8000225c:	6fd5                	lui	t6,0x15
    8000225e:	13b32433          	0x13b32433
    80002262:	f8951c1b          	0xf8951c1b
    80002266:	ce35                	beqz	a2,800022e2 <test_memory+0xe2>
    80002268:	5a1713cb          	fnmsub.d	ft7,fa4,ft1,fa1,rtz
    8000226c:	a2ed                	j	80002456 <test_memory+0x256>
    8000226e:	5fda                	lw	t6,180(sp)
    80002270:	1465                	addi	s0,s0,-7
    80002272:	a2e3bb2f          	amomax.d.rl	s6,a4,(t2)
    80002276:	f2bc                	sd	a5,96(a3)
    80002278:	6e24                	ld	s1,88(a2)
    8000227a:	7e4add1b          	0x7e4add1b
    8000227e:	dbed                	beqz	a5,80002270 <test_memory+0x70>
    80002280:	82e8                	0x82e8
    80002282:	1438                	addi	a4,sp,552
    80002284:	03f9b02b          	0x3f9b02b
    80002288:	78d6                	ld	a7,368(sp)
    8000228a:	8556                	mv	a0,s5
    8000228c:	f8fa                	sd	t5,112(sp)
    8000228e:	8ccd                	or	s1,s1,a1
    80002290:	0371                	addi	t1,t1,28
    80002292:	674b7887          	0x674b7887
    80002296:	18a14ee3          	blt	sp,a0,80002c32 <_end+0x622>
    8000229a:	a78c                	fsd	fa1,8(a5)
    8000229c:	70bd                	lui	ra,0xfffef
    8000229e:	0401                	addi	s0,s0,0
    800022a0:	58a5                	li	a7,-23
    800022a2:	845e                	mv	s0,s7
    800022a4:	3992                	fld	fs3,288(sp)
    800022a6:	3690                	fld	fa2,40(a3)
    800022a8:	eb491b37          	lui	s6,0xeb491
    800022ac:	f90a                	sd	sp,176(sp)
    800022ae:	963e                	add	a2,a2,a5
    800022b0:	05bb516f          	jal	sp,800b7b0a <__global_pointer$+0xb4cfa>
    800022b4:	5365                	li	t1,-7
    800022b6:	0b2fd0ab          	0xb2fd0ab
    800022ba:	1655e273          	csrrsi	tp,0x165,11
    800022be:	a265                	j	80002466 <test_memory+0x266>
    800022c0:	4014                	lw	a3,0(s0)
    800022c2:	d019                	beqz	s0,800021c8 <reg_x25_output>
    800022c4:	1319                	addi	t1,t1,-26
    800022c6:	cf3fa30f          	0xcf3fa30f
    800022ca:	536c                	lw	a1,100(a4)
    800022cc:	6995                	lui	s3,0x5
    800022ce:	43f9                	li	t2,30
    800022d0:	d72f4e83          	lbu	t4,-654(t5)
    800022d4:	8a21                	andi	a2,a2,8
    800022d6:	f855                	bnez	s0,8000228a <test_memory+0x8a>
    800022d8:	88aa                	mv	a7,a0
    800022da:	4589                	li	a1,2
    800022dc:	0fff                	0xfff
    800022de:	64f9                	lui	s1,0x1e
    800022e0:	43f1                	li	t2,28
    800022e2:	c23e                	sw	a5,4(sp)
    800022e4:	0b8d6c6f          	jal	s8,800d839c <__global_pointer$+0xd558c>
    800022e8:	9d2a64f7          	0x9d2a64f7
    800022ec:	bb15                	j	80002020 <reg_x4_init>
    800022ee:	d1e8                	sw	a0,100(a1)
    800022f0:	8fa5                	xor	a5,a5,s1
    800022f2:	51fc                	lw	a5,100(a1)
    800022f4:	1214                	addi	a3,sp,288
    800022f6:	b544                	fsd	fs1,168(a0)
    800022f8:	417b56e3          	bge	s6,s7,80002f04 <__global_pointer$+0xf4>
    800022fc:	847fc4e7          	0x847fc4e7
    80002300:	ad10                	fsd	fa2,24(a0)
    80002302:	6f2825b7          	lui	a1,0x6f282
    80002306:	ea9723fb          	0xea9723fb
    8000230a:	dc8d                	beqz	s1,80002244 <test_memory+0x44>
    8000230c:	2d39c48f          	0x2d39c48f
    80002310:	3520                	fld	fs0,104(a0)
    80002312:	b61f 25ef 7a2d      	0x7a2d25efb61f
    80002318:	a91d                	j	8000274e <_end+0x13e>
    8000231a:	36d0                	fld	fa2,168(a3)
    8000231c:	3ece6703          	lwu	a4,1004(t3)
    80002320:	30d5                	addiw	ra,ra,-11
    80002322:	5e9f 173d 4a6a      	0x4a6a173d5e9f
    80002328:	bf10                	fsd	fa2,56(a4)
    8000232a:	9bd4                	0x9bd4
    8000232c:	88479007          	0x88479007
    80002330:	7e748113          	addi	sp,s1,2023 # 1e7e7 <_start-0x7ffe1819>
    80002334:	1511                	addi	a0,a0,-28
    80002336:	d938                	sw	a4,112(a0)
    80002338:	373ada93          	0x373ada93
    8000233c:	0788                	addi	a0,sp,960
    8000233e:	2f6a                	fld	ft10,152(sp)
    80002340:	6fba                	ld	t6,392(sp)
    80002342:	a1ff                	0xa1ff
    80002344:	b2459b87          	0xb2459b87
    80002348:	7484                	ld	s1,40(s1)
    8000234a:	3706b8bb          	0x3706b8bb
    8000234e:	8da5                	xor	a1,a1,s1
    80002350:	2085bdf3          	csrrc	s11,0x208,a1
    80002354:	b3f5                	j	80002140 <reg_x8_output>
    80002356:	85a5                	srai	a1,a1,0x9
    80002358:	f8f0                	sd	a2,240(s1)
    8000235a:	0ccd                	addi	s9,s9,19
    8000235c:	bb72                	fsd	ft8,432(sp)
    8000235e:	c202                	sw	zero,4(sp)
    80002360:	c3cd                	beqz	a5,80002402 <test_memory+0x202>
    80002362:	1bd6                	slli	s7,s7,0x35
    80002364:	d844664b          	fnmsub.s	fa2,fs0,ft4,fs11,unknown
    80002368:	82c8                	0x82c8
    8000236a:	87b5                	srai	a5,a5,0xd
    8000236c:	cf19                	beqz	a4,8000238a <test_memory+0x18a>
    8000236e:	72d6                	ld	t0,368(sp)
    80002370:	9b597507          	0x9b597507
    80002374:	5cbd                	li	s9,-17
    80002376:	eae6                	sd	s9,336(sp)
    80002378:	1ed5                	addi	t4,t4,-11
    8000237a:	69f1                	lui	s3,0x1c
    8000237c:	d000                	sw	s0,32(s0)
    8000237e:	367e                	fld	fa2,504(sp)
    80002380:	ec355f2f          	0xec355f2f
    80002384:	9da8                	0x9da8
    80002386:	4b0c                	lw	a1,16(a4)
    80002388:	c9e9                	beqz	a1,8000245a <test_memory+0x25a>
    8000238a:	4278                	lw	a4,68(a2)
    8000238c:	6652                	ld	a2,272(sp)
    8000238e:	f4ebeb8b          	0xf4ebeb8b
    80002392:	31c4                	fld	fs1,160(a1)
    80002394:	7fb1                	lui	t6,0xfffec
    80002396:	9e56e33f 0f34f40f 	0xf34f40f9e56e33f
    8000239e:	3288                	fld	fa0,32(a3)
    800023a0:	ba96                	fsd	ft5,368(sp)
    800023a2:	6590                	ld	a2,8(a1)
    800023a4:	92d23c2b          	0x92d23c2b
    800023a8:	e4a4                	sd	s1,72(s1)
    800023aa:	4a86                	lw	s5,64(sp)
    800023ac:	0fc5                	addi	t6,t6,17
    800023ae:	866a                	mv	a2,s10
    800023b0:	280e                	fld	fa6,192(sp)
    800023b2:	01f8                	addi	a4,sp,204
    800023b4:	c3ba                	sw	a4,196(sp)
    800023b6:	7a62                	ld	s4,56(sp)
    800023b8:	fb7d                	bnez	a4,800023ae <test_memory+0x1ae>
    800023ba:	5254                	lw	a3,36(a2)
    800023bc:	1459                	addi	s0,s0,-10
    800023be:	a8cd                	j	800024b0 <test_memory+0x2b0>
    800023c0:	5fa653cb          	fnmsub.q	ft7,fa2,fs10,fa1,unknown
    800023c4:	b93c                	fsd	fa5,112(a0)
    800023c6:	4aec486f          	jal	a6,800c6874 <__global_pointer$+0xc3a64>
    800023ca:	739e                	ld	t2,480(sp)
    800023cc:	4cc4000b          	0x4cc4000b
    800023d0:	bb34                	fsd	fa3,112(a4)
    800023d2:	e93d                	bnez	a0,80002448 <test_memory+0x248>
    800023d4:	b6e6                	fsd	fs9,360(sp)
    800023d6:	1298                	addi	a4,sp,352
    800023d8:	b6c6                	fsd	fa7,360(sp)
    800023da:	88fd                	andi	s1,s1,31
    800023dc:	b076                	fsd	ft9,32(sp)
    800023de:	f268                	sd	a0,224(a2)
    800023e0:	bc2d                	j	80001e1a <fromhost+0xdda>
    800023e2:	41adc387          	flq	ft7,1050(s11)
    800023e6:	44673abb          	0x44673abb
    800023ea:	5d3d                	li	s10,-17
    800023ec:	b9c1                	j	800020bc <reg_x23_init+0x4>
    800023ee:	96bd                	srai	a3,a3,0x2f
    800023f0:	93f4                	0x93f4
    800023f2:	4829                	li	a6,10
    800023f4:	0ee9                	addi	t4,t4,26
    800023f6:	b561                	j	8000227e <test_memory+0x7e>
    800023f8:	e7a2                	sd	s0,456(sp)
    800023fa:	b106                	fsd	ft1,160(sp)
    800023fc:	5edc                	lw	a5,60(a3)
    800023fe:	5321                	li	t1,-24
    80002400:	f72d                	bnez	a4,8000236a <test_memory+0x16a>
    80002402:	aea9                	j	8000275c <_end+0x14c>
    80002404:	d71a8033          	0xd71a8033
    80002408:	aaf2                	fsd	ft8,336(sp)
    8000240a:	dda0                	sw	s0,120(a1)
    8000240c:	4a09                	li	s4,2
    8000240e:	e5c1                	bnez	a1,80002496 <test_memory+0x296>
    80002410:	973a                	add	a4,a4,a4
    80002412:	7995c8af          	0x7995c8af
    80002416:	d2aa                	sw	a0,100(sp)
    80002418:	a6f4                	fsd	fa3,200(a3)
    8000241a:	8b46                	mv	s6,a7
    8000241c:	c99d                	beqz	a1,80002452 <test_memory+0x252>
    8000241e:	c572                	sw	t3,136(sp)
    80002420:	28d0                	fld	fa2,144(s1)
    80002422:	ac12                	fsd	ft4,24(sp)
    80002424:	f5e4                	sd	s1,232(a1)
    80002426:	e896                	sd	t0,80(sp)
    80002428:	7d19                	lui	s10,0xfffe6
    8000242a:	a3e8                	fsd	fa0,192(a5)
    8000242c:	9508                	0x9508
    8000242e:	bfc73f4b          	fnmsub.q	ft10,fa4,ft8,fs7,rup
    80002432:	3cdc                	fld	fa5,184(s1)
    80002434:	fd69                	bnez	a0,8000240e <test_memory+0x20e>
    80002436:	49963403          	ld	s0,1177(a2)
    8000243a:	5e128537          	lui	a0,0x5e128
    8000243e:	9430d793          	0x9430d793
    80002442:	8bf9                	andi	a5,a5,30
    80002444:	26f4e2bf 824c40a0 	0x824c40a026f4e2bf
    8000244c:	f266b267          	0xf266b267
    80002450:	84ac                	0x84ac
    80002452:	0a2c                	addi	a1,sp,280
    80002454:	ea00                	sd	s0,16(a2)
    80002456:	7369                	lui	t1,0xffffa
    80002458:	6ad5                	lui	s5,0x15
    8000245a:	84ff                	0x84ff
    8000245c:	f154                	sd	a3,160(a0)
    8000245e:	e9fb96e7          	0xe9fb96e7
    80002462:	5382                	lw	t2,32(sp)
    80002464:	be22                	fsd	fs0,312(sp)
    80002466:	fd8e                	sd	gp,248(sp)
    80002468:	34fd                	addiw	s1,s1,-1
    8000246a:	4489                	li	s1,2
    8000246c:	59d4                	lw	a3,52(a1)
    8000246e:	8fd3ea63          	bltu	t2,t4,80001562 <fromhost+0x522>
    80002472:	5ab4                	lw	a3,112(a3)
    80002474:	589d                	li	a7,-25
    80002476:	d790                	sw	a2,40(a5)
    80002478:	c6f1                	beqz	a3,80002544 <test_memory+0x344>
    8000247a:	3980                	fld	fs0,48(a1)
    8000247c:	74c5                	lui	s1,0xffff1
    8000247e:	e6f20397          	auipc	t2,0xe6f20
    80002482:	975a                	add	a4,a4,s6
    80002484:	3f50                	fld	fa2,184(a4)
    80002486:	55da67f7          	0x55da67f7
    8000248a:	91f4                	0x91f4
    8000248c:	5f7d                	li	t5,-1
    8000248e:	c476b1a3          	sd	t2,-957(a3)
    80002492:	7aa0                	ld	s0,112(a3)
    80002494:	3ca6                	fld	fs9,104(sp)
    80002496:	11cd                	addi	gp,gp,-13
    80002498:	e59f ba77 ba84      	0xba84ba77e59f
    8000249e:	4a30                	lw	a2,80(a2)
    800024a0:	426c                	lw	a1,68(a2)
    800024a2:	555e                	lw	a0,244(sp)
    800024a4:	f5f5                	bnez	a1,80002490 <test_memory+0x290>
    800024a6:	2d98c0a3          	0x2d98c0a3
    800024aa:	1dda                	slli	s11,s11,0x36
    800024ac:	0f87409b          	0xf87409b
    800024b0:	95a6                	add	a1,a1,s1
    800024b2:	5db9                	li	s11,-18
    800024b4:	0426                	slli	s0,s0,0x9
    800024b6:	fc04                	sd	s1,56(s0)
    800024b8:	fbf69487          	0xfbf69487
    800024bc:	49fc                	lw	a5,84(a1)
    800024be:	0d94                	addi	a3,sp,720
    800024c0:	ecd0                	sd	a2,152(s1)
    800024c2:	0a9e                	slli	s5,s5,0x7
    800024c4:	7299                	lui	t0,0xfffe6
    800024c6:	e422                	sd	s0,8(sp)
    800024c8:	541677c7          	0x541677c7
    800024cc:	bfe5                	j	800024c4 <test_memory+0x2c4>
    800024ce:	bcd0                	fsd	fa2,184(s1)
    800024d0:	acc5                	j	800027c0 <_end+0x1b0>
    800024d2:	45ee                	lw	a1,216(sp)
    800024d4:	c849                	beqz	s0,80002566 <test_memory+0x366>
    800024d6:	1f34                	addi	a3,sp,952
    800024d8:	31c5                	addiw	gp,gp,-15
    800024da:	4455f7c3          	0x4455f7c3
    800024de:	5f94                	lw	a3,56(a5)
    800024e0:	9e1e                	add	t3,t3,t2
    800024e2:	5462                	lw	s0,56(sp)
    800024e4:	1999ff2f          	0x1999ff2f
    800024e8:	c30d93af          	0xc30d93af
    800024ec:	9218                	0x9218
    800024ee:	020c                	addi	a1,sp,256
    800024f0:	e00c                	sd	a1,0(s0)
    800024f2:	e91f 0de3 7d91      	0x7d910de3e91f
    800024f8:	c66c                	sw	a1,76(a2)
    800024fa:	7666                	ld	a2,120(sp)
    800024fc:	5902                	lw	s2,32(sp)
    800024fe:	a2fc                	fsd	fa5,192(a3)
    80002500:	e3f4b467          	0xe3f4b467
    80002504:	e788                	sd	a0,8(a5)
    80002506:	c6cbc79b          	0xc6cbc79b
    8000250a:	bf71                	j	800024a6 <test_memory+0x2a6>
    8000250c:	1a76                	slli	s4,s4,0x3d
    8000250e:	33d5                	addiw	t2,t2,-11
    80002510:	7906                	ld	s2,96(sp)
    80002512:	419e                	lw	gp,196(sp)
    80002514:	15ea                	slli	a1,a1,0x3a
    80002516:	d538                	sw	a4,104(a0)
    80002518:	f0fe                	sd	t6,96(sp)
    8000251a:	ca3210f3          	csrrw	ra,0xca3,tp
    8000251e:	625075f3          	csrrci	a1,0x625,0
    80002522:	ee65                	bnez	a2,8000261a <_end+0xa>
    80002524:	51e0                	lw	s0,100(a1)
    80002526:	1a84                	addi	s1,sp,368
    80002528:	4f49                	li	t5,18
    8000252a:	217e                	fld	ft2,472(sp)
    8000252c:	3745                	addiw	a4,a4,-15
    8000252e:	e900                	sd	s0,16(a0)
    80002530:	6a20cb13          	xori	s6,ra,1698
    80002534:	bdf8                	fsd	fa4,248(a1)
    80002536:	52fc                	lw	a5,100(a3)
    80002538:	9ff5                	0x9ff5
    8000253a:	5bd0                	lw	a2,52(a5)
    8000253c:	815e                	mv	sp,s7
    8000253e:	2d94efeb          	0x2d94efeb
    80002542:	8a90                	0x8a90
    80002544:	a751                	j	80002cc8 <_end+0x6b8>
    80002546:	67ed                	lui	a5,0x1b
    80002548:	8692468b          	0x8692468b
    8000254c:	770a1e4b          	fnmsub.q	ft8,fs4,fa6,fa4,rtz
    80002550:	19e6                	slli	s3,s3,0x39
    80002552:	8322                	mv	t1,s0
    80002554:	f0c9                	bnez	s1,800024d6 <test_memory+0x2d6>
    80002556:	76d6                	ld	a3,368(sp)
    80002558:	9c3e                	add	s8,s8,a5
    8000255a:	2a0c                	fld	fa1,16(a2)
    8000255c:	33c1                	addiw	t2,t2,-16
    8000255e:	f28a                	sd	sp,352(sp)
    80002560:	bd7f                	0xbd7f
    80002562:	8c5ba103          	lw	sp,-1851(s7)
    80002566:	48f8                	lw	a4,84(s1)
    80002568:	53a8                	lw	a0,96(a5)
    8000256a:	3555                	addiw	a0,a0,-11
    8000256c:	4959                	li	s2,22
    8000256e:	d007b94f          	fnmadd.s	fs2,fa5,ft0,fs10,rup
    80002572:	a4e8                	fsd	fa0,200(s1)
    80002574:	a6c2                	fsd	fa6,328(sp)
    80002576:	bde2                	fsd	fs8,248(sp)
    80002578:	e3b9                	bnez	a5,800025be <test_memory+0x3be>
    8000257a:	800e                	c.mv	zero,gp
    8000257c:	96da                	add	a3,a3,s6
    8000257e:	0948                	addi	a0,sp,148
    80002580:	2aa4f973          	csrrci	s2,0x2aa,9
    80002584:	6964                	ld	s1,208(a0)
    80002586:	1b6a                	slli	s6,s6,0x3a
    80002588:	9dd02deb          	0x9dd02deb
    8000258c:	72bc                	ld	a5,96(a3)
    8000258e:	055267e7          	0x55267e7
    80002592:	4ead                	li	t4,11
    80002594:	766a                	ld	a2,184(sp)
    80002596:	800e                	c.mv	zero,gp
    80002598:	d3ba                	sw	a4,228(sp)
    8000259a:	a4ed1ba3          	sh	a4,-1449(s10) # fffffffffffe5a57 <__global_pointer$+0xffffffff7ffe2c47>
    8000259e:	776757af          	0x776757af
    800025a2:	83317c27          	0x83317c27
    800025a6:	d7e4                	sw	s1,108(a5)
    800025a8:	7222ef53          	0x7222ef53
    800025ac:	a1ce                	fsd	fs3,192(sp)
    800025ae:	55774b33          	0x55774b33
    800025b2:	9899                	andi	s1,s1,-26
    800025b4:	b4e6                	fsd	fs9,104(sp)
    800025b6:	238b51db          	0x238b51db
    800025ba:	6eb6                	ld	t4,328(sp)
    800025bc:	f180                	sd	s0,32(a1)
    800025be:	626a                	ld	tp,152(sp)
    800025c0:	45b53a63          	0x45b53a63
    800025c4:	a370                	fsd	fa2,192(a4)
    800025c6:	f1b5                	bnez	a1,8000252a <test_memory+0x32a>
    800025c8:	3712                	fld	fa4,288(sp)
    800025ca:	47647fc3          	fmadd.q	ft11,fs0,fs6,fs0
    800025ce:	6971                	lui	s2,0x1c
    800025d0:	0678                	addi	a4,sp,780
    800025d2:	aba0                	fsd	fs0,80(a5)
    800025d4:	2689                	addiw	a3,a3,2
    800025d6:	24d2                	fld	fs1,272(sp)
    800025d8:	aee8                	fsd	fa0,216(a3)
    800025da:	893c                	0x893c
    800025dc:	0dde                	slli	s11,s11,0x17
    800025de:	13a1                	addi	t2,t2,-24
    800025e0:	c105                	beqz	a0,80002600 <loop_count>
    800025e2:	bf5f 5131 4308      	0x43085131bf5f
    800025e8:	c46c1c0f          	0xc46c1c0f
    800025ec:	6a5c                	ld	a5,144(a2)
    800025ee:	e3e4                	sd	s1,192(a5)
    800025f0:	7f2d                	lui	t5,0xfffeb
    800025f2:	a75e                	fsd	fs7,392(sp)
    800025f4:	3f44                	fld	fs1,184(a4)
    800025f6:	5389                	li	t2,-30
    800025f8:	1081                	addi	ra,ra,-32
    800025fa:	fd97b627          	fsd	fs9,-52(a5) # 1afcc <_start-0x7ffe5034>
    800025fe:	          	fmadd.s	fa4,ft0,ft4,ft0,rup

0000000080002600 <loop_count>:
    80002600:	0040                	addi	s0,sp,4
	...

Disassembly of section .riscv.attributes:

0000000000000000 <.riscv.attributes>:
   0:	1e41                	addi	t3,t3,-16
   2:	0000                	unimp
   4:	7200                	ld	s0,32(a2)
   6:	7369                	lui	t1,0xffffa
   8:	01007663          	bgeu	zero,a6,14 <_start-0x7fffffec>
   c:	0014                	0x14
   e:	0000                	unimp
  10:	7205                	lui	tp,0xfffe1
  12:	3676                	fld	fa2,376(sp)
  14:	6934                	ld	a3,80(a0)
  16:	7032                	0x7032
  18:	5f30                	lw	a2,120(a4)
  1a:	326d                	addiw	tp,tp,-5
  1c:	3070                	fld	fa2,224(s0)
	...
