
build/test96:     file format elf64-littleriscv


Disassembly of section .text.init:

0000000080000000 <_start>:
    80000000:	05c0006f          	j	8000005c <reset_vector>

0000000080000004 <trap_vector>:
    80000004:	34202f73          	csrr	t5,mcause
    80000008:	00800f93          	li	t6,8
    8000000c:	03ff0a63          	beq	t5,t6,80000040 <write_tohost>
    80000010:	00900f93          	li	t6,9
    80000014:	03ff0663          	beq	t5,t6,80000040 <write_tohost>
    80000018:	00b00f93          	li	t6,11
    8000001c:	03ff0263          	beq	t5,t6,80000040 <write_tohost>
    80000020:	80000f17          	auipc	t5,0x80000
    80000024:	fe0f0f13          	addi	t5,t5,-32 # 0 <_start-0x80000000>
    80000028:	000f0463          	beqz	t5,80000030 <trap_vector+0x2c>
    8000002c:	000f0067          	jr	t5
    80000030:	34202f73          	csrr	t5,mcause
    80000034:	000f5463          	bgez	t5,8000003c <handle_exception>
    80000038:	0040006f          	j	8000003c <handle_exception>

000000008000003c <handle_exception>:
    8000003c:	5391e193          	ori	gp,gp,1337

0000000080000040 <write_tohost>:
    80000040:	00001f17          	auipc	t5,0x1
    80000044:	fc3f2023          	sw	gp,-64(t5) # 80001000 <tohost>
    80000048:	000902b7          	lui	t0,0x90
    8000004c:	0012829b          	addiw	t0,t0,1
    80000050:	00c29293          	slli	t0,t0,0xc
    80000054:	0002af83          	lw	t6,0(t0) # 90000 <_start-0x7ff70000>
    80000058:	fe9ff06f          	j	80000040 <write_tohost>

000000008000005c <reset_vector>:
    8000005c:	00000093          	li	ra,0
    80000060:	00000113          	li	sp,0
    80000064:	00000193          	li	gp,0
    80000068:	00000213          	li	tp,0
    8000006c:	00000293          	li	t0,0
    80000070:	00000313          	li	t1,0
    80000074:	00000393          	li	t2,0
    80000078:	00000413          	li	s0,0
    8000007c:	00000493          	li	s1,0
    80000080:	00000513          	li	a0,0
    80000084:	00000593          	li	a1,0
    80000088:	00000613          	li	a2,0
    8000008c:	00000693          	li	a3,0
    80000090:	00000713          	li	a4,0
    80000094:	00000793          	li	a5,0
    80000098:	00000813          	li	a6,0
    8000009c:	00000893          	li	a7,0
    800000a0:	00000913          	li	s2,0
    800000a4:	00000993          	li	s3,0
    800000a8:	00000a13          	li	s4,0
    800000ac:	00000a93          	li	s5,0
    800000b0:	00000b13          	li	s6,0
    800000b4:	00000b93          	li	s7,0
    800000b8:	00000c13          	li	s8,0
    800000bc:	00000c93          	li	s9,0
    800000c0:	00000d13          	li	s10,0
    800000c4:	00000d93          	li	s11,0
    800000c8:	00000e13          	li	t3,0
    800000cc:	00000e93          	li	t4,0
    800000d0:	00000f13          	li	t5,0
    800000d4:	00000f93          	li	t6,0
    800000d8:	f1402573          	csrr	a0,mhartid
    800000dc:	00051063          	bnez	a0,800000dc <reset_vector+0x80>
    800000e0:	00000297          	auipc	t0,0x0
    800000e4:	01028293          	addi	t0,t0,16 # 800000f0 <reset_vector+0x94>
    800000e8:	30529073          	csrw	mtvec,t0
    800000ec:	18005073          	csrwi	satp,0
    800000f0:	00000297          	auipc	t0,0x0
    800000f4:	02428293          	addi	t0,t0,36 # 80000114 <reset_vector+0xb8>
    800000f8:	30529073          	csrw	mtvec,t0
    800000fc:	0010029b          	addiw	t0,zero,1
    80000100:	03529293          	slli	t0,t0,0x35
    80000104:	fff28293          	addi	t0,t0,-1
    80000108:	3b029073          	csrw	pmpaddr0,t0
    8000010c:	01f00293          	li	t0,31
    80000110:	3a029073          	csrw	pmpcfg0,t0
    80000114:	30405073          	csrwi	mie,0
    80000118:	00000297          	auipc	t0,0x0
    8000011c:	01428293          	addi	t0,t0,20 # 8000012c <reset_vector+0xd0>
    80000120:	30529073          	csrw	mtvec,t0
    80000124:	30205073          	csrwi	medeleg,0
    80000128:	30305073          	csrwi	mideleg,0
    8000012c:	00000193          	li	gp,0
    80000130:	00000297          	auipc	t0,0x0
    80000134:	ed428293          	addi	t0,t0,-300 # 80000004 <trap_vector>
    80000138:	30529073          	csrw	mtvec,t0
    8000013c:	00100513          	li	a0,1
    80000140:	01f51513          	slli	a0,a0,0x1f
    80000144:	00055c63          	bgez	a0,8000015c <reset_vector+0x100>
    80000148:	0ff0000f          	fence
    8000014c:	00100193          	li	gp,1
    80000150:	05d00893          	li	a7,93
    80000154:	00000513          	li	a0,0
    80000158:	00000073          	ecall
    8000015c:	80000297          	auipc	t0,0x80000
    80000160:	ea428293          	addi	t0,t0,-348 # 0 <_start-0x80000000>
    80000164:	00028a63          	beqz	t0,80000178 <reset_vector+0x11c>
    80000168:	10529073          	csrw	stvec,t0
    8000016c:	0000b2b7          	lui	t0,0xb
    80000170:	1092829b          	addiw	t0,t0,265
    80000174:	30229073          	csrw	medeleg,t0
    80000178:	30005073          	csrwi	mstatus,0
    8000017c:	00000297          	auipc	t0,0x0
    80000180:	01428293          	addi	t0,t0,20 # 80000190 <reset_vector+0x134>
    80000184:	34129073          	csrw	mepc,t0
    80000188:	f1402573          	csrr	a0,mhartid
    8000018c:	30200073          	mret
    80000190:	0200006f          	j	800001b0 <test_start>

0000000080000194 <crash_backward>:
    80000194:	0ff0000f          	fence
    80000198:	00018063          	beqz	gp,80000198 <crash_backward+0x4>
    8000019c:	00119193          	slli	gp,gp,0x1
    800001a0:	0011e193          	ori	gp,gp,1
    800001a4:	05d00893          	li	a7,93
    800001a8:	00018513          	mv	a0,gp
    800001ac:	00000073          	ecall

00000000800001b0 <test_start>:
    800001b0:	00002f97          	auipc	t6,0x2
    800001b4:	e50f8f93          	addi	t6,t6,-432 # 80002000 <hidden_data>
    800001b8:	000fb003          	ld	zero,0(t6)
    800001bc:	008fb083          	ld	ra,8(t6)
    800001c0:	010fb103          	ld	sp,16(t6)
    800001c4:	018fb183          	ld	gp,24(t6)
    800001c8:	020fb203          	ld	tp,32(t6)
    800001cc:	028fb283          	ld	t0,40(t6)
    800001d0:	030fb303          	ld	t1,48(t6)
    800001d4:	038fb383          	ld	t2,56(t6)
    800001d8:	040fb403          	ld	s0,64(t6)
    800001dc:	048fb483          	ld	s1,72(t6)
    800001e0:	050fb503          	ld	a0,80(t6)
    800001e4:	058fb583          	ld	a1,88(t6)
    800001e8:	060fb603          	ld	a2,96(t6)
    800001ec:	068fb683          	ld	a3,104(t6)
    800001f0:	070fb703          	ld	a4,112(t6)
    800001f4:	078fb783          	ld	a5,120(t6)
    800001f8:	080fb803          	ld	a6,128(t6)
    800001fc:	088fb883          	ld	a7,136(t6)
    80000200:	090fb903          	ld	s2,144(t6)
    80000204:	098fb983          	ld	s3,152(t6)
    80000208:	0a0fba03          	ld	s4,160(t6)
    8000020c:	0a8fba83          	ld	s5,168(t6)
    80000210:	0b0fbb03          	ld	s6,176(t6)
    80000214:	0b8fbb83          	ld	s7,184(t6)
    80000218:	0c0fbc03          	ld	s8,192(t6)
    8000021c:	0c8fbc83          	ld	s9,200(t6)
    80000220:	0d0fbd03          	ld	s10,208(t6)
    80000224:	0d8fbd83          	ld	s11,216(t6)
    80000228:	0e0fbe03          	ld	t3,224(t6)
    8000022c:	0e8fbe83          	ld	t4,232(t6)
    80000230:	0f0fbf03          	ld	t5,240(t6)
    80000234:	0f8fbf83          	ld	t6,248(t6)
    80000238:	0040006f          	j	8000023c <pseg_0>

000000008000023c <pseg_0>:
    8000023c:	92d02b93          	slti	s7,zero,-1747
    80000240:	90900413          	li	s0,-1783
    80000244:	7e500513          	li	a0,2021
    80000248:	000e8a13          	mv	s4,t4
    8000024c:	4073883b          	subw	a6,t2,t2
    80000250:	035ad233          	divu	tp,s5,s5
    80000254:	000a0293          	mv	t0,s4
    80000258:	02019393          	slli	t2,gp,0x20
    8000025c:	02a517b3          	mulh	a5,a0,a0
    80000260:	00100713          	li	a4,1
    80000264:	62ac8e13          	addi	t3,s9,1578
    80000268:	02c67e3b          	remuw	t3,a2,a2
    8000026c:	0004f3b3          	and	t2,s1,zero
    80000270:	16b00e93          	li	t4,363
    80000274:	03f71713          	slli	a4,a4,0x3f
    80000278:	00a92f33          	slt	t5,s2,a0
    8000027c:	dd900693          	li	a3,-551
    80000280:	3fa00893          	li	a7,1018
    80000284:	f05a18e3          	bne	s4,t0,80000194 <crash_backward>
    80000288:	0313dc93          	srli	s9,t2,0x31
    8000028c:	038e0833          	mul	a6,t3,s8
    80000290:	f1700213          	li	tp,-233
    80000294:	02634bb3          	div	s7,t1,t1
    80000298:	73400c93          	li	s9,1844
    8000029c:	3fb00313          	li	t1,1019
    800002a0:	ebd00e13          	li	t3,-323
    800002a4:	8fd00613          	li	a2,-1795
    800002a8:	1a300913          	li	s2,419
    800002ac:	0113909b          	slliw	ra,t2,0x11
    800002b0:	0cb00f93          	li	t6,203
    800002b4:	41abd533          	sra	a0,s7,s10
    800002b8:	02de8c33          	mul	s8,t4,a3
    800002bc:	68688993          	addi	s3,a7,1670
    800002c0:	012964b3          	or	s1,s2,s2
    800002c4:	de720793          	addi	a5,tp,-537 # fffffffffffffde7 <__global_pointer$+0xffffffff7fffcfd7>
    800002c8:	41100d13          	li	s10,1041
    800002cc:	66f24663          	blt	tp,a5,80000938 <crash_forward>
    800002d0:	00002817          	auipc	a6,0x2
    800002d4:	54a80813          	addi	a6,a6,1354 # 8000281a <_end+0x20a>
    800002d8:	fff00593          	li	a1,-1
    800002dc:	eb19cce3          	blt	s3,a7,80000194 <crash_backward>
    800002e0:	01a34b33          	xor	s6,t1,s10
    800002e4:	41de89b3          	sub	s3,t4,t4
    800002e8:	d1d00b13          	li	s6,-739
    800002ec:	00e5c5b3          	xor	a1,a1,a4
    800002f0:	00b1fab3          	and	s5,gp,a1
    800002f4:	d53e0f13          	addi	t5,t3,-685
    800002f8:	0165d513          	srli	a0,a1,0x16
    800002fc:	00c471b3          	and	gp,s0,a2
    80000300:	00eae133          	or	sp,s5,a4
    80000304:	e9cf58e3          	bge	t5,t3,80000194 <crash_backward>
    80000308:	b06b0913          	addi	s2,s6,-1274
    8000030c:	00002a17          	auipc	s4,0x2
    80000310:	f1ea0a13          	addi	s4,s4,-226 # 8000222a <test_memory+0x2a>
    80000314:	9fa80b83          	lb	s7,-1542(a6)
    80000318:	00100493          	li	s1,1
    8000031c:	03a4b8b3          	mulhu	a7,s1,s10
    80000320:	03f49493          	slli	s1,s1,0x3f
    80000324:	d3900093          	li	ra,-711
    80000328:	58b00c13          	li	s8,1419
    8000032c:	112a00a3          	sb	s2,257(s4)
    80000330:	6be00293          	li	t0,1726
    80000334:	7c1c0e93          	addi	t4,s8,1985
    80000338:	025cf3bb          	remuw	t2,s9,t0
    8000033c:	5f8ece63          	blt	t4,s8,80000938 <crash_forward>
    80000340:	fff00d13          	li	s10,-1
    80000344:	009d4d33          	xor	s10,s10,s1
    80000348:	01a476b3          	and	a3,s0,s10
    8000034c:	03ffddbb          	divuw	s11,t6,t6
    80000350:	0090e333          	or	t1,ra,s1
    80000354:	0210d7bb          	divuw	a5,ra,ra
    80000358:	e2668ee3          	beq	a3,t1,80000194 <crash_backward>
    8000035c:	0e200f13          	li	t5,226
    80000360:	0c500b93          	li	s7,197
    80000364:	c0300613          	li	a2,-1021
    80000368:	09700293          	li	t0,151
    8000036c:	5ce00e93          	li	t4,1486
    80000370:	be61f913          	andi	s2,gp,-1050
    80000374:	41b4d23b          	sraw	tp,s1,s11
    80000378:	65b00713          	li	a4,1627
    8000037c:	2f400513          	li	a0,756
    80000380:	6b700493          	li	s1,1719
    80000384:	00002317          	auipc	t1,0x2
    80000388:	99b30313          	addi	t1,t1,-1637 # 80001d1f <fromhost+0xcdf>
    8000038c:	03d618b3          	mulh	a7,a2,t4
    80000390:	0094c3b3          	xor	t2,s1,s1
    80000394:	00002c97          	auipc	s9,0x2
    80000398:	55ec8c93          	addi	s9,s9,1374 # 800028f2 <_end+0x2e2>
    8000039c:	014e9b13          	slli	s6,t4,0x14
    800003a0:	01de9c1b          	slliw	s8,t4,0x1d
    800003a4:	0052f0b3          	and	ra,t0,t0
    800003a8:	00002a97          	auipc	s5,0x2
    800003ac:	712a8a93          	addi	s5,s5,1810 # 80002aba <_end+0x4aa>
    800003b0:	7d200993          	li	s3,2002
    800003b4:	033bed3b          	remw	s10,s7,s3
    800003b8:	00e77133          	and	sp,a4,a4
    800003bc:	04792813          	slti	a6,s2,71
    800003c0:	f9300793          	li	a5,-109
    800003c4:	00002497          	auipc	s1,0x2
    800003c8:	5c448493          	addi	s1,s1,1476 # 80002988 <_end+0x378>
    800003cc:	1d900913          	li	s2,473
    800003d0:	02a57733          	remu	a4,a0,a0
    800003d4:	50600413          	li	s0,1286
    800003d8:	d07cb323          	sd	t2,-762(s9)
    800003dc:	01ad62b3          	or	t0,s10,s10
    800003e0:	98700a13          	li	s4,-1657
    800003e4:	0044573b          	srlw	a4,s0,tp
    800003e8:	00002117          	auipc	sp,0x2
    800003ec:	de810113          	addi	sp,sp,-536 # 800021d0 <reg_x26_output>
    800003f0:	82800d93          	li	s11,-2008
    800003f4:	60000b13          	li	s6,1536
    800003f8:	000e0993          	mv	s3,t3
    800003fc:	f5f00e93          	li	t4,-161
    80000400:	41b786b3          	sub	a3,a5,s11
    80000404:	034421b3          	mulhsu	gp,s0,s4
    80000408:	03692d33          	mulhsu	s10,s2,s6
    8000040c:	00098c13          	mv	s8,s3
    80000410:	28e12e23          	sw	a4,668(sp)
    80000414:	bdc4a023          	sw	t3,-1088(s1)
    80000418:	90da80a3          	sb	a3,-1791(s5)
    8000041c:	0f800893          	li	a7,248
    80000420:	00631fbb          	sllw	t6,t1,t1
    80000424:	bdb00613          	li	a2,-1061
    80000428:	40450233          	sub	tp,a0,tp
    8000042c:	11888b93          	addi	s7,a7,280
    80000430:	d71bc2e3          	blt	s7,a7,80000194 <crash_backward>
    80000434:	02af05bb          	mulw	a1,t5,a0
    80000438:	6a034e03          	lbu	t3,1696(t1)
    8000043c:	00ce93b3          	sll	t2,t4,a2
    80000440:	86900713          	li	a4,-1943
    80000444:	85d00793          	li	a5,-1955
    80000448:	03081433          	mulh	s0,a6,a6
    8000044c:	00002117          	auipc	sp,0x2
    80000450:	62810113          	addi	sp,sp,1576 # 80002a74 <_end+0x464>
    80000454:	9ec00e93          	li	t4,-1556
    80000458:	00100813          	li	a6,1
    8000045c:	03ded1bb          	divuw	gp,t4,t4
    80000460:	027139b3          	mulhu	s3,sp,t2
    80000464:	01485f9b          	srliw	t6,a6,0x14
    80000468:	1f200193          	li	gp,498
    8000046c:	03f81813          	slli	a6,a6,0x3f
    80000470:	74500293          	li	t0,1861
    80000474:	037bbfb3          	mulhu	t6,s7,s7
    80000478:	98a13223          	sd	a0,-1660(sp)
    8000047c:	fff00593          	li	a1,-1
    80000480:	0105c5b3          	xor	a1,a1,a6
    80000484:	24a00b93          	li	s7,586
    80000488:	00bff8b3          	and	a7,t6,a1
    8000048c:	0108e333          	or	t1,a7,a6
    80000490:	2bd00993          	li	s3,701
    80000494:	00001a17          	auipc	s4,0x1
    80000498:	7fea0a13          	addi	s4,s4,2046 # 80001c92 <fromhost+0xc52>
    8000049c:	2bb00d93          	li	s11,699
    800004a0:	c3000213          	li	tp,-976
    800004a4:	00002c97          	auipc	s9,0x2
    800004a8:	44ac8c93          	addi	s9,s9,1098 # 800028ee <_end+0x2de>
    800004ac:	0ab00493          	li	s1,171
    800004b0:	9e600c13          	li	s8,-1562
    800004b4:	b8620093          	addi	ra,tp,-1146 # fffffffffffffb86 <__global_pointer$+0xffffffff7fffcd76>
    800004b8:	3d518e93          	addi	t4,gp,981 # 800031e5 <__global_pointer$+0x3d5>
    800004bc:	035a9fb3          	mulh	t6,s5,s5
    800004c0:	009b9d33          	sll	s10,s7,s1
    800004c4:	418c0b33          	sub	s6,s8,s8
    800004c8:	cdd1f6e3          	bgeu	gp,t4,80000194 <crash_backward>
    800004cc:	02f783bb          	mulw	t2,a5,a5
    800004d0:	65b98413          	addi	s0,s3,1627
    800004d4:	40700913          	li	s2,1031
    800004d8:	0182ef33          	or	t5,t0,s8
    800004dc:	48400693          	li	a3,1156
    800004e0:	782a6603          	lwu	a2,1922(s4)
    800004e4:	00002a97          	auipc	s5,0x2
    800004e8:	6c7a8a93          	addi	s5,s5,1735 # 80002bab <_end+0x59b>
    800004ec:	02d93e33          	mulhu	t3,s2,a3
    800004f0:	87fab6a3          	sd	t6,-1939(s5)
    800004f4:	01b73533          	sltu	a0,a4,s11
    800004f8:	b2dc8423          	sb	a3,-1240(s9)
    800004fc:	00a22ab3          	slt	s5,tp,a0
    80000500:	031b88b3          	mul	a7,s7,a7
    80000504:	16900693          	li	a3,361
    80000508:	69100193          	li	gp,1681
    8000050c:	c8600a13          	li	s4,-890
    80000510:	bac00713          	li	a4,-1108
    80000514:	b7100d13          	li	s10,-1167
    80000518:	026afdb3          	remu	s11,s5,t1
    8000051c:	1b668493          	addi	s1,a3,438
    80000520:	83500e13          	li	t3,-1995
    80000524:	20718093          	addi	ra,gp,519 # 80003017 <__global_pointer$+0x207>
    80000528:	c07d0c93          	addi	s9,s10,-1017
    8000052c:	63900113          	li	sp,1593
    80000530:	034a733b          	remuw	t1,s4,s4
    80000534:	21700b13          	li	s6,535
    80000538:	01c63533          	sltu	a0,a2,t3
    8000053c:	01f757bb          	srlw	a5,a4,t6
    80000540:	01080c3b          	addw	s8,a6,a6
    80000544:	00002917          	auipc	s2,0x2
    80000548:	23690913          	addi	s2,s2,566 # 8000277a <_end+0x16a>
    8000054c:	eea00793          	li	a5,-278
    80000550:	00100593          	li	a1,1
    80000554:	00002a97          	auipc	s5,0x2
    80000558:	599a8a93          	addi	s5,s5,1433 # 80002aed <_end+0x4dd>
    8000055c:	03f59593          	slli	a1,a1,0x3f
    80000560:	d8f908a3          	sb	a5,-623(s2)
    80000564:	02190ebb          	mulw	t4,s2,ra
    80000568:	02e713b3          	mulh	t2,a4,a4
    8000056c:	01616bb3          	or	s7,sp,s6
    80000570:	4ea00513          	li	a0,1258
    80000574:	007b933b          	sllw	t1,s7,t2
    80000578:	02798433          	mul	s0,s3,t2
    8000057c:	00002897          	auipc	a7,0x2
    80000580:	c9088893          	addi	a7,a7,-880 # 8000220c <test_memory+0xc>
    80000584:	00a79c3b          	sllw	s8,a5,a0
    80000588:	00f79a33          	sll	s4,a5,a5
    8000058c:	fff00f93          	li	t6,-1
    80000590:	c011d2e3          	bge	gp,ra,80000194 <crash_backward>
    80000594:	3638a823          	sw	gp,880(a7)
    80000598:	be001ee3          	bnez	zero,80000194 <crash_backward>
    8000059c:	39ef6e63          	bltu	t5,t5,80000938 <crash_forward>
    800005a0:	00100913          	li	s2,1
    800005a4:	00001497          	auipc	s1,0x1
    800005a8:	5b548493          	addi	s1,s1,1461 # 80001b59 <fromhost+0xb19>
    800005ac:	a8bae203          	lwu	tp,-1397(s5)
    800005b0:	00bfcfb3          	xor	t6,t6,a1
    800005b4:	21400793          	li	a5,532
    800005b8:	40f783bb          	subw	t2,a5,a5
    800005bc:	03daf43b          	remuw	s0,s5,t4
    800005c0:	01f47633          	and	a2,s0,t6
    800005c4:	9c100413          	li	s0,-1599
    800005c8:	01ce1833          	sll	a6,t3,t3
    800005cc:	022ed193          	srli	gp,t4,0x22
    800005d0:	00000893          	li	a7,0
    800005d4:	00002317          	auipc	t1,0x2
    800005d8:	a0830313          	addi	t1,t1,-1528 # 80001fdc <fromhost+0xf9c>
    800005dc:	72600293          	li	t0,1830
    800005e0:	000a8513          	mv	a0,s5
    800005e4:	0263573b          	divuw	a4,t1,t1
    800005e8:	02c237b3          	mulhu	a5,tp,a2
    800005ec:	00050b13          	mv	s6,a0
    800005f0:	00002697          	auipc	a3,0x2
    800005f4:	18968693          	addi	a3,a3,393 # 80002779 <_end+0x169>
    800005f8:	408403bb          	subw	t2,s0,s0
    800005fc:	03f91913          	slli	s2,s2,0x3f
    80000600:	b8e74ae3          	blt	a4,a4,80000194 <crash_backward>
    80000604:	00b669b3          	or	s3,a2,a1
    80000608:	00a570b3          	and	ra,a0,a0
    8000060c:	b93604e3          	beq	a2,s3,80000194 <crash_backward>
    80000610:	03b58bbb          	mulw	s7,a1,s11
    80000614:	fff00c93          	li	s9,-1
    80000618:	33651063          	bne	a0,s6,80000938 <crash_forward>
    8000061c:	012cccb3          	xor	s9,s9,s2
    80000620:	cb968fa3          	sb	s9,-833(a3)
    80000624:	7ed28f13          	addi	t5,t0,2029
    80000628:	fc100593          	li	a1,-63
    8000062c:	00000a93          	li	s5,0
    80000630:	f4200413          	li	s0,-190
    80000634:	4111d81b          	sraiw	a6,gp,0x11
    80000638:	01571d9b          	slliw	s11,a4,0x15
    8000063c:	019f7d33          	and	s10,t5,s9
    80000640:	0285cbbb          	divw	s7,a1,s0
    80000644:	9dc00d93          	li	s11,-1572
    80000648:	e1700393          	li	t2,-489
    8000064c:	c80d8293          	addi	t0,s11,-896
    80000650:	00100813          	li	a6,1
    80000654:	03295533          	divu	a0,s2,s2
    80000658:	2e5dc063          	blt	s11,t0,80000938 <crash_forward>
    8000065c:	99e00613          	li	a2,-1634
    80000660:	036b7b33          	remu	s6,s6,s6
    80000664:	42800193          	li	gp,1064
    80000668:	7e818693          	addi	a3,gp,2024 # 800035f8 <__global_pointer$+0x7e8>
    8000066c:	14500213          	li	tp,325
    80000670:	00c66fb3          	or	t6,a2,a2
    80000674:	04600793          	li	a5,70
    80000678:	40aedabb          	sraw	s5,t4,a0
    8000067c:	00e75533          	srl	a0,a4,a4
    80000680:	03f81813          	slli	a6,a6,0x3f
    80000684:	70a00993          	li	s3,1802
    80000688:	00002097          	auipc	ra,0x2
    8000068c:	27b08093          	addi	ra,ra,635 # 80002903 <_end+0x2f3>
    80000690:	00002d97          	auipc	s11,0x2
    80000694:	17fd8d93          	addi	s11,s11,383 # 8000280f <_end+0x1ff>
    80000698:	fff00f13          	li	t5,-1
    8000069c:	02f2673b          	remw	a4,tp,a5
    800006a0:	ae36eae3          	bltu	a3,gp,80000194 <crash_backward>
    800006a4:	c240a8a3          	sw	tp,-975(ra)
    800006a8:	7024ca03          	lbu	s4,1794(s1)
    800006ac:	41338e3b          	subw	t3,t2,s3
    800006b0:	41bd84bb          	subw	s1,s11,s11
    800006b4:	0175b6b3          	sltu	a3,a1,s7
    800006b8:	03ad59b3          	divu	s3,s10,s10
    800006bc:	01129733          	sll	a4,t0,a7
    800006c0:	aad00893          	li	a7,-1363
    800006c4:	00002117          	auipc	sp,0x2
    800006c8:	29c10113          	addi	sp,sp,668 # 80002960 <_end+0x350>
    800006cc:	00100e13          	li	t3,1
    800006d0:	4dc31c03          	lh	s8,1244(t1)
    800006d4:	00000613          	li	a2,0
    800006d8:	a5200093          	li	ra,-1454
    800006dc:	ebe00a93          	li	s5,-322
    800006e0:	00060f93          	mv	t6,a2
    800006e4:	0010d7b3          	srl	a5,ra,ra
    800006e8:	010f4f33          	xor	t5,t5,a6
    800006ec:	00100093          	li	ra,1
    800006f0:	0c000b13          	li	s6,192
    800006f4:	c21de283          	lwu	t0,-991(s11)
    800006f8:	01e2f433          	and	s0,t0,t5
    800006fc:	46900493          	li	s1,1129
    80000700:	01ef06b3          	add	a3,t5,t5
    80000704:	42b73513          	sltiu	a0,a4,1067
    80000708:	03fe1e13          	slli	t3,t3,0x3f
    8000070c:	fff00193          	li	gp,-1
    80000710:	b4711d23          	sh	t2,-1190(sp)
    80000714:	03f09093          	slli	ra,ra,0x3f
    80000718:	4168d5b3          	sra	a1,a7,s6
    8000071c:	012d6eb3          	or	t4,s10,s2
    80000720:	fff00793          	li	a5,-1
    80000724:	01c1c1b3          	xor	gp,gp,t3
    80000728:	01046bb3          	or	s7,s0,a6
    8000072c:	009ae233          	or	tp,s5,s1
    80000730:	00387a33          	and	s4,a6,gp
    80000734:	01c0e3b3          	or	t2,ra,t3
    80000738:	a5f64ee3          	blt	a2,t6,80000194 <crash_backward>
    8000073c:	a5747ce3          	bgeu	s0,s7,80000194 <crash_backward>
    80000740:	0017c7b3          	xor	a5,a5,ra
    80000744:	00f9f9b3          	and	s3,s3,a5
    80000748:	212e9637          	lui	a2,0x212e9
    8000074c:	1cb00c13          	li	s8,459
    80000750:	003196b3          	sll	a3,gp,gp
    80000754:	000aadb3          	sltz	s11,s5
    80000758:	002b98b3          	sll	a7,s7,sp
    8000075c:	03c6a5b3          	mulhsu	a1,a3,t3
    80000760:	fb200d13          	li	s10,-78
    80000764:	418c0ab3          	sub	s5,s8,s8
    80000768:	59c00e13          	li	t3,1436
    8000076c:	03cd4b33          	div	s6,s10,t3
    80000770:	001584b3          	add	s1,a1,ra
    80000774:	01ac08bb          	addw	a7,s8,s10
    80000778:	000b8f93          	mv	t6,s7
    8000077c:	00002817          	auipc	a6,0x2
    80000780:	24780813          	addi	a6,a6,583 # 800029c3 <_end+0x3b3>
    80000784:	fa700e13          	li	t3,-89
    80000788:	031641bb          	divw	gp,a2,a7
    8000078c:	007f52b3          	srl	t0,t5,t2
    80000790:	a7781f03          	lh	t5,-1417(a6)
    80000794:	00b59cb3          	sll	s9,a1,a1
    80000798:	00100693          	li	a3,1
    8000079c:	0019e733          	or	a4,s3,ra
    800007a0:	00001933          	sll	s2,zero,zero
    800007a4:	00002517          	auipc	a0,0x2
    800007a8:	b9e50513          	addi	a0,a0,-1122 # 80002342 <test_memory+0x142>
    800007ac:	34100393          	li	t2,833
    800007b0:	00000e93          	li	t4,0
    800007b4:	03f69693          	slli	a3,a3,0x3f
    800007b8:	000f8113          	mv	sp,t6
    800007bc:	000d0b13          	mv	s6,s10
    800007c0:	000b0593          	mv	a1,s6
    800007c4:	03077ab3          	remu	s5,a4,a6
    800007c8:	162fc863          	blt	t6,sp,80000938 <crash_forward>
    800007cc:	22950e23          	sb	s1,572(a0)
    800007d0:	61400d93          	li	s11,1556
    800007d4:	fff00613          	li	a2,-1
    800007d8:	4e000413          	li	s0,1248
    800007dc:	9f300f93          	li	t6,-1549
    800007e0:	9b8c4ae3          	blt	s8,s8,80000194 <crash_backward>
    800007e4:	9971c193          	xori	gp,gp,-1641
    800007e8:	48000a13          	li	s4,1152
    800007ec:	03447bbb          	remuw	s7,s0,s4
    800007f0:	01be1d3b          	sllw	s10,t3,s11
    800007f4:	00d64633          	xor	a2,a2,a3
    800007f8:	00a579b3          	and	s3,a0,a0
    800007fc:	02007533          	remu	a0,zero,zero
    80000800:	bda00f13          	li	t5,-1062
    80000804:	8abf8893          	addi	a7,t6,-1877
    80000808:	a6a00193          	li	gp,-1430
    8000080c:	f2c00b93          	li	s7,-212
    80000810:	ac000413          	li	s0,-1344
    80000814:	01ef52bb          	srlw	t0,t5,t5
    80000818:	f3b00a93          	li	s5,-197
    8000081c:	00c07c33          	and	s8,zero,a2
    80000820:	008b8cb3          	add	s9,s7,s0
    80000824:	9a800993          	li	s3,-1624
    80000828:	58c00093          	li	ra,1420
    8000082c:	46838313          	addi	t1,t2,1128
    80000830:	015ad13b          	srlw	sp,s5,s5
    80000834:	ff500d13          	li	s10,-11
    80000838:	007395b3          	sll	a1,t2,t2
    8000083c:	02c66e33          	rem	t3,a2,a2
    80000840:	03a9cdb3          	div	s11,s3,s10
    80000844:	00d364b3          	or	s1,t1,a3
    80000848:	0231fb33          	remu	s6,gp,gp
    8000084c:	fa300913          	li	s2,-93
    80000850:	00000213          	li	tp,0
    80000854:	aa890793          	addi	a5,s2,-1368
    80000858:	0010f733          	and	a4,ra,ra
    8000085c:	1a000693          	li	a3,416
    80000860:	0252ea3b          	remw	s4,t0,t0
    80000864:	431e5b93          	srai	s7,t3,0x31
    80000868:	5df00f13          	li	t5,1503
    8000086c:	00001d17          	auipc	s10,0x1
    80000870:	6b8d0d13          	addi	s10,s10,1720 # 80001f24 <fromhost+0xee4>
    80000874:	017097bb          	sllw	a5,ra,s7
    80000878:	00702133          	sgtz	sp,t2
    8000087c:	00001597          	auipc	a1,0x1
    80000880:	70858593          	addi	a1,a1,1800 # 80001f84 <fromhost+0xf44>
    80000884:	417b09bb          	subw	s3,s6,s7
    80000888:	41ef52b3          	sra	t0,t5,t5
    8000088c:	2bf5a223          	sw	t6,676(a1)
    80000890:	036b523b          	divuw	tp,s6,s6
    80000894:	411b593b          	sraw	s2,s6,a7
    80000898:	0063043b          	addw	s0,t1,t1
    8000089c:	30ad0c83          	lb	s9,778(s10)
    800008a0:	e1b00193          	li	gp,-485
    800008a4:	0236ce33          	div	t3,a3,gp
    800008a8:	0040006f          	j	800008ac <reg_dump>

00000000800008ac <reg_dump>:
    800008ac:	00002097          	auipc	ra,0x2
    800008b0:	d5408093          	addi	ra,ra,-684 # 80002600 <loop_count>
    800008b4:	0000a103          	lw	sp,0(ra)
    800008b8:	fff10193          	addi	gp,sp,-1
    800008bc:	0030a023          	sw	gp,0(ra)
    800008c0:	96011ee3          	bnez	sp,8000023c <pseg_0>
    800008c4:	00002097          	auipc	ra,0x2
    800008c8:	83c08093          	addi	ra,ra,-1988 # 80002100 <begin_signature>
    800008cc:	0000b023          	sd	zero,0(ra)
    800008d0:	0020b823          	sd	sp,16(ra)
    800008d4:	0030bc23          	sd	gp,24(ra)
    800008d8:	0240b023          	sd	tp,32(ra)
    800008dc:	0250b423          	sd	t0,40(ra)
    800008e0:	0260b823          	sd	t1,48(ra)
    800008e4:	0270bc23          	sd	t2,56(ra)
    800008e8:	0480b023          	sd	s0,64(ra)
    800008ec:	0490b423          	sd	s1,72(ra)
    800008f0:	06c0b023          	sd	a2,96(ra)
    800008f4:	06d0b423          	sd	a3,104(ra)
    800008f8:	06e0b823          	sd	a4,112(ra)
    800008fc:	06f0bc23          	sd	a5,120(ra)
    80000900:	0910b423          	sd	a7,136(ra)
    80000904:	0920b823          	sd	s2,144(ra)
    80000908:	0930bc23          	sd	s3,152(ra)
    8000090c:	0b40b023          	sd	s4,160(ra)
    80000910:	0b50b423          	sd	s5,168(ra)
    80000914:	0b70bc23          	sd	s7,184(ra)
    80000918:	0d80b023          	sd	s8,192(ra)
    8000091c:	0d90b423          	sd	s9,200(ra)
    80000920:	0db0bc23          	sd	s11,216(ra)
    80000924:	0fc0b023          	sd	t3,224(ra)
    80000928:	0fd0b423          	sd	t4,232(ra)
    8000092c:	0fe0b823          	sd	t5,240(ra)
    80000930:	0ff0bc23          	sd	t6,248(ra)
    80000934:	0200006f          	j	80000954 <test_end>

0000000080000938 <crash_forward>:
    80000938:	0ff0000f          	fence
    8000093c:	00018063          	beqz	gp,8000093c <crash_forward+0x4>
    80000940:	00119193          	slli	gp,gp,0x1
    80000944:	0011e193          	ori	gp,gp,1
    80000948:	05d00893          	li	a7,93
    8000094c:	00018513          	mv	a0,gp
    80000950:	00000073          	ecall

0000000080000954 <test_end>:
    80000954:	0ff0000f          	fence
    80000958:	00100193          	li	gp,1
    8000095c:	05d00893          	li	a7,93
    80000960:	00000513          	li	a0,0
    80000964:	00000073          	ecall
    80000968:	c0001073          	unimp
	...

Disassembly of section .tohost:

0000000080001000 <tohost>:
	...

0000000080001040 <fromhost>:
	...

Disassembly of section .data:

0000000080002000 <hidden_data>:
    80002000:	0001                	nop
    80002002:	8000                	0x8000
    80002004:	ffff                	0xffff
    80002006:	ffff                	0xffff

0000000080002008 <reg_x1_init>:
	...

0000000080002010 <reg_x2_init>:
    80002010:	0004                	0x4
    80002012:	0000                	unimp
    80002014:	0000                	unimp
    80002016:	0800                	addi	s0,sp,16

0000000080002018 <reg_x3_init>:
    80002018:	3886                	fld	fa7,96(sp)
    8000201a:	4aa9                	li	s5,10
    8000201c:	56f4                	lw	a3,108(a3)
    8000201e:	  	0xffffffff80058fbf

0000000080002020 <reg_x4_init>:
    80002020:	8005                	srli	s0,s0,0x1
    80002022:	ffff                	0xffff
    80002024:	ffff                	0xffff
    80002026:	ffff                	0xffff

0000000080002028 <reg_x5_init>:
    80002028:	8008                	0x8008
    8000202a:	ffff                	0xffff
    8000202c:	ffff                	0xffff
    8000202e:	ffff                	0xffff

0000000080002030 <reg_x6_init>:
    80002030:	0008                	0x8
    80002032:	0000                	unimp
    80002034:	0000                	unimp
	...

0000000080002038 <reg_x7_init>:
    80002038:	ffff                	0xffff
    8000203a:	ffff                	0xffff
    8000203c:	ffff                	0xffff
    8000203e:	ffff                	0xffff

0000000080002040 <reg_x8_init>:
	...

0000000080002048 <reg_x9_init>:
    80002048:	dca6                	sw	s1,120(sp)
    8000204a:	f1e9                	bnez	a1,8000200c <reg_x1_init+0x4>
    8000204c:	2ed1                	addiw	t4,t4,20
    8000204e:	0c08                	addi	a0,sp,528

0000000080002050 <reg_x10_init>:
    80002050:	faf5                	bnez	a3,80002044 <reg_x8_init+0x4>
    80002052:	3264                	fld	fs1,224(a2)
    80002054:	ef98                	sd	a4,24(a5)
    80002056:	7022                	0x7022

0000000080002058 <reg_x11_init>:
    80002058:	ffff8003          	lb	zero,-1(t6)
    8000205c:	ffff                	0xffff
    8000205e:	ffff                	0xffff

0000000080002060 <reg_x12_init>:
    80002060:	9740                	0x9740
    80002062:	3230                	fld	fa2,96(a2)
    80002064:	3a10                	fld	fa2,48(a2)
    80002066:	5ed4                	lw	a3,60(a3)

0000000080002068 <reg_x13_init>:
    80002068:	ffff                	0xffff
    8000206a:	ffff                	0xffff
    8000206c:	ffff                	0xffff
    8000206e:	ffff                	0xffff

0000000080002070 <reg_x14_init>:
    80002070:	c922                	sw	s0,144(sp)
    80002072:	3348b3e3          	0x3348b3e3
    80002076:	82c8                	0x82c8

0000000080002078 <reg_x15_init>:
    80002078:	10cd                	addi	ra,ra,-13
    8000207a:	dfde                	sw	s7,252(sp)
    8000207c:	df31                	beqz	a4,80001fd8 <fromhost+0xf98>
    8000207e:	8028                	0x8028

0000000080002080 <reg_x16_init>:
    80002080:	ff85                	bnez	a5,80001fb8 <fromhost+0xf78>
    80002082:	ffff                	0xffff
    80002084:	ffff                	0xffff
    80002086:	ffff                	0xffff

0000000080002088 <reg_x17_init>:
    80002088:	f695                	bnez	a3,80001fb4 <fromhost+0xf74>
    8000208a:	9274                	0x9274
    8000208c:	eece                	sd	s3,344(sp)
    8000208e:	be20                	fsd	fs0,120(a2)

0000000080002090 <reg_x18_init>:
    80002090:	0004                	0x4
    80002092:	0000                	unimp
    80002094:	0000                	unimp
	...

0000000080002098 <reg_x19_init>:
    80002098:	d1f8                	sw	a4,100(a1)
    8000209a:	9191                	srli	a1,a1,0x24
    8000209c:	aa45188b          	0xaa45188b

00000000800020a0 <reg_x20_init>:
    800020a0:	ffff                	0xffff
    800020a2:	ffff                	0xffff
    800020a4:	ffff                	0xffff
    800020a6:	ffff                	0xffff

00000000800020a8 <reg_x21_init>:
    800020a8:	0006                	c.slli	zero,0x1
    800020aa:	0000                	unimp
    800020ac:	0000                	unimp
    800020ae:	0800                	addi	s0,sp,16

00000000800020b0 <reg_x22_init>:
	...

00000000800020b8 <reg_x23_init>:
    800020b8:	ffff                	0xffff
    800020ba:	ffff                	0xffff
    800020bc:	ffff                	0xffff
    800020be:	ffff                	0xffff

00000000800020c0 <reg_x24_init>:
    800020c0:	4c5c                	lw	a5,28(s0)
    800020c2:	fa58                	sd	a4,176(a2)
    800020c4:	888d                	andi	s1,s1,3
    800020c6:	          	fmadd.q	ft11,ft7,fs8,ft11,unknown

00000000800020c8 <reg_x25_init>:
    800020c8:	ffffff83          	0xffffff83
    800020cc:	ffff                	0xffff
    800020ce:	ffff                	0xffff

00000000800020d0 <reg_x26_init>:
    800020d0:	4844                	lw	s1,20(s0)
    800020d2:	c8c2                	sw	a6,80(sp)
    800020d4:	7736                	ld	a4,360(sp)
    800020d6:	43d9                	li	t2,22

00000000800020d8 <reg_x27_init>:
    800020d8:	0005                	c.nop	1
    800020da:	0000                	unimp
    800020dc:	0000                	unimp
    800020de:	0800                	addi	s0,sp,16

00000000800020e0 <reg_x28_init>:
	...

00000000800020e8 <reg_x29_init>:
    800020e8:	4e85                	li	t4,1
    800020ea:	5044                	lw	s1,36(s0)
    800020ec:	bd8d                	j	80001f5e <fromhost+0xf1e>
    800020ee:	0901                	addi	s2,s2,0

00000000800020f0 <reg_x30_init>:
    800020f0:	13e9a0a7          	fsw	ft10,289(s3)
    800020f4:	85a85d8f          	0x85a85d8f

00000000800020f8 <reg_x31_init>:
	...

0000000080002100 <begin_signature>:
    80002100:	dc09c227          	fsq	ft0,-572(s3)
    80002104:	e550                	sd	a2,136(a0)
    80002106:	6fba                	ld	t6,392(sp)

0000000080002108 <reg_x1_output>:
    80002108:	ea44                	sd	s1,144(a2)
    8000210a:	defc                	sw	a5,124(a3)
    8000210c:	ab7c                	fsd	fa5,208(a4)
    8000210e:	a9da                	fsd	fs6,208(sp)

0000000080002110 <reg_x2_output>:
    80002110:	fd30                	sd	a2,120(a0)
    80002112:	fa42                	sd	a6,304(sp)
    80002114:	285f aa91       	0xa984aa91285f

0000000080002118 <reg_x3_output>:
    80002118:	a984                	fsd	fs1,16(a1)
    8000211a:	40f1                	li	ra,28
    8000211c:	dcff                	0xdcff
    8000211e:	2899                	addiw	a7,a7,6

0000000080002120 <reg_x4_output>:
    80002120:	1d2e21af          	sc.w.aq	gp,s2,(t3)
    80002124:	5ae5                	li	s5,-7
    80002126:	eda2                	sd	s0,216(sp)

0000000080002128 <reg_x5_output>:
    80002128:	b15d                	j	80001dce <fromhost+0xd8e>
    8000212a:	9178                	0x9178
    8000212c:	b570                	fsd	fa2,232(a0)
    8000212e:	          	fnmsub.d	ft7,ft3,fs2,fs8,unknown

0000000080002130 <reg_x6_output>:
    80002130:	c321                	beqz	a4,80002170 <reg_x14_output>
    80002132:	8f0e                	mv	t5,gp
    80002134:	f87e                	sd	t6,48(sp)
    80002136:	2b6a                	fld	fs6,152(sp)

0000000080002138 <reg_x7_output>:
    80002138:	13c3f7b7          	lui	a5,0x13c3f
    8000213c:	9de5                	0x9de5
    8000213e:	9138                	0x9138

0000000080002140 <reg_x8_output>:
    80002140:	1a414563          	blt	sp,tp,800022ea <test_memory+0xea>
    80002144:	5d56                	lw	s10,116(sp)
    80002146:	175a                	slli	a4,a4,0x36

0000000080002148 <reg_x9_output>:
    80002148:	8d38                	0x8d38
    8000214a:	414e                	lw	sp,208(sp)
    8000214c:	7ea4                	ld	s1,120(a3)
    8000214e:	4fe4                	lw	s1,92(a5)

0000000080002150 <reg_x10_output>:
    80002150:	7d44                	ld	s1,184(a0)
    80002152:	28e1                	addiw	a7,a7,24
    80002154:	1c82                	slli	s9,s9,0x20
    80002156:	          	0x41faf1d7

0000000080002158 <reg_x11_output>:
    80002158:	41fa                	lw	gp,156(sp)
    8000215a:	8efa                	mv	t4,t5
    8000215c:	162d                	addi	a2,a2,-21
    8000215e:	96b6                	add	a3,a3,a3

0000000080002160 <reg_x12_output>:
    80002160:	4655                	li	a2,21
    80002162:	19e2                	slli	s3,s3,0x38
    80002164:	d8ad                	beqz	s1,800020d6 <reg_x26_init+0x6>
    80002166:	          	fmsub.s	fa1,fs10,fs7,fa2,rne

0000000080002168 <reg_x13_output>:
    80002168:	617d                	addi	sp,sp,496
    8000216a:	7f16                	ld	t5,352(sp)
    8000216c:	3c7f                	0x3c7f
    8000216e:	e78e                	sd	gp,456(sp)

0000000080002170 <reg_x14_output>:
    80002170:	2202                	fld	ft4,0(sp)
    80002172:	f4a8                	sd	a0,104(s1)
    80002174:	82f5                	srli	a3,a3,0x1d
    80002176:	3f3e                	fld	ft10,488(sp)

0000000080002178 <reg_x15_output>:
    80002178:	b9df 0d81 9694      	0x96940d81b9df
    8000217e:	2179                	addiw	sp,sp,30

0000000080002180 <reg_x16_output>:
    80002180:	33e5                	addiw	t2,t2,-7
    80002182:	5ac6                	lw	s5,112(sp)
    80002184:	2418                	fld	fa4,8(s0)
    80002186:	845e                	mv	s0,s7

0000000080002188 <reg_x17_output>:
    80002188:	624a                	ld	tp,144(sp)
    8000218a:	e789                	bnez	a5,80002194 <reg_x18_output+0x4>
    8000218c:	ae4b7e2b          	0xae4b7e2b

0000000080002190 <reg_x18_output>:
    80002190:	2f59                	addiw	t5,t5,22
    80002192:	219e                	fld	ft3,448(sp)
    80002194:	307193cb          	fnmsub.s	ft7,ft3,ft7,ft6,rtz

0000000080002198 <reg_x19_output>:
    80002198:	f4ac                	sd	a1,104(s1)
    8000219a:	d548                	sw	a0,44(a0)
    8000219c:	21d2                	fld	ft3,272(sp)
    8000219e:	f799                	bnez	a5,800020ac <reg_x21_init+0x4>

00000000800021a0 <reg_x20_output>:
    800021a0:	0a4e                	slli	s4,s4,0x13
    800021a2:	8099                	srli	s1,s1,0x6
    800021a4:	c269                	beqz	a2,80002266 <test_memory+0x66>
    800021a6:	          	0x2eadafab

00000000800021a8 <reg_x21_output>:
    800021a8:	2ead                	addiw	t4,t4,11
    800021aa:	0568                	addi	a0,sp,652
    800021ac:	b8f8211b          	0xb8f8211b

00000000800021b0 <reg_x22_output>:
    800021b0:	895c                	0x895c
    800021b2:	78d575b7          	lui	a1,0x78d57
    800021b6:	1670                	addi	a2,sp,812

00000000800021b8 <reg_x23_output>:
    800021b8:	2dde                	fld	fs11,464(sp)
    800021ba:	895d                	andi	a0,a0,23
    800021bc:	29d4292b          	0x29d4292b

00000000800021c0 <reg_x24_output>:
    800021c0:	f919                	bnez	a0,800020d6 <reg_x26_init+0x6>
    800021c2:	7696                	ld	a3,352(sp)
    800021c4:	b298                	fsd	fa4,32(a3)
    800021c6:	238e                	fld	ft7,192(sp)

00000000800021c8 <reg_x25_output>:
    800021c8:	bb2d                	j	80001f02 <fromhost+0xec2>
    800021ca:	af19                	j	800028e0 <_end+0x2d0>
    800021cc:	557e                	lw	a0,252(sp)
    800021ce:	          	blt	t5,a0,80001466 <fromhost+0x426>

00000000800021d0 <reg_x26_output>:
    800021d0:	d8f7a8af          	0xd8f7a8af
    800021d4:	47c3f64b          	fnmsub.q	fa2,ft7,ft8,fs0

00000000800021d8 <reg_x27_output>:
    800021d8:	59a1                	li	s3,-24
    800021da:	287d                	addiw	a6,a6,31
    800021dc:	58e6                	lw	a7,120(sp)
    800021de:	9979                	andi	a0,a0,-2

00000000800021e0 <reg_x28_output>:
    800021e0:	f9a8                	sd	a0,112(a1)
    800021e2:	503c8897          	auipc	a7,0x503c8
    800021e6:	9072                	c.add	zero,t3

00000000800021e8 <reg_x29_output>:
    800021e8:	0c42                	slli	s8,s8,0x10
    800021ea:	304d                	0x304d
    800021ec:	ae75b2cf          	fnmadd.q	ft5,fa1,ft7,fs5,rup

00000000800021f0 <reg_x30_output>:
    800021f0:	aa10190b          	0xaa10190b
    800021f4:	15e8d34b          	0x15e8d34b

00000000800021f8 <reg_x31_output>:
    800021f8:	0758                	addi	a4,sp,900
    800021fa:	630d                	lui	t1,0x3
    800021fc:	74c8                	ld	a0,168(s1)
    800021fe:	0389                	addi	t2,t2,2

0000000080002200 <test_memory>:
    80002200:	b5ad                	j	8000206a <reg_x13_init+0x2>
    80002202:	c4171087          	0xc4171087
    80002206:	5938                	lw	a4,112(a0)
    80002208:	c0d8                	sw	a4,4(s1)
    8000220a:	5c448f27          	0x5c448f27
    8000220e:	3955                	addiw	s2,s2,-11
    80002210:	47c0                	lw	s0,12(a5)
    80002212:	dfe0                	sw	s0,124(a5)
    80002214:	d255                	beqz	a2,800021b8 <reg_x23_output>
    80002216:	141bc08f          	0x141bc08f
    8000221a:	c691                	beqz	a3,80002226 <test_memory+0x26>
    8000221c:	44a0                	lw	s0,72(s1)
    8000221e:	75a9                	lui	a1,0xfffea
    80002220:	1b83bdaf          	sc.d.rl	s11,s8,(t2)
    80002224:	0488                	addi	a0,sp,576
    80002226:	adb2                	fsd	fa2,216(sp)
    80002228:	6cd1                	lui	s9,0x14
    8000222a:	3561e3cb          	0x3561e3cb
    8000222e:	0c3a                	slli	s8,s8,0xe
    80002230:	a22e                	fsd	fa1,256(sp)
    80002232:	14b0                	addi	a2,sp,616
    80002234:	39ce                	fld	fs3,240(sp)
    80002236:	f6b4                	sd	a3,104(a3)
    80002238:	2d34                	fld	fa3,88(a0)
    8000223a:	1820                	addi	s0,sp,56
    8000223c:	90c1                	srli	s1,s1,0x30
    8000223e:	51b4                	lw	a3,96(a1)
    80002240:	0f8c                	addi	a1,sp,976
    80002242:	d71a                	sw	t1,172(sp)
    80002244:	6614                	ld	a3,8(a2)
    80002246:	6fc2                	ld	t6,16(sp)
    80002248:	c380                	sw	s0,0(a5)
    8000224a:	2668083b          	0x2668083b
    8000224e:	b9e4                	fsd	fs1,240(a1)
    80002250:	9943044b          	fnmsub.s	fs0,ft6,fs4,fs3,rne
    80002254:	ec7a                	sd	t5,24(sp)
    80002256:	b3ca                	fsd	fs2,480(sp)
    80002258:	22a1                	addiw	t0,t0,8
    8000225a:	3a71                	addiw	s4,s4,-4
    8000225c:	2e7d                	addiw	t3,t3,31
    8000225e:	0d04                	addi	s1,sp,656
    80002260:	ecf2                	sd	t3,88(sp)
    80002262:	6c61                	lui	s8,0x18
    80002264:	139abbeb          	0x139abbeb
    80002268:	922e                	add	tp,tp,a1
    8000226a:	70deddef          	jal	s11,800f0176 <__global_pointer$+0xed366>
    8000226e:	a0e5                	j	80002356 <test_memory+0x156>
    80002270:	7720                	ld	s0,104(a4)
    80002272:	9712                	add	a4,a4,tp
    80002274:	1208                	addi	a0,sp,288
    80002276:	0d8c                	addi	a1,sp,720
    80002278:	0996                	slli	s3,s3,0x5
    8000227a:	2771                	addiw	a4,a4,28
    8000227c:	1cae                	slli	s9,s9,0x2b
    8000227e:	a8b9                	j	800022dc <test_memory+0xdc>
    80002280:	01e4                	addi	s1,sp,204
    80002282:	2be9                	addiw	s7,s7,26
    80002284:	0855                	addi	a6,a6,21
    80002286:	95a4                	0x95a4
    80002288:	8a98                	0x8a98
    8000228a:	0596                	slli	a1,a1,0x5
    8000228c:	1411                	addi	s0,s0,-28
    8000228e:	3f4c2e33          	0x3f4c2e33
    80002292:	1a5c                	addi	a5,sp,308
    80002294:	4f8a                	lw	t6,128(sp)
    80002296:	d519                	beqz	a0,800021a4 <reg_x20_output+0x4>
    80002298:	2ef8                	fld	fa4,216(a3)
    8000229a:	b031d88b          	0xb031d88b
    8000229e:	789e                	ld	a7,480(sp)
    800022a0:	92aedb3b          	0x92aedb3b
    800022a4:	bd46                	fsd	fa7,184(sp)
    800022a6:	9300                	0x9300
    800022a8:	2cdddd6f          	jal	s10,800dfd74 <__global_pointer$+0xdcf64>
    800022ac:	418d                	li	gp,3
    800022ae:	26ad                	addiw	a3,a3,11
    800022b0:	3b7f                	0x3b7f
    800022b2:	95cc                	0x95cc
    800022b4:	8ff0                	0x8ff0
    800022b6:	c482                	sw	zero,72(sp)
    800022b8:	d9e2                	sw	s8,240(sp)
    800022ba:	740c                	ld	a1,40(s0)
    800022bc:	d06a                	sw	s10,32(sp)
    800022be:	2e75                	addiw	t3,t3,29
    800022c0:	ad22                	fsd	fs0,152(sp)
    800022c2:	bda8                	fsd	fa0,120(a1)
    800022c4:	8cd5                	or	s1,s1,a3
    800022c6:	8bc5                	andi	a5,a5,17
    800022c8:	053da4d7          	0x53da4d7
    800022cc:	3891e1a7          	0x3891e1a7
    800022d0:	9300                	0x9300
    800022d2:	12e6                	slli	t0,t0,0x39
    800022d4:	5c96                	lw	s9,100(sp)
    800022d6:	de244feb          	0xde244feb
    800022da:	b94e                	fsd	fs3,176(sp)
    800022dc:	43ba                	lw	t2,140(sp)
    800022de:	699a47bb          	0x699a47bb
    800022e2:	c9be5687          	0xc9be5687
    800022e6:	1ee8584b          	fnmsub.q	fa6,fa6,fa4,ft3,unknown
    800022ea:	8e19                	sub	a2,a2,a4
    800022ec:	27f6                	fld	fa5,344(sp)
    800022ee:	b428820b          	0xb428820b
    800022f2:	cb88                	sw	a0,16(a5)
    800022f4:	c5b4                	sw	a3,72(a1)
    800022f6:	17d2                	slli	a5,a5,0x34
    800022f8:	708efebf ec3b0c0d 	0xec3b0c0d708efebf
    80002300:	26f4                	fld	fa3,200(a3)
    80002302:	e1ba                	sd	a4,192(sp)
    80002304:	57da                	lw	a5,180(sp)
    80002306:	b830e53f 37d59bbb 	0x37d59bbbb830e53f
    8000230e:	6e4c                	ld	a1,152(a2)
    80002310:	a2e5                	j	800024f8 <test_memory+0x2f8>
    80002312:	daee5a1b          	0xdaee5a1b
    80002316:	206a683f d34e96a3 	0xd34e96a3206a683f
    8000231e:	0402                	c.slli64	s0
    80002320:	d659                	beqz	a2,800022ae <test_memory+0xae>
    80002322:	9ae6                	add	s5,s5,s9
    80002324:	5c4a2caf          	0x5c4a2caf
    80002328:	e630                	sd	a2,72(a2)
    8000232a:	6bfc                	ld	a5,208(a5)
    8000232c:	d8e4                	sw	s1,116(s1)
    8000232e:	46ed                	li	a3,27
    80002330:	9738                	0x9738
    80002332:	0751                	addi	a4,a4,20
    80002334:	b3c6                	fsd	fa7,480(sp)
    80002336:	26d4                	fld	fa3,136(a3)
    80002338:	4c10                	lw	a2,24(s0)
    8000233a:	17f0                	addi	a2,sp,1004
    8000233c:	67f1                	lui	a5,0x1c
    8000233e:	cb85                	beqz	a5,8000236e <test_memory+0x16e>
    80002340:	4a45                	li	s4,17
    80002342:	5fe2ba53          	0x5fe2ba53
    80002346:	f97f                	0xf97f
    80002348:	d1da                	sw	s6,224(sp)
    8000234a:	a894                	fsd	fa3,16(s1)
    8000234c:	3b84                	fld	fs1,48(a5)
    8000234e:	1b7d                	addi	s6,s6,-1
    80002350:	fd88ebb7          	lui	s7,0xfd88e
    80002354:	0824                	addi	s1,sp,24
    80002356:	100a                	c.slli	zero,0x22
    80002358:	8150                	0x8150
    8000235a:	4968314f          	fnmadd.s	ft2,fa6,fs6,fs1,rup
    8000235e:	7501                	lui	a0,0xfffe0
    80002360:	8d08                	0x8d08
    80002362:	12f8                	addi	a4,sp,364
    80002364:	cbbe                	sw	a5,212(sp)
    80002366:	d21aefe7          	0xd21aefe7
    8000236a:	cd5e6e6b          	0xcd5e6e6b
    8000236e:	2d6e                	fld	fs10,216(sp)
    80002370:	5c0c                	lw	a1,56(s0)
    80002372:	532e                	lw	t1,232(sp)
    80002374:	2a1558d7          	0x2a1558d7
    80002378:	58fc                	lw	a5,116(s1)
    8000237a:	f8ca                	sd	s2,112(sp)
    8000237c:	44ac                	lw	a1,72(s1)
    8000237e:	767c                	ld	a5,232(a2)
    80002380:	8744                	0x8744
    80002382:	763a                	ld	a2,424(sp)
    80002384:	3db0                	fld	fa2,120(a1)
    80002386:	e9d2                	sd	s4,208(sp)
    80002388:	b64a                	fsd	fs2,296(sp)
    8000238a:	d06e                	sw	s11,32(sp)
    8000238c:	1ddc                	addi	a5,sp,756
    8000238e:	9373e2e7          	0x9373e2e7
    80002392:	eeb8                	sd	a4,88(a3)
    80002394:	a80a                	fsd	ft2,16(sp)
    80002396:	779ae23b          	0x779ae23b
    8000239a:	2359                	addiw	t1,t1,22
    8000239c:	20be                	fld	ft1,456(sp)
    8000239e:	fbe6                	sd	s9,496(sp)
    800023a0:	f672                	sd	t3,296(sp)
    800023a2:	2f7d                	addiw	t5,t5,31
    800023a4:	36ca                	fld	fa3,176(sp)
    800023a6:	e3c9                	bnez	a5,80002428 <test_memory+0x228>
    800023a8:	d3b1e0bb          	0xd3b1e0bb
    800023ac:	d2ae                	sw	a1,100(sp)
    800023ae:	0b405f0b          	0xb405f0b
    800023b2:	c1d74017          	auipc	zero,0xc1d74
    800023b6:	5f92                	lw	t6,36(sp)
    800023b8:	cfe6                	sw	s9,220(sp)
    800023ba:	d80e                	sw	gp,48(sp)
    800023bc:	95345b1b          	0x95345b1b
    800023c0:	b35d                	j	80002166 <reg_x12_output+0x6>
    800023c2:	3716                	fld	fa4,352(sp)
    800023c4:	5b503c43          	fmadd.d	fs8,ft0,fs5,fa1,rup
    800023c8:	11ed3133          	0x11ed3133
    800023cc:	ac48                	fsd	fa0,152(s0)
    800023ce:	42ce                	lw	t0,208(sp)
    800023d0:	acae3957          	0xacae3957
    800023d4:	14b0                	addi	a2,sp,616
    800023d6:	b54e3473          	csrrc	s0,0xb54,t3
    800023da:	4455                	li	s0,21
    800023dc:	f44c                	sd	a1,168(s0)
    800023de:	a088                	fsd	fa0,0(s1)
    800023e0:	48a4                	lw	s1,80(s1)
    800023e2:	7148                	ld	a0,160(a0)
    800023e4:	b7f5                	j	800023d0 <test_memory+0x1d0>
    800023e6:	0cca                	slli	s9,s9,0x12
    800023e8:	bf6a                	fsd	fs10,440(sp)
    800023ea:	069a                	slli	a3,a3,0x6
    800023ec:	9a5e                	add	s4,s4,s7
    800023ee:	c564                	sw	s1,76(a0)
    800023f0:	0eb2                	slli	t4,t4,0xc
    800023f2:	19f7543b          	0x19f7543b
    800023f6:	be1c                	fsd	fa5,56(a2)
    800023f8:	be74                	fsd	fa3,248(a2)
    800023fa:	b032                	fsd	fa2,32(sp)
    800023fc:	4c55                	li	s8,21
    800023fe:	20b6                	fld	ft1,328(sp)
    80002400:	d93c                	sw	a5,112(a0)
    80002402:	6b52                	ld	s6,272(sp)
    80002404:	68dd                	lui	a7,0x17
    80002406:	c62e                	sw	a1,12(sp)
    80002408:	658c                	ld	a1,8(a1)
    8000240a:	8a42                	mv	s4,a6
    8000240c:	e06d                	bnez	s0,800024ee <test_memory+0x2ee>
    8000240e:	47da                	lw	a5,148(sp)
    80002410:	c5df 8637 4e68      	0x4e688637c5df
    80002416:	304d                	0x304d
    80002418:	77b0                	ld	a2,104(a5)
    8000241a:	04ad                	addi	s1,s1,11
    8000241c:	0f49                	addi	t5,t5,18
    8000241e:	a8b2                	fsd	fa2,80(sp)
    80002420:	56ed                	li	a3,-5
    80002422:	8dc6                	mv	s11,a7
    80002424:	639d                	lui	t2,0x7
    80002426:	1aba2663          	0x1aba2663
    8000242a:	26bc                	fld	fa5,72(a3)
    8000242c:	4a36                	lw	s4,76(sp)
    8000242e:	c37c                	sw	a5,68(a4)
    80002430:	017f                	0x17f
    80002432:	d89c                	sw	a5,48(s1)
    80002434:	baa8                	fsd	fa0,112(a3)
    80002436:	80d5                	srli	s1,s1,0x15
    80002438:	e58c                	sd	a1,8(a1)
    8000243a:	11cd                	addi	gp,gp,-13
    8000243c:	31b5                	addiw	gp,gp,-19
    8000243e:	c4c9                	beqz	s1,800024c8 <test_memory+0x2c8>
    80002440:	08d0                	addi	a2,sp,84
    80002442:	a896                	fsd	ft5,80(sp)
    80002444:	a2fe                	fsd	ft11,320(sp)
    80002446:	1d887b73          	csrrci	s6,0x1d8,16
    8000244a:	7038be73          	csrrc	t3,0x703,a7
    8000244e:	f6f8                	sd	a4,232(a3)
    80002450:	3ac9                	addiw	s5,s5,-14
    80002452:	5212                	lw	tp,36(sp)
    80002454:	0bc2                	slli	s7,s7,0x10
    80002456:	255c                	fld	fa5,136(a0)
    80002458:	d746                	sw	a7,172(sp)
    8000245a:	fd2f64d7          	0xfd2f64d7
    8000245e:	d2a6                	sw	s1,100(sp)
    80002460:	12a661d7          	0x12a661d7
    80002464:	2868                	fld	fa0,208(s0)
    80002466:	53ec                	lw	a1,100(a5)
    80002468:	ee80                	sd	s0,24(a3)
    8000246a:	0c3f77f3          	csrrci	a5,0xc3,30
    8000246e:	027f                	0x27f
    80002470:	8004                	0x8004
    80002472:	82fc                	0x82fc
    80002474:	3b9d                	addiw	s7,s7,-25
    80002476:	dbe1                	beqz	a5,80002446 <test_memory+0x246>
    80002478:	0951                	addi	s2,s2,20
    8000247a:	2aae                	fld	fs5,200(sp)
    8000247c:	2cd1                	addiw	s9,s9,20
    8000247e:	8981                	andi	a1,a1,0
    80002480:	2745                	addiw	a4,a4,17
    80002482:	ac6953cf          	0xac6953cf
    80002486:	c211                	beqz	a2,8000248a <test_memory+0x28a>
    80002488:	1a9e                	slli	s5,s5,0x27
    8000248a:	5dd1fe4f          	0x5dd1fe4f
    8000248e:	3741                	addiw	a4,a4,-16
    80002490:	8310                	0x8310
    80002492:	b9e2                	fsd	fs8,240(sp)
    80002494:	c98e                	sw	gp,208(sp)
    80002496:	17d484bf 19b76d87 	0x19b76d8717d484bf
    8000249e:	e7328bfb          	0xe7328bfb
    800024a2:	df34758b          	0xdf34758b
    800024a6:	c1ca                	sw	s2,192(sp)
    800024a8:	ee1ad5d3          	0xee1ad5d3
    800024ac:	9ec0                	0x9ec0
    800024ae:	f7de3b0b          	0xf7de3b0b
    800024b2:	b922                	fsd	fs0,176(sp)
    800024b4:	82c6                	mv	t0,a7
    800024b6:	6b29                	lui	s6,0xa
    800024b8:	4129                	li	sp,10
    800024ba:	f85e                	sd	s7,48(sp)
    800024bc:	f781                	bnez	a5,800023c4 <test_memory+0x1c4>
    800024be:	3d91                	addiw	s11,s11,-28
    800024c0:	bf08                	fsd	fa0,56(a4)
    800024c2:	a3d4                	fsd	fa3,128(a5)
    800024c4:	391d                	addiw	s2,s2,-25
    800024c6:	ac62                	fsd	fs8,24(sp)
    800024c8:	b61d6583          	lwu	a1,-1183(s10)
    800024cc:	879f 44e8 42f3      	0x42f344e8879f
    800024d2:	7502                	ld	a0,32(sp)
    800024d4:	dadf 3765 f85f      	0xf85f3765dadf
    800024da:	4dc9                	li	s11,18
    800024dc:	20d9                	addiw	ra,ra,22
    800024de:	bda4                	fsd	fs1,120(a1)
    800024e0:	7209                	lui	tp,0xfffe2
    800024e2:	bcd9                	j	80001fb8 <fromhost+0xf78>
    800024e4:	5b21                	li	s6,-24
    800024e6:	2781                	sext.w	a5,a5
    800024e8:	5b06                	lw	s6,96(sp)
    800024ea:	49ea                	lw	s3,152(sp)
    800024ec:	2400e447          	0x2400e447
    800024f0:	77ea                	ld	a5,184(sp)
    800024f2:	6a70                	ld	a2,208(a2)
    800024f4:	d454                	sw	a3,44(s0)
    800024f6:	2c52                	fld	fs8,272(sp)
    800024f8:	47b9                	li	a5,14
    800024fa:	6b22                	ld	s6,8(sp)
    800024fc:	73e4                	ld	s1,224(a5)
    800024fe:	5a65                	li	s4,-7
    80002500:	cfc6                	sw	a7,220(sp)
    80002502:	cb98                	sw	a4,16(a5)
    80002504:	ff5d                	bnez	a4,800024c2 <test_memory+0x2c2>
    80002506:	9e2a8707          	0x9e2a8707
    8000250a:	c3fc                	sw	a5,68(a5)
    8000250c:	384e                	fld	fa6,240(sp)
    8000250e:	f629                	bnez	a2,80002458 <test_memory+0x258>
    80002510:	1020a7ef          	jal	a5,8000c612 <__global_pointer$+0x9802>
    80002514:	7905                	lui	s2,0xfffe1
    80002516:	3fea                	fld	ft11,184(sp)
    80002518:	032d                	addi	t1,t1,11
    8000251a:	8421                	srai	s0,s0,0x8
    8000251c:	bece                	fsd	fs3,376(sp)
    8000251e:	0652                	slli	a2,a2,0x14
    80002520:	6aa9                	lui	s5,0xa
    80002522:	2e8e                	fld	ft9,192(sp)
    80002524:	2ba07993          	andi	s3,zero,698
    80002528:	7c1747af          	0x7c1747af
    8000252c:	7398                	ld	a4,32(a5)
    8000252e:	8044efcf          	fnmadd.s	ft11,fs1,ft4,fa6,unknown
    80002532:	e2b6bccb          	fnmsub.d	fs9,fa3,fa1,ft8,rup
    80002536:	14ce                	slli	s1,s1,0x33
    80002538:	cae6                	sw	s9,84(sp)
    8000253a:	7e65                	lui	t3,0xffff9
    8000253c:	3c4d                	addiw	s8,s8,-13
    8000253e:	5af6                	lw	s5,124(sp)
    80002540:	9e6c                	0x9e6c
    80002542:	58f0                	lw	a2,116(s1)
    80002544:	c7a9                	beqz	a5,8000258e <test_memory+0x38e>
    80002546:	4bca0233          	0x4bca0233
    8000254a:	b6c625f7          	0xb6c625f7
    8000254e:	5b3a                	lw	s6,172(sp)
    80002550:	1eb738bf d91ed391 	0xd91ed3911eb738bf
    80002558:	b787ddc3          	fmadd.q	fs11,fa5,fs8,fs6,unknown
    8000255c:	2011                	0x2011
    8000255e:	e6a07c0f          	0xe6a07c0f
    80002562:	b238                	fsd	fa4,96(a2)
    80002564:	3228                	fld	fa0,96(a2)
    80002566:	ea9f f4a3 439f      	0x439ff4a3ea9f
    8000256c:	014f27bf 09ded24a 	0x9ded24a014f27bf
    80002574:	dea0                	sw	s0,120(a3)
    80002576:	9514                	0x9514
    80002578:	bbd5                	j	8000236c <test_memory+0x16c>
    8000257a:	8b9f 3357 be6e      	0xbe6e33578b9f
    80002580:	8528                	0x8528
    80002582:	14f0                	addi	a2,sp,620
    80002584:	7cc1                	lui	s9,0xffff0
    80002586:	764d                	lui	a2,0xffff3
    80002588:	95cc2cd7          	0x95cc2cd7
    8000258c:	d62d                	beqz	a2,800024f6 <test_memory+0x2f6>
    8000258e:	a5638247          	0xa5638247
    80002592:	f352                	sd	s4,416(sp)
    80002594:	82332053          	0x82332053
    80002598:	98e5                	andi	s1,s1,-7
    8000259a:	2572                	fld	fa0,280(sp)
    8000259c:	4e19815b          	0x4e19815b
    800025a0:	d2fb78bb          	0xd2fb78bb
    800025a4:	2195a6c3          	fmadd.s	fa3,fa1,fs9,ft4,rdn
    800025a8:	99f6                	add	s3,s3,t4
    800025aa:	3c4e                	fld	fs8,240(sp)
    800025ac:	b004                	fsd	fs1,32(s0)
    800025ae:	c118                	sw	a4,0(a0)
    800025b0:	4099                	li	ra,6
    800025b2:	e9ac                	sd	a1,80(a1)
    800025b4:	8700                	0x8700
    800025b6:	99fd                	andi	a1,a1,-1
    800025b8:	5ca99eeb          	0x5ca99eeb
    800025bc:	13dd                	addi	t2,t2,-9
    800025be:	2f89                	addiw	t6,t6,2
    800025c0:	c365                	beqz	a4,800026a0 <_end+0x90>
    800025c2:	3ba6f2db          	0x3ba6f2db
    800025c6:	e501                	bnez	a0,800025ce <test_memory+0x3ce>
    800025c8:	8706                	mv	a4,ra
    800025ca:	e76a                	sd	s10,392(sp)
    800025cc:	85f0                	0x85f0
    800025ce:	686a                	ld	a6,152(sp)
    800025d0:	9715                	srai	a4,a4,0x25
    800025d2:	ab5f3baf          	0xab5f3baf
    800025d6:	a984                	fsd	fs1,16(a1)
    800025d8:	0098                	addi	a4,sp,64
    800025da:	bfa2c9bf 0106e00e 	0x106e00ebfa2c9bf
    800025e2:	33848ea7          	0x33848ea7
    800025e6:	bddc                	fsd	fa5,184(a1)
    800025e8:	9efe                	add	t4,t4,t6
    800025ea:	1feed26f          	jal	tp,800ef7e8 <__global_pointer$+0xec9d8>
    800025ee:	7f0ebc63          	0x7f0ebc63
    800025f2:	390b4773          	0x390b4773
    800025f6:	dbcddd43          	fmadd.d	fs10,fs11,ft8,fs11,unknown
    800025fa:	c28a                	sw	sp,68(sp)
    800025fc:	00f4                	addi	a3,sp,76
    800025fe:	          	addw	s3,ra,tp

0000000080002600 <loop_count>:
    80002600:	0040                	addi	s0,sp,4
	...

Disassembly of section .riscv.attributes:

0000000000000000 <.riscv.attributes>:
   0:	1e41                	addi	t3,t3,-16
   2:	0000                	unimp
   4:	7200                	ld	s0,32(a2)
   6:	7369                	lui	t1,0xffffa
   8:	01007663          	bgeu	zero,a6,14 <_start-0x7fffffec>
   c:	0014                	0x14
   e:	0000                	unimp
  10:	7205                	lui	tp,0xfffe1
  12:	3676                	fld	fa2,376(sp)
  14:	6934                	ld	a3,80(a0)
  16:	7032                	0x7032
  18:	5f30                	lw	a2,120(a4)
  1a:	326d                	addiw	tp,tp,-5
  1c:	3070                	fld	fa2,224(s0)
	...
