
build/test12:     file format elf64-littleriscv


Disassembly of section .text.init:

0000000080000000 <_start>:
    80000000:	05c0006f          	j	8000005c <reset_vector>

0000000080000004 <trap_vector>:
    80000004:	34202f73          	csrr	t5,mcause
    80000008:	00800f93          	li	t6,8
    8000000c:	03ff0a63          	beq	t5,t6,80000040 <write_tohost>
    80000010:	00900f93          	li	t6,9
    80000014:	03ff0663          	beq	t5,t6,80000040 <write_tohost>
    80000018:	00b00f93          	li	t6,11
    8000001c:	03ff0263          	beq	t5,t6,80000040 <write_tohost>
    80000020:	80000f17          	auipc	t5,0x80000
    80000024:	fe0f0f13          	addi	t5,t5,-32 # 0 <_start-0x80000000>
    80000028:	000f0463          	beqz	t5,80000030 <trap_vector+0x2c>
    8000002c:	000f0067          	jr	t5
    80000030:	34202f73          	csrr	t5,mcause
    80000034:	000f5463          	bgez	t5,8000003c <handle_exception>
    80000038:	0040006f          	j	8000003c <handle_exception>

000000008000003c <handle_exception>:
    8000003c:	5391e193          	ori	gp,gp,1337

0000000080000040 <write_tohost>:
    80000040:	00001f17          	auipc	t5,0x1
    80000044:	fc3f2023          	sw	gp,-64(t5) # 80001000 <tohost>
    80000048:	000902b7          	lui	t0,0x90
    8000004c:	0012829b          	addiw	t0,t0,1
    80000050:	00c29293          	slli	t0,t0,0xc
    80000054:	0002af83          	lw	t6,0(t0) # 90000 <_start-0x7ff70000>
    80000058:	fe9ff06f          	j	80000040 <write_tohost>

000000008000005c <reset_vector>:
    8000005c:	00000093          	li	ra,0
    80000060:	00000113          	li	sp,0
    80000064:	00000193          	li	gp,0
    80000068:	00000213          	li	tp,0
    8000006c:	00000293          	li	t0,0
    80000070:	00000313          	li	t1,0
    80000074:	00000393          	li	t2,0
    80000078:	00000413          	li	s0,0
    8000007c:	00000493          	li	s1,0
    80000080:	00000513          	li	a0,0
    80000084:	00000593          	li	a1,0
    80000088:	00000613          	li	a2,0
    8000008c:	00000693          	li	a3,0
    80000090:	00000713          	li	a4,0
    80000094:	00000793          	li	a5,0
    80000098:	00000813          	li	a6,0
    8000009c:	00000893          	li	a7,0
    800000a0:	00000913          	li	s2,0
    800000a4:	00000993          	li	s3,0
    800000a8:	00000a13          	li	s4,0
    800000ac:	00000a93          	li	s5,0
    800000b0:	00000b13          	li	s6,0
    800000b4:	00000b93          	li	s7,0
    800000b8:	00000c13          	li	s8,0
    800000bc:	00000c93          	li	s9,0
    800000c0:	00000d13          	li	s10,0
    800000c4:	00000d93          	li	s11,0
    800000c8:	00000e13          	li	t3,0
    800000cc:	00000e93          	li	t4,0
    800000d0:	00000f13          	li	t5,0
    800000d4:	00000f93          	li	t6,0
    800000d8:	f1402573          	csrr	a0,mhartid
    800000dc:	00051063          	bnez	a0,800000dc <reset_vector+0x80>
    800000e0:	00000297          	auipc	t0,0x0
    800000e4:	01028293          	addi	t0,t0,16 # 800000f0 <reset_vector+0x94>
    800000e8:	30529073          	csrw	mtvec,t0
    800000ec:	18005073          	csrwi	satp,0
    800000f0:	00000297          	auipc	t0,0x0
    800000f4:	02428293          	addi	t0,t0,36 # 80000114 <reset_vector+0xb8>
    800000f8:	30529073          	csrw	mtvec,t0
    800000fc:	0010029b          	addiw	t0,zero,1
    80000100:	03529293          	slli	t0,t0,0x35
    80000104:	fff28293          	addi	t0,t0,-1
    80000108:	3b029073          	csrw	pmpaddr0,t0
    8000010c:	01f00293          	li	t0,31
    80000110:	3a029073          	csrw	pmpcfg0,t0
    80000114:	30405073          	csrwi	mie,0
    80000118:	00000297          	auipc	t0,0x0
    8000011c:	01428293          	addi	t0,t0,20 # 8000012c <reset_vector+0xd0>
    80000120:	30529073          	csrw	mtvec,t0
    80000124:	30205073          	csrwi	medeleg,0
    80000128:	30305073          	csrwi	mideleg,0
    8000012c:	00000193          	li	gp,0
    80000130:	00000297          	auipc	t0,0x0
    80000134:	ed428293          	addi	t0,t0,-300 # 80000004 <trap_vector>
    80000138:	30529073          	csrw	mtvec,t0
    8000013c:	00100513          	li	a0,1
    80000140:	01f51513          	slli	a0,a0,0x1f
    80000144:	00055c63          	bgez	a0,8000015c <reset_vector+0x100>
    80000148:	0ff0000f          	fence
    8000014c:	00100193          	li	gp,1
    80000150:	05d00893          	li	a7,93
    80000154:	00000513          	li	a0,0
    80000158:	00000073          	ecall
    8000015c:	80000297          	auipc	t0,0x80000
    80000160:	ea428293          	addi	t0,t0,-348 # 0 <_start-0x80000000>
    80000164:	00028a63          	beqz	t0,80000178 <reset_vector+0x11c>
    80000168:	10529073          	csrw	stvec,t0
    8000016c:	0000b2b7          	lui	t0,0xb
    80000170:	1092829b          	addiw	t0,t0,265
    80000174:	30229073          	csrw	medeleg,t0
    80000178:	30005073          	csrwi	mstatus,0
    8000017c:	00000297          	auipc	t0,0x0
    80000180:	01428293          	addi	t0,t0,20 # 80000190 <reset_vector+0x134>
    80000184:	34129073          	csrw	mepc,t0
    80000188:	f1402573          	csrr	a0,mhartid
    8000018c:	30200073          	mret
    80000190:	0200006f          	j	800001b0 <test_start>

0000000080000194 <crash_backward>:
    80000194:	0ff0000f          	fence
    80000198:	00018063          	beqz	gp,80000198 <crash_backward+0x4>
    8000019c:	00119193          	slli	gp,gp,0x1
    800001a0:	0011e193          	ori	gp,gp,1
    800001a4:	05d00893          	li	a7,93
    800001a8:	00018513          	mv	a0,gp
    800001ac:	00000073          	ecall

00000000800001b0 <test_start>:
    800001b0:	00002f97          	auipc	t6,0x2
    800001b4:	e50f8f93          	addi	t6,t6,-432 # 80002000 <hidden_data>
    800001b8:	000fb003          	ld	zero,0(t6)
    800001bc:	008fb083          	ld	ra,8(t6)
    800001c0:	010fb103          	ld	sp,16(t6)
    800001c4:	018fb183          	ld	gp,24(t6)
    800001c8:	020fb203          	ld	tp,32(t6)
    800001cc:	028fb283          	ld	t0,40(t6)
    800001d0:	030fb303          	ld	t1,48(t6)
    800001d4:	038fb383          	ld	t2,56(t6)
    800001d8:	040fb403          	ld	s0,64(t6)
    800001dc:	048fb483          	ld	s1,72(t6)
    800001e0:	050fb503          	ld	a0,80(t6)
    800001e4:	058fb583          	ld	a1,88(t6)
    800001e8:	060fb603          	ld	a2,96(t6)
    800001ec:	068fb683          	ld	a3,104(t6)
    800001f0:	070fb703          	ld	a4,112(t6)
    800001f4:	078fb783          	ld	a5,120(t6)
    800001f8:	080fb803          	ld	a6,128(t6)
    800001fc:	088fb883          	ld	a7,136(t6)
    80000200:	090fb903          	ld	s2,144(t6)
    80000204:	098fb983          	ld	s3,152(t6)
    80000208:	0a0fba03          	ld	s4,160(t6)
    8000020c:	0a8fba83          	ld	s5,168(t6)
    80000210:	0b0fbb03          	ld	s6,176(t6)
    80000214:	0b8fbb83          	ld	s7,184(t6)
    80000218:	0c0fbc03          	ld	s8,192(t6)
    8000021c:	0c8fbc83          	ld	s9,200(t6)
    80000220:	0d0fbd03          	ld	s10,208(t6)
    80000224:	0d8fbd83          	ld	s11,216(t6)
    80000228:	0e0fbe03          	ld	t3,224(t6)
    8000022c:	0e8fbe83          	ld	t4,232(t6)
    80000230:	0f0fbf03          	ld	t5,240(t6)
    80000234:	0f8fbf83          	ld	t6,248(t6)
    80000238:	0040006f          	j	8000023c <pseg_0>

000000008000023c <pseg_0>:
    8000023c:	e3f00f13          	li	t5,-449
    80000240:	9cc00893          	li	a7,-1588
    80000244:	0010b433          	sltu	s0,ra,ra
    80000248:	c0600b93          	li	s7,-1018
    8000024c:	037bca3b          	divw	s4,s7,s7
    80000250:	0318ceb3          	div	t4,a7,a7
    80000254:	03f00693          	li	a3,63
    80000258:	60500913          	li	s2,1541
    8000025c:	b6600613          	li	a2,-1178
    80000260:	02cf79bb          	remuw	s3,t5,a2
    80000264:	05800a93          	li	s5,88
    80000268:	65b00c93          	li	s9,1627
    8000026c:	02e771bb          	remuw	gp,a4,a4
    80000270:	039ccd33          	div	s10,s9,s9
    80000274:	00002797          	auipc	a5,0x2
    80000278:	ade78793          	addi	a5,a5,-1314 # 80001d52 <fromhost+0xd12>
    8000027c:	78c79f23          	sh	a2,1950(a5)
    80000280:	00100613          	li	a2,1
    80000284:	00820d33          	add	s10,tp,s0
    80000288:	a6800093          	li	ra,-1432
    8000028c:	bdf00513          	li	a0,-1057
    80000290:	d4000113          	li	sp,-704
    80000294:	f3500393          	li	t2,-203
    80000298:	e5c00893          	li	a7,-420
    8000029c:	ccd00e13          	li	t3,-819
    800002a0:	9c500b93          	li	s7,-1595
    800002a4:	78700213          	li	tp,1927
    800002a8:	035aab33          	mulhsu	s6,s5,s5
    800002ac:	019caa33          	slt	s4,s9,s9
    800002b0:	4040d4bb          	sraw	s1,ra,tp
    800002b4:	79200d93          	li	s11,1938
    800002b8:	03f61613          	slli	a2,a2,0x3f
    800002bc:	0273e73b          	remw	a4,t2,t2
    800002c0:	037cb833          	mulhu	a6,s9,s7
    800002c4:	02a92fb3          	mulhsu	t6,s2,a0
    800002c8:	03b165b3          	rem	a1,sp,s11
    800002cc:	1b168293          	addi	t0,a3,433
    800002d0:	70d2ca63          	blt	t0,a3,800009e4 <crash_forward>
    800002d4:	01188f3b          	addw	t5,a7,a7
    800002d8:	c1100313          	li	t1,-1007
    800002dc:	026e6c33          	rem	s8,t3,t1
    800002e0:	fff00413          	li	s0,-1
    800002e4:	00c44433          	xor	s0,s0,a2
    800002e8:	008dfeb3          	and	t4,s11,s0
    800002ec:	00cb69b3          	or	s3,s6,a2
    800002f0:	00002a17          	auipc	s4,0x2
    800002f4:	da1a0a13          	addi	s4,s4,-607 # 80002091 <reg_x18_init+0x1>
    800002f8:	026344b3          	div	s1,t1,t1
    800002fc:	024271bb          	remuw	gp,tp,tp
    80000300:	00a55fbb          	srlw	t6,a0,a0
    80000304:	40b2d81b          	sraiw	a6,t0,0xb
    80000308:	0294e133          	rem	sp,s1,s1
    8000030c:	00100313          	li	t1,1
    80000310:	00088993          	mv	s3,a7
    80000314:	70500693          	li	a3,1797
    80000318:	489a0883          	lb	a7,1161(s4)
    8000031c:	00048093          	mv	ra,s1
    80000320:	00002917          	auipc	s2,0x2
    80000324:	77f90913          	addi	s2,s2,1919 # 80002a9f <_end+0x48f>
    80000328:	4f000513          	li	a0,1264
    8000032c:	8df930a3          	sd	t6,-1855(s2)
    80000330:	00098c93          	mv	s9,s3
    80000334:	00002e97          	auipc	t4,0x2
    80000338:	5e0e8e93          	addi	t4,t4,1504 # 80002914 <_end+0x304>
    8000033c:	ae4e9e03          	lh	t3,-1308(t4)
    80000340:	02847f3b          	remuw	t5,s0,s0
    80000344:	03f31313          	slli	t1,t1,0x3f
    80000348:	39e00293          	li	t0,926
    8000034c:	0052cdb3          	xor	s11,t0,t0
    80000350:	42400e93          	li	t4,1060
    80000354:	00002397          	auipc	t2,0x2
    80000358:	74138393          	addi	t2,t2,1857 # 80002a95 <_end+0x485>
    8000035c:	fff00593          	li	a1,-1
    80000360:	00002717          	auipc	a4,0x2
    80000364:	09570713          	addi	a4,a4,149 # 800023f5 <test_memory+0x1f5>
    80000368:	037d8133          	mul	sp,s11,s7
    8000036c:	00008613          	mv	a2,ra
    80000370:	00909d1b          	slliw	s10,ra,0x9
    80000374:	01c7da93          	srli	s5,a5,0x1c
    80000378:	0065c5b3          	xor	a1,a1,t1
    8000037c:	02a6fc33          	remu	s8,a3,a0
    80000380:	00c627b3          	slt	a5,a2,a2
    80000384:	5a600913          	li	s2,1446
    80000388:	90d00e13          	li	t3,-1779
    8000038c:	5a400a13          	li	s4,1444
    80000390:	0c572ba3          	sw	t0,215(a4)
    80000394:	a3539203          	lh	tp,-1483(t2)
    80000398:	b8900d93          	li	s11,-1143
    8000039c:	b4400493          	li	s1,-1212
    800003a0:	03fdd7bb          	divuw	a5,s11,t6
    800003a4:	02216533          	rem	a0,sp,sp
    800003a8:	00897133          	and	sp,s2,s0
    800003ac:	034ec8b3          	div	a7,t4,s4
    800003b0:	6399ea63          	bltu	s3,s9,800009e4 <crash_forward>
    800003b4:	e0b00813          	li	a6,-501
    800003b8:	00a7d733          	srl	a4,a5,a0
    800003bc:	030811b3          	mulh	gp,a6,a6
    800003c0:	029e7fb3          	remu	t6,t3,s1
    800003c4:	01294b33          	xor	s6,s2,s2
    800003c8:	bbe00c13          	li	s8,-1090
    800003cc:	00b5fbb3          	and	s7,a1,a1
    800003d0:	40bc8233          	sub	tp,s9,a1
    800003d4:	ec000f13          	li	t5,-320
    800003d8:	98400a93          	li	s5,-1660
    800003dc:	006c6433          	or	s0,s8,t1
    800003e0:	03edf2bb          	remuw	t0,s11,t5
    800003e4:	86500d13          	li	s10,-1947
    800003e8:	03aad3b3          	divu	t2,s5,s10
    800003ec:	018c76b3          	and	a3,s8,s8
    800003f0:	12400693          	li	a3,292
    800003f4:	02c64cb3          	div	s9,a2,a2
    800003f8:	00002b17          	auipc	s6,0x2
    800003fc:	14db0b13          	addi	s6,s6,333 # 80002545 <test_memory+0x345>
    80000400:	87b00993          	li	s3,-1925
    80000404:	022e72bb          	remuw	t0,t3,sp
    80000408:	5c001e63          	bnez	zero,800009e4 <crash_forward>
    8000040c:	03bd8a33          	mul	s4,s11,s11
    80000410:	03435ebb          	divuw	t4,t1,s4
    80000414:	000d0213          	mv	tp,s10
    80000418:	03ad493b          	divw	s2,s10,s10
    8000041c:	000c0c13          	mv	s8,s8
    80000420:	413f813b          	subw	sp,t6,s3
    80000424:	82e00613          	li	a2,-2002
    80000428:	0139c7b3          	xor	a5,s3,s3
    8000042c:	f5eb07a3          	sb	t5,-177(s6)
    80000430:	00002717          	auipc	a4,0x2
    80000434:	d5770713          	addi	a4,a4,-681 # 80002187 <reg_x16_output+0x7>
    80000438:	c7b00d93          	li	s11,-901
    8000043c:	153720a3          	sw	s3,321(a4)
    80000440:	24900893          	li	a7,585
    80000444:	da900513          	li	a0,-599
    80000448:	01fc1f3b          	sllw	t5,s8,t6
    8000044c:	00002917          	auipc	s2,0x2
    80000450:	6e090913          	addi	s2,s2,1760 # 80002b2c <_end+0x51c>
    80000454:	008432b3          	sltu	t0,s0,s0
    80000458:	0318d0b3          	divu	ra,a7,a7
    8000045c:	b2050813          	addi	a6,a0,-1248
    80000460:	c02d8d13          	addi	s10,s11,-1022
    80000464:	00c644b3          	xor	s1,a2,a2
    80000468:	00020393          	mv	t2,tp
    8000046c:	94500e13          	li	t3,-1723
    80000470:	02d0cfbb          	divw	t6,ra,a3
    80000474:	00100e93          	li	t4,1
    80000478:	03c68abb          	mulw	s5,a3,t3
    8000047c:	021112b3          	mulh	t0,sp,ra
    80000480:	75700f13          	li	t5,1879
    80000484:	4c600693          	li	a3,1222
    80000488:	03fe9e93          	slli	t4,t4,0x3f
    8000048c:	55adec63          	bltu	s11,s10,800009e4 <crash_forward>
    80000490:	9a790783          	lb	a5,-1625(s2)
    80000494:	fff00a13          	li	s4,-1
    80000498:	ce721ee3          	bne	tp,t2,80000194 <crash_backward>
    8000049c:	01da4a33          	xor	s4,s4,t4
    800004a0:	02485613          	srli	a2,a6,0x24
    800004a4:	000c0193          	mv	gp,s8
    800004a8:	6a800e13          	li	t3,1704
    800004ac:	ec500c93          	li	s9,-315
    800004b0:	019ccb33          	xor	s6,s9,s9
    800004b4:	53056863          	bltu	a0,a6,800009e4 <crash_forward>
    800004b8:	01c68abb          	addw	s5,a3,t3
    800004bc:	01407133          	and	sp,zero,s4
    800004c0:	0294c533          	div	a0,s1,s1
    800004c4:	01d1e9b3          	or	s3,gp,t4
    800004c8:	cc29e6e3          	bltu	s3,sp,80000194 <crash_backward>
    800004cc:	00100393          	li	t2,1
    800004d0:	c7400f93          	li	t6,-908
    800004d4:	00002817          	auipc	a6,0x2
    800004d8:	b9380813          	addi	a6,a6,-1133 # 80002067 <reg_x12_init+0x7>
    800004dc:	a96f8c13          	addi	s8,t6,-1386
    800004e0:	5f4e079b          	addiw	a5,t3,1524
    800004e4:	00002917          	auipc	s2,0x2
    800004e8:	1bd90913          	addi	s2,s2,445 # 800026a1 <_end+0x91>
    800004ec:	00002717          	auipc	a4,0x2
    800004f0:	5dc70713          	addi	a4,a4,1500 # 80002ac8 <_end+0x4b8>
    800004f4:	4f8f8863          	beq	t6,s8,800009e4 <crash_forward>
    800004f8:	00002a97          	auipc	s5,0x2
    800004fc:	eb2a8a93          	addi	s5,s5,-334 # 800023aa <test_memory+0x1aa>
    80000500:	21100213          	li	tp,529
    80000504:	206abb03          	ld	s6,518(s5)
    80000508:	4cc83ca3          	sd	a2,1241(a6)
    8000050c:	03f39393          	slli	t2,t2,0x3f
    80000510:	87974483          	lbu	s1,-1927(a4)
    80000514:	5e700693          	li	a3,1511
    80000518:	85a00e93          	li	t4,-1958
    8000051c:	00a567b3          	or	a5,a0,a0
    80000520:	a2400093          	li	ra,-1500
    80000524:	fff00293          	li	t0,-1
    80000528:	00002e17          	auipc	t3,0x2
    8000052c:	273e0e13          	addi	t3,t3,627 # 8000279b <_end+0x18b>
    80000530:	00002497          	auipc	s1,0x2
    80000534:	b8448493          	addi	s1,s1,-1148 # 800020b4 <reg_x22_init+0x4>
    80000538:	fef00a13          	li	s4,-17
    8000053c:	3c800113          	li	sp,968
    80000540:	01290db3          	add	s11,s2,s2
    80000544:	03def53b          	remuw	a0,t4,t4
    80000548:	02d20d3b          	mulw	s10,tp,a3
    8000054c:	40449f83          	lh	t6,1028(s1)
    80000550:	00100d93          	li	s11,1
    80000554:	a7de1c83          	lh	s9,-1411(t3)
    80000558:	021f78b3          	remu	a7,t5,ra
    8000055c:	0072c2b3          	xor	t0,t0,t2
    80000560:	03fd9d93          	slli	s11,s11,0x3f
    80000564:	005971b3          	and	gp,s2,t0
    80000568:	ec1937a3          	sd	ra,-305(s2)
    8000056c:	00736633          	or	a2,t1,t2
    80000570:	77800b13          	li	s6,1912
    80000574:	00100313          	li	t1,1
    80000578:	c9400813          	li	a6,-876
    8000057c:	03f31313          	slli	t1,t1,0x3f
    80000580:	fff00c13          	li	s8,-1
    80000584:	02e761b3          	rem	gp,a4,a4
    80000588:	029483b3          	mul	t2,s1,s1
    8000058c:	47200c93          	li	s9,1138
    80000590:	c4b00893          	li	a7,-949
    80000594:	00100213          	li	tp,1
    80000598:	02da4d3b          	divw	s10,s4,a3
    8000059c:	0073d2bb          	srlw	t0,t2,t2
    800005a0:	a8388593          	addi	a1,a7,-1405
    800005a4:	9b200193          	li	gp,-1614
    800005a8:	037bdeb3          	divu	t4,s7,s7
    800005ac:	0031cd33          	xor	s10,gp,gp
    800005b0:	2de00e13          	li	t3,734
    800005b4:	f5f80513          	addi	a0,a6,-161
    800005b8:	914333b7          	lui	t2,0x91433
    800005bc:	01bc4c33          	xor	s8,s8,s11
    800005c0:	0c500f93          	li	t6,197
    800005c4:	039c8bb3          	mul	s7,s9,s9
    800005c8:	016a2733          	slt	a4,s4,s6
    800005cc:	e4200593          	li	a1,-446
    800005d0:	88800d13          	li	s10,-1912
    800005d4:	fff00913          	li	s2,-1
    800005d8:	002119bb          	sllw	s3,sp,sp
    800005dc:	7f700393          	li	t2,2039
    800005e0:	00694933          	xor	s2,s2,t1
    800005e4:	01887ab3          	and	s5,a6,s8
    800005e8:	41230cb3          	sub	s9,t1,s2
    800005ec:	bc400293          	li	t0,-1084
    800005f0:	0120f633          	and	a2,ra,s2
    800005f4:	02b5debb          	divuw	t4,a1,a1
    800005f8:	03fe26b3          	mulhsu	a3,t3,t6
    800005fc:	005d0bbb          	addw	s7,s10,t0
    80000600:	01bb67b3          	or	a5,s6,s11
    80000604:	9ee00293          	li	t0,-1554
    80000608:	0052a6b3          	slt	a3,t0,t0
    8000060c:	76100f93          	li	t6,1889
    80000610:	a7800893          	li	a7,-1416
    80000614:	03b00513          	li	a0,59
    80000618:	8ad00113          	li	sp,-1875
    8000061c:	0313f1bb          	remuw	gp,t2,a7
    80000620:	03f21213          	slli	tp,tp,0x3f
    80000624:	3ff50d13          	addi	s10,a0,1023
    80000628:	403186b3          	sub	a3,gp,gp
    8000062c:	00422cb3          	slt	s9,tp,tp
    80000630:	4052d3b3          	sra	t2,t0,t0
    80000634:	03bde733          	rem	a4,s11,s11
    80000638:	28a00b93          	li	s7,650
    8000063c:	0031f2b3          	and	t0,gp,gp
    80000640:	00e5fe33          	and	t3,a1,a4
    80000644:	33300b13          	li	s6,819
    80000648:	00f20733          	add	a4,tp,a5
    8000064c:	037305bb          	mulw	a1,t1,s7
    80000650:	03717a33          	remu	s4,sp,s7
    80000654:	032932b3          	mulhu	t0,s2,s2
    80000658:	fff00f13          	li	t5,-1
    8000065c:	54ab0993          	addi	s3,s6,1354
    80000660:	f0e00813          	li	a6,-242
    80000664:	006664b3          	or	s1,a2,t1
    80000668:	b2fac6e3          	blt	s5,a5,80000194 <crash_backward>
    8000066c:	9e800893          	li	a7,-1560
    80000670:	373b7a63          	bgeu	s6,s3,800009e4 <crash_forward>
    80000674:	00700393          	li	t2,7
    80000678:	011881bb          	addw	gp,a7,a7
    8000067c:	47100c93          	li	s9,1137
    80000680:	00100793          	li	a5,1
    80000684:	021d6d33          	rem	s10,s10,ra
    80000688:	6f300d93          	li	s11,1779
    8000068c:	7e600b93          	li	s7,2022
    80000690:	03bdd2bb          	divuw	t0,s11,s11
    80000694:	037bfb3b          	remuw	s6,s7,s7
    80000698:	70800513          	li	a0,1800
    8000069c:	019386b3          	add	a3,t2,s9
    800006a0:	004f4f33          	xor	t5,t5,tp
    800006a4:	52900e13          	li	t3,1321
    800006a8:	01e37433          	and	s0,t1,t5
    800006ac:	e1100a13          	li	s4,-495
    800006b0:	41450733          	sub	a4,a0,s4
    800006b4:	03ce55b3          	divu	a1,t3,t3
    800006b8:	aaf00293          	li	t0,-1361
    800006bc:	004260b3          	or	ra,tp,tp
    800006c0:	bed00e13          	li	t3,-1043
    800006c4:	3280e063          	bltu	ra,s0,800009e4 <crash_forward>
    800006c8:	19000893          	li	a7,400
    800006cc:	7115849b          	addiw	s1,a1,1809
    800006d0:	00005633          	srl	a2,zero,zero
    800006d4:	0118fcb3          	and	s9,a7,a7
    800006d8:	00ba2db3          	slt	s11,s4,a1
    800006dc:	74000a13          	li	s4,1856
    800006e0:	57500d13          	li	s10,1397
    800006e4:	03f79793          	slli	a5,a5,0x3f
    800006e8:	01a9519b          	srliw	gp,s2,0x1a
    800006ec:	1b400593          	li	a1,436
    800006f0:	414e56b3          	sra	a3,t3,s4
    800006f4:	fff00993          	li	s3,-1
    800006f8:	00f9c9b3          	xor	s3,s3,a5
    800006fc:	022eef3b          	remw	t5,t4,sp
    80000700:	7f400713          	li	a4,2036
    80000704:	000f0b13          	mv	s6,t5
    80000708:	01317133          	and	sp,sp,s3
    8000070c:	010feeb3          	or	t4,t6,a6
    80000710:	0139ecb3          	or	s9,s3,s3
    80000714:	00b58333          	add	t1,a1,a1
    80000718:	000b0b93          	mv	s7,s6
    8000071c:	40e75ab3          	sra	s5,a4,a4
    80000720:	018c6db3          	or	s11,s8,s8
    80000724:	67b00e13          	li	t3,1659
    80000728:	00002517          	auipc	a0,0x2
    8000072c:	dec50513          	addi	a0,a0,-532 # 80002514 <test_memory+0x314>
    80000730:	00f16c33          	or	s8,sp,a5
    80000734:	03ce723b          	remuw	tp,t3,t3
    80000738:	2aa00e93          	li	t4,682
    8000073c:	a42c6ce3          	bltu	s8,sp,80000194 <crash_backward>
    80000740:	f2a00213          	li	tp,-214
    80000744:	c3200593          	li	a1,-974
    80000748:	01a2893b          	addw	s2,t0,s10
    8000074c:	e8052183          	lw	gp,-384(a0)
    80000750:	00002e17          	auipc	t3,0x2
    80000754:	0cfe0e13          	addi	t3,t3,207 # 8000281f <_end+0x20f>
    80000758:	406addb3          	sra	s11,s5,t1
    8000075c:	297b6463          	bltu	s6,s7,800009e4 <crash_forward>
    80000760:	003183bb          	addw	t2,gp,gp
    80000764:	00002097          	auipc	ra,0x2
    80000768:	e2b08093          	addi	ra,ra,-469 # 8000258f <test_memory+0x38f>
    8000076c:	00100c93          	li	s9,1
    80000770:	e010a603          	lw	a2,-511(ra)
    80000774:	35100a93          	li	s5,849
    80000778:	4152073b          	subw	a4,tp,s5
    8000077c:	02bee333          	rem	t1,t4,a1
    80000780:	00100a13          	li	s4,1
    80000784:	a6fe24a3          	sw	a5,-1431(t3)
    80000788:	03fc9c93          	slli	s9,s9,0x3f
    8000078c:	00002517          	auipc	a0,0x2
    80000790:	fe050513          	addi	a0,a0,-32 # 8000276c <_end+0x15c>
    80000794:	03b8e3b3          	rem	t2,a7,s11
    80000798:	5d500f13          	li	t5,1493
    8000079c:	00100d13          	li	s10,1
    800007a0:	da800113          	li	sp,-600
    800007a4:	b9153223          	sd	a7,-1148(a0)
    800007a8:	3a200993          	li	s3,930
    800007ac:	03fd1d13          	slli	s10,s10,0x3f
    800007b0:	00000e93          	li	t4,0
    800007b4:	fff00a93          	li	s5,-1
    800007b8:	03fa1a13          	slli	s4,s4,0x3f
    800007bc:	0077d0bb          	srlw	ra,a5,t2
    800007c0:	0339b633          	mulhu	a2,s3,s3
    800007c4:	45800193          	li	gp,1112
    800007c8:	34d00913          	li	s2,845
    800007cc:	fff00413          	li	s0,-1
    800007d0:	df800213          	li	tp,-520
    800007d4:	404d83b3          	sub	t2,s11,tp
    800007d8:	01aacab3          	xor	s5,s5,s10
    800007dc:	017a13b3          	sll	t2,s4,s7
    800007e0:	c6400713          	li	a4,-924
    800007e4:	02414333          	div	t1,sp,tp
    800007e8:	01444433          	xor	s0,s0,s4
    800007ec:	008076b3          	and	a3,zero,s0
    800007f0:	015a72b3          	and	t0,s4,s5
    800007f4:	bab88c13          	addi	s8,a7,-1109
    800007f8:	0146e8b3          	or	a7,a3,s4
    800007fc:	01a2e7b3          	or	a5,t0,s10
    80000800:	023f7e33          	remu	t3,t5,gp
    80000804:	fe100593          	li	a1,-31
    80000808:	00000d93          	li	s11,0
    8000080c:	fff00f93          	li	t6,-1
    80000810:	2b56899b          	addiw	s3,a3,693
    80000814:	01290b33          	add	s6,s2,s2
    80000818:	9657eee3          	bltu	a5,t0,80000194 <crash_backward>
    8000081c:	038c7e3b          	remuw	t3,s8,s8
    80000820:	01b1d1bb          	srlw	gp,gp,s11
    80000824:	00100c13          	li	s8,1
    80000828:	019fcfb3          	xor	t6,t6,s9
    8000082c:	02c6663b          	remw	a2,a2,a2
    80000830:	03fc1c13          	slli	s8,s8,0x3f
    80000834:	b4800f13          	li	t5,-1208
    80000838:	1b16f663          	bgeu	a3,a7,800009e4 <crash_forward>
    8000083c:	fff00313          	li	t1,-1
    80000840:	01834333          	xor	t1,t1,s8
    80000844:	40b75bbb          	sraw	s7,a4,a1
    80000848:	00001097          	auipc	ra,0x1
    8000084c:	55e08093          	addi	ra,ra,1374 # 80001da6 <fromhost+0xd66>
    80000850:	4b508103          	lb	sp,1205(ra)
    80000854:	015b9b3b          	sllw	s6,s7,s5
    80000858:	006ef3b3          	and	t2,t4,t1
    8000085c:	00002597          	auipc	a1,0x2
    80000860:	b0258593          	addi	a1,a1,-1278 # 8000235e <test_memory+0x15e>
    80000864:	a6b00113          	li	sp,-1429
    80000868:	0183e9b3          	or	s3,t2,s8
    8000086c:	01ae6533          	or	a0,t3,s10
    80000870:	01fc74b3          	and	s1,s8,t6
    80000874:	00100293          	li	t0,1
    80000878:	03f29293          	slli	t0,t0,0x3f
    8000087c:	02420d3b          	mulw	s10,tp,tp
    80000880:	f2700093          	li	ra,-217
    80000884:	00002897          	auipc	a7,0x2
    80000888:	89888893          	addi	a7,a7,-1896 # 8000211c <reg_x3_output+0x4>
    8000088c:	fe400e93          	li	t4,-28
    80000890:	14c8aa83          	lw	s5,332(a7)
    80000894:	01d097b3          	sll	a5,ra,t4
    80000898:	01ef193b          	sllw	s2,t5,t5
    8000089c:	02214733          	div	a4,sp,sp
    800008a0:	b6200693          	li	a3,-1182
    800008a4:	00050d93          	mv	s11,a0
    800008a8:	0194e833          	or	a6,s1,s9
    800008ac:	27c00e13          	li	t3,636
    800008b0:	00002b17          	auipc	s6,0x2
    800008b4:	e32b0b13          	addi	s6,s6,-462 # 800026e2 <_end+0xd2>
    800008b8:	03c6e1b3          	rem	gp,a3,t3
    800008bc:	41bdd0b3          	sra	ra,s11,s11
    800008c0:	024e83bb          	mulw	t2,t4,tp
    800008c4:	fa000513          	li	a0,-96
    800008c8:	00088e93          	mv	t4,a7
    800008cc:	fff00213          	li	tp,-1
    800008d0:	000d8613          	mv	a2,s11
    800008d4:	77600813          	li	a6,1910
    800008d8:	8b6b4ee3          	blt	s6,s6,80000194 <crash_backward>
    800008dc:	413c0abb          	subw	s5,s8,s3
    800008e0:	c8700313          	li	t1,-889
    800008e4:	00524233          	xor	tp,tp,t0
    800008e8:	cfc00493          	li	s1,-772
    800008ec:	f6e30f93          	addi	t6,t1,-146
    800008f0:	e3750f13          	addi	t5,a0,-457
    800008f4:	00437a33          	and	s4,t1,tp
    800008f8:	32600713          	li	a4,806
    800008fc:	000e8d13          	mv	s10,t4
    80000900:	0294e9bb          	remw	s3,s1,s1
    80000904:	00002e17          	auipc	t3,0x2
    80000908:	cede0e13          	addi	t3,t3,-787 # 800025f1 <test_memory+0x3f1>
    8000090c:	aa400913          	li	s2,-1372
    80000910:	d3300393          	li	t2,-717
    80000914:	69f00793          	li	a5,1695
    80000918:	02f87cbb          	remuw	s9,a6,a5
    8000091c:	007760b3          	or	ra,a4,t2
    80000920:	866fdae3          	bge	t6,t1,80000194 <crash_backward>
    80000924:	edee13a3          	sh	t5,-313(t3)
    80000928:	a1300113          	li	sp,-1517
    8000092c:	16c58403          	lb	s0,364(a1)
    80000930:	00556bb3          	or	s7,a0,t0
    80000934:	deeb0323          	sb	a4,-538(s6)
    80000938:	854bdee3          	bge	s7,s4,80000194 <crash_backward>
    8000093c:	f9700693          	li	a3,-105
    80000940:	00d151bb          	srlw	gp,sp,a3
    80000944:	34900893          	li	a7,841
    80000948:	03195c3b          	divuw	s8,s2,a7
    8000094c:	0040006f          	j	80000950 <reg_dump>

0000000080000950 <reg_dump>:
    80000950:	00002097          	auipc	ra,0x2
    80000954:	cb008093          	addi	ra,ra,-848 # 80002600 <loop_count>
    80000958:	0000a103          	lw	sp,0(ra)
    8000095c:	fff10193          	addi	gp,sp,-1
    80000960:	0030a023          	sw	gp,0(ra)
    80000964:	8c011ce3          	bnez	sp,8000023c <pseg_0>
    80000968:	00001097          	auipc	ra,0x1
    8000096c:	79808093          	addi	ra,ra,1944 # 80002100 <begin_signature>
    80000970:	0000b023          	sd	zero,0(ra)
    80000974:	0020b823          	sd	sp,16(ra)
    80000978:	0030bc23          	sd	gp,24(ra)
    8000097c:	0240b023          	sd	tp,32(ra)
    80000980:	0250b423          	sd	t0,40(ra)
    80000984:	0260b823          	sd	t1,48(ra)
    80000988:	0270bc23          	sd	t2,56(ra)
    8000098c:	0480b023          	sd	s0,64(ra)
    80000990:	0490b423          	sd	s1,72(ra)
    80000994:	04a0b823          	sd	a0,80(ra)
    80000998:	06c0b023          	sd	a2,96(ra)
    8000099c:	06d0b423          	sd	a3,104(ra)
    800009a0:	06e0b823          	sd	a4,112(ra)
    800009a4:	06f0bc23          	sd	a5,120(ra)
    800009a8:	0900b023          	sd	a6,128(ra)
    800009ac:	0910b423          	sd	a7,136(ra)
    800009b0:	0920b823          	sd	s2,144(ra)
    800009b4:	0930bc23          	sd	s3,152(ra)
    800009b8:	0b40b023          	sd	s4,160(ra)
    800009bc:	0b50b423          	sd	s5,168(ra)
    800009c0:	0b70bc23          	sd	s7,184(ra)
    800009c4:	0d80b023          	sd	s8,192(ra)
    800009c8:	0d90b423          	sd	s9,200(ra)
    800009cc:	0da0b823          	sd	s10,208(ra)
    800009d0:	0db0bc23          	sd	s11,216(ra)
    800009d4:	0fd0b423          	sd	t4,232(ra)
    800009d8:	0fe0b823          	sd	t5,240(ra)
    800009dc:	0ff0bc23          	sd	t6,248(ra)
    800009e0:	0200006f          	j	80000a00 <test_end>

00000000800009e4 <crash_forward>:
    800009e4:	0ff0000f          	fence
    800009e8:	00018063          	beqz	gp,800009e8 <crash_forward+0x4>
    800009ec:	00119193          	slli	gp,gp,0x1
    800009f0:	0011e193          	ori	gp,gp,1
    800009f4:	05d00893          	li	a7,93
    800009f8:	00018513          	mv	a0,gp
    800009fc:	00000073          	ecall

0000000080000a00 <test_end>:
    80000a00:	0ff0000f          	fence
    80000a04:	00100193          	li	gp,1
    80000a08:	05d00893          	li	a7,93
    80000a0c:	00000513          	li	a0,0
    80000a10:	00000073          	ecall
    80000a14:	c0001073          	unimp
	...

Disassembly of section .tohost:

0000000080001000 <tohost>:
	...

0000000080001040 <fromhost>:
	...

Disassembly of section .data:

0000000080002000 <hidden_data>:
	...

0000000080002008 <reg_x1_init>:
    80002008:	5fad3027          	fsd	fs10,1504(s10)
    8000200c:	39ed40ab          	0x39ed40ab

0000000080002010 <reg_x2_init>:
	...

0000000080002018 <reg_x3_init>:
    80002018:	4168                	lw	a0,68(a0)
    8000201a:	b64e                	fsd	fs3,296(sp)
    8000201c:	c695                	beqz	a3,80002048 <reg_x9_init>
    8000201e:	ba12                	fsd	ft4,304(sp)

0000000080002020 <reg_x4_init>:
    80002020:	80000003          	lb	zero,-2048(zero) # fffffffffffff800 <__global_pointer$+0xffffffff7fffc9f0>
    80002024:	ffff                	0xffff
    80002026:	ffff                	0xffff

0000000080002028 <reg_x5_init>:
    80002028:	ffffff87          	0xffffff87
    8000202c:	ffff                	0xffff
    8000202e:	ffff                	0xffff

0000000080002030 <reg_x6_init>:
    80002030:	fffffffb          	0xfffffffb
    80002034:	ffff                	0xffff
    80002036:	ffff                	0xffff

0000000080002038 <reg_x7_init>:
    80002038:	00000007          	0x7
    8000203c:	0000                	unimp
    8000203e:	0800                	addi	s0,sp,16

0000000080002040 <reg_x8_init>:
    80002040:	0009                	c.nop	2
    80002042:	0000                	unimp
    80002044:	0000                	unimp
	...

0000000080002048 <reg_x9_init>:
    80002048:	ff81                	bnez	a5,80001f60 <fromhost+0xf20>
    8000204a:	ffff                	0xffff
    8000204c:	ffff                	0xffff
    8000204e:	ffff                	0xffff

0000000080002050 <reg_x10_init>:
    80002050:	ffff                	0xffff
    80002052:	ffff                	0xffff
    80002054:	ffff                	0xffff
    80002056:	ffff                	0xffff

0000000080002058 <reg_x11_init>:
    80002058:	243a                	fld	fs0,392(sp)
    8000205a:	44c8                	lw	a0,12(s1)
    8000205c:	51bf3e8b          	0x51bf3e8b

0000000080002060 <reg_x12_init>:
    80002060:	8004                	0x8004
    80002062:	ffff                	0xffff
    80002064:	ffff                	0xffff
    80002066:	ffff                	0xffff

0000000080002068 <reg_x13_init>:
    80002068:	8002                	0x8002
    8000206a:	ffff                	0xffff
    8000206c:	ffff                	0xffff
    8000206e:	ffff                	0xffff

0000000080002070 <reg_x14_init>:
    80002070:	61e9                	lui	gp,0x1a
    80002072:	53c559b7          	lui	s3,0x53c55
    80002076:	045d                	addi	s0,s0,23

0000000080002078 <reg_x15_init>:
    80002078:	0008                	0x8
    8000207a:	0000                	unimp
    8000207c:	0000                	unimp
    8000207e:	0800                	addi	s0,sp,16

0000000080002080 <reg_x16_init>:
    80002080:	0001                	nop
    80002082:	0000                	unimp
    80002084:	0000                	unimp
    80002086:	0800                	addi	s0,sp,16

0000000080002088 <reg_x17_init>:
    80002088:	2aed                	addiw	s5,s5,27
    8000208a:	1e98                	addi	a4,sp,880
    8000208c:	7888                	ld	a0,48(s1)
    8000208e:	1442                	slli	s0,s0,0x30

0000000080002090 <reg_x18_init>:
    80002090:	0009                	c.nop	2
    80002092:	0000                	unimp
    80002094:	0000                	unimp
    80002096:	0800                	addi	s0,sp,16

0000000080002098 <reg_x19_init>:
    80002098:	ffff8003          	lb	zero,-1(t6)
    8000209c:	ffff                	0xffff
    8000209e:	ffff                	0xffff

00000000800020a0 <reg_x20_init>:
    800020a0:	ffff                	0xffff
    800020a2:	ffff                	0xffff
    800020a4:	ffff                	0xffff
    800020a6:	ffff                	0xffff

00000000800020a8 <reg_x21_init>:
    800020a8:	b2e7ca03          	lbu	s4,-1234(a5)
    800020ac:	31fbd483          	lhu	s1,799(s7)

00000000800020b0 <reg_x22_init>:
    800020b0:	8002                	0x8002
    800020b2:	ffff                	0xffff
    800020b4:	ffff                	0xffff
    800020b6:	ffff                	0xffff

00000000800020b8 <reg_x23_init>:
    800020b8:	e594773b          	0xe594773b
    800020bc:	b66a                	fsd	fs10,296(sp)
    800020be:	d586                	sw	ra,232(sp)

00000000800020c0 <reg_x24_init>:
    800020c0:	907e                	c.add	zero,t6
    800020c2:	f03e3e93          	sltiu	t4,t3,-253
    800020c6:	106e                	c.slli	zero,0x3b

00000000800020c8 <reg_x25_init>:
    800020c8:	1974                	addi	a3,sp,188
    800020ca:	6d65                	lui	s10,0x19
    800020cc:	6bc7e783          	lwu	a5,1724(a5)

00000000800020d0 <reg_x26_init>:
    800020d0:	f6a6                	sd	s1,360(sp)
    800020d2:	493a                	lw	s2,140(sp)
    800020d4:	adf9                	j	800027b2 <_end+0x1a2>
    800020d6:	6bdf        	0x873a719c6bdf

00000000800020d8 <reg_x27_init>:
    800020d8:	719c                	ld	a5,32(a1)
    800020da:	873a                	mv	a4,a4
    800020dc:	9fd1                	0x9fd1
    800020de:	0085                	addi	ra,ra,1

00000000800020e0 <reg_x28_init>:
    800020e0:	a732                	fsd	fa2,392(sp)
    800020e2:	fa84                	sd	s1,48(a3)
    800020e4:	c14d                	beqz	a0,80002186 <reg_x16_output+0x6>
    800020e6:	e154                	sd	a3,128(a0)

00000000800020e8 <reg_x29_init>:
    800020e8:	ffff                	0xffff
    800020ea:	ffff                	0xffff
    800020ec:	ffff                	0xffff
    800020ee:	ffff                	0xffff

00000000800020f0 <reg_x30_init>:
    800020f0:	ffff                	0xffff
    800020f2:	ffff                	0xffff
    800020f4:	ffff                	0xffff
    800020f6:	ffff                	0xffff

00000000800020f8 <reg_x31_init>:
    800020f8:	ffff                	0xffff
    800020fa:	ffff                	0xffff
    800020fc:	ffff                	0xffff
    800020fe:	ffff                	0xffff

0000000080002100 <begin_signature>:
    80002100:	5790                	lw	a2,40(a5)
    80002102:	d97f                	0xd97f
    80002104:	7fbc                	ld	a5,120(a5)
    80002106:	f59c                	sd	a5,40(a1)

0000000080002108 <reg_x1_output>:
    80002108:	74df f9c3 7548      	0x7548f9c374df
    8000210e:	6592                	ld	a1,256(sp)

0000000080002110 <reg_x2_output>:
    80002110:	a42d                	j	8000233a <test_memory+0x13a>
    80002112:	9404                	0x9404
    80002114:	613a167b          	0x613a167b

0000000080002118 <reg_x3_output>:
    80002118:	1784                	addi	s1,sp,992
    8000211a:	347e                	fld	fs0,504(sp)
    8000211c:	84a2                	mv	s1,s0
    8000211e:	84b0                	0x84b0

0000000080002120 <reg_x4_output>:
    80002120:	6f5c                	ld	a5,152(a4)
    80002122:	f970                	sd	a2,240(a0)
    80002124:	181edcdb          	0x181edcdb

0000000080002128 <reg_x5_output>:
    80002128:	547d                	li	s0,-1
    8000212a:	5c6e                	lw	s8,248(sp)
    8000212c:	49a43d7b          	0x49a43d7b

0000000080002130 <reg_x6_output>:
    80002130:	dcd67fcf          	0xdcd67fcf
    80002134:	0743c0e7          	0x743c0e7

0000000080002138 <reg_x7_output>:
    80002138:	1a66                	slli	s4,s4,0x39
    8000213a:	3467a91b          	0x3467a91b
    8000213e:	6669                	lui	a2,0x1a

0000000080002140 <reg_x8_output>:
    80002140:	5d3d                	li	s10,-17
    80002142:	2794                	fld	fa3,8(a5)
    80002144:	fb7e                	sd	t6,432(sp)
    80002146:	          	0xb7854cf7

0000000080002148 <reg_x9_output>:
    80002148:	b785                	j	800020a8 <reg_x21_init>
    8000214a:	6acd                	lui	s5,0x13
    8000214c:	e4b9                	bnez	s1,8000219a <reg_x19_output+0x2>
    8000214e:	          	sb	s7,1336(a2) # 1a538 <_start-0x7ffe5ac8>

0000000080002150 <reg_x10_output>:
    80002150:	5376                	lw	t1,124(sp)
    80002152:	fa35                	bnez	a2,800020c6 <reg_x24_init+0x6>
    80002154:	c330                	sw	a2,64(a4)
    80002156:	abec                	fsd	fa1,208(a5)

0000000080002158 <reg_x11_output>:
    80002158:	a7b5e4fb          	0xa7b5e4fb
    8000215c:	f7ff                	0xf7ff
    8000215e:	f56a                	sd	s10,168(sp)

0000000080002160 <reg_x12_output>:
    80002160:	4c2b12b7          	lui	t0,0x4c2b1
    80002164:	c971                	beqz	a0,80002238 <test_memory+0x38>
    80002166:	418e                	lw	gp,192(sp)

0000000080002168 <reg_x13_output>:
    80002168:	d136                	sw	a3,160(sp)
    8000216a:	0466                	slli	s0,s0,0x19
    8000216c:	ed5f01cf          	0xed5f01cf

0000000080002170 <reg_x14_output>:
    80002170:	a4ff813f 1597e5e8 	0x1597e5e8a4ff813f

0000000080002178 <reg_x15_output>:
    80002178:	dda9                	beqz	a1,800020d2 <reg_x26_init+0x2>
    8000217a:	52f5                	li	t0,-3
    8000217c:	b3c6                	fsd	fa7,480(sp)
    8000217e:	          	0x9222f89b

0000000080002180 <reg_x16_output>:
    80002180:	9222                	add	tp,tp,s0
    80002182:	b6d9                	j	80001d48 <fromhost+0xd08>
    80002184:	a2859427          	0xa2859427

0000000080002188 <reg_x17_output>:
    80002188:	c35b03bf 5c39cdcb 	0x5c39cdcbc35b03bf

0000000080002190 <reg_x18_output>:
    80002190:	355c                	fld	fa5,168(a0)
    80002192:	6578                	ld	a4,200(a0)
    80002194:	b2472783          	lw	a5,-1244(a4)

0000000080002198 <reg_x19_output>:
    80002198:	150c                	addi	a1,sp,672
    8000219a:	a53e                	fsd	fa5,136(sp)
    8000219c:	4e9a                	lw	t4,132(sp)
    8000219e:	b4c9                	j	80001c60 <fromhost+0xc20>

00000000800021a0 <reg_x20_output>:
    800021a0:	b528                	fsd	fa0,104(a0)
    800021a2:	d937eb63          	bltu	a5,s3,80001738 <fromhost+0x6f8>
    800021a6:	9240                	0x9240

00000000800021a8 <reg_x21_output>:
    800021a8:	4ac5                	li	s5,17
    800021aa:	a881a65b          	0xa881a65b
    800021ae:	079f        	0xba471492079f

00000000800021b0 <reg_x22_output>:
    800021b0:	1492                	slli	s1,s1,0x24
    800021b2:	14d5ba47          	0x14d5ba47
    800021b6:	          	jal	t2,7ff2ff3c <_start-0xd00c4>

00000000800021b8 <reg_x23_output>:
    800021b8:	d872                	sw	t3,48(sp)
    800021ba:	dc5c                	sw	a5,60(s0)
    800021bc:	fe65                	bnez	a2,800021b4 <reg_x22_output+0x4>
    800021be:	1c4d                	addi	s8,s8,-13

00000000800021c0 <reg_x24_output>:
    800021c0:	9868434b          	fnmsub.s	ft6,fa6,ft6,fs3,rmm
    800021c4:	4e47a6db          	0x4e47a6db

00000000800021c8 <reg_x25_output>:
    800021c8:	75e1                	lui	a1,0xffff8
    800021ca:	0cae                	slli	s9,s9,0xb
    800021cc:	ad09                	j	800027de <_end+0x1ce>
    800021ce:	          	fnmadd.d	fa3,fs9,fa1,ft7,rdn

00000000800021d0 <reg_x26_output>:
    800021d0:	3abc                	fld	fa5,112(a3)
    800021d2:	b19fa54f          	fnmadd.s	fa0,ft11,fs9,fs6,rdn
    800021d6:	85ac                	0x85ac

00000000800021d8 <reg_x27_output>:
    800021d8:	145d                	addi	s0,s0,-9
    800021da:	a48e13ab          	0xa48e13ab
    800021de:	8d41                	or	a0,a0,s0

00000000800021e0 <reg_x28_output>:
    800021e0:	585d                	li	a6,-9
    800021e2:	f819                	bnez	s0,800020f8 <reg_x31_init>
    800021e4:	8c71                	and	s0,s0,a2
    800021e6:	cf1f        	0x5d43320cf1f

00000000800021e8 <reg_x29_output>:
    800021e8:	3320                	fld	fs0,96(a4)
    800021ea:	05d4                	addi	a3,sp,708
    800021ec:	563c                	lw	a5,104(a2)
    800021ee:	          	0x894651f7

00000000800021f0 <reg_x30_output>:
    800021f0:	8946                	mv	s2,a7
    800021f2:	f100a3f7          	0xf100a3f7
    800021f6:	9d9f        	0x5cc587059d9f

00000000800021f8 <reg_x31_output>:
    800021f8:	8705                	srai	a4,a4,0x1
    800021fa:	5cc5                	li	s9,-15
    800021fc:	3a81                	addiw	s5,s5,-32
    800021fe:	dcca                	sw	s2,120(sp)

0000000080002200 <test_memory>:
    80002200:	1b05                	addi	s6,s6,-31
    80002202:	1afc202b          	0x1afc202b
    80002206:	4086                	lw	ra,64(sp)
    80002208:	e981                	bnez	a1,80002218 <test_memory+0x18>
    8000220a:	dd8e                	sw	gp,248(sp)
    8000220c:	3339                	addiw	t1,t1,-18
    8000220e:	40cd                	li	ra,19
    80002210:	45b2                	lw	a1,12(sp)
    80002212:	71be                	ld	gp,488(sp)
    80002214:	bdfc                	fsd	fa5,248(a1)
    80002216:	a56c                	fsd	fa1,200(a0)
    80002218:	c2d4                	sw	a3,4(a3)
    8000221a:	c249                	beqz	a2,8000229c <test_memory+0x9c>
    8000221c:	4e30                	lw	a2,88(a2)
    8000221e:	ee5d                	bnez	a2,800022dc <test_memory+0xdc>
    80002220:	c341                	beqz	a4,800022a0 <test_memory+0xa0>
    80002222:	7372                	ld	t1,312(sp)
    80002224:	f5a0                	sd	s0,104(a1)
    80002226:	4a29                	li	s4,10
    80002228:	5c5e637b          	0x5c5e637b
    8000222c:	091dabe7          	0x91dabe7
    80002230:	35320817          	auipc	a6,0x35320
    80002234:	93f9                	srli	a5,a5,0x3e
    80002236:	b1a4                	fsd	fs1,96(a1)
    80002238:	00e8                	addi	a0,sp,76
    8000223a:	e341                	bnez	a4,800022ba <test_memory+0xba>
    8000223c:	8e91                	sub	a3,a3,a2
    8000223e:	5e04                	lw	s1,56(a2)
    80002240:	f0df 7cef 7229      	0x72297ceff0df
    80002246:	4345                	li	t1,17
    80002248:	4974                	lw	a3,84(a0)
    8000224a:	6bb5                	lui	s7,0xd
    8000224c:	d568                	sw	a0,108(a0)
    8000224e:	f99d037b          	0xf99d037b
    80002252:	e0a9                	bnez	s1,80002294 <test_memory+0x94>
    80002254:	a745                	j	800029f4 <_end+0x3e4>
    80002256:	469a                	lw	a3,132(sp)
    80002258:	c394                	sw	a3,0(a5)
    8000225a:	4122                	lw	sp,8(sp)
    8000225c:	681e                	ld	a6,448(sp)
    8000225e:	5202d4f7          	0x5202d4f7
    80002262:	f93a                	sd	a4,176(sp)
    80002264:	c982                	sw	zero,208(sp)
    80002266:	95bc                	0x95bc
    80002268:	6c4a                	ld	s8,144(sp)
    8000226a:	56aaac73          	csrrs	s8,0x56a,s5
    8000226e:	5088                	lw	a0,32(s1)
    80002270:	6302                	ld	t1,0(sp)
    80002272:	9d90a157          	0x9d90a157
    80002276:	f764                	sd	s1,232(a4)
    80002278:	48df ed99 b150      	0xb150ed9948df
    8000227e:	99a3781b          	0x99a3781b
    80002282:	b88d                	j	80001af4 <fromhost+0xab4>
    80002284:	d841                	beqz	s0,80002214 <test_memory+0x14>
    80002286:	c7a1                	beqz	a5,800022ce <test_memory+0xce>
    80002288:	dfce                	sw	s3,252(sp)
    8000228a:	156e                	slli	a0,a0,0x3b
    8000228c:	5cdd                	li	s9,-9
    8000228e:	1580                	addi	s0,sp,736
    80002290:	8b18                	0x8b18
    80002292:	308a                	fld	ft1,160(sp)
    80002294:	d670                	sw	a2,108(a2)
    80002296:	8209                	srli	a2,a2,0x2
    80002298:	0071cd03          	lbu	s10,7(gp) # 1a007 <_start-0x7ffe5ff9>
    8000229c:	672c                	ld	a1,72(a4)
    8000229e:	c60e803f 6f1c50ed 	0x6f1c50edc60e803f
    800022a6:	e545dc3f 9ff0df15 	0x9ff0df15e545dc3f
    800022ae:	eb06                	sd	ra,400(sp)
    800022b0:	e544                	sd	s1,136(a0)
    800022b2:	bc44                	fsd	fs1,184(s0)
    800022b4:	43d8                	lw	a4,4(a5)
    800022b6:	9cefca23          	0x9cefca23
    800022ba:	2162                	fld	ft2,24(sp)
    800022bc:	79b6                	ld	s3,360(sp)
    800022be:	741d                	lui	s0,0xfffe7
    800022c0:	b761                	j	80002248 <test_memory+0x48>
    800022c2:	4d1d                	li	s10,7
    800022c4:	336a                	fld	ft6,184(sp)
    800022c6:	000e                	c.slli	zero,0x3
    800022c8:	a5e6                	fsd	fs9,200(sp)
    800022ca:	771fd873          	csrrwi	a6,0x771,31
    800022ce:	2558                	fld	fa4,136(a0)
    800022d0:	9001                	srli	s0,s0,0x20
    800022d2:	e572                	sd	t3,136(sp)
    800022d4:	d2a9                	beqz	a3,80002216 <test_memory+0x16>
    800022d6:	396d                	addiw	s2,s2,-5
    800022d8:	f8c6                	sd	a7,112(sp)
    800022da:	7c90                	ld	a2,56(s1)
    800022dc:	a876                	fsd	ft9,16(sp)
    800022de:	ac7f                	0xac7f
    800022e0:	1610                	addi	a2,sp,800
    800022e2:	a262                	fsd	fs8,256(sp)
    800022e4:	bd350fab          	0xbd350fab
    800022e8:	bd5e                	fsd	fs7,184(sp)
    800022ea:	c121                	beqz	a0,8000232a <test_memory+0x12a>
    800022ec:	fd62                	sd	s8,184(sp)
    800022ee:	9160                	0x9160
    800022f0:	0365235b          	0x365235b
    800022f4:	6322                	ld	t1,8(sp)
    800022f6:	bc11                	j	80001d0a <fromhost+0xcca>
    800022f8:	c65e                	sw	s7,12(sp)
    800022fa:	ac00                	fsd	fs0,24(s0)
    800022fc:	6efa                	ld	t4,408(sp)
    800022fe:	8964c30f          	0x8964c30f
    80002302:	bc4a                	fsd	fs2,56(sp)
    80002304:	3401                	addiw	s0,s0,-32
    80002306:	944e4877          	0x944e4877
    8000230a:	6af0                	ld	a2,208(a3)
    8000230c:	7e5c45fb          	0x7e5c45fb
    80002310:	cf75                	beqz	a4,8000240c <test_memory+0x20c>
    80002312:	7569                	lui	a0,0xffffa
    80002314:	5166                	lw	sp,120(sp)
    80002316:	c49e                	sw	t2,72(sp)
    80002318:	13c2                	slli	t2,t2,0x30
    8000231a:	7b58                	ld	a4,176(a4)
    8000231c:	0154                	addi	a3,sp,132
    8000231e:	4ca8                	lw	a0,88(s1)
    80002320:	5afb3df7          	0x5afb3df7
    80002324:	d0b1a6b3          	0xd0b1a6b3
    80002328:	8acc                	0x8acc
    8000232a:	3550                	fld	fa2,168(a0)
    8000232c:	a0ea                	fsd	fs10,64(sp)
    8000232e:	6ffc                	ld	a5,216(a5)
    80002330:	4c94cb03          	lbu	s6,1225(s1)
    80002334:	8dfd                	and	a1,a1,a5
    80002336:	69b18203          	lb	tp,1691(gp) # 800034ab <__global_pointer$+0x69b>
    8000233a:	eea0                	sd	s0,88(a3)
    8000233c:	c83b5897          	auipc	a7,0xc83b5
    80002340:	bc39                	j	80001d5e <fromhost+0xd1e>
    80002342:	d5b0                	sw	a2,104(a1)
    80002344:	64a9                	lui	s1,0xa
    80002346:	1d4a                	slli	s10,s10,0x32
    80002348:	f2de                	sd	s7,352(sp)
    8000234a:	ebc5                	bnez	a5,800023fa <test_memory+0x1fa>
    8000234c:	ef76                	sd	t4,408(sp)
    8000234e:	11d0a143          	fmadd.s	ft2,ft1,ft9,ft2,rdn
    80002352:	011c                	addi	a5,sp,128
    80002354:	4654                	lw	a3,12(a2)
    80002356:	b7ff                	0xb7ff
    80002358:	ee1c                	sd	a5,24(a2)
    8000235a:	4f5f9fef          	jal	t6,800fc04e <__global_pointer$+0xf923e>
    8000235e:	fb9c                	sd	a5,48(a5)
    80002360:	0eee                	slli	t4,t4,0x1b
    80002362:	1078                	addi	a4,sp,44
    80002364:	11f4                	addi	a3,sp,236
    80002366:	db023233          	0xdb023233
    8000236a:	2ff1                	addiw	t6,t6,28
    8000236c:	08ae                	slli	a7,a7,0xb
    8000236e:	733a9483          	lh	s1,1843(s5) # 13733 <_start-0x7ffec8cd>
    80002372:	1d3c37db          	0x1d3c37db
    80002376:	78cc                	ld	a1,176(s1)
    80002378:	5b2456ab          	0x5b2456ab
    8000237c:	ce48                	sw	a0,28(a2)
    8000237e:	39ae0fbf 3a429955 	0x3a42995539ae0fbf
    80002386:	2261                	addiw	tp,tp,24
    80002388:	a8a9                	j	800023e2 <test_memory+0x1e2>
    8000238a:	5ef9                	li	t4,-2
    8000238c:	2dde                	fld	fs11,464(sp)
    8000238e:	4931                	li	s2,12
    80002390:	f0b1                	bnez	s1,800022d4 <test_memory+0xd4>
    80002392:	f366d5db          	0xf366d5db
    80002396:	550c                	lw	a1,40(a0)
    80002398:	ab39                	j	800028b6 <_end+0x2a6>
    8000239a:	da19                	beqz	a2,800022b0 <test_memory+0xb0>
    8000239c:	0870                	addi	a2,sp,28
    8000239e:	ff649e47          	fmsub.q	ft8,fs1,fs6,ft11,rtz
    800023a2:	ee51                	bnez	a2,8000243e <test_memory+0x23e>
    800023a4:	216d                	addiw	sp,sp,27
    800023a6:	b3de                	fsd	fs7,480(sp)
    800023a8:	515782b7          	lui	t0,0x51578
    800023ac:	8f19                	sub	a4,a4,a4
    800023ae:	548d                	li	s1,-29
    800023b0:	6c3c                	ld	a5,88(s0)
    800023b2:	c0f8                	sw	a4,68(s1)
    800023b4:	3fed                	addiw	t6,t6,-5
    800023b6:	7539                	lui	a0,0xfffee
    800023b8:	d854                	sw	a3,52(s0)
    800023ba:	a706                	fsd	ft1,392(sp)
    800023bc:	c801                	beqz	s0,800023cc <test_memory+0x1cc>
    800023be:	8a64                	0x8a64
    800023c0:	f8d0                	sd	a2,176(s1)
    800023c2:	e32e                	sd	a1,384(sp)
    800023c4:	23ee                	fld	ft7,216(sp)
    800023c6:	fad0                	sd	a2,176(a3)
    800023c8:	8c05                	sub	s0,s0,s1
    800023ca:	6b5d                	lui	s6,0x17
    800023cc:	063cdfb7          	lui	t6,0x63cd
    800023d0:	b5f9a6f3          	csrrs	a3,0xb5f,s3
    800023d4:	f8cd                	bnez	s1,80002386 <test_memory+0x186>
    800023d6:	11be760b          	0x11be760b
    800023da:	75ea                	ld	a1,184(sp)
    800023dc:	caa2                	sw	s0,84(sp)
    800023de:	fb05ef6f          	jal	t5,7ff60b8e <_start-0x9f472>
    800023e2:	7ab0                	ld	a2,112(a3)
    800023e4:	9b1fa763          	0x9b1fa763
    800023e8:	ede0                	sd	s0,216(a1)
    800023ea:	33f5                	addiw	t2,t2,-3
    800023ec:	f654fad3          	0xf654fad3
    800023f0:	8f86                	mv	t6,ra
    800023f2:	0b658dc3          	fmadd.d	fs11,fa1,fs6,ft1,rne
    800023f6:	04efcfb7          	lui	t6,0x4efc
    800023fa:	2dffb92f          	0x2dffb92f
    800023fe:	a7b4                	fsd	fa3,72(a5)
    80002400:	4cc4cdeb          	0x4cc4cdeb
    80002404:	9b0e                	add	s6,s6,gp
    80002406:	f299                	bnez	a3,8000230c <test_memory+0x10c>
    80002408:	0e69b287          	fld	ft5,230(s3) # 53c550e6 <_start-0x2c3aaf1a>
    8000240c:	97cc                	0x97cc
    8000240e:	d688                	sw	a0,40(a3)
    80002410:	e0b4                	sd	a3,64(s1)
    80002412:	246d                	addiw	s0,s0,27
    80002414:	64fa                	ld	s1,408(sp)
    80002416:	05dd                	addi	a1,a1,23
    80002418:	db90                	sw	a2,48(a5)
    8000241a:	d0f8                	sw	a4,100(s1)
    8000241c:	ee55ec4b          	fnmsub.q	fs8,fa1,ft5,ft9,unknown
    80002420:	32be                	fld	ft5,488(sp)
    80002422:	8853bff3          	csrrc	t6,0x885,t2
    80002426:	07b1                	addi	a5,a5,12
    80002428:	6fb0                	ld	a2,88(a5)
    8000242a:	c338                	sw	a4,64(a4)
    8000242c:	0ec5                	addi	t4,t4,17
    8000242e:	2465                	addiw	s0,s0,25
    80002430:	0fd5                	addi	t6,t6,21
    80002432:	d662                	sw	s8,44(sp)
    80002434:	8b32                	mv	s6,a2
    80002436:	dc95                	beqz	s1,80002372 <test_memory+0x172>
    80002438:	0e01                	addi	t3,t3,0
    8000243a:	f7ba                	sd	a4,488(sp)
    8000243c:	68ba                	ld	a7,392(sp)
    8000243e:	6756                	ld	a4,336(sp)
    80002440:	3a8d                	addiw	s5,s5,-29
    80002442:	f1df 3340 bb45      	0xbb453340f1df
    80002448:	3b4ac103          	lbu	sp,948(s5)
    8000244c:	66d42d27          	fsw	fa3,1658(s0) # fffffffffffe767a <__global_pointer$+0xffffffff7ffe486a>
    80002450:	8b51                	andi	a4,a4,20
    80002452:	30d8                	fld	fa4,160(s1)
    80002454:	c49d                	beqz	s1,80002482 <test_memory+0x282>
    80002456:	54f6                	lw	s1,124(sp)
    80002458:	05d4                	addi	a3,sp,708
    8000245a:	fa04                	sd	s1,48(a2)
    8000245c:	0c05                	addi	s8,s8,1
    8000245e:	ecbc690f          	0xecbc690f
    80002462:	27c8                	fld	fa0,136(a5)
    80002464:	cb02                	sw	zero,148(sp)
    80002466:	929e6603          	lwu	a2,-1751(t3)
    8000246a:	3009                	0x3009
    8000246c:	1a1a                	slli	s4,s4,0x26
    8000246e:	f554                	sd	a3,168(a0)
    80002470:	044f4927          	fsq	ft4,82(t5)
    80002474:	d128                	sw	a0,96(a0)
    80002476:	41f2                	lw	gp,28(sp)
    80002478:	dab8904f          	fnmadd.d	ft0,fa7,fa1,fs11,rtz
    8000247c:	f0ea                	sd	s10,96(sp)
    8000247e:	bab2                	fsd	fa2,368(sp)
    80002480:	3d82                	fld	fs11,32(sp)
    80002482:	054e                	slli	a0,a0,0x13
    80002484:	aa6a                	fsd	fs10,272(sp)
    80002486:	bc5a                	fsd	fs6,56(sp)
    80002488:	9a243b8f          	0x9a243b8f
    8000248c:	4b0e                	lw	s6,192(sp)
    8000248e:	a567e397          	auipc	t2,0xa567e
    80002492:	32a780d3          	0x32a780d3
    80002496:	dc7e                	sw	t6,56(sp)
    80002498:	20ee                	fld	ft1,216(sp)
    8000249a:	a0aac007          	flq	ft0,-1526(s5)
    8000249e:	1ba9                	addi	s7,s7,-22
    800024a0:	546c                	lw	a1,108(s0)
    800024a2:	94e4                	0x94e4
    800024a4:	a86d                	j	8000255e <test_memory+0x35e>
    800024a6:	8e09                	sub	a2,a2,a0
    800024a8:	685d                	lui	a6,0x17
    800024aa:	8839580f          	0x8839580f
    800024ae:	907e                	c.add	zero,t6
    800024b0:	90b8                	0x90b8
    800024b2:	6539                	lui	a0,0xe
    800024b4:	0555                	addi	a0,a0,21
    800024b6:	dc49                	beqz	s0,80002450 <test_memory+0x250>
    800024b8:	e3e0                	sd	s0,192(a5)
    800024ba:	e8df df8a cfd4      	0xcfd4df8ae8df
    800024c0:	22d8                	fld	fa4,128(a3)
    800024c2:	f8a962c3          	fmadd.s	ft5,fs2,fa0,ft11,unknown
    800024c6:	b8c0                	fsd	fs0,176(s1)
    800024c8:	d580                	sw	s0,40(a1)
    800024ca:	dc86                	sw	ra,120(sp)
    800024cc:	010d                	addi	sp,sp,3
    800024ce:	839f 0ed3 939a      	0x939a0ed3839f
    800024d4:	408a684b          	fnmsub.s	fa6,fs4,fs0,fs0,unknown
    800024d8:	a085                	j	80002538 <test_memory+0x338>
    800024da:	f5c6                	sd	a7,232(sp)
    800024dc:	8952                	mv	s2,s4
    800024de:	4a7b1d13          	0x4a7b1d13
    800024e2:	883d                	andi	s0,s0,15
    800024e4:	9bd8                	0x9bd8
    800024e6:	6f6a                	ld	t5,152(sp)
    800024e8:	d9e4                	sw	s1,116(a1)
    800024ea:	70cab49b          	0x70cab49b
    800024ee:	b8c6                	fsd	fa7,112(sp)
    800024f0:	0505                	addi	a0,a0,1
    800024f2:	760a8eb3          	0x760a8eb3
    800024f6:	22a0                	fld	fs0,64(a3)
    800024f8:	6bf6                	ld	s7,344(sp)
    800024fa:	7dd1832f          	0x7dd1832f
    800024fe:	53dc1e93          	0x53dc1e93
    80002502:	8abe                	mv	s5,a5
    80002504:	605f ca01 c16b      	0xc16bca01605f
    8000250a:	5c1a                	lw	s8,164(sp)
    8000250c:	52ee                	lw	t0,248(sp)
    8000250e:	58b1352f          	0x58b1352f
    80002512:	7d02                	ld	s10,32(sp)
    80002514:	ccf9                	beqz	s1,800025f2 <test_memory+0x3f2>
    80002516:	a286                	fsd	ft1,320(sp)
    80002518:	2b7d                	addiw	s6,s6,31
    8000251a:	9d56eecf          	0x9d56eecf
    8000251e:	92c4                	0x92c4
    80002520:	34d6                	fld	fs1,368(sp)
    80002522:	5ee9                	li	t4,-6
    80002524:	72c4                	ld	s1,160(a3)
    80002526:	f7676c17          	auipc	s8,0xf7676
    8000252a:	2650                	fld	fa2,136(a2)
    8000252c:	27ba                	fld	fa5,392(sp)
    8000252e:	5dccc657          	0x5dccc657
    80002532:	4fb6                	lw	t6,76(sp)
    80002534:	a7dc                	fsd	fa5,136(a5)
    80002536:	3b65                	addiw	s6,s6,-7
    80002538:	e718                	sd	a4,8(a4)
    8000253a:	2489                	addiw	s1,s1,2
    8000253c:	d539                	beqz	a0,8000248a <test_memory+0x28a>
    8000253e:	50fe                	lw	ra,252(sp)
    80002540:	271a                	fld	fa4,384(sp)
    80002542:	b591                	j	80002386 <test_memory+0x186>
    80002544:	7e2e                	ld	t3,232(sp)
    80002546:	f26e                	sd	s11,288(sp)
    80002548:	0124                	addi	s1,sp,136
    8000254a:	f87e                	sd	t6,48(sp)
    8000254c:	c8b5                	beqz	s1,800025c0 <test_memory+0x3c0>
    8000254e:	16a8                	addi	a0,sp,872
    80002550:	9560                	0x9560
    80002552:	94cd                	srai	s1,s1,0x33
    80002554:	865f 94bb ebfa      	0xebfa94bb865f
    8000255a:	7ae8                	ld	a0,240(a3)
    8000255c:	3c51                	addiw	s8,s8,-12
    8000255e:	e42d                	bnez	s0,800025c8 <test_memory+0x3c8>
    80002560:	f586ceab          	0xf586ceab
    80002564:	5cee                	lw	s9,248(sp)
    80002566:	485cc243          	fmadd.s	ft4,fs9,ft5,fs1,rmm
    8000256a:	3279                	addiw	tp,tp,-2
    8000256c:	cd2e                	sw	a1,152(sp)
    8000256e:	d86c                	sw	a1,116(s0)
    80002570:	bc09                	j	80001f82 <fromhost+0xf42>
    80002572:	4cff                	0x4cff
    80002574:	32e36597          	auipc	a1,0x32e36
    80002578:	fa42bf0b          	0xfa42bf0b
    8000257c:	3f7a                	fld	ft10,440(sp)
    8000257e:	6010                	ld	a2,0(s0)
    80002580:	b060                	fsd	fs0,224(s0)
    80002582:	58f6ea73          	csrrsi	s4,0x58f,13
    80002586:	b5c1c72f          	0xb5c1c72f
    8000258a:	6956                	ld	s2,336(sp)
    8000258c:	feb1                	bnez	a3,800024e8 <test_memory+0x2e8>
    8000258e:	a3b1                	j	80002ada <_end+0x4ca>
    80002590:	d74a287b          	0xd74a287b
    80002594:	3ff98873          	0x3ff98873
    80002598:	e4fedf63          	bge	t4,a5,80001bf6 <fromhost+0xbb6>
    8000259c:	de18                	sw	a4,56(a2)
    8000259e:	e6e8                	sd	a0,200(a3)
    800025a0:	f865                	bnez	s0,80002590 <test_memory+0x390>
    800025a2:	3e3d                	addiw	t3,t3,-17
    800025a4:	fc5d                	bnez	s0,80002562 <test_memory+0x362>
    800025a6:	a6c0                	fsd	fs0,136(a3)
    800025a8:	1b76                	slli	s6,s6,0x3d
    800025aa:	8714                	0x8714
    800025ac:	dd90                	sw	a2,56(a1)
    800025ae:	481f 79fa a539      	0xa53979fa481f
    800025b4:	d04e                	sw	s3,32(sp)
    800025b6:	0460                	addi	s0,sp,524
    800025b8:	fa9f58d3          	0xfa9f58d3
    800025bc:	f68e                	sd	gp,360(sp)
    800025be:	7d9e                	ld	s11,480(sp)
    800025c0:	90ba                	add	ra,ra,a4
    800025c2:	47ae                	lw	a5,200(sp)
    800025c4:	71da                	ld	gp,432(sp)
    800025c6:	f32e                	sd	a1,416(sp)
    800025c8:	6f96                	ld	t6,320(sp)
    800025ca:	7999                	lui	s3,0xfffe6
    800025cc:	3566                	fld	fa0,120(sp)
    800025ce:	bfe5                	j	800025c6 <test_memory+0x3c6>
    800025d0:	96e0                	0x96e0
    800025d2:	f44a                	sd	s2,40(sp)
    800025d4:	8c6aa563          	0x8c6aa563
    800025d8:	265c                	fld	fa5,136(a2)
    800025da:	ba7a                	fsd	ft10,304(sp)
    800025dc:	bcb4a2c7          	0xbcb4a2c7
    800025e0:	87b2                	mv	a5,a2
    800025e2:	754c9653          	0x754c9653
    800025e6:	d6acf0c3          	fmadd.q	ft1,fs9,fa0,fs10
    800025ea:	da95                	beqz	a3,8000251e <test_memory+0x31e>
    800025ec:	c18a                	sw	sp,192(sp)
    800025ee:	a534                	fsd	fa3,72(a0)
    800025f0:	fb1a                	sd	t1,432(sp)
    800025f2:	39fc                	fld	fa5,240(a1)
    800025f4:	66e36f53          	0x66e36f53
    800025f8:	64b5                	lui	s1,0xd
    800025fa:	de4c                	sw	a1,60(a2)
    800025fc:	a498a4af          	amomax.w.aq	s1,s1,(a7)

0000000080002600 <loop_count>:
    80002600:	0040                	addi	s0,sp,4
	...

Disassembly of section .riscv.attributes:

0000000000000000 <.riscv.attributes>:
   0:	1e41                	addi	t3,t3,-16
   2:	0000                	unimp
   4:	7200                	ld	s0,32(a2)
   6:	7369                	lui	t1,0xffffa
   8:	01007663          	bgeu	zero,a6,14 <_start-0x7fffffec>
   c:	0014                	0x14
   e:	0000                	unimp
  10:	7205                	lui	tp,0xfffe1
  12:	3676                	fld	fa2,376(sp)
  14:	6934                	ld	a3,80(a0)
  16:	7032                	0x7032
  18:	5f30                	lw	a2,120(a4)
  1a:	326d                	addiw	tp,tp,-5
  1c:	3070                	fld	fa2,224(s0)
	...
