
build/test4:     file format elf64-littleriscv


Disassembly of section .text.init:

0000000080000000 <_start>:
    80000000:	05c0006f          	j	8000005c <reset_vector>

0000000080000004 <trap_vector>:
    80000004:	34202f73          	csrr	t5,mcause
    80000008:	00800f93          	li	t6,8
    8000000c:	03ff0a63          	beq	t5,t6,80000040 <write_tohost>
    80000010:	00900f93          	li	t6,9
    80000014:	03ff0663          	beq	t5,t6,80000040 <write_tohost>
    80000018:	00b00f93          	li	t6,11
    8000001c:	03ff0263          	beq	t5,t6,80000040 <write_tohost>
    80000020:	80000f17          	auipc	t5,0x80000
    80000024:	fe0f0f13          	addi	t5,t5,-32 # 0 <_start-0x80000000>
    80000028:	000f0463          	beqz	t5,80000030 <trap_vector+0x2c>
    8000002c:	000f0067          	jr	t5
    80000030:	34202f73          	csrr	t5,mcause
    80000034:	000f5463          	bgez	t5,8000003c <handle_exception>
    80000038:	0040006f          	j	8000003c <handle_exception>

000000008000003c <handle_exception>:
    8000003c:	5391e193          	ori	gp,gp,1337

0000000080000040 <write_tohost>:
    80000040:	00001f17          	auipc	t5,0x1
    80000044:	fc3f2023          	sw	gp,-64(t5) # 80001000 <tohost>
    80000048:	000902b7          	lui	t0,0x90
    8000004c:	0012829b          	addiw	t0,t0,1
    80000050:	00c29293          	slli	t0,t0,0xc
    80000054:	0002af83          	lw	t6,0(t0) # 90000 <_start-0x7ff70000>
    80000058:	fe9ff06f          	j	80000040 <write_tohost>

000000008000005c <reset_vector>:
    8000005c:	00000093          	li	ra,0
    80000060:	00000113          	li	sp,0
    80000064:	00000193          	li	gp,0
    80000068:	00000213          	li	tp,0
    8000006c:	00000293          	li	t0,0
    80000070:	00000313          	li	t1,0
    80000074:	00000393          	li	t2,0
    80000078:	00000413          	li	s0,0
    8000007c:	00000493          	li	s1,0
    80000080:	00000513          	li	a0,0
    80000084:	00000593          	li	a1,0
    80000088:	00000613          	li	a2,0
    8000008c:	00000693          	li	a3,0
    80000090:	00000713          	li	a4,0
    80000094:	00000793          	li	a5,0
    80000098:	00000813          	li	a6,0
    8000009c:	00000893          	li	a7,0
    800000a0:	00000913          	li	s2,0
    800000a4:	00000993          	li	s3,0
    800000a8:	00000a13          	li	s4,0
    800000ac:	00000a93          	li	s5,0
    800000b0:	00000b13          	li	s6,0
    800000b4:	00000b93          	li	s7,0
    800000b8:	00000c13          	li	s8,0
    800000bc:	00000c93          	li	s9,0
    800000c0:	00000d13          	li	s10,0
    800000c4:	00000d93          	li	s11,0
    800000c8:	00000e13          	li	t3,0
    800000cc:	00000e93          	li	t4,0
    800000d0:	00000f13          	li	t5,0
    800000d4:	00000f93          	li	t6,0
    800000d8:	f1402573          	csrr	a0,mhartid
    800000dc:	00051063          	bnez	a0,800000dc <reset_vector+0x80>
    800000e0:	00000297          	auipc	t0,0x0
    800000e4:	01028293          	addi	t0,t0,16 # 800000f0 <reset_vector+0x94>
    800000e8:	30529073          	csrw	mtvec,t0
    800000ec:	18005073          	csrwi	satp,0
    800000f0:	00000297          	auipc	t0,0x0
    800000f4:	02428293          	addi	t0,t0,36 # 80000114 <reset_vector+0xb8>
    800000f8:	30529073          	csrw	mtvec,t0
    800000fc:	0010029b          	addiw	t0,zero,1
    80000100:	03529293          	slli	t0,t0,0x35
    80000104:	fff28293          	addi	t0,t0,-1
    80000108:	3b029073          	csrw	pmpaddr0,t0
    8000010c:	01f00293          	li	t0,31
    80000110:	3a029073          	csrw	pmpcfg0,t0
    80000114:	30405073          	csrwi	mie,0
    80000118:	00000297          	auipc	t0,0x0
    8000011c:	01428293          	addi	t0,t0,20 # 8000012c <reset_vector+0xd0>
    80000120:	30529073          	csrw	mtvec,t0
    80000124:	30205073          	csrwi	medeleg,0
    80000128:	30305073          	csrwi	mideleg,0
    8000012c:	00000193          	li	gp,0
    80000130:	00000297          	auipc	t0,0x0
    80000134:	ed428293          	addi	t0,t0,-300 # 80000004 <trap_vector>
    80000138:	30529073          	csrw	mtvec,t0
    8000013c:	00100513          	li	a0,1
    80000140:	01f51513          	slli	a0,a0,0x1f
    80000144:	00055c63          	bgez	a0,8000015c <reset_vector+0x100>
    80000148:	0ff0000f          	fence
    8000014c:	00100193          	li	gp,1
    80000150:	05d00893          	li	a7,93
    80000154:	00000513          	li	a0,0
    80000158:	00000073          	ecall
    8000015c:	80000297          	auipc	t0,0x80000
    80000160:	ea428293          	addi	t0,t0,-348 # 0 <_start-0x80000000>
    80000164:	00028a63          	beqz	t0,80000178 <reset_vector+0x11c>
    80000168:	10529073          	csrw	stvec,t0
    8000016c:	0000b2b7          	lui	t0,0xb
    80000170:	1092829b          	addiw	t0,t0,265
    80000174:	30229073          	csrw	medeleg,t0
    80000178:	30005073          	csrwi	mstatus,0
    8000017c:	00000297          	auipc	t0,0x0
    80000180:	01428293          	addi	t0,t0,20 # 80000190 <reset_vector+0x134>
    80000184:	34129073          	csrw	mepc,t0
    80000188:	f1402573          	csrr	a0,mhartid
    8000018c:	30200073          	mret
    80000190:	0200006f          	j	800001b0 <test_start>

0000000080000194 <crash_backward>:
    80000194:	0ff0000f          	fence
    80000198:	00018063          	beqz	gp,80000198 <crash_backward+0x4>
    8000019c:	00119193          	slli	gp,gp,0x1
    800001a0:	0011e193          	ori	gp,gp,1
    800001a4:	05d00893          	li	a7,93
    800001a8:	00018513          	mv	a0,gp
    800001ac:	00000073          	ecall

00000000800001b0 <test_start>:
    800001b0:	00002f97          	auipc	t6,0x2
    800001b4:	e50f8f93          	addi	t6,t6,-432 # 80002000 <hidden_data>
    800001b8:	000fb003          	ld	zero,0(t6)
    800001bc:	008fb083          	ld	ra,8(t6)
    800001c0:	010fb103          	ld	sp,16(t6)
    800001c4:	018fb183          	ld	gp,24(t6)
    800001c8:	020fb203          	ld	tp,32(t6)
    800001cc:	028fb283          	ld	t0,40(t6)
    800001d0:	030fb303          	ld	t1,48(t6)
    800001d4:	038fb383          	ld	t2,56(t6)
    800001d8:	040fb403          	ld	s0,64(t6)
    800001dc:	048fb483          	ld	s1,72(t6)
    800001e0:	050fb503          	ld	a0,80(t6)
    800001e4:	058fb583          	ld	a1,88(t6)
    800001e8:	060fb603          	ld	a2,96(t6)
    800001ec:	068fb683          	ld	a3,104(t6)
    800001f0:	070fb703          	ld	a4,112(t6)
    800001f4:	078fb783          	ld	a5,120(t6)
    800001f8:	080fb803          	ld	a6,128(t6)
    800001fc:	088fb883          	ld	a7,136(t6)
    80000200:	090fb903          	ld	s2,144(t6)
    80000204:	098fb983          	ld	s3,152(t6)
    80000208:	0a0fba03          	ld	s4,160(t6)
    8000020c:	0a8fba83          	ld	s5,168(t6)
    80000210:	0b0fbb03          	ld	s6,176(t6)
    80000214:	0b8fbb83          	ld	s7,184(t6)
    80000218:	0c0fbc03          	ld	s8,192(t6)
    8000021c:	0c8fbc83          	ld	s9,200(t6)
    80000220:	0d0fbd03          	ld	s10,208(t6)
    80000224:	0d8fbd83          	ld	s11,216(t6)
    80000228:	0e0fbe03          	ld	t3,224(t6)
    8000022c:	0e8fbe83          	ld	t4,232(t6)
    80000230:	0f0fbf03          	ld	t5,240(t6)
    80000234:	0f8fbf83          	ld	t6,248(t6)
    80000238:	0040006f          	j	8000023c <pseg_0>

000000008000023c <pseg_0>:
    8000023c:	012fa3b3          	slt	t2,t6,s2
    80000240:	00002517          	auipc	a0,0x2
    80000244:	3dc50513          	addi	a0,a0,988 # 8000261c <_end+0xc>
    80000248:	abc00f13          	li	t5,-1348
    8000024c:	75fc1eb7          	lui	t4,0x75fc1
    80000250:	20c00b93          	li	s7,524
    80000254:	022111b3          	mulh	gp,sp,sp
    80000258:	00ca9933          	sll	s2,s5,a2
    8000025c:	00100093          	li	ra,1
    80000260:	d6900a93          	li	s5,-663
    80000264:	10900293          	li	t0,265
    80000268:	00002f97          	auipc	t6,0x2
    8000026c:	ad0f8f93          	addi	t6,t6,-1328 # 80001d38 <fromhost+0xcf8>
    80000270:	00100913          	li	s2,1
    80000274:	80a2ac93          	slti	s9,t0,-2038
    80000278:	ce600113          	li	sp,-794
    8000027c:	2fc00493          	li	s1,764
    80000280:	035a8433          	mul	s0,s5,s5
    80000284:	037f6e3b          	remw	t3,t5,s7
    80000288:	cb900593          	li	a1,-839
    8000028c:	03f91913          	slli	s2,s2,0x3f
    80000290:	e4456983          	lwu	s3,-444(a0)
    80000294:	73ef84a3          	sb	t5,1833(t6)
    80000298:	00b4e7b3          	or	a5,s1,a1
    8000029c:	027cd813          	srli	a6,s9,0x27
    800002a0:	03ad443b          	divw	s0,s10,s10
    800002a4:	03f09093          	slli	ra,ra,0x3f
    800002a8:	00100793          	li	a5,1
    800002ac:	18200a13          	li	s4,386
    800002b0:	03f79793          	slli	a5,a5,0x3f
    800002b4:	00002597          	auipc	a1,0x2
    800002b8:	11c58593          	addi	a1,a1,284 # 800023d0 <test_memory+0x1d0>
    800002bc:	cb700613          	li	a2,-841
    800002c0:	76200b93          	li	s7,1890
    800002c4:	fff00f93          	li	t6,-1
    800002c8:	01ce1b3b          	sllw	s6,t3,t3
    800002cc:	02c28dbb          	mulw	s11,t0,a2
    800002d0:	d7500893          	li	a7,-651
    800002d4:	fff00d13          	li	s10,-1
    800002d8:	02e77633          	remu	a2,a4,a4
    800002dc:	00ffcfb3          	xor	t6,t6,a5
    800002e0:	03ff8233          	mul	tp,t6,t6
    800002e4:	00002f17          	auipc	t5,0x2
    800002e8:	f1ef0f13          	addi	t5,t5,-226 # 80002202 <test_memory+0x2>
    800002ec:	12500813          	li	a6,293
    800002f0:	03413333          	mulhu	t1,sp,s4
    800002f4:	ee100613          	li	a2,-287
    800002f8:	1905ba83          	ld	s5,400(a1)
    800002fc:	00002497          	auipc	s1,0x2
    80000300:	4e448493          	addi	s1,s1,1252 # 800027e0 <_end+0x1d0>
    80000304:	d284d503          	lhu	a0,-728(s1)
    80000308:	fff00e93          	li	t4,-1
    8000030c:	01f57e33          	and	t3,a0,t6
    80000310:	31a00313          	li	t1,794
    80000314:	012eceb3          	xor	t4,t4,s2
    80000318:	0318dc3b          	divuw	s8,a7,a7
    8000031c:	410bd9bb          	sraw	s3,s7,a6
    80000320:	00fe6cb3          	or	s9,t3,a5
    80000324:	03ef3db3          	mulhu	s11,t5,t5
    80000328:	4ea00213          	li	tp,1258
    8000032c:	001d4d33          	xor	s10,s10,ra
    80000330:	004652b3          	srl	t0,a2,tp
    80000334:	00002417          	auipc	s0,0x2
    80000338:	cab40413          	addi	s0,s0,-853 # 80001fdf <fromhost+0xf9f>
    8000033c:	6bcce863          	bltu	s9,t3,800009ec <crash_forward>
    80000340:	70b00493          	li	s1,1803
    80000344:	045f09a3          	sb	t0,83(t5)
    80000348:	000bd833          	srl	a6,s7,zero
    8000034c:	89f00113          	li	sp,-1889
    80000350:	00002617          	auipc	a2,0x2
    80000354:	15460613          	addi	a2,a2,340 # 800024a4 <test_memory+0x2a4>
    80000358:	402c8c33          	sub	s8,s9,sp
    8000035c:	dd465203          	lhu	tp,-556(a2)
    80000360:	11500a93          	li	s5,277
    80000364:	01a3f733          	and	a4,t2,s10
    80000368:	01db73b3          	and	t2,s6,t4
    8000036c:	012de1b3          	or	gp,s11,s2
    80000370:	66004e63          	bltz	zero,800009ec <crash_forward>
    80000374:	09a00613          	li	a2,154
    80000378:	001766b3          	or	a3,a4,ra
    8000037c:	3b345b03          	lhu	s6,947(s0)
    80000380:	52000593          	li	a1,1312
    80000384:	bd500c13          	li	s8,-1067
    80000388:	02234a33          	div	s4,t1,sp
    8000038c:	00b5cb33          	xor	s6,a1,a1
    80000390:	02948dbb          	mulw	s11,s1,s1
    80000394:	00000993          	li	s3,0
    80000398:	8c300f93          	li	t6,-1853
    8000039c:	02bae53b          	remw	a0,s5,a1
    800003a0:	00100293          	li	t0,1
    800003a4:	42dc5113          	srai	sp,s8,0x2d
    800003a8:	02c63233          	mulhu	tp,a2,a2
    800003ac:	00e75b3b          	srlw	s6,a4,a4
    800003b0:	19077893          	andi	a7,a4,400
    800003b4:	01b88cbb          	addw	s9,a7,s11
    800003b8:	015c159b          	slliw	a1,s8,0x15
    800003bc:	00e71433          	sll	s0,a4,a4
    800003c0:	00100e93          	li	t4,1
    800003c4:	03fe9e93          	slli	t4,t4,0x3f
    800003c8:	fff00193          	li	gp,-1
    800003cc:	03f29293          	slli	t0,t0,0x3f
    800003d0:	70200393          	li	t2,1794
    800003d4:	00000b93          	li	s7,0
    800003d8:	00002497          	auipc	s1,0x2
    800003dc:	54748493          	addi	s1,s1,1351 # 8000291f <_end+0x30f>
    800003e0:	03fc3833          	mulhu	a6,s8,t6
    800003e4:	9ed4a8a3          	sw	a3,-1551(s1)
    800003e8:	fff00e13          	li	t3,-1
    800003ec:	01d1c1b3          	xor	gp,gp,t4
    800003f0:	4073d333          	sra	t1,t2,t2
    800003f4:	005e4e33          	xor	t3,t3,t0
    800003f8:	0038fa33          	and	s4,a7,gp
    800003fc:	00002117          	auipc	sp,0x2
    80000400:	ecf10113          	addi	sp,sp,-305 # 800022cb <test_memory+0xcb>
    80000404:	00100c13          	li	s8,1
    80000408:	09315503          	lhu	a0,147(sp)
    8000040c:	01c277b3          	and	a5,tp,t3
    80000410:	9b200813          	li	a6,-1614
    80000414:	19a00693          	li	a3,410
    80000418:	0057ef33          	or	t5,a5,t0
    8000041c:	0115dd33          	srl	s10,a1,a7
    80000420:	2b2f2413          	slti	s0,t5,690
    80000424:	ee600513          	li	a0,-282
    80000428:	1ec00b93          	li	s7,492
    8000042c:	03fc1c13          	slli	s8,s8,0x3f
    80000430:	dc700d13          	li	s10,-569
    80000434:	28200393          	li	t2,642
    80000438:	c5100893          	li	a7,-943
    8000043c:	0318d4b3          	divu	s1,a7,a7
    80000440:	e6100213          	li	tp,-415
    80000444:	01a55433          	srl	s0,a0,s10
    80000448:	fff00c93          	li	s9,-1
    8000044c:	018cccb3          	xor	s9,s9,s8
    80000450:	ae2ea893          	slti	a7,t4,-1310
    80000454:	01da6933          	or	s2,s4,t4
    80000458:	c6000293          	li	t0,-928
    8000045c:	00002517          	auipc	a0,0x2
    80000460:	a0550513          	addi	a0,a0,-1531 # 80001e61 <fromhost+0xe21>
    80000464:	0276e5bb          	remw	a1,a3,t2
    80000468:	00425fbb          	srlw	t6,tp,tp
    8000046c:	03083b33          	mulhu	s6,a6,a6
    80000470:	97b00393          	li	t2,-1669
    80000474:	0190fdb3          	and	s11,ra,s9
    80000478:	48b56d03          	lwu	s10,1163(a0)
    8000047c:	03083633          	mulhu	a2,a6,a6
    80000480:	0273b8b3          	mulhu	a7,t2,t2
    80000484:	f9b00793          	li	a5,-101
    80000488:	4073d6bb          	sraw	a3,t2,t2
    8000048c:	bdd00e13          	li	t3,-1059
    80000490:	aae00613          	li	a2,-1362
    80000494:	40b5db3b          	sraw	s6,a1,a1
    80000498:	4cb00093          	li	ra,1227
    8000049c:	0189eab3          	or	s5,s3,s8
    800004a0:	bdc00813          	li	a6,-1060
    800004a4:	00002397          	auipc	t2,0x2
    800004a8:	e1a38393          	addi	t2,t2,-486 # 800022be <test_memory+0xbe>
    800004ac:	b1000993          	li	s3,-1264
    800004b0:	013be133          	or	sp,s7,s3
    800004b4:	1fe3bd23          	sd	t5,506(t2)
    800004b8:	00002897          	auipc	a7,0x2
    800004bc:	b5b88893          	addi	a7,a7,-1189 # 80002013 <reg_x2_init+0x3>
    800004c0:	00002497          	auipc	s1,0x2
    800004c4:	aa948493          	addi	s1,s1,-1367 # 80001f69 <fromhost+0xf29>
    800004c8:	401e0733          	sub	a4,t3,ra
    800004cc:	7db00693          	li	a3,2011
    800004d0:	cbd00593          	li	a1,-835
    800004d4:	02c6023b          	mulw	tp,a2,a2
    800004d8:	0196d41b          	srliw	s0,a3,0x19
    800004dc:	00002717          	auipc	a4,0x2
    800004e0:	6eb70713          	addi	a4,a4,1771 # 80002bc7 <_end+0x5b7>
    800004e4:	54d49f03          	lh	t5,1357(s1)
    800004e8:	c3157993          	andi	s3,a0,-975
    800004ec:	96576c83          	lwu	s9,-1691(a4)
    800004f0:	03646d3b          	remw	s10,s0,s6
    800004f4:	0118de3b          	srlw	t3,a7,a7
    800004f8:	37500393          	li	t2,885
    800004fc:	dfd00a93          	li	s5,-515
    80000500:	00028113          	mv	sp,t0
    80000504:	00010b13          	mv	s6,sp
    80000508:	015a9c33          	sll	s8,s5,s5
    8000050c:	9d700093          	li	ra,-1577
    80000510:	02b68533          	mul	a0,a3,a1
    80000514:	0213ebb3          	rem	s7,t2,ra
    80000518:	73eaf4b7          	lui	s1,0x73eaf
    8000051c:	02200913          	li	s2,34
    80000520:	9ee00213          	li	tp,-1554
    80000524:	81900713          	li	a4,-2023
    80000528:	6de00613          	li	a2,1758
    8000052c:	21c893a3          	sh	t3,519(a7)
    80000530:	09a00d13          	li	s10,154
    80000534:	93900c93          	li	s9,-1735
    80000538:	01a709b3          	add	s3,a4,s10
    8000053c:	30700e93          	li	t4,775
    80000540:	00002597          	auipc	a1,0x2
    80000544:	53558593          	addi	a1,a1,1333 # 80002a75 <_end+0x465>
    80000548:	02ef1b13          	slli	s6,t5,0x2e
    8000054c:	97200393          	li	t2,-1678
    80000550:	02c26dbb          	remw	s11,tp,a2
    80000554:	01bdd43b          	srlw	s0,s11,s11
    80000558:	0073e8b3          	or	a7,t2,t2
    8000055c:	00002117          	auipc	sp,0x2
    80000560:	c5110113          	addi	sp,sp,-943 # 800021ad <reg_x21_output+0x5>
    80000564:	03d84fb3          	div	t6,a6,t4
    80000568:	032fe533          	rem	a0,t6,s2
    8000056c:	51d00193          	li	gp,1309
    80000570:	72e00a93          	li	s5,1838
    80000574:	a535a983          	lw	s3,-1453(a1)
    80000578:	e6e2f693          	andi	a3,t0,-402
    8000057c:	02393a33          	mulhu	s4,s2,gp
    80000580:	7a600e13          	li	t3,1958
    80000584:	01ccef33          	or	t5,s9,t3
    80000588:	035acbbb          	divw	s7,s5,s5
    8000058c:	01b79d13          	slli	s10,a5,0x1b
    80000590:	02f2e333          	rem	t1,t0,a5
    80000594:	00090c13          	mv	s8,s2
    80000598:	000c0493          	mv	s1,s8
    8000059c:	00002097          	auipc	ra,0x2
    800005a0:	33d08093          	addi	ra,ra,829 # 800028d9 <_end+0x2c9>
    800005a4:	9cd094a3          	sh	a3,-1591(ra)
    800005a8:	0f712703          	lw	a4,247(sp)
    800005ac:	80000f13          	li	t5,-2048
    800005b0:	03965193          	srli	gp,a2,0x39
    800005b4:	00000993          	li	s3,0
    800005b8:	91e00913          	li	s2,-1762
    800005bc:	e6200813          	li	a6,-414
    800005c0:	00001397          	auipc	t2,0x1
    800005c4:	72438393          	addi	t2,t2,1828 # 80001ce4 <fromhost+0xca4>
    800005c8:	0e3b7213          	andi	tp,s6,227
    800005cc:	034a7e33          	remu	t3,s4,s4
    800005d0:	00000493          	li	s1,0
    800005d4:	401b0eb3          	sub	t4,s6,ra
    800005d8:	85290b13          	addi	s6,s2,-1966
    800005dc:	41ffe863          	bltu	t6,t6,800009ec <crash_forward>
    800005e0:	12100a93          	li	s5,289
    800005e4:	4de00193          	li	gp,1246
    800005e8:	41ef50bb          	sraw	ra,t5,t5
    800005ec:	e8200693          	li	a3,-382
    800005f0:	003a8eb3          	add	t4,s5,gp
    800005f4:	84000c93          	li	s9,-1984
    800005f8:	00002597          	auipc	a1,0x2
    800005fc:	0d658593          	addi	a1,a1,214 # 800026ce <_end+0xbe>
    80000600:	4fa00a13          	li	s4,1274
    80000604:	00002897          	auipc	a7,0x2
    80000608:	c8588893          	addi	a7,a7,-891 # 80002289 <test_memory+0x89>
    8000060c:	008b153b          	sllw	a0,s6,s0
    80000610:	02d6bc33          	mulhu	s8,a3,a3
    80000614:	010802b3          	add	t0,a6,a6
    80000618:	b7690ee3          	beq	s2,s6,80000194 <crash_backward>
    8000061c:	034cfdbb          	remuw	s11,s9,s4
    80000620:	00100513          	li	a0,1
    80000624:	0318cebb          	divw	t4,a7,a7
    80000628:	7a200313          	li	t1,1954
    8000062c:	dea00b93          	li	s7,-534
    80000630:	93700693          	li	a3,-1737
    80000634:	00002e17          	auipc	t3,0x2
    80000638:	27ce0e13          	addi	t3,t3,636 # 800028b0 <_end+0x2a0>
    8000063c:	10500613          	li	a2,261
    80000640:	57700293          	li	t0,1399
    80000644:	c7ee1203          	lh	tp,-898(t3)
    80000648:	00c30733          	add	a4,t1,a2
    8000064c:	7d43bf83          	ld	t6,2004(t2)
    80000650:	a2e00493          	li	s1,-1490
    80000654:	29800413          	li	s0,664
    80000658:	fa5eb113          	sltiu	sp,t4,-91
    8000065c:	4092d833          	sra	a6,t0,s1
    80000660:	2858a1a3          	sw	t0,643(a7)
    80000664:	8d44bb13          	sltiu	s6,s1,-1836
    80000668:	00000093          	li	ra,0
    8000066c:	02d6ff3b          	remuw	t5,a3,a3
    80000670:	af700213          	li	tp,-1289
    80000674:	00426733          	or	a4,tp,tp
    80000678:	008b87b3          	add	a5,s7,s0
    8000067c:	44100993          	li	s3,1089
    80000680:	44e00613          	li	a2,1102
    80000684:	11c98f93          	addi	t6,s3,284
    80000688:	03f51513          	slli	a0,a0,0x3f
    8000068c:	e4158d03          	lb	s10,-447(a1)
    80000690:	028473bb          	remuw	t2,s0,s0
    80000694:	6a600213          	li	tp,1702
    80000698:	6f400493          	li	s1,1780
    8000069c:	7a200e93          	li	t4,1954
    800006a0:	00000193          	li	gp,0
    800006a4:	cfd00d13          	li	s10,-771
    800006a8:	66c00813          	li	a6,1644
    800006ac:	030e9cb3          	mulh	s9,t4,a6
    800006b0:	48000693          	li	a3,1152
    800006b4:	01ad4e33          	xor	t3,s10,s10
    800006b8:	00963db3          	sltu	s11,a2,s1
    800006bc:	cc400b13          	li	s6,-828
    800006c0:	4d900413          	li	s0,1241
    800006c4:	d16d0b93          	addi	s7,s10,-746
    800006c8:	84900813          	li	a6,-1975
    800006cc:	00100593          	li	a1,1
    800006d0:	07d00793          	li	a5,125
    800006d4:	fff00913          	li	s2,-1
    800006d8:	dfd00613          	li	a2,-515
    800006dc:	f2800d93          	li	s11,-216
    800006e0:	0bb00f93          	li	t6,187
    800006e4:	02f683bb          	mulw	t2,a3,a5
    800006e8:	2f700a13          	li	s4,759
    800006ec:	41fd84b3          	sub	s1,s11,t6
    800006f0:	00a94933          	xor	s2,s2,a0
    800006f4:	03f59593          	slli	a1,a1,0x3f
    800006f8:	06700293          	li	t0,103
    800006fc:	37b00693          	li	a3,891
    80000700:	0124fab3          	and	s5,s1,s2
    80000704:	005a0133          	add	sp,s4,t0
    80000708:	3c000393          	li	t2,960
    8000070c:	a58b0313          	addi	t1,s6,-1448
    80000710:	02825f3b          	divuw	t5,tp,s0
    80000714:	016b01b3          	add	gp,s6,s6
    80000718:	00a7ec33          	or	s8,a5,a0
    8000071c:	00001097          	auipc	ra,0x1
    80000720:	55008093          	addi	ra,ra,1360 # 80001c6c <fromhost+0xc2c>
    80000724:	2d5c6463          	bltu	s8,s5,800009ec <crash_forward>
    80000728:	fff00893          	li	a7,-1
    8000072c:	28500d93          	li	s11,645
    80000730:	00002f97          	auipc	t6,0x2
    80000734:	a58f8f93          	addi	t6,t6,-1448 # 80002188 <reg_x17_output>
    80000738:	028052b3          	divu	t0,zero,s0
    8000073c:	00b8c8b3          	xor	a7,a7,a1
    80000740:	9e700f13          	li	t5,-1561
    80000744:	00d6fbb3          	and	s7,a3,a3
    80000748:	2a6b4263          	blt	s6,t1,800009ec <crash_forward>
    8000074c:	023162b3          	rem	t0,sp,gp
    80000750:	02f00a13          	li	s4,47
    80000754:	3f400413          	li	s0,1012
    80000758:	008f21b3          	slt	gp,t5,s0
    8000075c:	7a5d8493          	addi	s1,s11,1957
    80000760:	43500313          	li	t1,1077
    80000764:	4162d79b          	sraiw	a5,t0,0x16
    80000768:	8dd00513          	li	a0,-1827
    8000076c:	50638d13          	addi	s10,t2,1286
    80000770:	40655b33          	sra	s6,a0,t1
    80000774:	46600a93          	li	s5,1126
    80000778:	5ec0a823          	sw	a2,1520(ra)
    8000077c:	95380c93          	addi	s9,a6,-1709
    80000780:	73600c13          	li	s8,1846
    80000784:	47b00e13          	li	t3,1147
    80000788:	269d8263          	beq	s11,s1,800009ec <crash_forward>
    8000078c:	035af6b3          	remu	a3,s5,s5
    80000790:	0c540913          	addi	s2,s0,197
    80000794:	36df8323          	sb	a3,870(t6)
    80000798:	01850233          	add	tp,a0,s8
    8000079c:	01117eb3          	and	t4,sp,a7
    800007a0:	03c659bb          	divuw	s3,a2,t3
    800007a4:	014a5133          	srl	sp,s4,s4
    800007a8:	70200b93          	li	s7,1794
    800007ac:	017302bb          	addw	t0,t1,s7
    800007b0:	00bc6733          	or	a4,s8,a1
    800007b4:	d7700713          	li	a4,-649
    800007b8:	00100593          	li	a1,1
    800007bc:	00100b93          	li	s7,1
    800007c0:	00100193          	li	gp,1
    800007c4:	01d21833          	sll	a6,tp,t4
    800007c8:	a9a00893          	li	a7,-1382
    800007cc:	19400e93          	li	t4,404
    800007d0:	ef700f93          	li	t6,-265
    800007d4:	e2724813          	xori	a6,tp,-473
    800007d8:	92100313          	li	t1,-1759
    800007dc:	03fb9b93          	slli	s7,s7,0x3f
    800007e0:	de600113          	li	sp,-538
    800007e4:	03f59593          	slli	a1,a1,0x3f
    800007e8:	03f8fe33          	remu	t3,a7,t6
    800007ec:	fff00c13          	li	s8,-1
    800007f0:	01ed5db3          	srl	s11,s10,t5
    800007f4:	01b36a33          	or	s4,t1,s11
    800007f8:	017c4c33          	xor	s8,s8,s7
    800007fc:	16900613          	li	a2,361
    80000800:	03de8b3b          	mulw	s6,t4,t4
    80000804:	02216533          	rem	a0,sp,sp
    80000808:	02b5ee3b          	remw	t3,a1,a1
    8000080c:	01817233          	and	tp,sp,s8
    80000810:	03debeb3          	mulhu	t4,t4,t4
    80000814:	01726433          	or	s0,tp,s7
    80000818:	017ba833          	slt	a6,s7,s7
    8000081c:	96824ce3          	blt	tp,s0,80000194 <crash_backward>
    80000820:	026349bb          	divw	s3,t1,t1
    80000824:	6ed00e13          	li	t3,1773
    80000828:	d4700c13          	li	s8,-697
    8000082c:	68c00a93          	li	s5,1676
    80000830:	0139da3b          	srlw	s4,s3,s3
    80000834:	bf7c0413          	addi	s0,s8,-1033
    80000838:	14f48413          	addi	s0,s1,335 # 73eaf14f <_start-0xc150eb1>
    8000083c:	40a55a3b          	sraw	s4,a0,a0
    80000840:	00001c17          	auipc	s8,0x1
    80000844:	355c0c13          	addi	s8,s8,853 # 80001b95 <fromhost+0xb55>
    80000848:	79900f13          	li	t5,1945
    8000084c:	01d00113          	li	sp,29
    80000850:	002e58bb          	srlw	a7,t3,sp
    80000854:	74000e93          	li	t4,1856
    80000858:	03e704bb          	mulw	s1,a4,t5
    8000085c:	5b100d93          	li	s11,1457
    80000860:	03f19193          	slli	gp,gp,0x3f
    80000864:	f9e00213          	li	tp,-98
    80000868:	02eaa533          	mulhsu	a0,s5,a4
    8000086c:	fff00913          	li	s2,-1
    80000870:	4271d813          	srai	a6,gp,0x27
    80000874:	44c00413          	li	s0,1100
    80000878:	02f78b33          	mul	s6,a5,a5
    8000087c:	01561d3b          	sllw	s10,a2,s5
    80000880:	e1800513          	li	a0,-488
    80000884:	777c39a3          	sd	s7,1907(s8)
    80000888:	00001317          	auipc	t1,0x1
    8000088c:	55530313          	addi	t1,t1,1365 # 80001ddd <fromhost+0xd9d>
    80000890:	26900893          	li	a7,617
    80000894:	43b33b83          	ld	s7,1083(t1)
    80000898:	01ad03b3          	add	t2,s10,s10
    8000089c:	80120993          	addi	s3,tp,-2047 # fffffffffffff801 <__global_pointer$+0xffffffff7fffc9f1>
    800008a0:	03fb04b3          	mul	s1,s6,t6
    800008a4:	00002e17          	auipc	t3,0x2
    800008a8:	33ee0e13          	addi	t3,t3,830 # 80002be2 <_end+0x5d2>
    800008ac:	1b588713          	addi	a4,a7,437
    800008b0:	00631bbb          	sllw	s7,t1,t1
    800008b4:	8e49f0e3          	bgeu	s3,tp,80000194 <crash_backward>
    800008b8:	01bedfbb          	srlw	t6,t4,s11
    800008bc:	017aeb33          	or	s6,s5,s7
    800008c0:	00001117          	auipc	sp,0x1
    800008c4:	6c910113          	addi	sp,sp,1737 # 80001f89 <fromhost+0xf49>
    800008c8:	00b94933          	xor	s2,s2,a1
    800008cc:	00002d17          	auipc	s10,0x2
    800008d0:	fcfd0d13          	addi	s10,s10,-49 # 8000289b <_end+0x28b>
    800008d4:	b34d2aa3          	sw	s4,-1227(s10)
    800008d8:	96800493          	li	s1,-1688
    800008dc:	998e0f03          	lb	t5,-1640(t3)
    800008e0:	9b200313          	li	t1,-1614
    800008e4:	faf48a93          	addi	s5,s1,-81
    800008e8:	012ef0b3          	and	ra,t4,s2
    800008ec:	02637c3b          	remuw	s8,t1,t1
    800008f0:	1d100213          	li	tp,465
    800008f4:	5ee118a3          	sh	a4,1521(sp)
    800008f8:	fff00693          	li	a3,-1
    800008fc:	40a40a33          	sub	s4,s0,a0
    80000900:	00001617          	auipc	a2,0x1
    80000904:	4f460613          	addi	a2,a2,1268 # 80001df4 <fromhost+0xdb4>
    80000908:	0036c6b3          	xor	a3,a3,gp
    8000090c:	02426bbb          	remw	s7,tp,tp
    80000910:	6cf60383          	lb	t2,1743(a2)
    80000914:	00b0ecb3          	or	s9,ra,a1
    80000918:	0c1cea63          	bltu	s9,ra,800009ec <crash_forward>
    8000091c:	00d977b3          	and	a5,s2,a3
    80000920:	003fe2b3          	or	t0,t6,gp
    80000924:	8657f8e3          	bgeu	a5,t0,80000194 <crash_backward>
    80000928:	00001f17          	auipc	t5,0x1
    8000092c:	4f9f0f13          	addi	t5,t5,1273 # 80001e21 <fromhost+0xde1>
    80000930:	0db00f93          	li	t6,219
    80000934:	00002117          	auipc	sp,0x2
    80000938:	e7510113          	addi	sp,sp,-395 # 800027a9 <_end+0x199>
    8000093c:	793f1a83          	lh	s5,1939(t5)
    80000940:	b5900613          	li	a2,-1191
    80000944:	e0a114a3          	sh	a0,-503(sp)
    80000948:	f8d00513          	li	a0,-115
    8000094c:	21f00893          	li	a7,543
    80000950:	011533b3          	sltu	t2,a0,a7
    80000954:	00cf9433          	sll	s0,t6,a2
    80000958:	0040006f          	j	8000095c <reg_dump>

000000008000095c <reg_dump>:
    8000095c:	00002097          	auipc	ra,0x2
    80000960:	ca408093          	addi	ra,ra,-860 # 80002600 <loop_count>
    80000964:	0000a103          	lw	sp,0(ra)
    80000968:	fff10193          	addi	gp,sp,-1
    8000096c:	0030a023          	sw	gp,0(ra)
    80000970:	8c0116e3          	bnez	sp,8000023c <pseg_0>
    80000974:	00001097          	auipc	ra,0x1
    80000978:	78c08093          	addi	ra,ra,1932 # 80002100 <begin_signature>
    8000097c:	0000b023          	sd	zero,0(ra)
    80000980:	0030bc23          	sd	gp,24(ra)
    80000984:	0240b023          	sd	tp,32(ra)
    80000988:	0250b423          	sd	t0,40(ra)
    8000098c:	0260b823          	sd	t1,48(ra)
    80000990:	0270bc23          	sd	t2,56(ra)
    80000994:	0480b023          	sd	s0,64(ra)
    80000998:	0490b423          	sd	s1,72(ra)
    8000099c:	04a0b823          	sd	a0,80(ra)
    800009a0:	04b0bc23          	sd	a1,88(ra)
    800009a4:	06c0b023          	sd	a2,96(ra)
    800009a8:	06d0b423          	sd	a3,104(ra)
    800009ac:	06e0b823          	sd	a4,112(ra)
    800009b0:	06f0bc23          	sd	a5,120(ra)
    800009b4:	0900b023          	sd	a6,128(ra)
    800009b8:	0910b423          	sd	a7,136(ra)
    800009bc:	0920b823          	sd	s2,144(ra)
    800009c0:	0930bc23          	sd	s3,152(ra)
    800009c4:	0b40b023          	sd	s4,160(ra)
    800009c8:	0b50b423          	sd	s5,168(ra)
    800009cc:	0b60b823          	sd	s6,176(ra)
    800009d0:	0b70bc23          	sd	s7,184(ra)
    800009d4:	0d80b023          	sd	s8,192(ra)
    800009d8:	0d90b423          	sd	s9,200(ra)
    800009dc:	0db0bc23          	sd	s11,216(ra)
    800009e0:	0fd0b423          	sd	t4,232(ra)
    800009e4:	0ff0bc23          	sd	t6,248(ra)
    800009e8:	0200006f          	j	80000a08 <test_end>

00000000800009ec <crash_forward>:
    800009ec:	0ff0000f          	fence
    800009f0:	00018063          	beqz	gp,800009f0 <crash_forward+0x4>
    800009f4:	00119193          	slli	gp,gp,0x1
    800009f8:	0011e193          	ori	gp,gp,1
    800009fc:	05d00893          	li	a7,93
    80000a00:	00018513          	mv	a0,gp
    80000a04:	00000073          	ecall

0000000080000a08 <test_end>:
    80000a08:	0ff0000f          	fence
    80000a0c:	00100193          	li	gp,1
    80000a10:	05d00893          	li	a7,93
    80000a14:	00000513          	li	a0,0
    80000a18:	00000073          	ecall
    80000a1c:	c0001073          	unimp
	...

Disassembly of section .tohost:

0000000080001000 <tohost>:
	...

0000000080001040 <fromhost>:
	...

Disassembly of section .data:

0000000080002000 <hidden_data>:
    80002000:	f7d6b913          	sltiu	s2,a3,-131
    80002004:	1dc9                	addi	s11,s11,-14
    80002006:	7661                	lui	a2,0xffff8

0000000080002008 <reg_x1_init>:
	...

0000000080002010 <reg_x2_init>:
    80002010:	ffff                	0xffff
    80002012:	ffff                	0xffff
    80002014:	ffff                	0xffff
    80002016:	ffff                	0xffff

0000000080002018 <reg_x3_init>:
	...

0000000080002020 <reg_x4_init>:
    80002020:	a55f 6fbd 7498      	0x74986fbda55f
    80002026:	b4da                	fsd	fs6,104(sp)

0000000080002028 <reg_x5_init>:
    80002028:	ffff                	0xffff
    8000202a:	ffff                	0xffff
    8000202c:	ffff                	0xffff
    8000202e:	ffff                	0xffff

0000000080002030 <reg_x6_init>:
    80002030:	68aec067          	0x68aec067
    80002034:	dfcee08f          	0xdfcee08f

0000000080002038 <reg_x7_init>:
	...

0000000080002040 <reg_x8_init>:
    80002040:	ffff                	0xffff
    80002042:	ffff                	0xffff
    80002044:	ffff                	0xffff
    80002046:	ffff                	0xffff

0000000080002048 <reg_x9_init>:
	...

0000000080002050 <reg_x10_init>:
    80002050:	0001                	nop
    80002052:	0000                	unimp
    80002054:	0000                	unimp
    80002056:	0800                	addi	s0,sp,16

0000000080002058 <reg_x11_init>:
    80002058:	affc                	fsd	fa5,216(a5)
    8000205a:	6018                	ld	a4,0(s0)
    8000205c:	709e5ecf          	fnmadd.s	ft9,ft8,fs1,fa4,unknown

0000000080002060 <reg_x12_init>:
	...

0000000080002068 <reg_x13_init>:
    80002068:	9b1aabbf 6a021747 	0x6a0217479b1aabbf

0000000080002070 <reg_x14_init>:
    80002070:	ffff8007          	0xffff8007
    80002074:	ffff                	0xffff
    80002076:	ffff                	0xffff

0000000080002078 <reg_x15_init>:
	...

0000000080002080 <reg_x16_init>:
    80002080:	ffff                	0xffff
    80002082:	ffff                	0xffff
    80002084:	ffff                	0xffff
    80002086:	ffff                	0xffff

0000000080002088 <reg_x17_init>:
    80002088:	fffe                	sd	t6,504(sp)
    8000208a:	ffff                	0xffff
    8000208c:	ffff                	0xffff
    8000208e:	ffff                	0xffff

0000000080002090 <reg_x18_init>:
    80002090:	6939                	lui	s2,0xe
    80002092:	694209a7          	0x694209a7
    80002096:	49c6                	lw	s3,80(sp)

0000000080002098 <reg_x19_init>:
    80002098:	bd82                	fsd	ft0,248(sp)
    8000209a:	24333317          	auipc	t1,0x24333
    8000209e:	b8a1                	j	800018f6 <fromhost+0x8b6>

00000000800020a0 <reg_x20_init>:
    800020a0:	44449ac7          	0x44449ac7
    800020a4:	5b64                	lw	s1,116(a4)
    800020a6:	4bc2                	lw	s7,16(sp)

00000000800020a8 <reg_x21_init>:
    800020a8:	a400                	fsd	fs0,8(s0)
    800020aa:	ebdf c4a0 7aee      	0x7aeec4a0ebdf

00000000800020b0 <reg_x22_init>:
    800020b0:	ca069e3b          	0xca069e3b
    800020b4:	6a09                	lui	s4,0x2
    800020b6:	65f2                	ld	a1,280(sp)

00000000800020b8 <reg_x23_init>:
    800020b8:	ff86                	sd	ra,504(sp)
    800020ba:	ffff                	0xffff
    800020bc:	ffff                	0xffff
    800020be:	ffff                	0xffff

00000000800020c0 <reg_x24_init>:
    800020c0:	0001                	nop
    800020c2:	0000                	unimp
    800020c4:	0000                	unimp
    800020c6:	0800                	addi	s0,sp,16

00000000800020c8 <reg_x25_init>:
    800020c8:	75d1                	lui	a1,0xffff4
    800020ca:	3348                	fld	fa0,160(a4)
    800020cc:	a379                	j	8000265a <_end+0x4a>
    800020ce:	8afe                	mv	s5,t6

00000000800020d0 <reg_x26_init>:
    800020d0:	35e6                	fld	fa1,120(sp)
    800020d2:	f08c                	sd	a1,32(s1)
    800020d4:	1c48c2ef          	jal	t0,8008e298 <__global_pointer$+0x8b488>

00000000800020d8 <reg_x27_init>:
    800020d8:	0009                	c.nop	2
    800020da:	8000                	0x8000
    800020dc:	ffff                	0xffff
    800020de:	ffff                	0xffff

00000000800020e0 <reg_x28_init>:
    800020e0:	ffff                	0xffff
    800020e2:	ffff                	0xffff
    800020e4:	ffff                	0xffff
    800020e6:	ffff                	0xffff

00000000800020e8 <reg_x29_init>:
    800020e8:	ff84                	sd	s1,56(a5)
    800020ea:	ffff                	0xffff
    800020ec:	ffff                	0xffff
    800020ee:	ffff                	0xffff

00000000800020f0 <reg_x30_init>:
    800020f0:	bce180ab          	0xbce180ab
    800020f4:	53d8                	lw	a4,36(a5)
    800020f6:	1824                	addi	s1,sp,56

00000000800020f8 <reg_x31_init>:
	...

0000000080002100 <begin_signature>:
    80002100:	d34a                	sw	s2,164(sp)
    80002102:	e766                	sd	s9,392(sp)
    80002104:	6383c873          	0x6383c873

0000000080002108 <reg_x1_output>:
    80002108:	c5b2                	sw	a2,200(sp)
    8000210a:	24ff                	0x24ff
    8000210c:	f47a                	sd	t5,40(sp)
    8000210e:	          	0xed3dc32f

0000000080002110 <reg_x2_output>:
    80002110:	ed3d                	bnez	a0,8000218e <reg_x17_output+0x6>
    80002112:	9030                	0x9030
    80002114:	dcd6                	sw	s5,120(sp)
    80002116:	          	0x29f450e7

0000000080002118 <reg_x3_output>:
    80002118:	29f4                	fld	fa3,208(a1)
    8000211a:	20d0                	fld	fa2,128(s1)
    8000211c:	1a9f a654       	0x26dfa6541a9f

0000000080002120 <reg_x4_output>:
    80002120:	26df 5190 8ab4      	0x8ab4519026df
    80002126:	          	0x4143468f

0000000080002128 <reg_x5_output>:
    80002128:	67564143          	fmadd.q	ft2,fa2,fs5,fa2,rmm
    8000212c:	361f 7c54       	0xe8687c54361f

0000000080002130 <reg_x6_output>:
    80002130:	e868                	sd	a0,208(s0)
    80002132:	373a                	fld	fa4,424(sp)
    80002134:	41a65853          	0x41a65853

0000000080002138 <reg_x7_output>:
    80002138:	6d8a743f 33449a65 	0x33449a656d8a743f

0000000080002140 <reg_x8_output>:
    80002140:	dba2                	sw	s0,244(sp)
    80002142:	456d2dfb          	0x456d2dfb
    80002146:	88ec                	0x88ec

0000000080002148 <reg_x9_output>:
    80002148:	c705                	beqz	a4,80002170 <reg_x14_output>
    8000214a:	eba7301b          	0xeba7301b
    8000214e:	4815                	li	a6,5

0000000080002150 <reg_x10_output>:
    80002150:	4acc                	lw	a1,20(a3)
    80002152:	9a2e                	add	s4,s4,a1
    80002154:	2721                	addiw	a4,a4,8
    80002156:	919e                	add	gp,gp,t2

0000000080002158 <reg_x11_output>:
    80002158:	ada7acaf          	0xada7acaf
    8000215c:	5dee                	lw	s11,248(sp)
    8000215e:	c8fa                	sw	t5,80(sp)

0000000080002160 <reg_x12_output>:
    80002160:	09c2                	slli	s3,s3,0x10
    80002162:	4f2ec867          	0x4f2ec867
    80002166:	          	csrrs	a3,0xf2,ra

0000000080002168 <reg_x13_output>:
    80002168:	0f20                	addi	s0,sp,920
    8000216a:	729d                	lui	t0,0xfffe7
    8000216c:	33f75177          	0x33f75177

0000000080002170 <reg_x14_output>:
    80002170:	4d5a                	lw	s10,148(sp)
    80002172:	e560                	sd	s0,200(a0)
    80002174:	f25e                	sd	s7,288(sp)
    80002176:	9371                	srli	a4,a4,0x3c

0000000080002178 <reg_x15_output>:
    80002178:	8f00                	0x8f00
    8000217a:	94e1                	srai	s1,s1,0x38
    8000217c:	e039                	bnez	s0,800021c2 <reg_x24_output+0x2>
    8000217e:	          	ld	tp,336(t5)

0000000080002180 <reg_x16_output>:
    80002180:	7ac1150f          	0x7ac1150f
    80002184:	0242                	slli	tp,tp,0x10
    80002186:	b97f                	0xb97f

0000000080002188 <reg_x17_output>:
    80002188:	4005                	c.li	zero,1
    8000218a:	993c                	0x993c
    8000218c:	30c6                	fld	ft1,112(sp)
    8000218e:	7c0a                	ld	s8,160(sp)

0000000080002190 <reg_x18_output>:
    80002190:	0ae4                	addi	s1,sp,348
    80002192:	6e1c1cbf  	0x65742da56e1c1cbf

0000000080002198 <reg_x19_output>:
    80002198:	6574                	ld	a3,200(a0)
    8000219a:	42f9                	li	t0,30
    8000219c:	562aa257          	0x562aa257

00000000800021a0 <reg_x20_output>:
    800021a0:	fd82                	sd	zero,248(sp)
    800021a2:	ff207b23          	0xff207b23
    800021a6:	          	0xf2e77c5b

00000000800021a8 <reg_x21_output>:
    800021a8:	e36ef2e7          	0xe36ef2e7
    800021ac:	2621                	addiw	a2,a2,8
    800021ae:	8bfd                	andi	a5,a5,31

00000000800021b0 <reg_x22_output>:
    800021b0:	452e58a3          	0x452e58a3
    800021b4:	43dd                	li	t2,23
    800021b6:	3dd0                	fld	fa2,184(a1)

00000000800021b8 <reg_x23_output>:
    800021b8:	d550                	sw	a2,44(a0)
    800021ba:	0b41                	addi	s6,s6,16
    800021bc:	59ed                	li	s3,-5
    800021be:	d77e                	sw	t6,172(sp)

00000000800021c0 <reg_x24_output>:
    800021c0:	c5563fb3          	0xc5563fb3
    800021c4:	97b03ef7          	0x97b03ef7

00000000800021c8 <reg_x25_output>:
    800021c8:	483d                	li	a6,15
    800021ca:	6ec8                	ld	a0,152(a3)
    800021cc:	111b37e7          	0x111b37e7

00000000800021d0 <reg_x26_output>:
    800021d0:	2eb4                	fld	fa3,88(a3)
    800021d2:	cd1b2e77          	0xcd1b2e77
    800021d6:	          	0xbb5d6653

00000000800021d8 <reg_x27_output>:
    800021d8:	bb5d                	j	80001f8e <fromhost+0xf4e>
    800021da:	d1e5                	beqz	a1,800021ba <reg_x23_output+0x2>
    800021dc:	6fb4                	ld	a3,88(a5)
    800021de:	          	0x45617b27

00000000800021e0 <reg_x28_output>:
    800021e0:	4561                	li	a0,24
    800021e2:	d178                	sw	a4,100(a0)
    800021e4:	f62c                	sd	a1,104(a2)
    800021e6:	4741                	li	a4,16

00000000800021e8 <reg_x29_output>:
    800021e8:	0c42                	slli	s8,s8,0x10
    800021ea:	1a81                	addi	s5,s5,-32
    800021ec:	4b37bccb          	fnmsub.d	fs9,fa5,fs3,fs1,rup

00000000800021f0 <reg_x30_output>:
    800021f0:	a096                	fsd	ft5,64(sp)
    800021f2:	9dc2c78b          	0x9dc2c78b
    800021f6:	e61d                	bnez	a2,80002224 <test_memory+0x24>

00000000800021f8 <reg_x31_output>:
    800021f8:	1868                	addi	a0,sp,60
    800021fa:	737e                	ld	t1,504(sp)
    800021fc:	cdfd                	beqz	a1,800022fa <test_memory+0xfa>
    800021fe:	319a                	fld	ft3,416(sp)

0000000080002200 <test_memory>:
    80002200:	65ee                	ld	a1,216(sp)
    80002202:	46d49bbf eb752dc8 	0xeb752dc846d49bbf
    8000220a:	9255312f          	0x9255312f
    8000220e:	cfc0                	sw	s0,28(a5)
    80002210:	65ad                	lui	a1,0xb
    80002212:	9d21                	addw	a0,a0,s0
    80002214:	c140deb3          	0xc140deb3
    80002218:	0dc2                	slli	s11,s11,0x10
    8000221a:	ebc9                	bnez	a5,800022ac <test_memory+0xac>
    8000221c:	ff25                	bnez	a4,80002194 <reg_x18_output+0x4>
    8000221e:	ab08                	fsd	fa0,16(a4)
    80002220:	76e0                	ld	s0,232(a3)
    80002222:	5b60                	lw	s0,116(a4)
    80002224:	fdafc33b          	0xfdafc33b
    80002228:	b719                	j	8000212e <reg_x5_output+0x6>
    8000222a:	a360c8a3          	0xa360c8a3
    8000222e:	5f70                	lw	a2,124(a4)
    80002230:	60e4f1c3          	fmadd.s	ft3,fs1,fa4,fa2
    80002234:	7845                	lui	a6,0xffff1
    80002236:	d070                	sw	a2,100(s0)
    80002238:	e9c0                	sd	s0,144(a1)
    8000223a:	9c25f893          	andi	a7,a1,-1598
    8000223e:	6622                	ld	a2,8(sp)
    80002240:	ec62                	sd	s8,24(sp)
    80002242:	c05e290b          	0xc05e290b
    80002246:	a3fc                	fsd	fa5,192(a5)
    80002248:	b9b6                	fsd	fa3,240(sp)
    8000224a:	1411                	addi	s0,s0,-28
    8000224c:	be9e                	fsd	ft7,376(sp)
    8000224e:	445c                	lw	a5,12(s0)
    80002250:	1d82                	slli	s11,s11,0x20
    80002252:	0cbc1dc7          	0xcbc1dc7
    80002256:	44a4                	lw	s1,72(s1)
    80002258:	443c                	lw	a5,72(s0)
    8000225a:	c62a                	sw	a0,12(sp)
    8000225c:	0b06                	slli	s6,s6,0x1
    8000225e:	108c                	addi	a1,sp,96
    80002260:	89c0                	0x89c0
    80002262:	bf9d                	j	800021d8 <reg_x27_output>
    80002264:	cd35786f          	jal	a6,7ff59f36 <_start-0xa60ca>
    80002268:	1b96                	slli	s7,s7,0x25
    8000226a:	790a                	ld	s2,160(sp)
    8000226c:	bd10                	fsd	fa2,56(a0)
    8000226e:	eb54                	sd	a3,144(a4)
    80002270:	0c275efb          	0xc275efb
    80002274:	c2d8                	sw	a4,4(a3)
    80002276:	cb71                	beqz	a4,8000234a <test_memory+0x14a>
    80002278:	2b12                	fld	fs6,256(sp)
    8000227a:	cadc                	sw	a5,20(a3)
    8000227c:	8d65                	and	a0,a0,s1
    8000227e:	e19a                	sd	t1,192(sp)
    80002280:	73e1a1ef          	jal	gp,8001c9be <__global_pointer$+0x19bae>
    80002284:	ef7dfd57          	0xef7dfd57
    80002288:	5749                	li	a4,-14
    8000228a:	13e4                	addi	s1,sp,492
    8000228c:	f88e                	sd	gp,112(sp)
    8000228e:	10d2                	slli	ra,ra,0x34
    80002290:	9221                	srli	a2,a2,0x28
    80002292:	cedc                	sw	a5,28(a3)
    80002294:	c7e6e047          	fmsub.q	ft0,fa3,ft10,fs8,unknown
    80002298:	5ea4                	lw	s1,120(a3)
    8000229a:	576d                	li	a4,-5
    8000229c:	9ef5                	0x9ef5
    8000229e:	5134                	lw	a3,96(a0)
    800022a0:	e802                	sd	zero,16(sp)
    800022a2:	7a91                	lui	s5,0xfffe4
    800022a4:	804ffb2f          	0x804ffb2f
    800022a8:	be22                	fsd	fs0,312(sp)
    800022aa:	7c95                	lui	s9,0xfffe5
    800022ac:	1245                	addi	tp,tp,-15
    800022ae:	e6f4                	sd	a3,200(a3)
    800022b0:	405e514f          	fnmadd.s	ft2,ft8,ft5,fs0,unknown
    800022b4:	3431                	addiw	s0,s0,-20
    800022b6:	02e9                	addi	t0,t0,26
    800022b8:	8a7f9e57          	0x8a7f9e57
    800022bc:	a3f8                	fsd	fa4,192(a5)
    800022be:	cfb62def          	jal	s11,7ff64fb8 <_start-0x9b048>
    800022c2:	4ac495eb          	0x4ac495eb
    800022c6:	9f78                	0x9f78
    800022c8:	09240cb7          	lui	s9,0x9240
    800022cc:	0f310933          	0xf310933
    800022d0:	ddbe                	sw	a5,248(sp)
    800022d2:	dd90                	sw	a2,56(a1)
    800022d4:	cd6b51ab          	0xcd6b51ab
    800022d8:	0514                	addi	a3,sp,640
    800022da:	454a                	lw	a0,144(sp)
    800022dc:	e7cc                	sd	a1,136(a5)
    800022de:	9ec4                	0x9ec4
    800022e0:	4e827de7          	0x4e827de7
    800022e4:	541e                	lw	s0,228(sp)
    800022e6:	4c44                	lw	s1,28(s0)
    800022e8:	0f64                	addi	s1,sp,924
    800022ea:	7f26                	ld	t5,104(sp)
    800022ec:	a0ac                	fsd	fa1,64(s1)
    800022ee:	1fd5                	addi	t6,t6,-11
    800022f0:	9810                	0x9810
    800022f2:	49f5                	li	s3,29
    800022f4:	9a45                	andi	a2,a2,-15
    800022f6:	cdfd                	beqz	a1,800023f4 <test_memory+0x1f4>
    800022f8:	75c8                	ld	a0,168(a1)
    800022fa:	eb5c782f          	0xeb5c782f
    800022fe:	49190df7          	0x49190df7
    80002302:	ed2e                	sd	a1,152(sp)
    80002304:	40ed                	li	ra,27
    80002306:	2d09                	addiw	s10,s10,2
    80002308:	56c9                	li	a3,-14
    8000230a:	2204                	fld	fs1,0(a2)
    8000230c:	16d9                	addi	a3,a3,-10
    8000230e:	b26d                	j	80001cb8 <fromhost+0xc78>
    80002310:	08c8                	addi	a0,sp,84
    80002312:	5f42                	lw	t5,48(sp)
    80002314:	187d                	addi	a6,a6,-1
    80002316:	9a86                	add	s5,s5,ra
    80002318:	17e4                	addi	s1,sp,1004
    8000231a:	9e06                	add	t3,t3,ra
    8000231c:	03a9                	addi	t2,t2,10
    8000231e:	5408                	lw	a0,40(s0)
    80002320:	c9f0                	sw	a2,84(a1)
    80002322:	ff21863b          	0xff21863b
    80002326:	0c6e                	slli	s8,s8,0x1b
    80002328:	fc48                	sd	a0,184(s0)
    8000232a:	2b344feb          	0x2b344feb
    8000232e:	a59f 78cf b89f      	0xb89f78cfa59f
    80002334:	2a48                	fld	fa0,144(a2)
    80002336:	ce29                	beqz	a2,80002390 <test_memory+0x190>
    80002338:	e3dd                	bnez	a5,800023de <test_memory+0x1de>
    8000233a:	8521                	srai	a0,a0,0x8
    8000233c:	484c                	lw	a1,20(s0)
    8000233e:	7bb8bac7          	fmsub.d	fs5,fa7,fs11,fa5,rup
    80002342:	883c                	0x883c
    80002344:	1356                	slli	t1,t1,0x35
    80002346:	7329                	lui	t1,0xfffea
    80002348:	7688                	ld	a0,40(a3)
    8000234a:	6ba5                	lui	s7,0x9
    8000234c:	750e                	ld	a0,224(sp)
    8000234e:	19f15237          	lui	tp,0x19f15
    80002352:	b015                	j	80001b76 <fromhost+0xb36>
    80002354:	fb91                	bnez	a5,80002268 <test_memory+0x68>
    80002356:	82ac                	0x82ac
    80002358:	3fad                	addiw	t6,t6,-21
    8000235a:	9574                	0x9574
    8000235c:	d1ec                	sw	a1,100(a1)
    8000235e:	99f0                	0x99f0
    80002360:	ecde                	sd	s7,88(sp)
    80002362:	6b1a                	ld	s6,384(sp)
    80002364:	3b60                	fld	fs0,240(a4)
    80002366:	7df53007          	fld	ft0,2015(a0)
    8000236a:	a5c1                	j	80002a2a <_end+0x41a>
    8000236c:	0a09                	addi	s4,s4,2
    8000236e:	f051                	bnez	s0,800022f2 <test_memory+0xf2>
    80002370:	bf5e                	fsd	fs7,440(sp)
    80002372:	52de                	lw	t0,244(sp)
    80002374:	f3e1d0b3          	0xf3e1d0b3
    80002378:	ab50                	fsd	fa2,144(a4)
    8000237a:	9b52                	add	s6,s6,s4
    8000237c:	5fd848c7          	fmsub.q	fa7,fa6,ft9,fa1,rmm
    80002380:	7f74                	ld	a3,248(a4)
    80002382:	4e54                	lw	a3,28(a2)
    80002384:	3387e0c3          	fmadd.d	ft1,fa5,fs8,ft6,unknown
    80002388:	013d                	addi	sp,sp,15
    8000238a:	53ce                	lw	t2,240(sp)
    8000238c:	749f 4ee0 2629      	0x26294ee0749f
    80002392:	e7b2                	sd	a2,456(sp)
    80002394:	20fd                	addiw	ra,ra,31
    80002396:	9ad9                	andi	a3,a3,-10
    80002398:	7d48                	ld	a0,184(a0)
    8000239a:	beb6                	fsd	fa3,376(sp)
    8000239c:	d20cc32f          	0xd20cc32f
    800023a0:	b9b1                	j	80001ffc <fromhost+0xfbc>
    800023a2:	8f7a                	mv	t5,t5
    800023a4:	df565b3b          	0xdf565b3b
    800023a8:	29d4                	fld	fa3,144(a1)
    800023aa:	e885                	bnez	s1,800023da <test_memory+0x1da>
    800023ac:	fa98                	sd	a4,48(a3)
    800023ae:	4d15                	li	s10,5
    800023b0:	cdcc                	sw	a1,28(a1)
    800023b2:	4034                	lw	a3,64(s0)
    800023b4:	3df58137          	lui	sp,0x3df58
    800023b8:	af1a                	fsd	ft6,408(sp)
    800023ba:	f409b707          	fld	fa4,-192(s3)
    800023be:	3308                	fld	fa0,32(a4)
    800023c0:	a45e266f          	jal	a2,7ffe4e04 <_start-0x1b1fc>
    800023c4:	0339                	addi	t1,t1,14
    800023c6:	cd5f 7071 4c28      	0x4c287071cd5f
    800023cc:	3398                	fld	fa4,32(a5)
    800023ce:	3a52                	fld	fs4,304(sp)
    800023d0:	352460a3          	0x352460a3
    800023d4:	4a1d5e17          	auipc	t3,0x4a1d5
    800023d8:	7bc4b9cf          	fnmadd.d	fs3,fs1,ft8,fa5,rup
    800023dc:	a950                	fsd	fa2,144(a0)
    800023de:	c34a                	sw	s2,132(sp)
    800023e0:	ce84c5ab          	0xce84c5ab
    800023e4:	145c                	addi	a5,sp,548
    800023e6:	c18f1d63          	bne	t5,s8,80001800 <fromhost+0x7c0>
    800023ea:	4879                	li	a6,30
    800023ec:	5ea6ef8f          	0x5ea6ef8f
    800023f0:	ac6c                	fsd	fa1,216(s0)
    800023f2:	86ca5af3          	csrrwi	s5,0x86c,20
    800023f6:	489a                	lw	a7,132(sp)
    800023f8:	8274                	0x8274
    800023fa:	aa99                	j	80002550 <test_memory+0x350>
    800023fc:	c56b9a8f          	0xc56b9a8f
    80002400:	0d09                	addi	s10,s10,2
    80002402:	8fce                	mv	t6,s3
    80002404:	5ffd                	li	t6,-1
    80002406:	8b36                	mv	s6,a3
    80002408:	b1ed                	j	800020f2 <reg_x30_init+0x2>
    8000240a:	f804                	sd	s1,48(s0)
    8000240c:	6d45                	lui	s10,0x11
    8000240e:	731e                	ld	t1,480(sp)
    80002410:	2acd                	addiw	s5,s5,19
    80002412:	32de                	fld	ft5,496(sp)
    80002414:	8772                	mv	a4,t3
    80002416:	6c70                	ld	a2,216(s0)
    80002418:	569a                	lw	a3,164(sp)
    8000241a:	876b9bb7          	lui	s7,0x876b9
    8000241e:	c615                	beqz	a2,8000244a <test_memory+0x24a>
    80002420:	784e                	ld	a6,240(sp)
    80002422:	2266                	fld	ft4,88(sp)
    80002424:	eb10cfa7          	fsq	fa7,-321(ra)
    80002428:	c30e                	sw	gp,132(sp)
    8000242a:	aca9                	j	80002684 <_end+0x74>
    8000242c:	e0d8                	sd	a4,128(s1)
    8000242e:	be42                	fsd	fa6,312(sp)
    80002430:	19ce                	slli	s3,s3,0x33
    80002432:	dab4                	sw	a3,112(a3)
    80002434:	d3a1                	beqz	a5,80002374 <test_memory+0x174>
    80002436:	f8d60133          	0xf8d60133
    8000243a:	a57f                	0xa57f
    8000243c:	69eba617          	auipc	a2,0x69eba
    80002440:	a9e4                	fsd	fs1,208(a1)
    80002442:	986c                	0x986c
    80002444:	b795                	j	800023a8 <test_memory+0x1a8>
    80002446:	2c9d                	addiw	s9,s9,7
    80002448:	b7ba                	fsd	fa4,488(sp)
    8000244a:	8d9d                	sub	a1,a1,a5
    8000244c:	dea04a37          	lui	s4,0xdea04
    80002450:	83e1245b          	0x83e1245b
    80002454:	c0e2                	sw	s8,64(sp)
    80002456:	bd42fcab          	0xbd42fcab
    8000245a:	60d5                	lui	ra,0x15
    8000245c:	61df 6cc3 1b59      	0x1b596cc361df
    80002462:	b1ea                	fsd	fs10,224(sp)
    80002464:	f93e                	sd	a5,176(sp)
    80002466:	b0b2                	fsd	fa2,96(sp)
    80002468:	414ef87b          	0x414ef87b
    8000246c:	9ba5                	andi	a5,a5,-23
    8000246e:	0a3a                	slli	s4,s4,0xe
    80002470:	c86f9ac3          	fmadd.s	fs5,ft11,ft6,fs9,rtz
    80002474:	5131                	li	sp,-20
    80002476:	13c9                	addi	t2,t2,-14
    80002478:	d7a2b5fb          	0xd7a2b5fb
    8000247c:	699e                	ld	s3,448(sp)
    8000247e:	cec6                	sw	a7,92(sp)
    80002480:	5de0                	lw	s0,124(a1)
    80002482:	ea01                	bnez	a2,80002492 <test_memory+0x292>
    80002484:	f5c6                	sd	a7,232(sp)
    80002486:	90d9                	srli	s1,s1,0x36
    80002488:	0821                	addi	a6,a6,8
    8000248a:	303853e3          	bge	a6,gp,80002f90 <__global_pointer$+0x180>
    8000248e:	af32                	fsd	fa2,408(sp)
    80002490:	3b3c                	fld	fa5,112(a4)
    80002492:	4b0a                	lw	s6,128(sp)
    80002494:	cd80                	sw	s0,24(a1)
    80002496:	7abc                	ld	a5,112(a3)
    80002498:	efa1                	bnez	a5,800024f0 <test_memory+0x2f0>
    8000249a:	6768                	ld	a0,200(a4)
    8000249c:	0e48                	addi	a0,sp,788
    8000249e:	6558                	ld	a4,136(a0)
    800024a0:	eace                	sd	s3,336(sp)
    800024a2:	5089b673          	csrrc	a2,0x508,s3
    800024a6:	7314                	ld	a3,32(a4)
    800024a8:	af3e083f ef10925d 	0xef10925daf3e083f
    800024b0:	8a5c                	0x8a5c
    800024b2:	ed3e                	sd	a5,152(sp)
    800024b4:	3030                	fld	fa2,96(s0)
    800024b6:	e734                	sd	a3,72(a4)
    800024b8:	bdda                	fsd	fs6,248(sp)
    800024ba:	c9ed                	beqz	a1,800025ac <test_memory+0x3ac>
    800024bc:	f15f 26d7 841e      	0x841e26d7f15f
    800024c2:	76e1                	lui	a3,0xffff8
    800024c4:	8195                	srli	a1,a1,0x5
    800024c6:	a786                	fsd	ft1,456(sp)
    800024c8:	65c64dab          	0x65c64dab
    800024cc:	9256                	add	tp,tp,s5
    800024ce:	bba16377          	0xbba16377
    800024d2:	4d81                	li	s11,0
    800024d4:	5f9e                	lw	t6,228(sp)
    800024d6:	830c                	0x830c
    800024d8:	17ce                	slli	a5,a5,0x33
    800024da:	2652                	fld	fa2,272(sp)
    800024dc:	0382                	c.slli64	t2
    800024de:	919c                	0x919c
    800024e0:	24ee                	fld	fs1,216(sp)
    800024e2:	382c1b63          	bne	s8,sp,80002878 <_end+0x268>
    800024e6:	98f2                	add	a7,a7,t3
    800024e8:	0502                	c.slli64	a0
    800024ea:	4556                	lw	a0,84(sp)
    800024ec:	f82cacb3          	0xf82cacb3
    800024f0:	2cba29eb          	0x2cba29eb
    800024f4:	3cff3893          	sltiu	a7,t5,975
    800024f8:	04ac                	addi	a1,sp,584
    800024fa:	452a                	lw	a0,136(sp)
    800024fc:	d2da                	sw	s6,100(sp)
    800024fe:	82007fbb          	0x82007fbb
    80002502:	8d461c63          	bne	a2,s4,800015da <fromhost+0x59a>
    80002506:	0c2a                	slli	s8,s8,0xa
    80002508:	e721                	bnez	a4,80002550 <test_memory+0x350>
    8000250a:	240c                	fld	fa1,8(s0)
    8000250c:	c0dd                	beqz	s1,800025b2 <test_memory+0x3b2>
    8000250e:	6bba                	ld	s7,392(sp)
    80002510:	5ffd                	li	t6,-1
    80002512:	68d0d14f          	fnmadd.s	ft2,ft1,fa3,fa3,unknown
    80002516:	4c18                	lw	a4,24(s0)
    80002518:	1824                	addi	s1,sp,56
    8000251a:	0265                	addi	tp,tp,25
    8000251c:	928729ab          	0x928729ab
    80002520:	1a3a                	slli	s4,s4,0x2e
    80002522:	060bf7d7          	0x60bf7d7
    80002526:	45ec                	lw	a1,76(a1)
    80002528:	fdad                	bnez	a1,800024a2 <test_memory+0x2a2>
    8000252a:	178e9cf3          	csrrw	s9,0x178,t4
    8000252e:	3524                	fld	fs1,104(a0)
    80002530:	b0ff                	0xb0ff
    80002532:	7c02                	ld	s8,32(sp)
    80002534:	198d                	addi	s3,s3,-29
    80002536:	feecc9fb          	0xfeecc9fb
    8000253a:	e019                	bnez	s0,80002540 <test_memory+0x340>
    8000253c:	fcc8                	sd	a0,184(s1)
    8000253e:	21c1                	addiw	gp,gp,16
    80002540:	d726                	sw	s1,172(sp)
    80002542:	0a35                	addi	s4,s4,13
    80002544:	665e                	ld	a2,464(sp)
    80002546:	f1c2                	sd	a6,224(sp)
    80002548:	778c                	ld	a1,40(a5)
    8000254a:	fea5                	bnez	a3,800024c2 <test_memory+0x2c2>
    8000254c:	b959                	j	800021e2 <reg_x28_output+0x2>
    8000254e:	225e                	fld	ft4,464(sp)
    80002550:	60fe                	ld	ra,472(sp)
    80002552:	8912                	mv	s2,tp
    80002554:	69ee                	ld	s3,216(sp)
    80002556:	ff42                	sd	a6,440(sp)
    80002558:	1b3c                	addi	a5,sp,440
    8000255a:	aa1f2d87          	flw	fs11,-1375(t5)
    8000255e:	43ff                	0x43ff
    80002560:	43d83d73          	csrrc	s10,0x43d,a6
    80002564:	534d                	li	t1,-13
    80002566:	8fe6                	mv	t6,s9
    80002568:	8d6a                	mv	s10,s10
    8000256a:	826a                	mv	tp,s10
    8000256c:	1520                	addi	s0,sp,680
    8000256e:	0095                	addi	ra,ra,5
    80002570:	e6695d6b          	0xe6695d6b
    80002574:	5c86b993          	sltiu	s3,a3,1480
    80002578:	3151                	addiw	sp,sp,-12
    8000257a:	8dda                	mv	s11,s6
    8000257c:	872a                	mv	a4,a0
    8000257e:	2d7216b7          	lui	a3,0x2d721
    80002582:	ed9a                	sd	t1,216(sp)
    80002584:	c5a1                	beqz	a1,800025cc <test_memory+0x3cc>
    80002586:	433c                	lw	a5,64(a4)
    80002588:	7636                	ld	a2,360(sp)
    8000258a:	7e81                	lui	t4,0xfffe0
    8000258c:	f69c                	sd	a5,40(a3)
    8000258e:	0464                	addi	s1,sp,524
    80002590:	8598                	0x8598
    80002592:	1ddd                	addi	s11,s11,-9
    80002594:	c30d                	beqz	a4,800025b6 <test_memory+0x3b6>
    80002596:	21d1                	addiw	gp,gp,20
    80002598:	23ed                	addiw	t2,t2,27
    8000259a:	ca91                	beqz	a3,800025ae <test_memory+0x3ae>
    8000259c:	bf7c                	fsd	fa5,248(a4)
    8000259e:	e5ec                	sd	a1,200(a1)
    800025a0:	3399                	addiw	t2,t2,-26
    800025a2:	69e5                	lui	s3,0x19
    800025a4:	4c56                	lw	s8,84(sp)
    800025a6:	13e2                	slli	t2,t2,0x38
    800025a8:	6ba2                	ld	s7,8(sp)
    800025aa:	2a7d                	addiw	s4,s4,31
    800025ac:	ccd5                	beqz	s1,80002668 <_end+0x58>
    800025ae:	7596                	ld	a1,352(sp)
    800025b0:	50be833f 658b865e 	0x658b865e50be833f
    800025b8:	c0d5                	beqz	s1,8000265c <_end+0x4c>
    800025ba:	c585                	beqz	a1,800025e2 <test_memory+0x3e2>
    800025bc:	3483833b          	0x3483833b
    800025c0:	6904                	ld	s1,16(a0)
    800025c2:	a184                	fsd	fs1,0(a1)
    800025c4:	1dec1f17          	auipc	t5,0x1dec1
    800025c8:	bea6                	fsd	fs1,376(sp)
    800025ca:	b8f2                	fsd	ft8,112(sp)
    800025cc:	40ac                	lw	a1,64(s1)
    800025ce:	32fa5707          	0x32fa5707
    800025d2:	037f2837          	lui	a6,0x37f2
    800025d6:	832a                	mv	t1,a0
    800025d8:	9d52                	add	s10,s10,s4
    800025da:	0ef6                	slli	t4,t4,0x1d
    800025dc:	85a0                	0x85a0
    800025de:	ef9d                	bnez	a5,8000261c <_end+0xc>
    800025e0:	95e3e3ef          	jal	t2,7ff4073e <_start-0xbf8c2>
    800025e4:	00c9                	addi	ra,ra,18
    800025e6:	af49                	j	80002d78 <_end+0x768>
    800025e8:	fbfd                	bnez	a5,800025de <test_memory+0x3de>
    800025ea:	fde0                	sd	s0,248(a1)
    800025ec:	60bd1b57          	0x60bd1b57
    800025f0:	ec439ccb          	0xec439ccb
    800025f4:	c4dd                	beqz	s1,800026a2 <_end+0x92>
    800025f6:	f92d                	bnez	a0,80002568 <test_memory+0x368>
    800025f8:	02b1                	addi	t0,t0,12
    800025fa:	1c1f cb79 4897      	0x4897cb791c1f

0000000080002600 <loop_count>:
    80002600:	0040                	addi	s0,sp,4
	...

Disassembly of section .riscv.attributes:

0000000000000000 <.riscv.attributes>:
   0:	1e41                	addi	t3,t3,-16
   2:	0000                	unimp
   4:	7200                	ld	s0,32(a2)
   6:	7369                	lui	t1,0xffffa
   8:	01007663          	bgeu	zero,a6,14 <_start-0x7fffffec>
   c:	0014                	0x14
   e:	0000                	unimp
  10:	7205                	lui	tp,0xfffe1
  12:	3676                	fld	fa2,376(sp)
  14:	6934                	ld	a3,80(a0)
  16:	7032                	0x7032
  18:	5f30                	lw	a2,120(a4)
  1a:	326d                	addiw	tp,tp,-5
  1c:	3070                	fld	fa2,224(s0)
	...
