
build/test9:     file format elf64-littleriscv


Disassembly of section .text.init:

0000000080000000 <_start>:
    80000000:	05c0006f          	j	8000005c <reset_vector>

0000000080000004 <trap_vector>:
    80000004:	34202f73          	csrr	t5,mcause
    80000008:	00800f93          	li	t6,8
    8000000c:	03ff0a63          	beq	t5,t6,80000040 <write_tohost>
    80000010:	00900f93          	li	t6,9
    80000014:	03ff0663          	beq	t5,t6,80000040 <write_tohost>
    80000018:	00b00f93          	li	t6,11
    8000001c:	03ff0263          	beq	t5,t6,80000040 <write_tohost>
    80000020:	80000f17          	auipc	t5,0x80000
    80000024:	fe0f0f13          	addi	t5,t5,-32 # 0 <_start-0x80000000>
    80000028:	000f0463          	beqz	t5,80000030 <trap_vector+0x2c>
    8000002c:	000f0067          	jr	t5
    80000030:	34202f73          	csrr	t5,mcause
    80000034:	000f5463          	bgez	t5,8000003c <handle_exception>
    80000038:	0040006f          	j	8000003c <handle_exception>

000000008000003c <handle_exception>:
    8000003c:	5391e193          	ori	gp,gp,1337

0000000080000040 <write_tohost>:
    80000040:	00001f17          	auipc	t5,0x1
    80000044:	fc3f2023          	sw	gp,-64(t5) # 80001000 <tohost>
    80000048:	000902b7          	lui	t0,0x90
    8000004c:	0012829b          	addiw	t0,t0,1
    80000050:	00c29293          	slli	t0,t0,0xc
    80000054:	0002af83          	lw	t6,0(t0) # 90000 <_start-0x7ff70000>
    80000058:	fe9ff06f          	j	80000040 <write_tohost>

000000008000005c <reset_vector>:
    8000005c:	00000093          	li	ra,0
    80000060:	00000113          	li	sp,0
    80000064:	00000193          	li	gp,0
    80000068:	00000213          	li	tp,0
    8000006c:	00000293          	li	t0,0
    80000070:	00000313          	li	t1,0
    80000074:	00000393          	li	t2,0
    80000078:	00000413          	li	s0,0
    8000007c:	00000493          	li	s1,0
    80000080:	00000513          	li	a0,0
    80000084:	00000593          	li	a1,0
    80000088:	00000613          	li	a2,0
    8000008c:	00000693          	li	a3,0
    80000090:	00000713          	li	a4,0
    80000094:	00000793          	li	a5,0
    80000098:	00000813          	li	a6,0
    8000009c:	00000893          	li	a7,0
    800000a0:	00000913          	li	s2,0
    800000a4:	00000993          	li	s3,0
    800000a8:	00000a13          	li	s4,0
    800000ac:	00000a93          	li	s5,0
    800000b0:	00000b13          	li	s6,0
    800000b4:	00000b93          	li	s7,0
    800000b8:	00000c13          	li	s8,0
    800000bc:	00000c93          	li	s9,0
    800000c0:	00000d13          	li	s10,0
    800000c4:	00000d93          	li	s11,0
    800000c8:	00000e13          	li	t3,0
    800000cc:	00000e93          	li	t4,0
    800000d0:	00000f13          	li	t5,0
    800000d4:	00000f93          	li	t6,0
    800000d8:	f1402573          	csrr	a0,mhartid
    800000dc:	00051063          	bnez	a0,800000dc <reset_vector+0x80>
    800000e0:	00000297          	auipc	t0,0x0
    800000e4:	01028293          	addi	t0,t0,16 # 800000f0 <reset_vector+0x94>
    800000e8:	30529073          	csrw	mtvec,t0
    800000ec:	18005073          	csrwi	satp,0
    800000f0:	00000297          	auipc	t0,0x0
    800000f4:	02428293          	addi	t0,t0,36 # 80000114 <reset_vector+0xb8>
    800000f8:	30529073          	csrw	mtvec,t0
    800000fc:	0010029b          	addiw	t0,zero,1
    80000100:	03529293          	slli	t0,t0,0x35
    80000104:	fff28293          	addi	t0,t0,-1
    80000108:	3b029073          	csrw	pmpaddr0,t0
    8000010c:	01f00293          	li	t0,31
    80000110:	3a029073          	csrw	pmpcfg0,t0
    80000114:	30405073          	csrwi	mie,0
    80000118:	00000297          	auipc	t0,0x0
    8000011c:	01428293          	addi	t0,t0,20 # 8000012c <reset_vector+0xd0>
    80000120:	30529073          	csrw	mtvec,t0
    80000124:	30205073          	csrwi	medeleg,0
    80000128:	30305073          	csrwi	mideleg,0
    8000012c:	00000193          	li	gp,0
    80000130:	00000297          	auipc	t0,0x0
    80000134:	ed428293          	addi	t0,t0,-300 # 80000004 <trap_vector>
    80000138:	30529073          	csrw	mtvec,t0
    8000013c:	00100513          	li	a0,1
    80000140:	01f51513          	slli	a0,a0,0x1f
    80000144:	00055c63          	bgez	a0,8000015c <reset_vector+0x100>
    80000148:	0ff0000f          	fence
    8000014c:	00100193          	li	gp,1
    80000150:	05d00893          	li	a7,93
    80000154:	00000513          	li	a0,0
    80000158:	00000073          	ecall
    8000015c:	80000297          	auipc	t0,0x80000
    80000160:	ea428293          	addi	t0,t0,-348 # 0 <_start-0x80000000>
    80000164:	00028a63          	beqz	t0,80000178 <reset_vector+0x11c>
    80000168:	10529073          	csrw	stvec,t0
    8000016c:	0000b2b7          	lui	t0,0xb
    80000170:	1092829b          	addiw	t0,t0,265
    80000174:	30229073          	csrw	medeleg,t0
    80000178:	30005073          	csrwi	mstatus,0
    8000017c:	00000297          	auipc	t0,0x0
    80000180:	01428293          	addi	t0,t0,20 # 80000190 <reset_vector+0x134>
    80000184:	34129073          	csrw	mepc,t0
    80000188:	f1402573          	csrr	a0,mhartid
    8000018c:	30200073          	mret
    80000190:	0200006f          	j	800001b0 <test_start>

0000000080000194 <crash_backward>:
    80000194:	0ff0000f          	fence
    80000198:	00018063          	beqz	gp,80000198 <crash_backward+0x4>
    8000019c:	00119193          	slli	gp,gp,0x1
    800001a0:	0011e193          	ori	gp,gp,1
    800001a4:	05d00893          	li	a7,93
    800001a8:	00018513          	mv	a0,gp
    800001ac:	00000073          	ecall

00000000800001b0 <test_start>:
    800001b0:	00002f97          	auipc	t6,0x2
    800001b4:	e50f8f93          	addi	t6,t6,-432 # 80002000 <hidden_data>
    800001b8:	000fb003          	ld	zero,0(t6)
    800001bc:	008fb083          	ld	ra,8(t6)
    800001c0:	010fb103          	ld	sp,16(t6)
    800001c4:	018fb183          	ld	gp,24(t6)
    800001c8:	020fb203          	ld	tp,32(t6)
    800001cc:	028fb283          	ld	t0,40(t6)
    800001d0:	030fb303          	ld	t1,48(t6)
    800001d4:	038fb383          	ld	t2,56(t6)
    800001d8:	040fb403          	ld	s0,64(t6)
    800001dc:	048fb483          	ld	s1,72(t6)
    800001e0:	050fb503          	ld	a0,80(t6)
    800001e4:	058fb583          	ld	a1,88(t6)
    800001e8:	060fb603          	ld	a2,96(t6)
    800001ec:	068fb683          	ld	a3,104(t6)
    800001f0:	070fb703          	ld	a4,112(t6)
    800001f4:	078fb783          	ld	a5,120(t6)
    800001f8:	080fb803          	ld	a6,128(t6)
    800001fc:	088fb883          	ld	a7,136(t6)
    80000200:	090fb903          	ld	s2,144(t6)
    80000204:	098fb983          	ld	s3,152(t6)
    80000208:	0a0fba03          	ld	s4,160(t6)
    8000020c:	0a8fba83          	ld	s5,168(t6)
    80000210:	0b0fbb03          	ld	s6,176(t6)
    80000214:	0b8fbb83          	ld	s7,184(t6)
    80000218:	0c0fbc03          	ld	s8,192(t6)
    8000021c:	0c8fbc83          	ld	s9,200(t6)
    80000220:	0d0fbd03          	ld	s10,208(t6)
    80000224:	0d8fbd83          	ld	s11,216(t6)
    80000228:	0e0fbe03          	ld	t3,224(t6)
    8000022c:	0e8fbe83          	ld	t4,232(t6)
    80000230:	0f0fbf03          	ld	t5,240(t6)
    80000234:	0f8fbf83          	ld	t6,248(t6)
    80000238:	0040006f          	j	8000023c <pseg_0>

000000008000023c <pseg_0>:
    8000023c:	00100f93          	li	t6,1
    80000240:	06100d93          	li	s11,97
    80000244:	87a00493          	li	s1,-1926
    80000248:	abe00913          	li	s2,-1346
    8000024c:	037bc23b          	divw	tp,s7,s7
    80000250:	fe126b13          	ori	s6,tp,-31
    80000254:	bb200d13          	li	s10,-1102
    80000258:	01ac3cb3          	sltu	s9,s8,s10
    8000025c:	abb00993          	li	s3,-1349
    80000260:	78e00293          	li	t0,1934
    80000264:	00000793          	li	a5,0
    80000268:	78200e93          	li	t4,1922
    8000026c:	00000c13          	li	s8,0
    80000270:	f38792e3          	bne	a5,s8,80000194 <crash_backward>
    80000274:	00000513          	li	a0,0
    80000278:	01bd833b          	addw	t1,s11,s11
    8000027c:	03ff9f93          	slli	t6,t6,0x3f
    80000280:	00002697          	auipc	a3,0x2
    80000284:	20868693          	addi	a3,a3,520 # 80002488 <test_memory+0x288>
    80000288:	0273e0b3          	rem	ra,t2,t2
    8000028c:	033d0abb          	mulw	s5,s10,s3
    80000290:	40350f33          	sub	t5,a0,gp
    80000294:	00002717          	auipc	a4,0x2
    80000298:	01770713          	addi	a4,a4,23 # 800022ab <test_memory+0xab>
    8000029c:	0054813b          	addw	sp,s1,t0
    800002a0:	21a71ea3          	sh	s10,541(a4)
    800002a4:	22900093          	li	ra,553
    800002a8:	41398633          	sub	a2,s3,s3
    800002ac:	04068383          	lb	t2,64(a3)
    800002b0:	00000813          	li	a6,0
    800002b4:	f5400d93          	li	s11,-172
    800002b8:	ed051ee3          	bne	a0,a6,80000194 <crash_backward>
    800002bc:	de700c93          	li	s9,-537
    800002c0:	d7000893          	li	a7,-656
    800002c4:	6c006863          	bltu	zero,zero,80000994 <crash_forward>
    800002c8:	d0e00b93          	li	s7,-754
    800002cc:	01b0823b          	addw	tp,ra,s11
    800002d0:	411e81bb          	subw	gp,t4,a7
    800002d4:	42700993          	li	s3,1063
    800002d8:	fff00593          	li	a1,-1
    800002dc:	99000a93          	li	s5,-1648
    800002e0:	8b800313          	li	t1,-1864
    800002e4:	03794e33          	div	t3,s2,s7
    800002e8:	01f5c5b3          	xor	a1,a1,t6
    800002ec:	4159db3b          	sraw	s6,s3,s5
    800002f0:	006cfd33          	and	s10,s9,t1
    800002f4:	00b3f433          	and	s0,t2,a1
    800002f8:	01f6ea33          	or	s4,a3,t6
    800002fc:	40cad31b          	sraiw	t1,s5,0xc
    80000300:	01e1ddb3          	srl	s11,gp,t5
    80000304:	4139da3b          	sraw	s4,s3,s3
    80000308:	d5100393          	li	t2,-687
    8000030c:	b1300e93          	li	t4,-1261
    80000310:	c3100913          	li	s2,-975
    80000314:	00cf12b3          	sll	t0,t5,a2
    80000318:	03376633          	rem	a2,a4,s3
    8000031c:	20200f93          	li	t6,514
    80000320:	d8a00e13          	li	t3,-630
    80000324:	35e00793          	li	a5,862
    80000328:	71500713          	li	a4,1813
    8000032c:	ccb00d13          	li	s10,-821
    80000330:	26200593          	li	a1,610
    80000334:	7c100f13          	li	t5,1985
    80000338:	02e911b3          	mulh	gp,s2,a4
    8000033c:	03ae1133          	mulh	sp,t3,s10
    80000340:	000e8213          	mv	tp,t4
    80000344:	00ff9cb3          	sll	s9,t6,a5
    80000348:	e8b00513          	li	a0,-373
    8000034c:	00002b17          	auipc	s6,0x2
    80000350:	036b0b13          	addi	s6,s6,54 # 80002382 <test_memory+0x182>
    80000354:	5c858813          	addi	a6,a1,1480
    80000358:	34800193          	li	gp,840
    8000035c:	00000f93          	li	t6,0
    80000360:	23f00e13          	li	t3,575
    80000364:	00003097          	auipc	ra,0x3
    80000368:	95a08093          	addi	ra,ra,-1702 # 80002cbe <_end+0x6ae>
    8000036c:	e9000493          	li	s1,-368
    80000370:	038c2ab3          	mulhsu	s5,s8,s8
    80000374:	01ef1c33          	sll	s8,t5,t5
    80000378:	00000313          	li	t1,0
    8000037c:	c9500913          	li	s2,-875
    80000380:	00020b93          	mv	s7,tp
    80000384:	00aef8b3          	and	a7,t4,a0
    80000388:	00800d93          	li	s11,8
    8000038c:	024b1683          	lh	a3,36(s6)
    80000390:	009aaf33          	slt	t5,s5,s1
    80000394:	3e200313          	li	t1,994
    80000398:	03ce4733          	div	a4,t3,t3
    8000039c:	40635c3b          	sraw	s8,t1,t1
    800003a0:	000f0a93          	mv	s5,t5
    800003a4:	00002517          	auipc	a0,0x2
    800003a8:	8ca50513          	addi	a0,a0,-1846 # 80001c6e <fromhost+0xc2e>
    800003ac:	00002817          	auipc	a6,0x2
    800003b0:	ae780813          	addi	a6,a6,-1305 # 80001e93 <fromhost+0xe53>
    800003b4:	44d85583          	lhu	a1,1101(a6)
    800003b8:	62250ba3          	sb	sp,1591(a0)
    800003bc:	000a0713          	mv	a4,s4
    800003c0:	673d8293          	addi	t0,s11,1651
    800003c4:	81f0c983          	lbu	s3,-2017(ra)
    800003c8:	dea00e93          	li	t4,-534
    800003cc:	0093a433          	slt	s0,t2,s1
    800003d0:	75600513          	li	a0,1878
    800003d4:	01de5e33          	srl	t3,t3,t4
    800003d8:	0bf6cf13          	xori	t5,a3,191
    800003dc:	000a8893          	mv	a7,s5
    800003e0:	00002097          	auipc	ra,0x2
    800003e4:	1e908093          	addi	ra,ra,489 # 800025c9 <test_memory+0x3c9>
    800003e8:	00070c13          	mv	s8,a4
    800003ec:	02a545b3          	div	a1,a0,a0
    800003f0:	00018813          	mv	a6,gp
    800003f4:	00080413          	mv	s0,a6
    800003f8:	ca300393          	li	t2,-861
    800003fc:	f9700793          	li	a5,-105
    80000400:	dbf00613          	li	a2,-577
    80000404:	591a9863          	bne	s5,a7,80000994 <crash_forward>
    80000408:	f5b0a1a3          	sw	s11,-189(ra)
    8000040c:	d85dd4e3          	bge	s11,t0,80000194 <crash_backward>
    80000410:	0231fcb3          	remu	s9,gp,gp
    80000414:	c9a00113          	li	sp,-870
    80000418:	a38e6b93          	ori	s7,t3,-1480
    8000041c:	d7871ce3          	bne	a4,s8,80000194 <crash_backward>
    80000420:	56881a63          	bne	a6,s0,80000994 <crash_forward>
    80000424:	62800b13          	li	s6,1576
    80000428:	01e624b3          	slt	s1,a2,t5
    8000042c:	0073b233          	sltu	tp,t2,t2
    80000430:	0227ea33          	rem	s4,a5,sp
    80000434:	416e86bb          	subw	a3,t4,s6
    80000438:	ff158993          	addi	s3,a1,-15
    8000043c:	40215fbb          	sraw	t6,sp,sp
    80000440:	00c90d33          	add	s10,s2,a2
    80000444:	aa200e93          	li	t4,-1374
    80000448:	00000f93          	li	t6,0
    8000044c:	5e800493          	li	s1,1512
    80000450:	00000213          	li	tp,0
    80000454:	eab00593          	li	a1,-341
    80000458:	5a600b13          	li	s6,1446
    8000045c:	3d4b0a93          	addi	s5,s6,980
    80000460:	00002997          	auipc	s3,0x2
    80000464:	53698993          	addi	s3,s3,1334 # 80002996 <_end+0x386>
    80000468:	01de983b          	sllw	a6,t4,t4
    8000046c:	40948f3b          	subw	t5,s1,s1
    80000470:	412903b3          	sub	t2,s2,s2
    80000474:	34400713          	li	a4,836
    80000478:	af39cc83          	lbu	s9,-1293(s3)
    8000047c:	009e993b          	sllw	s2,t4,s1
    80000480:	00100a13          	li	s4,1
    80000484:	1c300193          	li	gp,451
    80000488:	b8300313          	li	t1,-1149
    8000048c:	03fa1a13          	slli	s4,s4,0x3f
    80000490:	b3300d13          	li	s10,-1229
    80000494:	007302bb          	addw	t0,t1,t2
    80000498:	00900693          	li	a3,9
    8000049c:	1f800c93          	li	s9,504
    800004a0:	fff00893          	li	a7,-1
    800004a4:	00002497          	auipc	s1,0x2
    800004a8:	d5e48493          	addi	s1,s1,-674 # 80002202 <test_memory+0x2>
    800004ac:	84c00413          	li	s0,-1972
    800004b0:	034a72bb          	remuw	t0,s4,s4
    800004b4:	1fe4bf03          	ld	t5,510(s1)
    800004b8:	0285bbb3          	mulhu	s7,a1,s0
    800004bc:	17657293          	andi	t0,a0,374
    800004c0:	02d36dbb          	remw	s11,t1,a3
    800004c4:	46a70c13          	addi	s8,a4,1130
    800004c8:	e7c00593          	li	a1,-388
    800004cc:	00b482bb          	addw	t0,s1,a1
    800004d0:	02b5f6bb          	remuw	a3,a1,a1
    800004d4:	02a55433          	divu	s0,a0,a0
    800004d8:	020004b3          	mul	s1,zero,zero
    800004dc:	41a187b3          	sub	a5,gp,s10
    800004e0:	0148c8b3          	xor	a7,a7,s4
    800004e4:	00100e93          	li	t4,1
    800004e8:	5a500913          	li	s2,1445
    800004ec:	47c00613          	li	a2,1148
    800004f0:	0110fe33          	and	t3,ra,a7
    800004f4:	037847bb          	divw	a5,a6,s7
    800004f8:	0063db9b          	srliw	s7,t2,0x6
    800004fc:	02b1ddbb          	divuw	s11,gp,a1
    80000500:	026805bb          	mulw	a1,a6,t1
    80000504:	65800313          	li	t1,1624
    80000508:	02630f3b          	mulw	t5,t1,t1
    8000050c:	484fc463          	blt	t6,tp,80000994 <crash_forward>
    80000510:	019cc833          	xor	a6,s9,s9
    80000514:	c6e00113          	li	sp,-914
    80000518:	86400193          	li	gp,-1948
    8000051c:	03fe9e93          	slli	t4,t4,0x3f
    80000520:	c7875ae3          	bge	a4,s8,80000194 <crash_backward>
    80000524:	02290b13          	addi	s6,s2,34
    80000528:	002600b3          	add	ra,a2,sp
    8000052c:	47697463          	bgeu	s2,s6,80000994 <crash_forward>
    80000530:	00319d3b          	sllw	s10,gp,gp
    80000534:	014e6533          	or	a0,t3,s4
    80000538:	fff00393          	li	t2,-1
    8000053c:	57e00c13          	li	s8,1406
    80000540:	81400313          	li	t1,-2028
    80000544:	0146df9b          	srliw	t6,a3,0x14
    80000548:	28d00193          	li	gp,653
    8000054c:	00100b93          	li	s7,1
    80000550:	00001717          	auipc	a4,0x1
    80000554:	76570713          	addi	a4,a4,1893 # 80001cb5 <fromhost+0xc75>
    80000558:	00002697          	auipc	a3,0x2
    8000055c:	bbc68693          	addi	a3,a3,-1092 # 80002114 <reg_x2_output+0x4>
    80000560:	3dc6b403          	ld	s0,988(a3)
    80000564:	6e900b13          	li	s6,1769
    80000568:	02631db3          	mulh	s11,t1,t1
    8000056c:	03fb9b93          	slli	s7,s7,0x3f
    80000570:	00002417          	auipc	s0,0x2
    80000574:	36440413          	addi	s0,s0,868 # 800028d4 <_end+0x2c4>
    80000578:	fff00813          	li	a6,-1
    8000057c:	416b023b          	subw	tp,s6,s6
    80000580:	0031b7b3          	sltu	a5,gp,gp
    80000584:	032936b3          	mulhu	a3,s2,s2
    80000588:	a0100293          	li	t0,-1535
    8000058c:	01784833          	xor	a6,a6,s7
    80000590:	da100113          	li	sp,-607
    80000594:	ce045303          	lhu	t1,-800(s0)
    80000598:	00e76db3          	or	s11,a4,a4
    8000059c:	03e03333          	mulhu	t1,zero,t5
    800005a0:	022c3f33          	mulhu	t5,s8,sp
    800005a4:	01037633          	and	a2,t1,a6
    800005a8:	01ef0dbb          	addw	s11,t5,t5
    800005ac:	00002797          	auipc	a5,0x2
    800005b0:	0c078793          	addi	a5,a5,192 # 8000266c <_end+0x5c>
    800005b4:	0252e933          	rem	s2,t0,t0
    800005b8:	00100593          	li	a1,1
    800005bc:	2db00293          	li	t0,731
    800005c0:	0263043b          	mulw	s0,t1,t1
    800005c4:	40badb33          	sra	s6,s5,a1
    800005c8:	f1700893          	li	a7,-233
    800005cc:	01d3c3b3          	xor	t2,t2,t4
    800005d0:	02dd0a3b          	mulw	s4,s10,a3
    800005d4:	00767ab3          	and	s5,a2,t2
    800005d8:	40398e33          	sub	t3,s3,gp
    800005dc:	61b00f13          	li	t5,1563
    800005e0:	ae700213          	li	tp,-1305
    800005e4:	03f59593          	slli	a1,a1,0x3f
    800005e8:	0231e1b3          	rem	gp,gp,gp
    800005ec:	01dae9b3          	or	s3,s5,t4
    800005f0:	73b74083          	lbu	ra,1851(a4)
    800005f4:	00d6993b          	sllw	s2,a3,a3
    800005f8:	393ace63          	blt	s5,s3,80000994 <crash_forward>
    800005fc:	017e6cb3          	or	s9,t3,s7
    80000600:	7c228d93          	addi	s11,t0,1986
    80000604:	d7a7d103          	lhu	sp,-646(a5)
    80000608:	036b56bb          	divuw	a3,s6,s6
    8000060c:	b9b2d4e3          	bge	t0,s11,80000194 <crash_backward>
    80000610:	03ef3333          	mulhu	t1,t5,t5
    80000614:	00489533          	sll	a0,a7,tp
    80000618:	8be00413          	li	s0,-1858
    8000061c:	00100313          	li	t1,1
    80000620:	03f31313          	slli	t1,t1,0x3f
    80000624:	fff00d13          	li	s10,-1
    80000628:	8ef7a113          	slti	sp,a5,-1809
    8000062c:	00bd4d33          	xor	s10,s10,a1
    80000630:	01a174b3          	and	s1,sp,s10
    80000634:	03b45d93          	srli	s11,s0,0x3b
    80000638:	f3000093          	li	ra,-208
    8000063c:	030956bb          	divuw	a3,s2,a6
    80000640:	00000893          	li	a7,0
    80000644:	00b6efb3          	or	t6,a3,a1
    80000648:	fff00393          	li	t2,-1
    8000064c:	0010c533          	xor	a0,ra,ra
    80000650:	03e5c2bb          	divw	t0,a1,t5
    80000654:	20800993          	li	s3,520
    80000658:	12b00913          	li	s2,299
    8000065c:	00000213          	li	tp,0
    80000660:	03293e33          	mulhu	t3,s2,s2
    80000664:	5d700793          	li	a5,1495
    80000668:	0063c3b3          	xor	t2,t2,t1
    8000066c:	c1500b13          	li	s6,-1003
    80000670:	00707eb3          	and	t4,zero,t2
    80000674:	10a78f13          	addi	t5,a5,266
    80000678:	016b5c33          	srl	s8,s6,s6
    8000067c:	b048ece3          	bltu	a7,tp,80000194 <crash_backward>
    80000680:	00666a33          	or	s4,a2,t1
    80000684:	03344733          	div	a4,s0,s3
    80000688:	b16b66e3          	bltu	s6,s6,80000194 <crash_backward>
    8000068c:	ba300893          	li	a7,-1117
    80000690:	015d513b          	srlw	sp,s10,s5
    80000694:	00100993          	li	s3,1
    80000698:	00008313          	mv	t1,ra
    8000069c:	40f7dbbb          	sraw	s7,a5,a5
    800006a0:	ba500a13          	li	s4,-1115
    800006a4:	00002417          	auipc	s0,0x2
    800006a8:	09d40413          	addi	s0,s0,157 # 80002741 <_end+0x131>
    800006ac:	821e4793          	xori	a5,t3,-2015
    800006b0:	dfb88f93          	addi	t6,a7,-517
    800006b4:	02e77ebb          	remuw	t4,a4,a4
    800006b8:	a2600613          	li	a2,-1498
    800006bc:	4031d6b3          	sra	a3,gp,gp
    800006c0:	03f99993          	slli	s3,s3,0x3f
    800006c4:	57b00293          	li	t0,1403
    800006c8:	b5346903          	lwu	s2,-1197(s0)
    800006cc:	c8800713          	li	a4,-888
    800006d0:	47e00f13          	li	t5,1150
    800006d4:	d5700393          	li	t2,-681
    800006d8:	0273cabb          	divw	s5,t2,t2
    800006dc:	00030d13          	mv	s10,t1
    800006e0:	2ba36a63          	bltu	t1,s10,80000994 <crash_forward>
    800006e4:	a9d00f93          	li	t6,-1379
    800006e8:	76a00113          	li	sp,1898
    800006ec:	a3000093          	li	ra,-1488
    800006f0:	02216933          	rem	s2,sp,sp
    800006f4:	039cebb3          	rem	s7,s9,s9
    800006f8:	70500a93          	li	s5,1797
    800006fc:	00002e97          	auipc	t4,0x2
    80000700:	210e8e93          	addi	t4,t4,528 # 8000290c <_end+0x2fc>
    80000704:	a37e8483          	lb	s1,-1481(t4)
    80000708:	161a8413          	addi	s0,s5,353
    8000070c:	fff00513          	li	a0,-1
    80000710:	02996333          	rem	t1,s2,s1
    80000714:	8d270d93          	addi	s11,a4,-1838
    80000718:	001f3c33          	sltu	s8,t5,ra
    8000071c:	b8000b93          	li	s7,-1152
    80000720:	00563cb3          	sltu	s9,a2,t0
    80000724:	036b1e33          	mulh	t3,s6,s6
    80000728:	a7b766e3          	bltu	a4,s11,80000194 <crash_backward>
    8000072c:	01ff87bb          	addw	a5,t6,t6
    80000730:	9e663893          	sltiu	a7,a2,-1562
    80000734:	02738233          	mul	tp,t2,t2
    80000738:	020066b3          	rem	a3,zero,zero
    8000073c:	d7e00813          	li	a6,-642
    80000740:	d8100113          	li	sp,-639
    80000744:	0065191b          	slliw	s2,a0,0x6
    80000748:	410a51bb          	sraw	gp,s4,a6
    8000074c:	248ad463          	bge	s5,s0,80000994 <crash_forward>
    80000750:	022bd4bb          	divuw	s1,s7,sp
    80000754:	01354533          	xor	a0,a0,s3
    80000758:	00a675b3          	and	a1,a2,a0
    8000075c:	0135eb33          	or	s6,a1,s3
    80000760:	22bb5a63          	bge	s6,a1,80000994 <crash_forward>
    80000764:	fb700613          	li	a2,-73
    80000768:	b3900b13          	li	s6,-1223
    8000076c:	ae200213          	li	tp,-1310
    80000770:	036b5eb3          	divu	t4,s6,s6
    80000774:	3d900c13          	li	s8,985
    80000778:	004212bb          	sllw	t0,tp,tp
    8000077c:	57100193          	li	gp,1393
    80000780:	0328ceb3          	div	t4,a7,s2
    80000784:	18c00493          	li	s1,396
    80000788:	0291c53b          	divw	a0,gp,s1
    8000078c:	00001417          	auipc	s0,0x1
    80000790:	6ed40413          	addi	s0,s0,1773 # 80001e79 <fromhost+0xe39>
    80000794:	c6b93a13          	sltiu	s4,s2,-917
    80000798:	0298eb33          	rem	s6,a7,s1
    8000079c:	027b59b3          	divu	s3,s6,t2
    800007a0:	94700313          	li	t1,-1721
    800007a4:	01ad9933          	sll	s2,s11,s10
    800007a8:	84900e13          	li	t3,-1975
    800007ac:	fc100893          	li	a7,-63
    800007b0:	00080c93          	mv	s9,a6
    800007b4:	40a50a3b          	subw	s4,a0,a0
    800007b8:	65b44803          	lbu	a6,1627(s0)
    800007bc:	18f00493          	li	s1,399
    800007c0:	03ffa2b3          	mulhsu	t0,t6,t6
    800007c4:	e1c00d93          	li	s11,-484
    800007c8:	f2a00813          	li	a6,-214
    800007cc:	414950b3          	sra	ra,s2,s4
    800007d0:	fa500513          	li	a0,-91
    800007d4:	00100593          	li	a1,1
    800007d8:	03f59593          	slli	a1,a1,0x3f
    800007dc:	ecc00193          	li	gp,-308
    800007e0:	00001297          	auipc	t0,0x1
    800007e4:	6d928293          	addi	t0,t0,1753 # 80001eb9 <fromhost+0xe79>
    800007e8:	d0900b93          	li	s7,-759
    800007ec:	418603bb          	subw	t2,a2,s8
    800007f0:	31800213          	li	tp,792
    800007f4:	00001097          	auipc	ra,0x1
    800007f8:	74808093          	addi	ra,ra,1864 # 80001f3c <fromhost+0xefc>
    800007fc:	4440ba03          	ld	s4,1092(ra)
    80000800:	02424933          	div	s2,tp,tp
    80000804:	08900f13          	li	t5,137
    80000808:	403489b3          	sub	s3,s1,gp
    8000080c:	fff00113          	li	sp,-1
    80000810:	000c8713          	mv	a4,s9
    80000814:	03736fbb          	remw	t6,t1,s7
    80000818:	44b2a9a3          	sw	a1,1107(t0)
    8000081c:	41ed86b3          	sub	a3,s11,t5
    80000820:	031e1d33          	mulh	s10,t3,a7
    80000824:	00b14133          	xor	sp,sp,a1
    80000828:	90100c13          	li	s8,-1791
    8000082c:	52000f93          	li	t6,1312
    80000830:	da700613          	li	a2,-601
    80000834:	60200e13          	li	t3,1538
    80000838:	a5680413          	addi	s0,a6,-1450
    8000083c:	74800193          	li	gp,1864
    80000840:	00a56b33          	or	s6,a0,a0
    80000844:	9d600a13          	li	s4,-1578
    80000848:	0029f7b3          	and	a5,s3,sp
    8000084c:	b4c00d13          	li	s10,-1204
    80000850:	94ecc2e3          	blt	s9,a4,80000194 <crash_backward>
    80000854:	01ad46b3          	xor	a3,s10,s10
    80000858:	00100c93          	li	s9,1
    8000085c:	03fc9c93          	slli	s9,s9,0x3f
    80000860:	02cc73bb          	remuw	t2,s8,a2
    80000864:	01398eb3          	add	t4,s3,s3
    80000868:	baf00093          	li	ra,-1105
    8000086c:	2ac00293          	li	t0,684
    80000870:	ace00713          	li	a4,-1330
    80000874:	a4600d93          	li	s11,-1466
    80000878:	03ff94b3          	mulh	s1,t6,t6
    8000087c:	0273db3b          	divuw	s6,t2,t2
    80000880:	fff00f13          	li	t5,-1
    80000884:	03b1e8bb          	remw	a7,gp,s11
    80000888:	40528bbb          	subw	s7,t0,t0
    8000088c:	b2600613          	li	a2,-1242
    80000890:	019f4f33          	xor	t5,t5,s9
    80000894:	00b7eab3          	or	s5,a5,a1
    80000898:	01e97d33          	and	s10,s2,t5
    8000089c:	40e086bb          	subw	a3,ra,a4
    800008a0:	00402233          	sgtz	tp,tp
    800008a4:	014e49b3          	xor	s3,t3,s4
    800008a8:	0081beb3          	sltu	t4,gp,s0
    800008ac:	01936533          	or	a0,t1,s9
    800008b0:	00c61c3b          	sllw	s8,a2,a2
    800008b4:	0ead0063          	beq	s10,a0,80000994 <crash_forward>
    800008b8:	dd800913          	li	s2,-552
    800008bc:	00002417          	auipc	s0,0x2
    800008c0:	92040413          	addi	s0,s0,-1760 # 800021dc <reg_x27_output+0x4>
    800008c4:	0329433b          	divw	t1,s2,s2
    800008c8:	36443a83          	ld	s5,868(s0)
    800008cc:	e5f00713          	li	a4,-417
    800008d0:	034a13b3          	mulh	t2,s4,s4
    800008d4:	40e705b3          	sub	a1,a4,a4
    800008d8:	d6100493          	li	s1,-671
    800008dc:	eb100213          	li	tp,-335
    800008e0:	5c900613          	li	a2,1481
    800008e4:	02c4fc33          	remu	s8,s1,a2
    800008e8:	70c00e93          	li	t4,1804
    800008ec:	01defdb3          	and	s11,t4,t4
    800008f0:	00422cb3          	slt	s9,tp,tp
    800008f4:	0040006f          	j	800008f8 <reg_dump>

00000000800008f8 <reg_dump>:
    800008f8:	00002097          	auipc	ra,0x2
    800008fc:	d0808093          	addi	ra,ra,-760 # 80002600 <loop_count>
    80000900:	0000a103          	lw	sp,0(ra)
    80000904:	fff10193          	addi	gp,sp,-1
    80000908:	0030a023          	sw	gp,0(ra)
    8000090c:	920118e3          	bnez	sp,8000023c <pseg_0>
    80000910:	00001097          	auipc	ra,0x1
    80000914:	7f008093          	addi	ra,ra,2032 # 80002100 <begin_signature>
    80000918:	0000b023          	sd	zero,0(ra)
    8000091c:	0020b823          	sd	sp,16(ra)
    80000920:	0030bc23          	sd	gp,24(ra)
    80000924:	0240b023          	sd	tp,32(ra)
    80000928:	0250b423          	sd	t0,40(ra)
    8000092c:	0260b823          	sd	t1,48(ra)
    80000930:	0270bc23          	sd	t2,56(ra)
    80000934:	0490b423          	sd	s1,72(ra)
    80000938:	04a0b823          	sd	a0,80(ra)
    8000093c:	04b0bc23          	sd	a1,88(ra)
    80000940:	06c0b023          	sd	a2,96(ra)
    80000944:	06d0b423          	sd	a3,104(ra)
    80000948:	06e0b823          	sd	a4,112(ra)
    8000094c:	06f0bc23          	sd	a5,120(ra)
    80000950:	0900b023          	sd	a6,128(ra)
    80000954:	0910b423          	sd	a7,136(ra)
    80000958:	0920b823          	sd	s2,144(ra)
    8000095c:	0930bc23          	sd	s3,152(ra)
    80000960:	0b40b023          	sd	s4,160(ra)
    80000964:	0b50b423          	sd	s5,168(ra)
    80000968:	0b60b823          	sd	s6,176(ra)
    8000096c:	0b70bc23          	sd	s7,184(ra)
    80000970:	0d80b023          	sd	s8,192(ra)
    80000974:	0d90b423          	sd	s9,200(ra)
    80000978:	0da0b823          	sd	s10,208(ra)
    8000097c:	0db0bc23          	sd	s11,216(ra)
    80000980:	0fc0b023          	sd	t3,224(ra)
    80000984:	0fd0b423          	sd	t4,232(ra)
    80000988:	0fe0b823          	sd	t5,240(ra)
    8000098c:	0ff0bc23          	sd	t6,248(ra)
    80000990:	0200006f          	j	800009b0 <test_end>

0000000080000994 <crash_forward>:
    80000994:	0ff0000f          	fence
    80000998:	00018063          	beqz	gp,80000998 <crash_forward+0x4>
    8000099c:	00119193          	slli	gp,gp,0x1
    800009a0:	0011e193          	ori	gp,gp,1
    800009a4:	05d00893          	li	a7,93
    800009a8:	00018513          	mv	a0,gp
    800009ac:	00000073          	ecall

00000000800009b0 <test_end>:
    800009b0:	0ff0000f          	fence
    800009b4:	00100193          	li	gp,1
    800009b8:	05d00893          	li	a7,93
    800009bc:	00000513          	li	a0,0
    800009c0:	00000073          	ecall
    800009c4:	c0001073          	unimp
	...

Disassembly of section .tohost:

0000000080001000 <tohost>:
	...

0000000080001040 <fromhost>:
	...

Disassembly of section .data:

0000000080002000 <hidden_data>:
    80002000:	ffff                	0xffff
    80002002:	ffff                	0xffff
    80002004:	ffff                	0xffff
    80002006:	ffff                	0xffff

0000000080002008 <reg_x1_init>:
    80002008:	ff88                	sd	a0,56(a5)
    8000200a:	ffff                	0xffff
    8000200c:	ffff                	0xffff
    8000200e:	ffff                	0xffff

0000000080002010 <reg_x2_init>:
	...

0000000080002018 <reg_x3_init>:
    80002018:	ffff                	0xffff
    8000201a:	ffff                	0xffff
    8000201c:	ffff                	0xffff
    8000201e:	ffff                	0xffff

0000000080002020 <reg_x4_init>:
    80002020:	7dac                	ld	a1,120(a1)
    80002022:	7c61                	lui	s8,0xffff8
    80002024:	e324                	sd	s1,64(a4)
    80002026:	8f05                	sub	a4,a4,s1

0000000080002028 <reg_x5_init>:
	...

0000000080002030 <reg_x6_init>:
    80002030:	0732                	slli	a4,a4,0xc
    80002032:	c8213faf          	0xc8213faf
    80002036:	          	j	8000c036 <__global_pointer$+0x9226>

0000000080002038 <reg_x7_init>:
	...

0000000080002040 <reg_x8_init>:
    80002040:	00000007          	0x7
    80002044:	0000                	unimp
	...

0000000080002048 <reg_x9_init>:
    80002048:	8779                	srai	a4,a4,0x1e
    8000204a:	b8cd                	j	8000193c <fromhost+0x8fc>
    8000204c:	a2c9                	j	8000220e <test_memory+0xe>
    8000204e:	494e                	lw	s2,208(sp)

0000000080002050 <reg_x10_init>:
	...

0000000080002058 <reg_x11_init>:
    80002058:	a72a                	fsd	fa0,392(sp)
    8000205a:	23b9                	addiw	t2,t2,14
    8000205c:	5bed                	li	s7,-5
    8000205e:	2c68                	fld	fa0,216(s0)

0000000080002060 <reg_x12_init>:
    80002060:	ffffff83          	0xffffff83
    80002064:	ffff                	0xffff
    80002066:	ffff                	0xffff

0000000080002068 <reg_x13_init>:
    80002068:	884a                	mv	a6,s2
    8000206a:	e82a                	sd	a0,16(sp)
    8000206c:	594c                	lw	a1,52(a0)
    8000206e:	3946                	fld	fs2,112(sp)

0000000080002070 <reg_x14_init>:
    80002070:	0005                	c.nop	1
    80002072:	0000                	unimp
    80002074:	0000                	unimp
	...

0000000080002078 <reg_x15_init>:
    80002078:	1af1                	addi	s5,s5,-4
    8000207a:	1ea4                	addi	s1,sp,888
    8000207c:	8e7c                	0x8e7c
    8000207e:	          	0xe10849f7

0000000080002080 <reg_x16_init>:
    80002080:	e108                	sd	a0,0(a0)
    80002082:	42ee                	lw	t0,216(sp)
    80002084:	fff03f73          	csrrc	t5,0xfff,zero

0000000080002088 <reg_x17_init>:
    80002088:	80000007          	0x80000007
    8000208c:	ffff                	0xffff
    8000208e:	ffff                	0xffff

0000000080002090 <reg_x18_init>:
    80002090:	2049                	0x2049
    80002092:	db88                	sw	a0,48(a5)
    80002094:	e3ca                	sd	s2,448(sp)
    80002096:	7a16                	ld	s4,352(sp)

0000000080002098 <reg_x19_init>:
    80002098:	1d92                	slli	s11,s11,0x24
    8000209a:	e0b1                	bnez	s1,800020de <reg_x27_init+0x6>
    8000209c:	b6079d73          	csrrw	s10,0xb60,a5

00000000800020a0 <reg_x20_init>:
    800020a0:	a40964af          	0xa40964af
    800020a4:	f436                	sd	a3,40(sp)
    800020a6:	          	fmsub.s	fa6,ft1,ft0,ft0,rup

00000000800020a8 <reg_x21_init>:
    800020a8:	0000                	unimp
    800020aa:	8000                	0x8000
    800020ac:	ffff                	0xffff
    800020ae:	ffff                	0xffff

00000000800020b0 <reg_x22_init>:
	...

00000000800020b8 <reg_x23_init>:
    800020b8:	44e8                	lw	a0,76(s1)
    800020ba:	1df5                	addi	s11,s11,-3
    800020bc:	3b2e1ecf          	fnmadd.d	ft9,ft8,fs2,ft7,rtz

00000000800020c0 <reg_x24_init>:
    800020c0:	67a5                	lui	a5,0x9
    800020c2:	4686                	lw	a3,64(sp)
    800020c4:	ed49eda3          	0xed49eda3

00000000800020c8 <reg_x25_init>:
    800020c8:	ffff                	0xffff
    800020ca:	ffff                	0xffff
    800020cc:	ffff                	0xffff
    800020ce:	ffff                	0xffff

00000000800020d0 <reg_x26_init>:
    800020d0:	c70e                	sw	gp,140(sp)
    800020d2:	e09d                	bnez	s1,800020f8 <reg_x31_init>
    800020d4:	7d5c                	ld	a5,184(a0)
    800020d6:	f57e                	sd	t6,168(sp)

00000000800020d8 <reg_x27_init>:
    800020d8:	00000007          	0x7
    800020dc:	0000                	unimp
    800020de:	0800                	addi	s0,sp,16

00000000800020e0 <reg_x28_init>:
	...

00000000800020e8 <reg_x29_init>:
    800020e8:	ffff                	0xffff
    800020ea:	ffff                	0xffff
    800020ec:	ffff                	0xffff
    800020ee:	ffff                	0xffff

00000000800020f0 <reg_x30_init>:
    800020f0:	00000007          	0x7
    800020f4:	0000                	unimp
    800020f6:	0800                	addi	s0,sp,16

00000000800020f8 <reg_x31_init>:
    800020f8:	0001                	nop
    800020fa:	8000                	0x8000
    800020fc:	ffff                	0xffff
    800020fe:	ffff                	0xffff

0000000080002100 <begin_signature>:
    80002100:	3541                	addiw	a0,a0,-16
    80002102:	1f45                	addi	t5,t5,-15
    80002104:	5409ff23          	0x5409ff23

0000000080002108 <reg_x1_output>:
    80002108:	76787707          	0x76787707
    8000210c:	21b5                	addiw	gp,gp,13
    8000210e:	145c                	addi	a5,sp,548

0000000080002110 <reg_x2_output>:
    80002110:	7eb5bd3f 2db6616f 	0x2db6616f7eb5bd3f

0000000080002118 <reg_x3_output>:
    80002118:	c32599f7          	0xc32599f7
    8000211c:	effc                	sd	a5,216(a5)
    8000211e:	98c2                	add	a7,a7,a6

0000000080002120 <reg_x4_output>:
    80002120:	435c2be7          	0x435c2be7
    80002124:	482a                	lw	a6,136(sp)
    80002126:	fcdd                	bnez	s1,800020e4 <reg_x28_init+0x4>

0000000080002128 <reg_x5_output>:
    80002128:	7020                	ld	s0,96(s0)
    8000212a:	4fa8                	lw	a0,88(a5)
    8000212c:	b3f8                	fsd	fa4,224(a5)
    8000212e:	28e0                	fld	fs0,208(s1)

0000000080002130 <reg_x6_output>:
    80002130:	8fb8                	0x8fb8
    80002132:	0e99                	addi	t4,t4,6
    80002134:	047e                	slli	s0,s0,0x1f
    80002136:	1096                	slli	ra,ra,0x25

0000000080002138 <reg_x7_output>:
    80002138:	6a38                	ld	a4,80(a2)
    8000213a:	e860                	sd	s0,208(s0)
    8000213c:	e289                	bnez	a3,8000213e <reg_x7_output+0x6>
    8000213e:	09be                	slli	s3,s3,0xf

0000000080002140 <reg_x8_output>:
    80002140:	21c5bedb          	0x21c5bedb
    80002144:	a21bfd1b          	0xa21bfd1b

0000000080002148 <reg_x9_output>:
    80002148:	79e0                	ld	s0,240(a1)
    8000214a:	7a29                	lui	s4,0xfffea
    8000214c:	0329                	addi	t1,t1,10
    8000214e:	          	bltu	a6,t2,80001360 <fromhost+0x320>

0000000080002150 <reg_x10_output>:
    80002150:	a078                	fsd	fa4,192(s0)
    80002152:	af8a                	fsd	ft2,472(sp)
    80002154:	d85c                	sw	a5,52(s0)
    80002156:	b5df        	0x912a6d19b5df

0000000080002158 <reg_x11_output>:
    80002158:	6d19                	lui	s10,0x6
    8000215a:	912a                	add	sp,sp,a0
    8000215c:	609e                	ld	ra,448(sp)
    8000215e:	77fe                	ld	a5,504(sp)

0000000080002160 <reg_x12_output>:
    80002160:	3744                	fld	fs1,168(a4)
    80002162:	c99a                	sw	t1,208(sp)
    80002164:	667ea4ab          	0x667ea4ab

0000000080002168 <reg_x13_output>:
    80002168:	0cf6                	slli	s9,s9,0x1d
    8000216a:	fc69                	bnez	s0,80002144 <reg_x8_output+0x4>
    8000216c:	820d                	srli	a2,a2,0x3
    8000216e:	4461                	li	s0,24

0000000080002170 <reg_x14_output>:
    80002170:	415e                	lw	sp,212(sp)
    80002172:	5522                	lw	a0,40(sp)
    80002174:	a326                	fsd	fs1,384(sp)
    80002176:	0458                	addi	a4,sp,516

0000000080002178 <reg_x15_output>:
    80002178:	94f4f393          	andi	t2,s1,-1713
    8000217c:	e23fb033          	0xe23fb033

0000000080002180 <reg_x16_output>:
    80002180:	3339815b          	0x3339815b
    80002184:	33f7987b          	0x33f7987b

0000000080002188 <reg_x17_output>:
    80002188:	4d45                	li	s10,17
    8000218a:	8f15                	sub	a4,a4,a3
    8000218c:	86cf0aef          	jal	s5,7fff21f8 <_start-0xde08>

0000000080002190 <reg_x18_output>:
    80002190:	049f 59b0 c819      	0xc81959b0049f
    80002196:	ce0e                	sw	gp,28(sp)

0000000080002198 <reg_x19_output>:
    80002198:	f912                	sd	tp,176(sp)
    8000219a:	39f4                	fld	fa3,240(a1)
    8000219c:	f305                	bnez	a4,800020bc <reg_x23_init+0x4>
    8000219e:	e615                	bnez	a2,800021ca <reg_x25_output+0x2>

00000000800021a0 <reg_x20_output>:
    800021a0:	faee                	sd	s11,368(sp)
    800021a2:	e56c                	sd	a1,200(a0)
    800021a4:	a3dcfd87          	0xa3dcfd87

00000000800021a8 <reg_x21_output>:
    800021a8:	1a0bbc63          	0x1a0bbc63
    800021ac:	cc1c                	sw	a5,24(s0)
    800021ae:	68fe                	ld	a7,472(sp)

00000000800021b0 <reg_x22_output>:
    800021b0:	f342                	sd	a6,416(sp)
    800021b2:	ff19                	bnez	a4,800020d0 <reg_x26_init>
    800021b4:	4815                	li	a6,5
    800021b6:	          	0x7df8045b

00000000800021b8 <reg_x23_output>:
    800021b8:	7df8                	ld	a4,248(a1)
    800021ba:	433a                	lw	t1,140(sp)
    800021bc:	4e575b0f          	0x4e575b0f

00000000800021c0 <reg_x24_output>:
    800021c0:	91de                	add	gp,gp,s7
    800021c2:	9684                	0x9684
    800021c4:	4cb5                	li	s9,13
    800021c6:	6829                	lui	a6,0xa

00000000800021c8 <reg_x25_output>:
    800021c8:	5c7bbc1b          	0x5c7bbc1b
    800021cc:	4464                	lw	s1,76(s0)
    800021ce:	6f71                	lui	t5,0x1c

00000000800021d0 <reg_x26_output>:
    800021d0:	13a2                	slli	t2,t2,0x28
    800021d2:	ae1d                	j	80002508 <test_memory+0x308>
    800021d4:	9dd25223          	0x9dd25223

00000000800021d8 <reg_x27_output>:
    800021d8:	b218                	fsd	fa4,32(a2)
    800021da:	d768                	sw	a0,108(a4)
    800021dc:	6f16                	ld	t5,320(sp)
    800021de:	f86d                	bnez	s0,800021d0 <reg_x26_output>

00000000800021e0 <reg_x28_output>:
    800021e0:	32a1                	addiw	t0,t0,-24
    800021e2:	ef89                	bnez	a5,800021fc <reg_x31_output+0x4>
    800021e4:	6b4c                	ld	a1,144(a4)
    800021e6:	2c14                	fld	fa3,24(s0)

00000000800021e8 <reg_x29_output>:
    800021e8:	64e6e0eb          	0x64e6e0eb
    800021ec:	b4944f9b          	0xb4944f9b

00000000800021f0 <reg_x30_output>:
    800021f0:	3ff0                	fld	fa2,248(a5)
    800021f2:	21a8                	fld	fa0,64(a1)
    800021f4:	63ee                	ld	t2,216(sp)
    800021f6:	0685                	addi	a3,a3,1

00000000800021f8 <reg_x31_output>:
    800021f8:	4558ef3b          	0x4558ef3b
    800021fc:	a4b95f23          	0xa4b95f23

0000000080002200 <test_memory>:
    80002200:	86c0                	0x86c0
    80002202:	80de                	mv	ra,s7
    80002204:	537a                	lw	t1,188(sp)
    80002206:	1487a887          	flw	fa7,328(a5) # 9148 <_start-0x7fff6eb8>
    8000220a:	a8e9                	j	800022e4 <test_memory+0xe4>
    8000220c:	431c                	lw	a5,0(a4)
    8000220e:	00c8                	addi	a0,sp,68
    80002210:	e94b4caf          	0xe94b4caf
    80002214:	fa40                	sd	s0,176(a2)
    80002216:	dd38                	sw	a4,120(a0)
    80002218:	839e                	mv	t2,t2
    8000221a:	4b32                	lw	s6,12(sp)
    8000221c:	68fe                	ld	a7,472(sp)
    8000221e:	da7e                	sw	t6,52(sp)
    80002220:	035a                	slli	t1,t1,0x16
    80002222:	c8ee                	sw	s11,80(sp)
    80002224:	4ccd                	li	s9,19
    80002226:	f72c                	sd	a1,104(a4)
    80002228:	8854                	0x8854
    8000222a:	dff2                	sw	t3,252(sp)
    8000222c:	ae3c1a43          	fmadd.q	fs4,fs8,ft3,fs5,rtz
    80002230:	7f36                	ld	t5,360(sp)
    80002232:	52f4                	lw	a3,100(a3)
    80002234:	d190                	sw	a2,32(a1)
    80002236:	4c72b26f          	jal	tp,8002defc <__global_pointer$+0x2b0ec>
    8000223a:	cbc1                	beqz	a5,800022ca <test_memory+0xca>
    8000223c:	e4044cb7          	lui	s9,0xe4044
    80002240:	47a0                	lw	s0,72(a5)
    80002242:	e6b5                	bnez	a3,800022ae <test_memory+0xae>
    80002244:	b4ba                	fsd	fa4,104(sp)
    80002246:	051d                	addi	a0,a0,7
    80002248:	77ee                	ld	a5,248(sp)
    8000224a:	3f5d                	addiw	t5,t5,-9
    8000224c:	b2f4                	fsd	fa3,224(a3)
    8000224e:	b672                	fsd	ft8,296(sp)
    80002250:	5432                	lw	s0,44(sp)
    80002252:	d976                	sw	t4,176(sp)
    80002254:	786db66f          	jal	a2,800dd9da <__global_pointer$+0xdabca>
    80002258:	cd15205b          	0xcd15205b
    8000225c:	0be3d123          	0xbe3d123
    80002260:	3351cb57          	0x3351cb57
    80002264:	6475571b          	0x6475571b
    80002268:	bba2                	fsd	fs0,496(sp)
    8000226a:	5989                	li	s3,-30
    8000226c:	1a10                	addi	a2,sp,304
    8000226e:	96216f83          	lwu	t6,-1694(sp)
    80002272:	e61baa8f          	0xe61baa8f
    80002276:	09f25593          	0x9f25593
    8000227a:	32b4                	fld	fa3,96(a3)
    8000227c:	5859                	li	a6,-10
    8000227e:	dd59b0af          	0xdd59b0af
    80002282:	56a886e3          	beq	a7,a0,80002fee <__global_pointer$+0x1de>
    80002286:	a23e                	fsd	fa5,256(sp)
    80002288:	2af5                	addiw	s5,s5,29
    8000228a:	ace8                	fsd	fa0,216(s1)
    8000228c:	e801                	bnez	s0,8000229c <test_memory+0x9c>
    8000228e:	6f65                	lui	t5,0x19
    80002290:	b46fc3d7          	0xb46fc3d7
    80002294:	fef1                	bnez	a3,80002270 <test_memory+0x70>
    80002296:	94b8                	0x94b8
    80002298:	e4e95243          	0xe4e95243
    8000229c:	8431                	srai	s0,s0,0xc
    8000229e:	7869                	lui	a6,0xffffa
    800022a0:	f214                	sd	a3,32(a2)
    800022a2:	5e62                	lw	t3,56(sp)
    800022a4:	a585                	j	80002904 <_end+0x2f4>
    800022a6:	cf1bb48b          	0xcf1bb48b
    800022aa:	e31f ad36 c3e1      	0xc3e1ad36e31f
    800022b0:	c6fd                	beqz	a3,8000239e <test_memory+0x19e>
    800022b2:	eff1                	bnez	a5,8000238e <test_memory+0x18e>
    800022b4:	80f2                	mv	ra,t3
    800022b6:	815e                	mv	sp,s7
    800022b8:	5b50                	lw	a2,52(a4)
    800022ba:	eacdfdfb          	0xeacdfdfb
    800022be:	4209e97b          	0x4209e97b
    800022c2:	713d                	addi	sp,sp,-32
    800022c4:	0db4                	addi	a3,sp,728
    800022c6:	0ab5                	addi	s5,s5,13
    800022c8:	e580                	sd	s0,8(a1)
    800022ca:	dbb6                	sw	a3,244(sp)
    800022cc:	6ea0                	ld	s0,88(a3)
    800022ce:	2de8                	fld	fa0,216(a1)
    800022d0:	fa8d                	bnez	a3,80002202 <test_memory+0x2>
    800022d2:	4a06                	lw	s4,64(sp)
    800022d4:	17e5de47          	fmsub.q	ft8,fa1,ft10,ft2,unknown
    800022d8:	4a8c                	lw	a1,16(a3)
    800022da:	2552                	fld	fa0,272(sp)
    800022dc:	db10                	sw	a2,48(a4)
    800022de:	f31f b84e 86dc      	0x86dcb84ef31f
    800022e4:	c99c                	sw	a5,16(a1)
    800022e6:	47fc                	lw	a5,76(a5)
    800022e8:	e0e9b243          	fmadd.s	ft4,fs3,fa4,ft8,rup
    800022ec:	3232                	fld	ft4,296(sp)
    800022ee:	5778                	lw	a4,108(a4)
    800022f0:	a40c8157          	0xa40c8157
    800022f4:	1bb6                	slli	s7,s7,0x2d
    800022f6:	83609427          	0x83609427
    800022fa:	77d9                	lui	a5,0xffff6
    800022fc:	311f 7b6b 310d      	0x310d7b6b311f
    80002302:	ac8c856b          	0xac8c856b
    80002306:	b71f 22b6 d099      	0xd09922b6b71f
    8000230c:	9b68                	0x9b68
    8000230e:	0b50                	addi	a2,sp,404
    80002310:	ec80                	sd	s0,24(s1)
    80002312:	e004                	sd	s1,0(s0)
    80002314:	0130                	addi	a2,sp,136
    80002316:	f1a9130b          	0xf1a9130b
    8000231a:	3c25                	addiw	s8,s8,-23
    8000231c:	dd733ae7          	0xdd733ae7
    80002320:	c4700803          	lb	a6,-953(zero) # fffffffffffffc47 <__global_pointer$+0xffffffff7fffce37>
    80002324:	1391db33          	0x1391db33
    80002328:	3fe0                	fld	fs0,248(a5)
    8000232a:	97bc967b          	0x97bc967b
    8000232e:	31fe4e0f          	0x31fe4e0f
    80002332:	d2f0                	sw	a2,100(a3)
    80002334:	ae0ada47          	fmsub.q	fs4,fs5,ft0,fs5,unknown
    80002338:	2438                	fld	fa4,72(s0)
    8000233a:	ac97282b          	0xac97282b
    8000233e:	f7025e37          	lui	t3,0xf7025
    80002342:	a720                	fsd	fs0,72(a4)
    80002344:	1425                	addi	s0,s0,-23
    80002346:	5b6a                	lw	s6,184(sp)
    80002348:	0ff770fb          	0xff770fb
    8000234c:	d8871b33          	0xd8871b33
    80002350:	f31d                	bnez	a4,80002276 <test_memory+0x76>
    80002352:	c6b244bb          	0xc6b244bb
    80002356:	3751b1b7          	lui	gp,0x3751b
    8000235a:	2d89                	addiw	s11,s11,2
    8000235c:	a522                	fsd	fs0,136(sp)
    8000235e:	446f0347          	0x446f0347
    80002362:	6380                	ld	s0,0(a5)
    80002364:	885c                	0x885c
    80002366:	fb3d                	bnez	a4,800022dc <test_memory+0xdc>
    80002368:	8df6                	mv	s11,t4
    8000236a:	5558                	lw	a4,44(a0)
    8000236c:	ecce                	sd	s3,88(sp)
    8000236e:	db5d                	beqz	a4,80002324 <test_memory+0x124>
    80002370:	12fd                	addi	t0,t0,-1
    80002372:	da86                	sw	ra,116(sp)
    80002374:	d2ab9ac7          	fmsub.d	fs5,fs7,fa0,fs10,rtz
    80002378:	8f2c                	0x8f2c
    8000237a:	98bd                	andi	s1,s1,-17
    8000237c:	c2bd                	beqz	a3,800023e2 <test_memory+0x1e2>
    8000237e:	e252                	sd	s4,256(sp)
    80002380:	41c4                	lw	s1,4(a1)
    80002382:	a4a2                	fsd	fs0,72(sp)
    80002384:	cb6e43af          	0xcb6e43af
    80002388:	6f3ec1f3          	0x6f3ec1f3
    8000238c:	8318                	0x8318
    8000238e:	244d                	addiw	s0,s0,19
    80002390:	9d11                	subw	a0,a0,a2
    80002392:	5008e52b          	0x5008e52b
    80002396:	8e85                	sub	a3,a3,s1
    80002398:	6278                	ld	a4,192(a2)
    8000239a:	cec0                	sw	s0,28(a3)
    8000239c:	4766                	lw	a4,88(sp)
    8000239e:	f518                	sd	a4,40(a0)
    800023a0:	67b41a0f          	0x67b41a0f
    800023a4:	2564                	fld	fs1,200(a0)
    800023a6:	04ae                	slli	s1,s1,0xb
    800023a8:	3dca                	fld	fs11,176(sp)
    800023aa:	f09db27b          	0xf09db27b
    800023ae:	b58e                	fsd	ft3,232(sp)
    800023b0:	fba1                	bnez	a5,80002300 <test_memory+0x100>
    800023b2:	935d                	srli	a4,a4,0x37
    800023b4:	0596                	slli	a1,a1,0x5
    800023b6:	14d338d3          	0x14d338d3
    800023ba:	1bd9                	addi	s7,s7,-10
    800023bc:	4d5d                	li	s10,23
    800023be:	b966                	fsd	fs9,176(sp)
    800023c0:	f071                	bnez	s0,80002384 <test_memory+0x184>
    800023c2:	0c9d                	addi	s9,s9,7
    800023c4:	689c                	ld	a5,16(s1)
    800023c6:	87b8                	0x87b8
    800023c8:	ba85                	j	80001d38 <fromhost+0xcf8>
    800023ca:	e07257bf 7e49a048 	0x7e49a048e07257bf
    800023d2:	f3b8                	sd	a4,96(a5)
    800023d4:	8e0b90b7          	lui	ra,0x8e0b9
    800023d8:	d5b36153          	0xd5b36153
    800023dc:	0ba0                	addi	s0,sp,472
    800023de:	4ea1691b          	0x4ea1691b
    800023e2:	145a                	slli	s0,s0,0x36
    800023e4:	bcdf 9283 cbe2      	0xcbe29283bcdf
    800023ea:	a2a867cb          	fnmsub.d	fa5,fa6,fa0,fs4,unknown
    800023ee:	7b10                	ld	a2,48(a4)
    800023f0:	3078                	fld	fa4,224(s0)
    800023f2:	8890                	0x8890
    800023f4:	9d55                	0x9d55
    800023f6:	08f9                	addi	a7,a7,30
    800023f8:	5500                	lw	s0,40(a0)
    800023fa:	89ff                	0x89ff
    800023fc:	2a7c                	fld	fa5,208(a2)
    800023fe:	625a                	ld	tp,400(sp)
    80002400:	705ce367          	0x705ce367
    80002404:	ee9a                	sd	t1,344(sp)
    80002406:	436e                	lw	t1,216(sp)
    80002408:	02d4                	addi	a3,sp,324
    8000240a:	c002                	sw	zero,0(sp)
    8000240c:	48d8                	lw	a4,20(s1)
    8000240e:	1dd0                	addi	a2,sp,756
    80002410:	fff2                	sd	t3,504(sp)
    80002412:	5e7fec77          	0x5e7fec77
    80002416:	a13a                	fsd	fa4,128(sp)
    80002418:	12261957          	0x12261957
    8000241c:	27f9                	addiw	a5,a5,30
    8000241e:	6c68                	ld	a0,216(s0)
    80002420:	9121                	srli	a0,a0,0x28
    80002422:	97a2                	add	a5,a5,s0
    80002424:	1f9c                	addi	a5,sp,1008
    80002426:	192a                	slli	s2,s2,0x2a
    80002428:	e002                	sd	zero,0(sp)
    8000242a:	c68e                	sw	gp,76(sp)
    8000242c:	d2a2                	sw	s0,100(sp)
    8000242e:	334f64a3          	0x334f64a3
    80002432:	cee72bb3          	0xcee72bb3
    80002436:	0bb1                	addi	s7,s7,12
    80002438:	8ec9                	or	a3,a3,a0
    8000243a:	2bdd                	addiw	s7,s7,23
    8000243c:	cc66                	sw	s9,24(sp)
    8000243e:	e1dd                	bnez	a1,800024e4 <test_memory+0x2e4>
    80002440:	cc41                	beqz	s0,800024d8 <test_memory+0x2d8>
    80002442:	cf44                	sw	s1,28(a4)
    80002444:	f45e8f9b          	addiw	t6,t4,-187
    80002448:	608b9647          	fmsub.s	fa2,fs7,fs0,fa2,rtz
    8000244c:	6a26                	ld	s4,72(sp)
    8000244e:	9b7f                	0x9b7f
    80002450:	3079                	0x3079
    80002452:	0410                	addi	a2,sp,512
    80002454:	8162                	mv	sp,s8
    80002456:	1016                	c.slli	zero,0x25
    80002458:	b739                	j	80002366 <test_memory+0x166>
    8000245a:	a5a4                	fsd	fs1,72(a1)
    8000245c:	aed6                	fsd	fs5,344(sp)
    8000245e:	6d25                	lui	s10,0x9
    80002460:	49cc                	lw	a1,20(a1)
    80002462:	35aa                	fld	fa1,168(sp)
    80002464:	fe56f4af          	0xfe56f4af
    80002468:	9d30                	0x9d30
    8000246a:	dfc6                	sw	a7,252(sp)
    8000246c:	dcb0b087          	fld	ft1,-565(ra) # ffffffff8e0b8dcb <__global_pointer$+0xffffffff0e0b5fbb>
    80002470:	9332                	add	t1,t1,a2
    80002472:	31e5                	addiw	gp,gp,-7
    80002474:	016a                	slli	sp,sp,0x1a
    80002476:	f08208f7          	0xf08208f7
    8000247a:	4572                	lw	a0,28(sp)
    8000247c:	f075c9a3          	0xf075c9a3
    80002480:	fddc                	sd	a5,184(a1)
    80002482:	28ae                	fld	fa7,200(sp)
    80002484:	63d2                	ld	t2,272(sp)
    80002486:	3e2a                	fld	ft8,168(sp)
    80002488:	1381                	addi	t2,t2,-32
    8000248a:	e91c                	sd	a5,16(a0)
    8000248c:	1a71                	addi	s4,s4,-4
    8000248e:	1c8d                	addi	s9,s9,-29
    80002490:	938c                	0x938c
    80002492:	c39e4e2b          	0xc39e4e2b
    80002496:	2dda                	fld	fs11,400(sp)
    80002498:	4f23feef          	jal	t4,8004198a <__global_pointer$+0x3eb7a>
    8000249c:	1ee5                	addi	t4,t4,-7
    8000249e:	6a2066b7          	lui	a3,0x6a206
    800024a2:	905d                	srli	s0,s0,0x37
    800024a4:	c965                	beqz	a0,80002594 <test_memory+0x394>
    800024a6:	f1b0942b          	0xf1b0942b
    800024aa:	5c91c787          	flq	fa5,1481(gp) # 3751b5c9 <_start-0x48ae4a37>
    800024ae:	d4df bc6e 86eb      	0x86ebbc6ed4df
    800024b4:	a640                	fsd	fs0,136(a2)
    800024b6:	d960                	sw	s0,116(a0)
    800024b8:	e7c1                	bnez	a5,80002540 <test_memory+0x340>
    800024ba:	f76a                	sd	s10,424(sp)
    800024bc:	070d6cfb          	0x70d6cfb
    800024c0:	71133c57          	0x71133c57
    800024c4:	f1ae                	sd	a1,224(sp)
    800024c6:	499f 0c69 3b5c      	0x3b5c0c69499f
    800024cc:	42e5e817          	auipc	a6,0x42e5e
    800024d0:	f216                	sd	t0,288(sp)
    800024d2:	a880                	fsd	fs0,16(s1)
    800024d4:	01b6                	slli	gp,gp,0xd
    800024d6:	977d                	srai	a4,a4,0x3f
    800024d8:	9bad                	andi	a5,a5,-21
    800024da:	1f55                	addi	t5,t5,-11
    800024dc:	b8f0f30b          	0xb8f0f30b
    800024e0:	3cd9                	addiw	s9,s9,-10
    800024e2:	2152e92b          	0x2152e92b
    800024e6:	60fc                	ld	a5,192(s1)
    800024e8:	e708                	sd	a0,8(a4)
    800024ea:	77379843          	fmadd.q	fa6,fa5,fs3,fa4,rtz
    800024ee:	f2f4                	sd	a3,224(a3)
    800024f0:	c892                	sw	tp,80(sp)
    800024f2:	8361                	srli	a4,a4,0x18
    800024f4:	6a39490b          	0x6a39490b
    800024f8:	6bab715b          	0x6bab715b
    800024fc:	457a                	lw	a0,156(sp)
    800024fe:	f30c                	sd	a1,32(a4)
    80002500:	8d0e                	mv	s10,gp
    80002502:	6786                	ld	a5,64(sp)
    80002504:	3de1                	addiw	s11,s11,-8
    80002506:	5622592f          	0x5622592f
    8000250a:	f000                	sd	s0,32(s0)
    8000250c:	a9ac                	fsd	fa1,80(a1)
    8000250e:	e50a                	sd	sp,136(sp)
    80002510:	2a45                	addiw	s4,s4,17
    80002512:	3a6bb76f          	jal	a4,800bd8b8 <__global_pointer$+0xbaaa8>
    80002516:	6fe85d97          	auipc	s11,0x6fe85
    8000251a:	2ab0                	fld	fa2,80(a3)
    8000251c:	73503273          	csrrc	tp,0x735,zero
    80002520:	35f4                	fld	fa3,232(a1)
    80002522:	8647798f          	0x8647798f
    80002526:	f1fc24b7          	lui	s1,0xf1fc2
    8000252a:	1b04                	addi	s1,sp,432
    8000252c:	b134                	fsd	fa3,96(a0)
    8000252e:	edf1                	bnez	a1,8000260a <loop_count+0xa>
    80002530:	4e69                	li	t3,26
    80002532:	5301                	li	t1,-32
    80002534:	9fac                	0x9fac
    80002536:	3579                	addiw	a0,a0,-2
    80002538:	6965                	lui	s2,0x19
    8000253a:	b6658217          	auipc	tp,0xb6658
    8000253e:	069ddaef          	jal	s5,800dfda6 <__global_pointer$+0xdcf96>
    80002542:	088e                	slli	a7,a7,0x3
    80002544:	ab86db5b          	0xab86db5b
    80002548:	5912                	lw	s2,36(sp)
    8000254a:	ab61                	j	80002ae2 <_end+0x4d2>
    8000254c:	0e0d                	addi	t3,t3,3
    8000254e:	ff8718b3          	0xff8718b3
    80002552:	812c                	0x812c
    80002554:	bab49ebf 0e2ce555 	0xe2ce555bab49ebf
    8000255c:	0085                	addi	ra,ra,1
    8000255e:	1d36                	slli	s10,s10,0x2d
    80002560:	c2ae                	sw	a1,68(sp)
    80002562:	3f6d                	addiw	t5,t5,-5
    80002564:	9854                	0x9854
    80002566:	42924cf7          	0x42924cf7
    8000256a:	39a0                	fld	fs0,112(a1)
    8000256c:	5b7f                	0x5b7f
    8000256e:	b47a                	fsd	ft10,40(sp)
    80002570:	3200                	fld	fs0,32(a2)
    80002572:	9a42b7fb          	0x9a42b7fb
    80002576:	db33eea7          	0xdb33eea7
    8000257a:	7284                	ld	s1,32(a3)
    8000257c:	8749                	srai	a4,a4,0x12
    8000257e:	dc68                	sw	a0,124(s0)
    80002580:	a0e2                	fsd	fs8,64(sp)
    80002582:	9b45                	andi	a4,a4,-15
    80002584:	fb4d                	bnez	a4,80002536 <test_memory+0x336>
    80002586:	60de7d53          	0x60de7d53
    8000258a:	0686                	slli	a3,a3,0x1
    8000258c:	2c51                	addiw	s8,s8,20
    8000258e:	6b34                	ld	a3,80(a4)
    80002590:	ea88                	sd	a0,16(a3)
    80002592:	748c                	ld	a1,40(s1)
    80002594:	a1f2                	fsd	ft8,192(sp)
    80002596:	3702                	fld	fa4,32(sp)
    80002598:	3cea                	fld	fs9,184(sp)
    8000259a:	5bb5                	li	s7,-19
    8000259c:	44272ceb          	0x44272ceb
    800025a0:	1985                	addi	s3,s3,-31
    800025a2:	da45                	beqz	a2,80002552 <test_memory+0x352>
    800025a4:	1dc8                	addi	a0,sp,756
    800025a6:	c8b2                	sw	a2,80(sp)
    800025a8:	140e                	slli	s0,s0,0x23
    800025aa:	f7509fdb          	0xf7509fdb
    800025ae:	74a5357b          	0x74a5357b
    800025b2:	9865                	andi	s0,s0,-7
    800025b4:	7330                	ld	a2,96(a4)
    800025b6:	6599                	lui	a1,0x6
    800025b8:	18e7515b          	0x18e7515b
    800025bc:	73ec                	ld	a1,224(a5)
    800025be:	acfc                	fsd	fa5,216(s1)
    800025c0:	04fa                	slli	s1,s1,0x1e
    800025c2:	7d2a95db          	0x7d2a95db
    800025c6:	3b26                	fld	fs6,104(sp)
    800025c8:	ec6c                	sd	a1,216(s0)
    800025ca:	11a4                	addi	s1,sp,232
    800025cc:	13d1                	addi	t2,t2,-12
    800025ce:	e93440ab          	0xe93440ab
    800025d2:	e854                	sd	a3,144(s0)
    800025d4:	5a660983          	lb	s3,1446(a2)
    800025d8:	4349dedb          	0x4349dedb
    800025dc:	c38d                	beqz	a5,800025fe <test_memory+0x3fe>
    800025de:	0a36590f          	0xa36590f
    800025e2:	5632                	lw	a2,44(sp)
    800025e4:	1339                	addi	t1,t1,-18
    800025e6:	fcf66c8f          	0xfcf66c8f
    800025ea:	c6253083          	ld	ra,-926(a0)
    800025ee:	e41a                	sd	t1,8(sp)
    800025f0:	04e5                	addi	s1,s1,25
    800025f2:	02bd                	addi	t0,t0,15
    800025f4:	e01cbf17          	auipc	t5,0xe01cb
    800025f8:	25b1                	addiw	a1,a1,12
    800025fa:	e0ae                	sd	a1,64(sp)
    800025fc:	bc56                	fsd	fs5,56(sp)
    800025fe:	          	0x40e62b

0000000080002600 <loop_count>:
    80002600:	0040                	addi	s0,sp,4
	...

Disassembly of section .riscv.attributes:

0000000000000000 <.riscv.attributes>:
   0:	1e41                	addi	t3,t3,-16
   2:	0000                	unimp
   4:	7200                	ld	s0,32(a2)
   6:	7369                	lui	t1,0xffffa
   8:	01007663          	bgeu	zero,a6,14 <_start-0x7fffffec>
   c:	0014                	0x14
   e:	0000                	unimp
  10:	7205                	lui	tp,0xfffe1
  12:	3676                	fld	fa2,376(sp)
  14:	6934                	ld	a3,80(a0)
  16:	7032                	0x7032
  18:	5f30                	lw	a2,120(a4)
  1a:	326d                	addiw	tp,tp,-5
  1c:	3070                	fld	fa2,224(s0)
	...
