
build/test72:     file format elf64-littleriscv


Disassembly of section .text.init:

0000000080000000 <_start>:
    80000000:	05c0006f          	j	8000005c <reset_vector>

0000000080000004 <trap_vector>:
    80000004:	34202f73          	csrr	t5,mcause
    80000008:	00800f93          	li	t6,8
    8000000c:	03ff0a63          	beq	t5,t6,80000040 <write_tohost>
    80000010:	00900f93          	li	t6,9
    80000014:	03ff0663          	beq	t5,t6,80000040 <write_tohost>
    80000018:	00b00f93          	li	t6,11
    8000001c:	03ff0263          	beq	t5,t6,80000040 <write_tohost>
    80000020:	80000f17          	auipc	t5,0x80000
    80000024:	fe0f0f13          	addi	t5,t5,-32 # 0 <_start-0x80000000>
    80000028:	000f0463          	beqz	t5,80000030 <trap_vector+0x2c>
    8000002c:	000f0067          	jr	t5
    80000030:	34202f73          	csrr	t5,mcause
    80000034:	000f5463          	bgez	t5,8000003c <handle_exception>
    80000038:	0040006f          	j	8000003c <handle_exception>

000000008000003c <handle_exception>:
    8000003c:	5391e193          	ori	gp,gp,1337

0000000080000040 <write_tohost>:
    80000040:	00001f17          	auipc	t5,0x1
    80000044:	fc3f2023          	sw	gp,-64(t5) # 80001000 <tohost>
    80000048:	000902b7          	lui	t0,0x90
    8000004c:	0012829b          	addiw	t0,t0,1
    80000050:	00c29293          	slli	t0,t0,0xc
    80000054:	0002af83          	lw	t6,0(t0) # 90000 <_start-0x7ff70000>
    80000058:	fe9ff06f          	j	80000040 <write_tohost>

000000008000005c <reset_vector>:
    8000005c:	00000093          	li	ra,0
    80000060:	00000113          	li	sp,0
    80000064:	00000193          	li	gp,0
    80000068:	00000213          	li	tp,0
    8000006c:	00000293          	li	t0,0
    80000070:	00000313          	li	t1,0
    80000074:	00000393          	li	t2,0
    80000078:	00000413          	li	s0,0
    8000007c:	00000493          	li	s1,0
    80000080:	00000513          	li	a0,0
    80000084:	00000593          	li	a1,0
    80000088:	00000613          	li	a2,0
    8000008c:	00000693          	li	a3,0
    80000090:	00000713          	li	a4,0
    80000094:	00000793          	li	a5,0
    80000098:	00000813          	li	a6,0
    8000009c:	00000893          	li	a7,0
    800000a0:	00000913          	li	s2,0
    800000a4:	00000993          	li	s3,0
    800000a8:	00000a13          	li	s4,0
    800000ac:	00000a93          	li	s5,0
    800000b0:	00000b13          	li	s6,0
    800000b4:	00000b93          	li	s7,0
    800000b8:	00000c13          	li	s8,0
    800000bc:	00000c93          	li	s9,0
    800000c0:	00000d13          	li	s10,0
    800000c4:	00000d93          	li	s11,0
    800000c8:	00000e13          	li	t3,0
    800000cc:	00000e93          	li	t4,0
    800000d0:	00000f13          	li	t5,0
    800000d4:	00000f93          	li	t6,0
    800000d8:	f1402573          	csrr	a0,mhartid
    800000dc:	00051063          	bnez	a0,800000dc <reset_vector+0x80>
    800000e0:	00000297          	auipc	t0,0x0
    800000e4:	01028293          	addi	t0,t0,16 # 800000f0 <reset_vector+0x94>
    800000e8:	30529073          	csrw	mtvec,t0
    800000ec:	18005073          	csrwi	satp,0
    800000f0:	00000297          	auipc	t0,0x0
    800000f4:	02428293          	addi	t0,t0,36 # 80000114 <reset_vector+0xb8>
    800000f8:	30529073          	csrw	mtvec,t0
    800000fc:	0010029b          	addiw	t0,zero,1
    80000100:	03529293          	slli	t0,t0,0x35
    80000104:	fff28293          	addi	t0,t0,-1
    80000108:	3b029073          	csrw	pmpaddr0,t0
    8000010c:	01f00293          	li	t0,31
    80000110:	3a029073          	csrw	pmpcfg0,t0
    80000114:	30405073          	csrwi	mie,0
    80000118:	00000297          	auipc	t0,0x0
    8000011c:	01428293          	addi	t0,t0,20 # 8000012c <reset_vector+0xd0>
    80000120:	30529073          	csrw	mtvec,t0
    80000124:	30205073          	csrwi	medeleg,0
    80000128:	30305073          	csrwi	mideleg,0
    8000012c:	00000193          	li	gp,0
    80000130:	00000297          	auipc	t0,0x0
    80000134:	ed428293          	addi	t0,t0,-300 # 80000004 <trap_vector>
    80000138:	30529073          	csrw	mtvec,t0
    8000013c:	00100513          	li	a0,1
    80000140:	01f51513          	slli	a0,a0,0x1f
    80000144:	00055c63          	bgez	a0,8000015c <reset_vector+0x100>
    80000148:	0ff0000f          	fence
    8000014c:	00100193          	li	gp,1
    80000150:	05d00893          	li	a7,93
    80000154:	00000513          	li	a0,0
    80000158:	00000073          	ecall
    8000015c:	80000297          	auipc	t0,0x80000
    80000160:	ea428293          	addi	t0,t0,-348 # 0 <_start-0x80000000>
    80000164:	00028a63          	beqz	t0,80000178 <reset_vector+0x11c>
    80000168:	10529073          	csrw	stvec,t0
    8000016c:	0000b2b7          	lui	t0,0xb
    80000170:	1092829b          	addiw	t0,t0,265
    80000174:	30229073          	csrw	medeleg,t0
    80000178:	30005073          	csrwi	mstatus,0
    8000017c:	00000297          	auipc	t0,0x0
    80000180:	01428293          	addi	t0,t0,20 # 80000190 <reset_vector+0x134>
    80000184:	34129073          	csrw	mepc,t0
    80000188:	f1402573          	csrr	a0,mhartid
    8000018c:	30200073          	mret
    80000190:	0200006f          	j	800001b0 <test_start>

0000000080000194 <crash_backward>:
    80000194:	0ff0000f          	fence
    80000198:	00018063          	beqz	gp,80000198 <crash_backward+0x4>
    8000019c:	00119193          	slli	gp,gp,0x1
    800001a0:	0011e193          	ori	gp,gp,1
    800001a4:	05d00893          	li	a7,93
    800001a8:	00018513          	mv	a0,gp
    800001ac:	00000073          	ecall

00000000800001b0 <test_start>:
    800001b0:	00002f97          	auipc	t6,0x2
    800001b4:	e50f8f93          	addi	t6,t6,-432 # 80002000 <hidden_data>
    800001b8:	000fb003          	ld	zero,0(t6)
    800001bc:	008fb083          	ld	ra,8(t6)
    800001c0:	010fb103          	ld	sp,16(t6)
    800001c4:	018fb183          	ld	gp,24(t6)
    800001c8:	020fb203          	ld	tp,32(t6)
    800001cc:	028fb283          	ld	t0,40(t6)
    800001d0:	030fb303          	ld	t1,48(t6)
    800001d4:	038fb383          	ld	t2,56(t6)
    800001d8:	040fb403          	ld	s0,64(t6)
    800001dc:	048fb483          	ld	s1,72(t6)
    800001e0:	050fb503          	ld	a0,80(t6)
    800001e4:	058fb583          	ld	a1,88(t6)
    800001e8:	060fb603          	ld	a2,96(t6)
    800001ec:	068fb683          	ld	a3,104(t6)
    800001f0:	070fb703          	ld	a4,112(t6)
    800001f4:	078fb783          	ld	a5,120(t6)
    800001f8:	080fb803          	ld	a6,128(t6)
    800001fc:	088fb883          	ld	a7,136(t6)
    80000200:	090fb903          	ld	s2,144(t6)
    80000204:	098fb983          	ld	s3,152(t6)
    80000208:	0a0fba03          	ld	s4,160(t6)
    8000020c:	0a8fba83          	ld	s5,168(t6)
    80000210:	0b0fbb03          	ld	s6,176(t6)
    80000214:	0b8fbb83          	ld	s7,184(t6)
    80000218:	0c0fbc03          	ld	s8,192(t6)
    8000021c:	0c8fbc83          	ld	s9,200(t6)
    80000220:	0d0fbd03          	ld	s10,208(t6)
    80000224:	0d8fbd83          	ld	s11,216(t6)
    80000228:	0e0fbe03          	ld	t3,224(t6)
    8000022c:	0e8fbe83          	ld	t4,232(t6)
    80000230:	0f0fbf03          	ld	t5,240(t6)
    80000234:	0f8fbf83          	ld	t6,248(t6)
    80000238:	0040006f          	j	8000023c <pseg_0>

000000008000023c <pseg_0>:
    8000023c:	404fdd1b          	sraiw	s10,t6,0x4
    80000240:	039f87bb          	mulw	a5,t6,s9
    80000244:	86b00993          	li	s3,-1941
    80000248:	02e76533          	rem	a0,a4,a4
    8000024c:	02c64333          	div	t1,a2,a2
    80000250:	015a963b          	sllw	a2,s5,s5
    80000254:	00002817          	auipc	a6,0x2
    80000258:	63480813          	addi	a6,a6,1588 # 80002888 <_end+0x278>
    8000025c:	a9d00c13          	li	s8,-1379
    80000260:	03de9093          	slli	ra,t4,0x3d
    80000264:	037042b3          	div	t0,zero,s7
    80000268:	15900913          	li	s2,345
    8000026c:	2cc00f93          	li	t6,716
    80000270:	038c3ab3          	mulhu	s5,s8,s8
    80000274:	00002697          	auipc	a3,0x2
    80000278:	17568693          	addi	a3,a3,373 # 800023e9 <test_memory+0x1e9>
    8000027c:	027f01b3          	mul	gp,t5,t2
    80000280:	03a00e93          	li	t4,58
    80000284:	74004463          	bltz	zero,800009cc <crash_forward>
    80000288:	412983bb          	subw	t2,s3,s2
    8000028c:	a2080883          	lb	a7,-1504(a6)
    80000290:	03decdbb          	divw	s11,t4,t4
    80000294:	00002497          	auipc	s1,0x2
    80000298:	cad48493          	addi	s1,s1,-851 # 80001f41 <fromhost+0xf01>
    8000029c:	e9300b13          	li	s6,-365
    800002a0:	03ff9233          	mulh	tp,t6,t6
    800002a4:	00002e17          	auipc	t3,0x2
    800002a8:	11de0e13          	addi	t3,t3,285 # 800023c1 <test_memory+0x1c1>
    800002ac:	66500a13          	li	s4,1637
    800002b0:	c3c00593          	li	a1,-964
    800002b4:	e7300b93          	li	s7,-397
    800002b8:	02ba2433          	mulhsu	s0,s4,a1
    800002bc:	00002c97          	auipc	s9,0x2
    800002c0:	098c8c93          	addi	s9,s9,152 # 80002354 <test_memory+0x154>
    800002c4:	037b6f33          	rem	t5,s6,s7
    800002c8:	087e1fa3          	sh	t2,159(t3)
    800002cc:	f436c103          	lbu	sp,-189(a3)
    800002d0:	fcac8ba3          	sb	a0,-41(s9)
    800002d4:	51f4b703          	ld	a4,1311(s1)
    800002d8:	00100813          	li	a6,1
    800002dc:	ece00413          	li	s0,-306
    800002e0:	00b5fdb3          	and	s11,a1,a1
    800002e4:	03f81813          	slli	a6,a6,0x3f
    800002e8:	00100613          	li	a2,1
    800002ec:	8cc00113          	li	sp,-1844
    800002f0:	fff00c93          	li	s9,-1
    800002f4:	e4f00d13          	li	s10,-433
    800002f8:	0392de93          	srli	t4,t0,0x39
    800002fc:	1c946313          	ori	t1,s0,457
    80000300:	01e26733          	or	a4,tp,t5
    80000304:	bec00a13          	li	s4,-1044
    80000308:	038c43bb          	divw	t2,s8,s8
    8000030c:	00305533          	srl	a0,zero,gp
    80000310:	0b600713          	li	a4,182
    80000314:	036a2eb3          	mulhsu	t4,s4,s6
    80000318:	02210e3b          	mulw	t3,sp,sp
    8000031c:	03f61613          	slli	a2,a2,0x3f
    80000320:	b3600f13          	li	t5,-1226
    80000324:	03ef7c33          	remu	s8,t5,t5
    80000328:	e9100d93          	li	s11,-367
    8000032c:	00002597          	auipc	a1,0x2
    80000330:	9b558593          	addi	a1,a1,-1611 # 80001ce1 <fromhost+0xca1>
    80000334:	fff00193          	li	gp,-1
    80000338:	00028893          	mv	a7,t0
    8000033c:	00c1c1b3          	xor	gp,gp,a2
    80000340:	01b76333          	or	t1,a4,s11
    80000344:	e2340693          	addi	a3,s0,-477
    80000348:	8cdd0293          	addi	t0,s10,-1843
    8000034c:	03cb6933          	rem	s2,s6,t3
    80000350:	03ad0eb3          	mul	t4,s10,s10
    80000354:	fbea0493          	addi	s1,s4,-66
    80000358:	01445c3b          	srlw	s8,s0,s4
    8000035c:	010cccb3          	xor	s9,s9,a6
    80000360:	669a6663          	bltu	s4,s1,800009cc <crash_forward>
    80000364:	40c6033b          	subw	t1,a2,a2
    80000368:	003ff0b3          	and	ra,t6,gp
    8000036c:	66d46063          	bltu	s0,a3,800009cc <crash_forward>
    80000370:	01937b33          	and	s6,t1,s9
    80000374:	73500513          	li	a0,1845
    80000378:	00c76ab3          	or	s5,a4,a2
    8000037c:	30400113          	li	sp,772
    80000380:	010b6fb3          	or	t6,s6,a6
    80000384:	0095fdb3          	and	s11,a1,s1
    80000388:	e16fd6e3          	bge	t6,s6,80000194 <crash_backward>
    8000038c:	00088793          	mv	a5,a7
    80000390:	58c58983          	lb	s3,1420(a1)
    80000394:	d5a00813          	li	a6,-678
    80000398:	1c500a13          	li	s4,453
    8000039c:	d5c00c93          	li	s9,-676
    800003a0:	d2e00d93          	li	s11,-722
    800003a4:	00100493          	li	s1,1
    800003a8:	df5086e3          	beq	ra,s5,80000194 <crash_backward>
    800003ac:	41985fb3          	sra	t6,a6,s9
    800003b0:	18400913          	li	s2,388
    800003b4:	52a00993          	li	s3,1322
    800003b8:	03f49493          	slli	s1,s1,0x3f
    800003bc:	014d5f33          	srl	t5,s10,s4
    800003c0:	21e00593          	li	a1,542
    800003c4:	dc5d68e3          	bltu	s10,t0,80000194 <crash_backward>
    800003c8:	00216733          	or	a4,sp,sp
    800003cc:	032503b3          	mul	t2,a0,s2
    800003d0:	03bd9b33          	mulh	s6,s11,s11
    800003d4:	00002b97          	auipc	s7,0x2
    800003d8:	92cb8b93          	addi	s7,s7,-1748 # 80001d00 <fromhost+0xcc0>
    800003dc:	7c8bb203          	ld	tp,1992(s7)
    800003e0:	21c00e93          	li	t4,540
    800003e4:	02b9c433          	div	s0,s3,a1
    800003e8:	02fe85b3          	mul	a1,t4,a5
    800003ec:	014a593b          	srlw	s2,s4,s4
    800003f0:	00212633          	slt	a2,sp,sp
    800003f4:	03ad6733          	rem	a4,s10,s10
    800003f8:	0f400d13          	li	s10,244
    800003fc:	03ad6833          	rem	a6,s10,s10
    80000400:	01779633          	sll	a2,a5,s7
    80000404:	c8d00d93          	li	s11,-883
    80000408:	01bddfbb          	srlw	t6,s11,s11
    8000040c:	0118843b          	addw	s0,a7,a7
    80000410:	00099f3b          	sllw	t5,s3,zero
    80000414:	41da06bb          	subw	a3,s4,t4
    80000418:	00030293          	mv	t0,t1
    8000041c:	00028793          	mv	a5,t0
    80000420:	5af2e663          	bltu	t0,a5,800009cc <crash_forward>
    80000424:	cd900a93          	li	s5,-807
    80000428:	d6600c93          	li	s9,-666
    8000042c:	00100193          	li	gp,1
    80000430:	00100993          	li	s3,1
    80000434:	03f99993          	slli	s3,s3,0x3f
    80000438:	fff00e13          	li	t3,-1
    8000043c:	009e4e33          	xor	t3,t3,s1
    80000440:	7fa00813          	li	a6,2042
    80000444:	039acb33          	div	s6,s5,s9
    80000448:	47900a13          	li	s4,1145
    8000044c:	fff00093          	li	ra,-1
    80000450:	e4500793          	li	a5,-443
    80000454:	00000693          	li	a3,0
    80000458:	40c1d63b          	sraw	a2,gp,a2
    8000045c:	034c9513          	slli	a0,s9,0x34
    80000460:	36d00f93          	li	t6,877
    80000464:	014a543b          	srlw	s0,s4,s4
    80000468:	6a500713          	li	a4,1701
    8000046c:	00000d93          	li	s11,0
    80000470:	36d00913          	li	s2,877
    80000474:	034a6abb          	remw	s5,s4,s4
    80000478:	0130c0b3          	xor	ra,ra,s3
    8000047c:	d8700e93          	li	t4,-633
    80000480:	01dfad33          	slt	s10,t6,t4
    80000484:	00000613          	li	a2,0
    80000488:	012705bb          	addw	a1,a4,s2
    8000048c:	00000a13          	li	s4,0
    80000490:	01c6fc33          	and	s8,a3,t3
    80000494:	02427db3          	remu	s11,tp,tp
    80000498:	eb300d13          	li	s10,-333
    8000049c:	03f19193          	slli	gp,gp,0x3f
    800004a0:	00c61433          	sll	s0,a2,a2
    800004a4:	40f782bb          	subw	t0,a5,a5
    800004a8:	02924ebb          	divw	t4,tp,s1
    800004ac:	5eb00593          	li	a1,1515
    800004b0:	ac500a93          	li	s5,-1339
    800004b4:	0012fbb3          	and	s7,t0,ra
    800004b8:	dac00913          	li	s2,-596
    800004bc:	02b59fb3          	mulh	t6,a1,a1
    800004c0:	03087f3b          	remuw	t5,a6,a6
    800004c4:	00986333          	or	t1,a6,s1
    800004c8:	012d173b          	sllw	a4,s10,s2
    800004cc:	b3600413          	li	s0,-1226
    800004d0:	48e00793          	li	a5,1166
    800004d4:	cd4660e3          	bltu	a2,s4,80000194 <crash_backward>
    800004d8:	79000813          	li	a6,1936
    800004dc:	035a9533          	mulh	a0,s5,s5
    800004e0:	0108593b          	srlw	s2,a6,a6
    800004e4:	0b600d93          	li	s11,182
    800004e8:	51a00513          	li	a0,1306
    800004ec:	00000593          	li	a1,0
    800004f0:	49550613          	addi	a2,a0,1173
    800004f4:	fff00893          	li	a7,-1
    800004f8:	00000f93          	li	t6,0
    800004fc:	00f406bb          	addw	a3,s0,a5
    80000500:	0038c8b3          	xor	a7,a7,gp
    80000504:	68c00713          	li	a4,1676
    80000508:	00002d17          	auipc	s10,0x2
    8000050c:	2a7d0d13          	addi	s10,s10,679 # 800027af <_end+0x19f>
    80000510:	c14d4a03          	lbu	s4,-1004(s10)
    80000514:	29a00f13          	li	t5,666
    80000518:	00630d3b          	addw	s10,t1,t1
    8000051c:	00002b17          	auipc	s6,0x2
    80000520:	9ccb0b13          	addi	s6,s6,-1588 # 80001ee8 <fromhost+0xea8>
    80000524:	c66c48e3          	blt	s8,t1,80000194 <crash_backward>
    80000528:	0bf00793          	li	a5,191
    8000052c:	41bd82bb          	subw	t0,s11,s11
    80000530:	710b1c83          	lh	s9,1808(s6)
    80000534:	49f59c63          	bne	a1,t6,800009cc <crash_forward>
    80000538:	00002d17          	auipc	s10,0x2
    8000053c:	a6cd0d13          	addi	s10,s10,-1428 # 80001fa4 <fromhost+0xf64>
    80000540:	011a7133          	and	sp,s4,a7
    80000544:	02f7b533          	mulhu	a0,a5,a5
    80000548:	0165863b          	addw	a2,a1,s6
    8000054c:	db400313          	li	t1,-588
    80000550:	2c7d4403          	lbu	s0,711(s10)
    80000554:	77b00f93          	li	t6,1915
    80000558:	035a96b3          	mulh	a3,s5,s5
    8000055c:	03ef7633          	remu	a2,t5,t5
    80000560:	00002497          	auipc	s1,0x2
    80000564:	0dd48493          	addi	s1,s1,221 # 8000263d <_end+0x2d>
    80000568:	00000d13          	li	s10,0
    8000056c:	00002d97          	auipc	s11,0x2
    80000570:	ee5d8d93          	addi	s11,s11,-283 # 80002451 <test_memory+0x251>
    80000574:	0316d413          	srli	s0,a3,0x31
    80000578:	013be233          	or	tp,s7,s3
    8000057c:	e31d89a3          	sb	a7,-461(s11)
    80000580:	01decc33          	xor	s8,t4,t4
    80000584:	9a200c93          	li	s9,-1630
    80000588:	c434e583          	lwu	a1,-957(s1)
    8000058c:	b4400913          	li	s2,-1212
    80000590:	003163b3          	or	t2,sp,gp
    80000594:	00000693          	li	a3,0
    80000598:	42dd4a63          	blt	s10,a3,800009cc <crash_forward>
    8000059c:	03084b3b          	divw	s6,a6,a6
    800005a0:	be717ae3          	bgeu	sp,t2,80000194 <crash_backward>
    800005a4:	01e71ebb          	sllw	t4,a4,t5
    800005a8:	06800513          	li	a0,104
    800005ac:	039fda3b          	divuw	s4,t6,s9
    800005b0:	00000f93          	li	t6,0
    800005b4:	02637e3b          	remuw	t3,t1,t1
    800005b8:	00000193          	li	gp,0
    800005bc:	3bc00e93          	li	t4,956
    800005c0:	00100993          	li	s3,1
    800005c4:	ba700d13          	li	s10,-1113
    800005c8:	30a00a93          	li	s5,778
    800005cc:	41595833          	sra	a6,s2,s5
    800005d0:	8f700a13          	li	s4,-1801
    800005d4:	87000493          	li	s1,-1936
    800005d8:	03f99993          	slli	s3,s3,0x3f
    800005dc:	d1100693          	li	a3,-751
    800005e0:	de500793          	li	a5,-539
    800005e4:	0294fbbb          	remuw	s7,s1,s1
    800005e8:	40925b3b          	sraw	s6,tp,s1
    800005ec:	14300d93          	li	s11,323
    800005f0:	85500c13          	li	s8,-1963
    800005f4:	ae900913          	li	s2,-1303
    800005f8:	01295333          	srl	t1,s2,s2
    800005fc:	03dea5b3          	mulhsu	a1,t4,t4
    80000600:	40f502b3          	sub	t0,a0,a5
    80000604:	0339ff3b          	remuw	t5,s3,s3
    80000608:	a6600093          	li	ra,-1434
    8000060c:	0318f93b          	remuw	s2,a7,a7
    80000610:	405b84b3          	sub	s1,s7,t0
    80000614:	014d7133          	and	sp,s10,s4
    80000618:	00100313          	li	t1,1
    8000061c:	48700793          	li	a5,1159
    80000620:	03f31313          	slli	t1,t1,0x3f
    80000624:	02a00893          	li	a7,42
    80000628:	a0100113          	li	sp,-1535
    8000062c:	64100513          	li	a0,1601
    80000630:	fff00f93          	li	t6,-1
    80000634:	13c00a93          	li	s5,316
    80000638:	415ade3b          	sraw	t3,s5,s5
    8000063c:	c9e00913          	li	s2,-866
    80000640:	0016dcbb          	srlw	s9,a3,ra
    80000644:	011893b3          	sll	t2,a7,a7
    80000648:	01291833          	sll	a6,s2,s2
    8000064c:	e6600e13          	li	t3,-410
    80000650:	02f7feb3          	remu	t4,a5,a5
    80000654:	01ce1ab3          	sll	s5,t3,t3
    80000658:	03211b33          	mulh	s6,sp,s2
    8000065c:	05100593          	li	a1,81
    80000660:	fff00713          	li	a4,-1
    80000664:	00100a13          	li	s4,1
    80000668:	03fa1a13          	slli	s4,s4,0x3f
    8000066c:	01374733          	xor	a4,a4,s3
    80000670:	018db233          	sltu	tp,s11,s8
    80000674:	00e67633          	and	a2,a2,a4
    80000678:	013ae433          	or	s0,s5,s3
    8000067c:	fff00d13          	li	s10,-1
    80000680:	014d4d33          	xor	s10,s10,s4
    80000684:	00b552bb          	srlw	t0,a0,a1
    80000688:	01a371b3          	and	gp,t1,s10
    8000068c:	006fcfb3          	xor	t6,t6,t1
    80000690:	0141e4b3          	or	s1,gp,s4
    80000694:	01f5ff33          	and	t5,a1,t6
    80000698:	00100813          	li	a6,1
    8000069c:	5e800293          	li	t0,1512
    800006a0:	5f100393          	li	t2,1521
    800006a4:	7cf00793          	li	a5,1999
    800006a8:	00002a97          	auipc	s5,0x2
    800006ac:	e9da8a93          	addi	s5,s5,-355 # 80002545 <test_memory+0x345>
    800006b0:	00add63b          	srlw	a2,s11,a0
    800006b4:	6ae00513          	li	a0,1710
    800006b8:	02a5423b          	divw	tp,a0,a0
    800006bc:	ac91cce3          	blt	gp,s1,80000194 <crash_backward>
    800006c0:	dea00713          	li	a4,-534
    800006c4:	1ba38693          	addi	a3,t2,442
    800006c8:	0010f433          	and	s0,ra,ra
    800006cc:	03e27e33          	remu	t3,tp,t5
    800006d0:	03b02633          	mulhsu	a2,zero,s11
    800006d4:	00001e97          	auipc	t4,0x1
    800006d8:	48ee8e93          	addi	t4,t4,1166 # 80001b62 <fromhost+0xb22>
    800006dc:	03ef5dbb          	divuw	s11,t5,t5
    800006e0:	0302623b          	remw	tp,tp,a6
    800006e4:	006f6bb3          	or	s7,t5,t1
    800006e8:	23400413          	li	s0,564
    800006ec:	f21aa9a3          	sw	ra,-205(s5)
    800006f0:	4ea00b13          	li	s6,1258
    800006f4:	b9070593          	addi	a1,a4,-1136
    800006f8:	0367dcbb          	divuw	s9,a5,s6
    800006fc:	0252cc3b          	divw	s8,t0,t0
    80000700:	2ddec663          	blt	t4,t4,800009cc <crash_forward>
    80000704:	00000793          	li	a5,0
    80000708:	30540193          	addi	gp,s0,773
    8000070c:	00100e13          	li	t3,1
    80000710:	23a00c13          	li	s8,570
    80000714:	01def5b3          	and	a1,t4,t4
    80000718:	00100393          	li	t2,1
    8000071c:	03ba873b          	mulw	a4,s5,s11
    80000720:	00000b13          	li	s6,0
    80000724:	03f81813          	slli	a6,a6,0x3f
    80000728:	9e100293          	li	t0,-1567
    8000072c:	03fe1e13          	slli	t3,t3,0x3f
    80000730:	03f39393          	slli	t2,t2,0x3f
    80000734:	fff00213          	li	tp,-1
    80000738:	7d7ec883          	lbu	a7,2007(t4)
    8000073c:	fff00a13          	li	s4,-1
    80000740:	018c2db3          	slt	s11,s8,s8
    80000744:	c3400d13          	li	s10,-972
    80000748:	00724233          	xor	tp,tp,t2
    8000074c:	36b00513          	li	a0,875
    80000750:	00001897          	auipc	a7,0x1
    80000754:	75088893          	addi	a7,a7,1872 # 80001ea0 <fromhost+0xe60>
    80000758:	00ad50bb          	srlw	ra,s10,a0
    8000075c:	0162543b          	srlw	s0,tp,s6
    80000760:	01ca4a33          	xor	s4,s4,t3
    80000764:	5f08bb83          	ld	s7,1520(a7)
    80000768:	4c800713          	li	a4,1224
    8000076c:	02758533          	mul	a0,a1,t2
    80000770:	03dedfbb          	divuw	t6,t4,t4
    80000774:	02addf33          	divu	t5,s11,a0
    80000778:	01e5931b          	slliw	t1,a1,0x1e
    8000077c:	02fdf0bb          	remuw	ra,s11,a5
    80000780:	8e200413          	li	s0,-1822
    80000784:	008417bb          	sllw	a5,s0,s0
    80000788:	03ffd5b3          	divu	a1,t6,t6
    8000078c:	bc300d93          	li	s11,-1085
    80000790:	004af6b3          	and	a3,s5,tp
    80000794:	02d3bd33          	mulhu	s10,t2,a3
    80000798:	bc000b93          	li	s7,-1088
    8000079c:	0143fab3          	and	s5,t2,s4
    800007a0:	01cae4b3          	or	s1,s5,t3
    800007a4:	fff00993          	li	s3,-1
    800007a8:	007de633          	or	a2,s11,t2
    800007ac:	c2100b13          	li	s6,-991
    800007b0:	78f00193          	li	gp,1935
    800007b4:	02e70c3b          	mulw	s8,a4,a4
    800007b8:	ff228c93          	addi	s9,t0,-14
    800007bc:	0109c9b3          	xor	s3,s3,a6
    800007c0:	016bd8b3          	srl	a7,s7,s6
    800007c4:	023d8eb3          	mul	t4,s11,gp
    800007c8:	aae00b93          	li	s7,-1362
    800007cc:	8fbd23b7          	lui	t2,0x8fbd2
    800007d0:	d7f00d93          	li	s11,-641
    800007d4:	038c6cb3          	rem	s9,s8,s8
    800007d8:	4123dd3b          	sraw	s10,t2,s2
    800007dc:	035aa7b3          	mulhsu	a5,s5,s5
    800007e0:	a6600f13          	li	t5,-1434
    800007e4:	d5300293          	li	t0,-685
    800007e8:	22a00193          	li	gp,554
    800007ec:	33300693          	li	a3,819
    800007f0:	0052853b          	addw	a0,t0,t0
    800007f4:	00002497          	auipc	s1,0x2
    800007f8:	e5648493          	addi	s1,s1,-426 # 8000264a <_end+0x3a>
    800007fc:	00100893          	li	a7,1
    80000800:	003f1b3b          	sllw	s6,t5,gp
    80000804:	015353bb          	srlw	t2,t1,s5
    80000808:	fa649523          	sh	t1,-86(s1)
    8000080c:	02d6e633          	rem	a2,a3,a3
    80000810:	2d300c13          	li	s8,723
    80000814:	60b00413          	li	s0,1547
    80000818:	96006ee3          	bltu	zero,zero,80000194 <crash_backward>
    8000081c:	0e100513          	li	a0,225
    80000820:	cd200193          	li	gp,-814
    80000824:	1a000b13          	li	s6,416
    80000828:	01307133          	and	sp,zero,s3
    8000082c:	0027c2b3          	xor	t0,a5,sp
    80000830:	888d8a93          	addi	s5,s11,-1912
    80000834:	00000f13          	li	t5,0
    80000838:	c2ae6393          	ori	t2,t3,-982
    8000083c:	018bc333          	xor	t1,s7,s8
    80000840:	d4718d13          	addi	s10,gp,-697 # 80002b57 <_end+0x547>
    80000844:	028475b3          	remu	a1,s0,s0
    80000848:	0131823b          	addw	tp,gp,s3
    8000084c:	183d5063          	bge	s10,gp,800009cc <crash_forward>
    80000850:	03f89893          	slli	a7,a7,0x3f
    80000854:	01ce1c33          	sll	s8,t3,t3
    80000858:	c5a00e13          	li	t3,-934
    8000085c:	41ce0cbb          	subw	s9,t3,t3
    80000860:	dc700613          	li	a2,-569
    80000864:	fff00e93          	li	t4,-1
    80000868:	011eceb3          	xor	t4,t4,a7
    8000086c:	00d682b3          	add	t0,a3,a3
    80000870:	01d8ffb3          	and	t6,a7,t4
    80000874:	416504b3          	sub	s1,a0,s6
    80000878:	c2700c13          	li	s8,-985
    8000087c:	011fe0b3          	or	ra,t6,a7
    80000880:	01016933          	or	s2,sp,a6
    80000884:	016f52b3          	srl	t0,t5,s6
    80000888:	90900593          	li	a1,-1783
    8000088c:	59d00413          	li	s0,1437
    80000890:	0285dd3b          	divuw	s10,a1,s0
    80000894:	a7d00a13          	li	s4,-1411
    80000898:	01ead533          	srl	a0,s5,t5
    8000089c:	014a3733          	sltu	a4,s4,s4
    800008a0:	02004abb          	divw	s5,zero,zero
    800008a4:	038c0b33          	mul	s6,s8,s8
    800008a8:	6e500b93          	li	s7,1765
    800008ac:	017616b3          	sll	a3,a2,s7
    800008b0:	12700d93          	li	s11,295
    800008b4:	00100e13          	li	t3,1
    800008b8:	03fe1e13          	slli	t3,t3,0x3f
    800008bc:	fff00493          	li	s1,-1
    800008c0:	01c4c4b3          	xor	s1,s1,t3
    800008c4:	77100993          	li	s3,1905
    800008c8:	30500313          	li	t1,773
    800008cc:	00748b3b          	addw	s6,s1,t2
    800008d0:	0139a733          	slt	a4,s3,s3
    800008d4:	009bf3b3          	and	t2,s7,s1
    800008d8:	00000793          	li	a5,0
    800008dc:	01c3ecb3          	or	s9,t2,t3
    800008e0:	00100913          	li	s2,1
    800008e4:	026df1b3          	remu	gp,s11,t1
    800008e8:	00001097          	auipc	ra,0x1
    800008ec:	74008093          	addi	ra,ra,1856 # 80002028 <reg_x5_init>
    800008f0:	23c09a03          	lh	s4,572(ra)
    800008f4:	03f91913          	slli	s2,s2,0x3f
    800008f8:	fff00f93          	li	t6,-1
    800008fc:	012fcfb3          	xor	t6,t6,s2
    80000900:	00100c13          	li	s8,1
    80000904:	01ff7433          	and	s0,t5,t6
    80000908:	012462b3          	or	t0,s0,s2
    8000090c:	03fc1c13          	slli	s8,s8,0x3f
    80000910:	fff00693          	li	a3,-1
    80000914:	0186c6b3          	xor	a3,a3,s8
    80000918:	8682eee3          	bltu	t0,s0,80000194 <crash_backward>
    8000091c:	00d478b3          	and	a7,s0,a3
    80000920:	01826533          	or	a0,tp,s8
    80000924:	0aa88463          	beq	a7,a0,800009cc <crash_forward>
    80000928:	0040006f          	j	8000092c <reg_dump>

000000008000092c <reg_dump>:
    8000092c:	00002097          	auipc	ra,0x2
    80000930:	cd408093          	addi	ra,ra,-812 # 80002600 <loop_count>
    80000934:	0000a103          	lw	sp,0(ra)
    80000938:	fff10193          	addi	gp,sp,-1
    8000093c:	0030a023          	sw	gp,0(ra)
    80000940:	8e011ee3          	bnez	sp,8000023c <pseg_0>
    80000944:	00001097          	auipc	ra,0x1
    80000948:	7bc08093          	addi	ra,ra,1980 # 80002100 <begin_signature>
    8000094c:	0000b023          	sd	zero,0(ra)
    80000950:	0020b823          	sd	sp,16(ra)
    80000954:	0030bc23          	sd	gp,24(ra)
    80000958:	0240b023          	sd	tp,32(ra)
    8000095c:	0250b423          	sd	t0,40(ra)
    80000960:	0260b823          	sd	t1,48(ra)
    80000964:	0270bc23          	sd	t2,56(ra)
    80000968:	0480b023          	sd	s0,64(ra)
    8000096c:	0490b423          	sd	s1,72(ra)
    80000970:	04a0b823          	sd	a0,80(ra)
    80000974:	04b0bc23          	sd	a1,88(ra)
    80000978:	06c0b023          	sd	a2,96(ra)
    8000097c:	06d0b423          	sd	a3,104(ra)
    80000980:	06e0b823          	sd	a4,112(ra)
    80000984:	06f0bc23          	sd	a5,120(ra)
    80000988:	0900b023          	sd	a6,128(ra)
    8000098c:	0910b423          	sd	a7,136(ra)
    80000990:	0920b823          	sd	s2,144(ra)
    80000994:	0930bc23          	sd	s3,152(ra)
    80000998:	0b40b023          	sd	s4,160(ra)
    8000099c:	0b50b423          	sd	s5,168(ra)
    800009a0:	0b60b823          	sd	s6,176(ra)
    800009a4:	0b70bc23          	sd	s7,184(ra)
    800009a8:	0d80b023          	sd	s8,192(ra)
    800009ac:	0d90b423          	sd	s9,200(ra)
    800009b0:	0da0b823          	sd	s10,208(ra)
    800009b4:	0db0bc23          	sd	s11,216(ra)
    800009b8:	0fc0b023          	sd	t3,224(ra)
    800009bc:	0fd0b423          	sd	t4,232(ra)
    800009c0:	0fe0b823          	sd	t5,240(ra)
    800009c4:	0ff0bc23          	sd	t6,248(ra)
    800009c8:	0200006f          	j	800009e8 <test_end>

00000000800009cc <crash_forward>:
    800009cc:	0ff0000f          	fence
    800009d0:	00018063          	beqz	gp,800009d0 <crash_forward+0x4>
    800009d4:	00119193          	slli	gp,gp,0x1
    800009d8:	0011e193          	ori	gp,gp,1
    800009dc:	05d00893          	li	a7,93
    800009e0:	00018513          	mv	a0,gp
    800009e4:	00000073          	ecall

00000000800009e8 <test_end>:
    800009e8:	0ff0000f          	fence
    800009ec:	00100193          	li	gp,1
    800009f0:	05d00893          	li	a7,93
    800009f4:	00000513          	li	a0,0
    800009f8:	00000073          	ecall
    800009fc:	c0001073          	unimp
    80000a00:	0000                	unimp
	...

Disassembly of section .tohost:

0000000080001000 <tohost>:
	...

0000000080001040 <fromhost>:
	...

Disassembly of section .data:

0000000080002000 <hidden_data>:
    80002000:	00000007          	0x7
    80002004:	0000                	unimp
    80002006:	0800                	addi	s0,sp,16

0000000080002008 <reg_x1_init>:
    80002008:	8001                	c.srli64	s0
    8000200a:	ffff                	0xffff
    8000200c:	ffff                	0xffff
    8000200e:	ffff                	0xffff

0000000080002010 <reg_x2_init>:
    80002010:	0006                	c.slli	zero,0x1
    80002012:	0000                	unimp
    80002014:	0000                	unimp
	...

0000000080002018 <reg_x3_init>:
	...

0000000080002020 <reg_x4_init>:
    80002020:	594bcdb3          	0x594bcdb3
    80002024:	c621                	beqz	a2,8000206c <reg_x13_init+0x4>
    80002026:	          	0x1deeb

0000000080002028 <reg_x5_init>:
    80002028:	0001                	nop
    8000202a:	0000                	unimp
    8000202c:	0000                	unimp
    8000202e:	0800                	addi	s0,sp,16

0000000080002030 <reg_x6_init>:
    80002030:	ff82                	sd	zero,504(sp)
    80002032:	ffff                	0xffff
    80002034:	ffff                	0xffff
    80002036:	ffff                	0xffff

0000000080002038 <reg_x7_init>:
    80002038:	7316                	ld	t1,352(sp)
    8000203a:	42b7e053          	0x42b7e053
    8000203e:	4999                	li	s3,6

0000000080002040 <reg_x8_init>:
	...

0000000080002048 <reg_x9_init>:
    80002048:	94d8046f          	jal	s0,7ff82994 <_start-0x7d66c>
    8000204c:	5c281063          	bne	a6,sp,8000260c <loop_count+0xc>

0000000080002050 <reg_x10_init>:
    80002050:	ffff                	0xffff
    80002052:	ffff                	0xffff
    80002054:	ffff                	0xffff
    80002056:	ffff                	0xffff

0000000080002058 <reg_x11_init>:
    80002058:	0009                	c.nop	2
    8000205a:	8000                	0x8000
    8000205c:	ffff                	0xffff
    8000205e:	ffff                	0xffff

0000000080002060 <reg_x12_init>:
    80002060:	0005                	c.nop	1
    80002062:	0000                	unimp
    80002064:	0000                	unimp
    80002066:	0800                	addi	s0,sp,16

0000000080002068 <reg_x13_init>:
    80002068:	279e                	fld	fa5,448(sp)
    8000206a:	7182f4cf          	fnmadd.s	fs1,ft5,fs8,fa4
    8000206e:	6092                	ld	ra,256(sp)

0000000080002070 <reg_x14_init>:
    80002070:	0001                	nop
    80002072:	0000                	unimp
    80002074:	0000                	unimp
    80002076:	0800                	addi	s0,sp,16

0000000080002078 <reg_x15_init>:
    80002078:	0001                	nop
    8000207a:	0000                	unimp
    8000207c:	0000                	unimp
    8000207e:	0800                	addi	s0,sp,16

0000000080002080 <reg_x16_init>:
    80002080:	efc32353          	0xefc32353
    80002084:	fcba                	sd	a4,120(sp)
    80002086:	18e6                	slli	a7,a7,0x39

0000000080002088 <reg_x17_init>:
    80002088:	b675                	j	80001c34 <fromhost+0xbf4>
    8000208a:	d5281397          	auipc	t2,0xd5281
    8000208e:	0fc1                	addi	t6,t6,16

0000000080002090 <reg_x18_init>:
    80002090:	39fd                	addiw	s3,s3,-1
    80002092:	d85c28f3          	csrrs	a7,0xd85,s8
    80002096:	          	flq	fa2,0(ra)

0000000080002098 <reg_x19_init>:
	...

00000000800020a0 <reg_x20_init>:
    800020a0:	8896                	mv	a7,t0
    800020a2:	8dc2                	mv	s11,a6
    800020a4:	c04c                	sw	a1,4(s0)
    800020a6:	          	0xfffffb07

00000000800020a8 <reg_x21_init>:
    800020a8:	ffff                	0xffff
    800020aa:	ffff                	0xffff
    800020ac:	ffff                	0xffff
    800020ae:	ffff                	0xffff

00000000800020b0 <reg_x22_init>:
    800020b0:	2bc4                	fld	fs1,144(a5)
    800020b2:	47f0                	lw	a2,76(a5)
    800020b4:	7136                	ld	sp,360(sp)
    800020b6:	d630                	sw	a2,104(a2)

00000000800020b8 <reg_x23_init>:
    800020b8:	0000                	unimp
    800020ba:	0000                	unimp
    800020bc:	0000                	unimp
    800020be:	0800                	addi	s0,sp,16

00000000800020c0 <reg_x24_init>:
    800020c0:	ffff                	0xffff
    800020c2:	ffff                	0xffff
    800020c4:	ffff                	0xffff
    800020c6:	ffff                	0xffff

00000000800020c8 <reg_x25_init>:
    800020c8:	891f 0757 f5a9      	0xf5a90757891f
    800020ce:	15f1                	addi	a1,a1,-4

00000000800020d0 <reg_x26_init>:
    800020d0:	718e                	ld	gp,224(sp)
    800020d2:	ccedf323          	0xccedf323
    800020d6:	  	0xffffffffffff1fbf

00000000800020d8 <reg_x27_init>:
    800020d8:	ffff                	0xffff
    800020da:	ffff                	0xffff
    800020dc:	ffff                	0xffff
    800020de:	ffff                	0xffff

00000000800020e0 <reg_x28_init>:
	...

00000000800020e8 <reg_x29_init>:
	...

00000000800020f0 <reg_x30_init>:
    800020f0:	ff88                	sd	a0,56(a5)
    800020f2:	ffff                	0xffff
    800020f4:	ffff                	0xffff
    800020f6:	ffff                	0xffff

00000000800020f8 <reg_x31_init>:
    800020f8:	5a4b3ccb          	fnmsub.d	fs9,fs6,ft4,fa1,rup
    800020fc:	4ffd                	li	t6,31
    800020fe:	e086                	sd	ra,64(sp)

0000000080002100 <begin_signature>:
    80002100:	1e2c                	addi	a1,sp,824
    80002102:	34c47993          	andi	s3,s0,844
    80002106:	74b9                	lui	s1,0xfffee

0000000080002108 <reg_x1_output>:
    80002108:	ef39                	bnez	a4,80002166 <reg_x12_output+0x6>
    8000210a:	95e5                	srai	a1,a1,0x39
    8000210c:	10df 686c       	0x359a686c10df

0000000080002110 <reg_x2_output>:
    80002110:	359a                	fld	fa1,416(sp)
    80002112:	ec0d                	bnez	s0,8000214c <reg_x9_output+0x4>
    80002114:	e460                	sd	s0,200(s0)
    80002116:	          	fnmsub.q	fs1,fa0,ft1,fs10,unknown

0000000080002118 <reg_x3_output>:
    80002118:	d615                	beqz	a2,80002044 <reg_x8_init+0x4>
    8000211a:	c399                	beqz	a5,80002120 <reg_x4_output>
    8000211c:	df61                	beqz	a4,800020f4 <reg_x30_init+0x4>
    8000211e:	05aa                	slli	a1,a1,0xa

0000000080002120 <reg_x4_output>:
    80002120:	c768                	sw	a0,76(a4)
    80002122:	bcba                	fsd	fa4,120(sp)
    80002124:	a411046b          	0xa411046b

0000000080002128 <reg_x5_output>:
    80002128:	9319                	srli	a4,a4,0x26
    8000212a:	e09d                	bnez	s1,80002150 <reg_x10_output>
    8000212c:	569e                	lw	a3,228(sp)
    8000212e:	442d                	li	s0,11

0000000080002130 <reg_x6_output>:
    80002130:	514a                	lw	sp,176(sp)
    80002132:	a24e1cc7          	fmsub.d	fs9,ft8,ft4,fs4,rtz
    80002136:	          	0x21ef0d3b

0000000080002138 <reg_x7_output>:
    80002138:	278621ef          	jal	gp,800643b0 <__global_pointer$+0x615a0>
    8000213c:	8af8                	0x8af8
    8000213e:	cea5                	beqz	a3,800021b6 <reg_x22_output+0x6>

0000000080002140 <reg_x8_output>:
    80002140:	3021                	0x3021
    80002142:	4fb4                	lw	a3,88(a5)
    80002144:	f0095503          	lhu	a0,-256(s2)

0000000080002148 <reg_x9_output>:
    80002148:	005c                	addi	a5,sp,4
    8000214a:	bab1                	j	80001aa6 <fromhost+0xa66>
    8000214c:	daafbeaf          	0xdaafbeaf

0000000080002150 <reg_x10_output>:
    80002150:	38e9                	addiw	a7,a7,-6
    80002152:	26ed                	addiw	a3,a3,27
    80002154:	7b0e                	ld	s6,224(sp)
    80002156:	          	flw	ft6,-836(a6)

0000000080002158 <reg_x11_output>:
    80002158:	cbc8                	sw	a0,20(a5)
    8000215a:	5305c7af          	0x5305c7af
    8000215e:	f2a4                	sd	s1,96(a3)

0000000080002160 <reg_x12_output>:
    80002160:	7bd5                	lui	s7,0xffff5
    80002162:	e3ac9e93          	0xe3ac9e93
    80002166:	7599                	lui	a1,0xfffe6

0000000080002168 <reg_x13_output>:
    80002168:	b2fc                	fsd	fa5,224(a3)
    8000216a:	3f91                	addiw	t6,t6,-28
    8000216c:	3684                	fld	fs1,40(a3)
    8000216e:	          	j	7ff72ac8 <_start-0x8d538>

0000000080002170 <reg_x14_output>:
    80002170:	cb8e95b7          	lui	a1,0xcb8e9
    80002174:	574d                	li	a4,-13
    80002176:	fc26                	sd	s1,56(sp)

0000000080002178 <reg_x15_output>:
    80002178:	c02c                	sw	a1,64(s0)
    8000217a:	6498feab          	0x6498feab
    8000217e:	  	0xb340911733a5fa3f

0000000080002180 <reg_x16_output>:
    80002180:	33a5                	addiw	t2,t2,-23
    80002182:	b3409117          	auipc	sp,0xb3409
    80002186:	          	0x3f38a68b

0000000080002188 <reg_x17_output>:
    80002188:	3f38                	fld	fa4,120(a4)
    8000218a:	590d                	li	s2,-29
    8000218c:	4a65                	li	s4,25
    8000218e:	33f6                	fld	ft7,376(sp)

0000000080002190 <reg_x18_output>:
    80002190:	acd9                	j	80002466 <test_memory+0x266>
    80002192:	8cadf1f3          	csrrci	gp,0x8ca,27
    80002196:	e042                	sd	a6,0(sp)

0000000080002198 <reg_x19_output>:
    80002198:	c42e                	sw	a1,8(sp)
    8000219a:	cfdd                	beqz	a5,80002258 <test_memory+0x58>
    8000219c:	fe6824d3          	0xfe6824d3

00000000800021a0 <reg_x20_output>:
    800021a0:	d6d9                	beqz	a3,8000212e <reg_x5_output+0x6>
    800021a2:	61c9                	lui	gp,0x12
    800021a4:	8ec8                	0x8ec8
    800021a6:	bcf0                	fsd	fa2,248(s1)

00000000800021a8 <reg_x21_output>:
    800021a8:	7bb69613          	0x7bb69613
    800021ac:	abee                	fsd	fs11,464(sp)
    800021ae:	          	0x77d794fb

00000000800021b0 <reg_x22_output>:
    800021b0:	bb7777d7          	0xbb7777d7
    800021b4:	0841                	addi	a6,a6,16
    800021b6:	          	auipc	s6,0x81e3f

00000000800021b8 <reg_x23_output>:
    800021b8:	c0e181e3          	beq	gp,a4,80001dba <fromhost+0xd7a>
    800021bc:	a4489f6b          	0xa4489f6b

00000000800021c0 <reg_x24_output>:
    800021c0:	fb59                	bnez	a4,80002156 <reg_x10_output+0x6>
    800021c2:	9494                	0x9494
    800021c4:	5c00                	lw	s0,56(s0)
    800021c6:	3418                	fld	fa4,40(s0)

00000000800021c8 <reg_x25_output>:
    800021c8:	59d5                	li	s3,-11
    800021ca:	088cb883          	ld	a7,136(s9)
    800021ce:	063a                	slli	a2,a2,0xe

00000000800021d0 <reg_x26_output>:
    800021d0:	4d1c                	lw	a5,24(a0)
    800021d2:	925c                	0x925c
    800021d4:	1c574913          	xori	s2,a4,453

00000000800021d8 <reg_x27_output>:
    800021d8:	a4e2                	fsd	fs8,72(sp)
    800021da:	6d58                	ld	a4,152(a0)
    800021dc:	452a                	lw	a0,136(sp)
    800021de:	d332                	sw	a2,164(sp)

00000000800021e0 <reg_x28_output>:
    800021e0:	fe35                	bnez	a2,8000215c <reg_x11_output+0x4>
    800021e2:	3de05367          	0x3de05367
    800021e6:	2aee                	fld	fs5,216(sp)

00000000800021e8 <reg_x29_output>:
    800021e8:	4288                	lw	a0,0(a3)
    800021ea:	3008700f          	0x3008700f
    800021ee:	18fc                	addi	a5,sp,124

00000000800021f0 <reg_x30_output>:
    800021f0:	187a                	slli	a6,a6,0x3e
    800021f2:	025d                	addi	tp,tp,23
    800021f4:	2a9f 3dac       	0x6cb3dac2a9f

00000000800021f8 <reg_x31_output>:
    800021f8:	36b006cb          	fnmsub.q	fa3,ft0,fa1,ft6,rne
    800021fc:	fa6d                	bnez	a2,800021ee <reg_x29_output+0x6>
    800021fe:	7935                	lui	s2,0xfffed

0000000080002200 <test_memory>:
    80002200:	441f e9d4 870a      	0x870ae9d4441f
    80002206:	927c66e7          	0x927c66e7
    8000220a:	8af55037          	lui	zero,0x8af55
    8000220e:	23a38697          	auipc	a3,0x23a38
    80002212:	7ffd                	lui	t6,0xfffff
    80002214:	7f55                	lui	t5,0xffff5
    80002216:	ebbd8e8f          	0xebbd8e8f
    8000221a:	51ad                	li	gp,-21
    8000221c:	75a5                	lui	a1,0xfffe9
    8000221e:	09ecec3f 7c5b92c1 	0x7c5b92c109ecec3f
    80002226:	a9ee                	fsd	fs11,208(sp)
    80002228:	e9009ac3          	fmadd.s	fs5,ft1,fa6,ft9,rtz
    8000222c:	894ee13f 21d86eb1 	0x21d86eb1894ee13f
    80002234:	35107b1b          	0x35107b1b
    80002238:	4edd                	li	t4,23
    8000223a:	edd91bdb          	0xedd91bdb
    8000223e:	96cd                	srai	a3,a3,0x33
    80002240:	4d98c517          	auipc	a0,0x4d98c
    80002244:	e762                	sd	s8,392(sp)
    80002246:	30f2                	fld	ft1,312(sp)
    80002248:	4fb5                	li	t6,13
    8000224a:	70a911f7          	0x70a911f7
    8000224e:	989e5b57          	0x989e5b57
    80002252:	b576                	fsd	ft9,168(sp)
    80002254:	09caedc7          	fmsub.s	fs11,fs5,ft8,ft1,unknown
    80002258:	3ed6                	fld	ft9,368(sp)
    8000225a:	131a                	slli	t1,t1,0x26
    8000225c:	1922                	slli	s2,s2,0x28
    8000225e:	a8a4                	fsd	fs1,80(s1)
    80002260:	143e                	slli	s0,s0,0x2f
    80002262:	fa92                	sd	tp,368(sp)
    80002264:	78de                	ld	a7,496(sp)
    80002266:	7c0a                	ld	s8,160(sp)
    80002268:	ed6e                	sd	s11,152(sp)
    8000226a:	8d80                	0x8d80
    8000226c:	5342                	lw	t1,48(sp)
    8000226e:	7ffa                	ld	t6,440(sp)
    80002270:	57cd                	li	a5,-13
    80002272:	8762                	mv	a4,s8
    80002274:	4da8                	lw	a0,88(a1)
    80002276:	4a54549b          	0x4a54549b
    8000227a:	7b2e01fb          	0x7b2e01fb
    8000227e:	7509                	lui	a0,0xfffe2
    80002280:	8ff63fa3          	sd	t6,-1793(a2)
    80002284:	fb4a                	sd	s2,432(sp)
    80002286:	f44a                	sd	s2,40(sp)
    80002288:	d3caac4b          	fnmsub.d	fs8,fs5,ft8,fs10,rdn
    8000228c:	35f6                	fld	fa1,376(sp)
    8000228e:	400c                	lw	a1,0(s0)
    80002290:	827f                	0x827f
    80002292:	91ffac87          	flw	fs9,-1761(t6) # ffffffffffffe91f <__global_pointer$+0xffffffff7fffbb0f>
    80002296:	f6d9                	bnez	a3,80002224 <test_memory+0x24>
    80002298:	fc88                	sd	a0,56(s1)
    8000229a:	03bdf3a3          	0x3bdf3a3
    8000229e:	49ac0177          	0x49ac0177
    800022a2:	554fd487          	0x554fd487
    800022a6:	9ec8                	0x9ec8
    800022a8:	8571                	srai	a0,a0,0x1c
    800022aa:	5efeb34b          	fnmsub.q	ft6,ft9,fa5,fa1,rup
    800022ae:	f035                	bnez	s0,80002212 <test_memory+0x12>
    800022b0:	a75f 9919 dd7f      	0xdd7f9919a75f
    800022b6:	7f24                	ld	s1,120(a4)
    800022b8:	4a5869a7          	0x4a5869a7
    800022bc:	08c8fd27          	0x8c8fd27
    800022c0:	ad678f63          	beq	a5,s6,8000159e <fromhost+0x55e>
    800022c4:	cf605c4b          	fnmsub.q	fs8,ft0,fs6,fs9,unknown
    800022c8:	0746                	slli	a4,a4,0x11
    800022ca:	810a                	mv	sp,sp
    800022cc:	046a                	slli	s0,s0,0x1a
    800022ce:	2cc4                	fld	fs1,152(s1)
    800022d0:	578535f7          	0x578535f7
    800022d4:	5a09f8d3          	fsqrt.d	fa7,fs3
    800022d8:	e3f9cb6b          	0xe3f9cb6b
    800022dc:	4ad4                	lw	a3,20(a3)
    800022de:	6050                	ld	a2,128(s0)
    800022e0:	f8f6                	sd	t4,112(sp)
    800022e2:	b824                	fsd	fs1,112(s0)
    800022e4:	76d1                	lui	a3,0xffff4
    800022e6:	b93e                	fsd	fa5,176(sp)
    800022e8:	39f6                	fld	fs3,376(sp)
    800022ea:	e718                	sd	a4,8(a4)
    800022ec:	f29e                	sd	t2,352(sp)
    800022ee:	3402                	fld	fs0,32(sp)
    800022f0:	3738                	fld	fa4,104(a4)
    800022f2:	c02d                	beqz	s0,80002354 <test_memory+0x154>
    800022f4:	b20e9d13          	0xb20e9d13
    800022f8:	2d90                	fld	fa2,24(a1)
    800022fa:	900c                	0x900c
    800022fc:	3d5cf7c3          	0x3d5cf7c3
    80002300:	ba38                	fsd	fa4,112(a2)
    80002302:	9bc9                	andi	a5,a5,-14
    80002304:	0f28                	addi	a0,sp,920
    80002306:	ce41                	beqz	a2,8000239e <test_memory+0x19e>
    80002308:	fbf793ef          	jal	t2,7ff7c2c6 <_start-0x83d3a>
    8000230c:	82d2                	mv	t0,s4
    8000230e:	ed4e                	sd	s3,152(sp)
    80002310:	95f6                	add	a1,a1,t4
    80002312:	8e54a8f7          	0x8e54a8f7
    80002316:	2a5898eb          	0x2a5898eb
    8000231a:	3b15                	addiw	s6,s6,-27
    8000231c:	1505                	addi	a0,a0,-31
    8000231e:	531c                	lw	a5,32(a4)
    80002320:	a31f 3614 d5cb      	0xd5cb3614a31f
    80002326:	19aa                	slli	s3,s3,0x2a
    80002328:	fe65                	bnez	a2,80002320 <test_memory+0x120>
    8000232a:	31d6                	fld	ft3,368(sp)
    8000232c:	e192                	sd	tp,192(sp)
    8000232e:	f861                	bnez	s0,800022fe <test_memory+0xfe>
    80002330:	f76a                	sd	s10,424(sp)
    80002332:	21e9                	addiw	gp,gp,26
    80002334:	c2ff861b          	addiw	a2,t6,-977
    80002338:	b708                	fsd	fa0,40(a4)
    8000233a:	1b65                	addi	s6,s6,-7
    8000233c:	21e2e83f 8c3b0044 	0x8c3b004421e2e83f
    80002344:	d3e6                	sw	s9,228(sp)
    80002346:	25c9                	addiw	a1,a1,18
    80002348:	d8dce9cf          	fnmadd.s	fs3,fs9,fa3,fs11,unknown
    8000234c:	a53a                	fsd	fa4,136(sp)
    8000234e:	5596                	lw	a1,100(sp)
    80002350:	23ae                	fld	ft7,200(sp)
    80002352:	7a59                	lui	s4,0xffff6
    80002354:	eddd                	bnez	a1,80002412 <test_memory+0x212>
    80002356:	7544                	ld	s1,168(a0)
    80002358:	0069                	c.nop	26
    8000235a:	dba1                	beqz	a5,800022aa <test_memory+0xaa>
    8000235c:	6a2a                	ld	s4,136(sp)
    8000235e:	1a41                	addi	s4,s4,-16
    80002360:	0b66                	slli	s6,s6,0x19
    80002362:	30d6                	fld	ft1,368(sp)
    80002364:	4de0                	lw	s0,92(a1)
    80002366:	877e                	mv	a4,t6
    80002368:	7268                	ld	a0,224(a2)
    8000236a:	b48363ef          	jal	t2,7ff386b2 <_start-0xc794e>
    8000236e:	d510                	sw	a2,40(a0)
    80002370:	fe44                	sd	s1,184(a2)
    80002372:	f86c                	sd	a1,240(s0)
    80002374:	45546987          	0x45546987
    80002378:	37925747          	fmsub.q	fa4,ft4,fs9,ft6,unknown
    8000237c:	67761517          	auipc	a0,0x67761
    80002380:	a2ddebe7          	0xa2ddebe7
    80002384:	75cc                	ld	a1,168(a1)
    80002386:	94afddcb          	0x94afddcb
    8000238a:	5bac                	lw	a1,112(a5)
    8000238c:	7cf1                	lui	s9,0xffffc
    8000238e:	8010                	0x8010
    80002390:	0e90                	addi	a2,sp,848
    80002392:	31fde2fb          	0x31fde2fb
    80002396:	f23e                	sd	a5,288(sp)
    80002398:	2cf5                	addiw	s9,s9,29
    8000239a:	c024                	sw	s1,64(s0)
    8000239c:	4e1d0363          	beq	s10,ra,80002882 <_end+0x272>
    800023a0:	474d                	li	a4,19
    800023a2:	03d4                	addi	a3,sp,452
    800023a4:	eedbedf7          	0xeedbedf7
    800023a8:	ef8471e7          	0xef8471e7
    800023ac:	7960                	ld	s0,240(a0)
    800023ae:	9ce5                	0x9ce5
    800023b0:	9859                	andi	s0,s0,-10
    800023b2:	bbf9                	j	80002190 <reg_x18_output>
    800023b4:	3f91                	addiw	t6,t6,-28
    800023b6:	ec44                	sd	s1,152(s0)
    800023b8:	1fc8                	addi	a0,sp,1012
    800023ba:	838a                	mv	t2,sp
    800023bc:	5e08                	lw	a0,56(a2)
    800023be:	0d34                	addi	a3,sp,664
    800023c0:	61c2                	ld	gp,16(sp)
    800023c2:	6580                	ld	s0,8(a1)
    800023c4:	1b5d                	addi	s6,s6,-9
    800023c6:	8f24                	0x8f24
    800023c8:	a498                	fsd	fa4,8(s1)
    800023ca:	08826127          	0x8826127
    800023ce:	444cc33b          	0x444cc33b
    800023d2:	500d                	c.li	zero,-29
    800023d4:	448d                	li	s1,3
    800023d6:	179818bf 1b0d26f0 	0x1b0d26f0179818bf
    800023de:	18d0                	addi	a2,sp,116
    800023e0:	ce95                	beqz	a3,8000241c <test_memory+0x21c>
    800023e2:	d9de                	sw	s7,240(sp)
    800023e4:	4832                	lw	a6,12(sp)
    800023e6:	2a8c                	fld	fa1,16(a3)
    800023e8:	a50c                	fsd	fa1,8(a0)
    800023ea:	93581abb          	0x93581abb
    800023ee:	b3b9                	j	8000213c <reg_x7_output+0x4>
    800023f0:	5879                	li	a6,-2
    800023f2:	77ac8df3          	0x77ac8df3
    800023f6:	feb8                	sd	a4,120(a3)
    800023f8:	7242                	ld	tp,48(sp)
    800023fa:	9740                	0x9740
    800023fc:	57170c0f          	0x57170c0f
    80002400:	6226b0b7          	lui	ra,0x6226b
    80002404:	965e                	add	a2,a2,s7
    80002406:	1acc                	addi	a1,sp,372
    80002408:	1c873dd3          	0x1c873dd3
    8000240c:	03ba                	slli	t2,t2,0xe
    8000240e:	4b36                	lw	s6,76(sp)
    80002410:	80d4                	0x80d4
    80002412:	eeca                	sd	s2,344(sp)
    80002414:	2ea0                	fld	fs0,88(a3)
    80002416:	d002                	sw	zero,32(sp)
    80002418:	4028                	lw	a0,64(s0)
    8000241a:	3cc2d6d3          	0x3cc2d6d3
    8000241e:	8b3fc163          	blt	t6,s3,800014c0 <fromhost+0x480>
    80002422:	d406                	sw	ra,40(sp)
    80002424:	c1f9                	beqz	a1,800024ea <test_memory+0x2ea>
    80002426:	7164                	ld	s1,224(a0)
    80002428:	9309103f f6e98ad4 	0xf6e98ad49309103f
    80002430:	27b5                	addiw	a5,a5,13
    80002432:	967c                	0x967c
    80002434:	488d                	li	a7,3
    80002436:	b1d9                	j	800020fc <reg_x31_init+0x4>
    80002438:	961890af          	0x961890af
    8000243c:	a16a                	fsd	fs10,128(sp)
    8000243e:	6c9f a1e6 ce7a      	0xce7aa1e66c9f
    80002444:	7ed9b3d3          	0x7ed9b3d3
    80002448:	28e9                	addiw	a7,a7,26
    8000244a:	d2aa                	sw	a0,100(sp)
    8000244c:	b7a6                	fsd	fs1,488(sp)
    8000244e:	5e59846b          	0x5e59846b
    80002452:	39c8                	fld	fa0,176(a1)
    80002454:	688d                	lui	a7,0x3
    80002456:	3f59                	addiw	t5,t5,-10
    80002458:	cec0                	sw	s0,28(a3)
    8000245a:	1562358f          	0x1562358f
    8000245e:	853d                	srai	a0,a0,0xf
    80002460:	e98c                	sd	a1,16(a1)
    80002462:	e1de                	sd	s7,192(sp)
    80002464:	e3f0                	sd	a2,192(a5)
    80002466:	2c22                	fld	fs8,8(sp)
    80002468:	a42a                	fsd	fa0,8(sp)
    8000246a:	aa7e                	fsd	ft11,272(sp)
    8000246c:	dd84                	sw	s1,56(a1)
    8000246e:	0568                	addi	a0,sp,652
    80002470:	555e                	lw	a0,244(sp)
    80002472:	45b6                	lw	a1,76(sp)
    80002474:	002a                	c.slli	zero,0xa
    80002476:	7f4e                	ld	t5,240(sp)
    80002478:	879e2d47          	fmsub.q	fs10,ft8,fs9,fa6,rdn
    8000247c:	a995                	j	800028f0 <_end+0x2e0>
    8000247e:	3c58                	fld	fa4,184(s0)
    80002480:	88b1                	andi	s1,s1,12
    80002482:	211e                	fld	ft2,448(sp)
    80002484:	8c05                	sub	s0,s0,s1
    80002486:	2e71                	addiw	t3,t3,28
    80002488:	fbc662a3          	0xfbc662a3
    8000248c:	ca94                	sw	a3,16(a3)
    8000248e:	c44e                	sw	s3,8(sp)
    80002490:	ba6b654b          	fnmsub.d	fa0,fs6,ft6,fs7,unknown
    80002494:	29e5                	addiw	s3,s3,25
    80002496:	6e2a                	ld	t3,136(sp)
    80002498:	291623b7          	lui	t2,0x29162
    8000249c:	4309                	li	t1,2
    8000249e:	fced                	bnez	s1,80002498 <test_memory+0x298>
    800024a0:	e7fd                	bnez	a5,8000258e <test_memory+0x38e>
    800024a2:	6c22                	ld	s8,8(sp)
    800024a4:	a9fd                	j	800029a2 <_end+0x392>
    800024a6:	cdb538bb          	0xcdb538bb
    800024aa:	c81f ce54 f469      	0xf469ce54c81f
    800024b0:	a706                	fsd	ft1,392(sp)
    800024b2:	a9aa                	fsd	fa0,208(sp)
    800024b4:	53b6                	lw	t2,108(sp)
    800024b6:	cc31                	beqz	s0,80002512 <test_memory+0x312>
    800024b8:	fa85                	bnez	a3,800023e8 <test_memory+0x1e8>
    800024ba:	8f81                	sub	a5,a5,s0
    800024bc:	894e                	mv	s2,s3
    800024be:	812a                	mv	sp,a0
    800024c0:	52b8                	lw	a4,96(a3)
    800024c2:	e5e4                	sd	s1,200(a1)
    800024c4:	d275                	beqz	a2,800024a8 <test_memory+0x2a8>
    800024c6:	91b4                	0x91b4
    800024c8:	ac0a                	fsd	ft2,24(sp)
    800024ca:	749e                	ld	s1,480(sp)
    800024cc:	1012                	c.slli	zero,0x24
    800024ce:	dd2c                	sw	a1,120(a0)
    800024d0:	1c5c                	addi	a5,sp,564
    800024d2:	4f7f                	0x4f7f
    800024d4:	171ab983          	ld	s3,369(s5)
    800024d8:	67a9                	lui	a5,0xa
    800024da:	2512fc83          	0x2512fc83
    800024de:	2752894b          	fnmsub.q	fs2,ft5,fs5,ft4,rne
    800024e2:	32be                	fld	ft5,488(sp)
    800024e4:	e01ed343          	fmadd.s	ft6,ft9,ft1,ft8,unknown
    800024e8:	060a                	slli	a2,a2,0x2
    800024ea:	d439                	beqz	s0,80002438 <test_memory+0x238>
    800024ec:	3571                	addiw	a0,a0,-4
    800024ee:	bd99                	j	80002344 <test_memory+0x144>
    800024f0:	687c                	ld	a5,208(s0)
    800024f2:	49d2                	lw	s3,20(sp)
    800024f4:	afa8                	fsd	fa0,88(a5)
    800024f6:	75b9                	lui	a1,0xfffee
    800024f8:	3b20                	fld	fs0,112(a4)
    800024fa:	5dda                	lw	s11,180(sp)
    800024fc:	4e92                	lw	t4,4(sp)
    800024fe:	0684                	addi	s1,sp,832
    80002500:	97dd                	srai	a5,a5,0x37
    80002502:	4de8                	lw	a0,92(a1)
    80002504:	25ea                	fld	fa1,152(sp)
    80002506:	929c                	0x929c
    80002508:	a83c1a67          	0xa83c1a67
    8000250c:	58ea                	lw	a7,184(sp)
    8000250e:	8a10                	0x8a10
    80002510:	187c                	addi	a5,sp,60
    80002512:	89f2                	mv	s3,t3
    80002514:	bd76                	fsd	ft9,184(sp)
    80002516:	e374                	sd	a3,192(a4)
    80002518:	1b6c                	addi	a1,sp,444
    8000251a:	c1e4                	sw	s1,68(a1)
    8000251c:	ac1d                	j	80002752 <_end+0x142>
    8000251e:	85e8                	0x85e8
    80002520:	fa8e                	sd	gp,368(sp)
    80002522:	ff39                	bnez	a4,80002480 <test_memory+0x280>
    80002524:	036e3227          	fsd	fs6,36(t3)
    80002528:	6292                	ld	t0,256(sp)
    8000252a:	5048a9bb          	0x5048a9bb
    8000252e:	f3ee                	sd	s11,480(sp)
    80002530:	39457bd3          	0x39457bd3
    80002534:	87b4                	0x87b4
    80002536:	1895                	addi	a7,a7,-27
    80002538:	5212                	lw	tp,36(sp)
    8000253a:	809c70a7          	0x809c70a7
    8000253e:	8858                	0x8858
    80002540:	3c91aa3f 5bc96069 	0x5bc960693c91aa3f
    80002548:	db2ba743          	fmadd.d	fa4,fs7,fs2,fs11,rdn
    8000254c:	dfc2432b          	0xdfc2432b
    80002550:	0cdd                	addi	s9,s9,23
    80002552:	f0b6                	sd	a3,96(sp)
    80002554:	83bb8b17          	auipc	s6,0x83bb8
    80002558:	e9baa81b          	0xe9baa81b
    8000255c:	2a05                	addiw	s4,s4,1
    8000255e:	3dd9                	addiw	s11,s11,-10
    80002560:	76f0                	ld	a2,232(a3)
    80002562:	0c8e                	slli	s9,s9,0x3
    80002564:	fc50                	sd	a2,184(s0)
    80002566:	45a8                	lw	a0,72(a1)
    80002568:	24f5                	addiw	s1,s1,29
    8000256a:	d59c                	sw	a5,40(a1)
    8000256c:	9186                	add	gp,gp,ra
    8000256e:	8c0e                	mv	s8,gp
    80002570:	508c695b          	0x508c695b
    80002574:	27fba6cf          	fnmadd.q	fa3,fs7,ft11,ft4,rdn
    80002578:	ff9c5293          	0xff9c5293
    8000257c:	efea                	sd	s10,472(sp)
    8000257e:	cbed                	beqz	a5,80002670 <_end+0x60>
    80002580:	a642                	fsd	fa6,264(sp)
    80002582:	d272                	sw	t3,36(sp)
    80002584:	e734                	sd	a3,72(a4)
    80002586:	ae4c                	fsd	fa1,152(a2)
    80002588:	013fc067          	0x13fc067
    8000258c:	2fd00a23          	sb	t4,756(zero) # 2f4 <_start-0x7ffffd0c>
    80002590:	daf0                	sw	a2,116(a3)
    80002592:	76fb3cc3          	fmadd.q	fs9,fs6,fa5,fa4,rup
    80002596:	5a76                	lw	s4,124(sp)
    80002598:	ef0e                	sd	gp,408(sp)
    8000259a:	0949                	addi	s2,s2,18
    8000259c:	21ea                	fld	ft3,152(sp)
    8000259e:	dfcc                	sw	a1,60(a5)
    800025a0:	83fa                	mv	t2,t5
    800025a2:	1aa24557          	0x1aa24557
    800025a6:	4b1c36cb          	fnmsub.d	fa3,fs8,fa7,fs1,rup
    800025aa:	2d38                	fld	fa4,88(a0)
    800025ac:	7119                	addi	sp,sp,-128
    800025ae:	c545                	beqz	a0,80002656 <_end+0x46>
    800025b0:	6fa5                	lui	t6,0x9
    800025b2:	c016                	sw	t0,0(sp)
    800025b4:	7f2e                	ld	t5,232(sp)
    800025b6:	901e296f          	jal	s2,7ffe4eb6 <_start-0x1b14a>
    800025ba:	8639ab2b          	0x8639ab2b
    800025be:	ce84                	sw	s1,24(a3)
    800025c0:	8284                	0x8284
    800025c2:	b712                	fsd	ft4,424(sp)
    800025c4:	fad5                	bnez	a3,80002578 <test_memory+0x378>
    800025c6:	735e                	ld	t1,496(sp)
    800025c8:	d7dc                	sw	a5,44(a5)
    800025ca:	c6d5                	beqz	a3,80002676 <_end+0x66>
    800025cc:	0ab1565b          	0xab1565b
    800025d0:	a265                	j	80002778 <_end+0x168>
    800025d2:	24f3de43          	0x24f3de43
    800025d6:	d9deae2f          	0xd9deae2f
    800025da:	182508a3          	sb	sp,401(a0) # e776350d <__global_pointer$+0x677606fd>
    800025de:	ee7c                	sd	a5,216(a2)
    800025e0:	eb6e                	sd	s11,400(sp)
    800025e2:	b96d                	j	8000229c <test_memory+0x9c>
    800025e4:	7941                	lui	s2,0xffff0
    800025e6:	c560                	sw	s0,76(a0)
    800025e8:	1f31                	addi	t5,t5,-20
    800025ea:	04bc                	addi	a5,sp,584
    800025ec:	3c2d                	addiw	s8,s8,-21
    800025ee:	8010                	0x8010
    800025f0:	9382                	jalr	t2
    800025f2:	7a476c53          	0x7a476c53
    800025f6:	aa39                	j	80002714 <_end+0x104>
    800025f8:	2e6a                	fld	ft8,152(sp)
    800025fa:	168947d7          	0x168947d7
    800025fe:	26ce                	fld	fa3,208(sp)

0000000080002600 <loop_count>:
    80002600:	0040                	addi	s0,sp,4
	...

Disassembly of section .riscv.attributes:

0000000000000000 <.riscv.attributes>:
   0:	1e41                	addi	t3,t3,-16
   2:	0000                	unimp
   4:	7200                	ld	s0,32(a2)
   6:	7369                	lui	t1,0xffffa
   8:	01007663          	bgeu	zero,a6,14 <_start-0x7fffffec>
   c:	0014                	0x14
   e:	0000                	unimp
  10:	7205                	lui	tp,0xfffe1
  12:	3676                	fld	fa2,376(sp)
  14:	6934                	ld	a3,80(a0)
  16:	7032                	0x7032
  18:	5f30                	lw	a2,120(a4)
  1a:	326d                	addiw	tp,tp,-5
  1c:	3070                	fld	fa2,224(s0)
	...
