
build/test22:     file format elf64-littleriscv


Disassembly of section .text.init:

0000000080000000 <_start>:
    80000000:	05c0006f          	j	8000005c <reset_vector>

0000000080000004 <trap_vector>:
    80000004:	34202f73          	csrr	t5,mcause
    80000008:	00800f93          	li	t6,8
    8000000c:	03ff0a63          	beq	t5,t6,80000040 <write_tohost>
    80000010:	00900f93          	li	t6,9
    80000014:	03ff0663          	beq	t5,t6,80000040 <write_tohost>
    80000018:	00b00f93          	li	t6,11
    8000001c:	03ff0263          	beq	t5,t6,80000040 <write_tohost>
    80000020:	80000f17          	auipc	t5,0x80000
    80000024:	fe0f0f13          	addi	t5,t5,-32 # 0 <_start-0x80000000>
    80000028:	000f0463          	beqz	t5,80000030 <trap_vector+0x2c>
    8000002c:	000f0067          	jr	t5
    80000030:	34202f73          	csrr	t5,mcause
    80000034:	000f5463          	bgez	t5,8000003c <handle_exception>
    80000038:	0040006f          	j	8000003c <handle_exception>

000000008000003c <handle_exception>:
    8000003c:	5391e193          	ori	gp,gp,1337

0000000080000040 <write_tohost>:
    80000040:	00001f17          	auipc	t5,0x1
    80000044:	fc3f2023          	sw	gp,-64(t5) # 80001000 <tohost>
    80000048:	000902b7          	lui	t0,0x90
    8000004c:	0012829b          	addiw	t0,t0,1
    80000050:	00c29293          	slli	t0,t0,0xc
    80000054:	0002af83          	lw	t6,0(t0) # 90000 <_start-0x7ff70000>
    80000058:	fe9ff06f          	j	80000040 <write_tohost>

000000008000005c <reset_vector>:
    8000005c:	00000093          	li	ra,0
    80000060:	00000113          	li	sp,0
    80000064:	00000193          	li	gp,0
    80000068:	00000213          	li	tp,0
    8000006c:	00000293          	li	t0,0
    80000070:	00000313          	li	t1,0
    80000074:	00000393          	li	t2,0
    80000078:	00000413          	li	s0,0
    8000007c:	00000493          	li	s1,0
    80000080:	00000513          	li	a0,0
    80000084:	00000593          	li	a1,0
    80000088:	00000613          	li	a2,0
    8000008c:	00000693          	li	a3,0
    80000090:	00000713          	li	a4,0
    80000094:	00000793          	li	a5,0
    80000098:	00000813          	li	a6,0
    8000009c:	00000893          	li	a7,0
    800000a0:	00000913          	li	s2,0
    800000a4:	00000993          	li	s3,0
    800000a8:	00000a13          	li	s4,0
    800000ac:	00000a93          	li	s5,0
    800000b0:	00000b13          	li	s6,0
    800000b4:	00000b93          	li	s7,0
    800000b8:	00000c13          	li	s8,0
    800000bc:	00000c93          	li	s9,0
    800000c0:	00000d13          	li	s10,0
    800000c4:	00000d93          	li	s11,0
    800000c8:	00000e13          	li	t3,0
    800000cc:	00000e93          	li	t4,0
    800000d0:	00000f13          	li	t5,0
    800000d4:	00000f93          	li	t6,0
    800000d8:	f1402573          	csrr	a0,mhartid
    800000dc:	00051063          	bnez	a0,800000dc <reset_vector+0x80>
    800000e0:	00000297          	auipc	t0,0x0
    800000e4:	01028293          	addi	t0,t0,16 # 800000f0 <reset_vector+0x94>
    800000e8:	30529073          	csrw	mtvec,t0
    800000ec:	18005073          	csrwi	satp,0
    800000f0:	00000297          	auipc	t0,0x0
    800000f4:	02428293          	addi	t0,t0,36 # 80000114 <reset_vector+0xb8>
    800000f8:	30529073          	csrw	mtvec,t0
    800000fc:	0010029b          	addiw	t0,zero,1
    80000100:	03529293          	slli	t0,t0,0x35
    80000104:	fff28293          	addi	t0,t0,-1
    80000108:	3b029073          	csrw	pmpaddr0,t0
    8000010c:	01f00293          	li	t0,31
    80000110:	3a029073          	csrw	pmpcfg0,t0
    80000114:	30405073          	csrwi	mie,0
    80000118:	00000297          	auipc	t0,0x0
    8000011c:	01428293          	addi	t0,t0,20 # 8000012c <reset_vector+0xd0>
    80000120:	30529073          	csrw	mtvec,t0
    80000124:	30205073          	csrwi	medeleg,0
    80000128:	30305073          	csrwi	mideleg,0
    8000012c:	00000193          	li	gp,0
    80000130:	00000297          	auipc	t0,0x0
    80000134:	ed428293          	addi	t0,t0,-300 # 80000004 <trap_vector>
    80000138:	30529073          	csrw	mtvec,t0
    8000013c:	00100513          	li	a0,1
    80000140:	01f51513          	slli	a0,a0,0x1f
    80000144:	00055c63          	bgez	a0,8000015c <reset_vector+0x100>
    80000148:	0ff0000f          	fence
    8000014c:	00100193          	li	gp,1
    80000150:	05d00893          	li	a7,93
    80000154:	00000513          	li	a0,0
    80000158:	00000073          	ecall
    8000015c:	80000297          	auipc	t0,0x80000
    80000160:	ea428293          	addi	t0,t0,-348 # 0 <_start-0x80000000>
    80000164:	00028a63          	beqz	t0,80000178 <reset_vector+0x11c>
    80000168:	10529073          	csrw	stvec,t0
    8000016c:	0000b2b7          	lui	t0,0xb
    80000170:	1092829b          	addiw	t0,t0,265
    80000174:	30229073          	csrw	medeleg,t0
    80000178:	30005073          	csrwi	mstatus,0
    8000017c:	00000297          	auipc	t0,0x0
    80000180:	01428293          	addi	t0,t0,20 # 80000190 <reset_vector+0x134>
    80000184:	34129073          	csrw	mepc,t0
    80000188:	f1402573          	csrr	a0,mhartid
    8000018c:	30200073          	mret
    80000190:	0200006f          	j	800001b0 <test_start>

0000000080000194 <crash_backward>:
    80000194:	0ff0000f          	fence
    80000198:	00018063          	beqz	gp,80000198 <crash_backward+0x4>
    8000019c:	00119193          	slli	gp,gp,0x1
    800001a0:	0011e193          	ori	gp,gp,1
    800001a4:	05d00893          	li	a7,93
    800001a8:	00018513          	mv	a0,gp
    800001ac:	00000073          	ecall

00000000800001b0 <test_start>:
    800001b0:	00002f97          	auipc	t6,0x2
    800001b4:	e50f8f93          	addi	t6,t6,-432 # 80002000 <hidden_data>
    800001b8:	000fb003          	ld	zero,0(t6)
    800001bc:	008fb083          	ld	ra,8(t6)
    800001c0:	010fb103          	ld	sp,16(t6)
    800001c4:	018fb183          	ld	gp,24(t6)
    800001c8:	020fb203          	ld	tp,32(t6)
    800001cc:	028fb283          	ld	t0,40(t6)
    800001d0:	030fb303          	ld	t1,48(t6)
    800001d4:	038fb383          	ld	t2,56(t6)
    800001d8:	040fb403          	ld	s0,64(t6)
    800001dc:	048fb483          	ld	s1,72(t6)
    800001e0:	050fb503          	ld	a0,80(t6)
    800001e4:	058fb583          	ld	a1,88(t6)
    800001e8:	060fb603          	ld	a2,96(t6)
    800001ec:	068fb683          	ld	a3,104(t6)
    800001f0:	070fb703          	ld	a4,112(t6)
    800001f4:	078fb783          	ld	a5,120(t6)
    800001f8:	080fb803          	ld	a6,128(t6)
    800001fc:	088fb883          	ld	a7,136(t6)
    80000200:	090fb903          	ld	s2,144(t6)
    80000204:	098fb983          	ld	s3,152(t6)
    80000208:	0a0fba03          	ld	s4,160(t6)
    8000020c:	0a8fba83          	ld	s5,168(t6)
    80000210:	0b0fbb03          	ld	s6,176(t6)
    80000214:	0b8fbb83          	ld	s7,184(t6)
    80000218:	0c0fbc03          	ld	s8,192(t6)
    8000021c:	0c8fbc83          	ld	s9,200(t6)
    80000220:	0d0fbd03          	ld	s10,208(t6)
    80000224:	0d8fbd83          	ld	s11,216(t6)
    80000228:	0e0fbe03          	ld	t3,224(t6)
    8000022c:	0e8fbe83          	ld	t4,232(t6)
    80000230:	0f0fbf03          	ld	t5,240(t6)
    80000234:	0f8fbf83          	ld	t6,248(t6)
    80000238:	0040006f          	j	8000023c <pseg_0>

000000008000023c <pseg_0>:
    8000023c:	f4900a93          	li	s5,-183
    80000240:	70c00993          	li	s3,1804
    80000244:	f40018e3          	bnez	zero,80000194 <crash_backward>
    80000248:	a49a8413          	addi	s0,s5,-1463
    8000024c:	00003697          	auipc	a3,0x3
    80000250:	94868693          	addi	a3,a3,-1720 # 80002b94 <_end+0x584>
    80000254:	e8000313          	li	t1,-384
    80000258:	8e100593          	li	a1,-1823
    8000025c:	00002917          	auipc	s2,0x2
    80000260:	5d090913          	addi	s2,s2,1488 # 8000282c <_end+0x21c>
    80000264:	a0493d03          	ld	s10,-1532(s2)
    80000268:	29100513          	li	a0,657
    8000026c:	35b00813          	li	a6,859
    80000270:	02a53e33          	mulhu	t3,a0,a0
    80000274:	0339a0b3          	mulhsu	ra,s3,s3
    80000278:	00100113          	li	sp,1
    8000027c:	02b5ea3b          	remw	s4,a1,a1
    80000280:	40cfdbb3          	sra	s7,t6,a2
    80000284:	9986dc83          	lhu	s9,-1640(a3)
    80000288:	005760b3          	or	ra,a4,t0
    8000028c:	18000293          	li	t0,384
    80000290:	00100513          	li	a0,1
    80000294:	44e28893          	addi	a7,t0,1102
    80000298:	27300a13          	li	s4,627
    8000029c:	09500c93          	li	s9,149
    800002a0:	0269863b          	mulw	a2,s3,t1
    800002a4:	8ca00793          	li	a5,-1846
    800002a8:	022526b3          	mulhsu	a3,a0,sp
    800002ac:	00100393          	li	t2,1
    800002b0:	013a7c33          	and	s8,s4,s3
    800002b4:	01e36fb3          	or	t6,t1,t5
    800002b8:	00098313          	mv	t1,s3
    800002bc:	00002b17          	auipc	s6,0x2
    800002c0:	106b0b13          	addi	s6,s6,262 # 800023c2 <test_memory+0x1c2>
    800002c4:	ec58c8e3          	blt	a7,t0,80000194 <crash_backward>
    800002c8:	03f39393          	slli	t2,t2,0x3f
    800002cc:	03f51513          	slli	a0,a0,0x3f
    800002d0:	019a1bb3          	sll	s7,s4,s9
    800002d4:	eecb3b23          	sd	a2,-266(s6)
    800002d8:	fff00d13          	li	s10,-1
    800002dc:	fff00213          	li	tp,-1
    800002e0:	032979bb          	remuw	s3,s2,s2
    800002e4:	00ad4d33          	xor	s10,s10,a0
    800002e8:	00002697          	auipc	a3,0x2
    800002ec:	e6568693          	addi	a3,a3,-411 # 8000214d <reg_x9_output+0x5>
    800002f0:	01a4f933          	and	s2,s1,s10
    800002f4:	00724233          	xor	tp,tp,t2
    800002f8:	6e004663          	bltz	zero,800009e4 <crash_forward>
    800002fc:	03f11113          	slli	sp,sp,0x3f
    80000300:	00aeee33          	or	t3,t4,a0
    80000304:	00002597          	auipc	a1,0x2
    80000308:	19558593          	addi	a1,a1,405 # 80002499 <test_memory+0x299>
    8000030c:	0318bab3          	mulhu	s5,a7,a7
    80000310:	03c31a33          	mulh	s4,t1,t3
    80000314:	3c66c603          	lbu	a2,966(a3)
    80000318:	004d7db3          	and	s11,s10,tp
    8000031c:	40f851b3          	sra	gp,a6,a5
    80000320:	00030093          	mv	ra,t1
    80000324:	fff00493          	li	s1,-1
    80000328:	007deeb3          	or	t4,s11,t2
    8000032c:	0024c4b3          	xor	s1,s1,sp
    80000330:	71200893          	li	a7,1810
    80000334:	e7bee0e3          	bltu	t4,s11,80000194 <crash_backward>
    80000338:	07459ba3          	sh	s4,119(a1)
    8000033c:	0092ff33          	and	t5,t0,s1
    80000340:	002f6733          	or	a4,t5,sp
    80000344:	5dc00c13          	li	s8,1500
    80000348:	e41316e3          	bne	t1,ra,80000194 <crash_backward>
    8000034c:	00950e33          	add	t3,a0,s1
    80000350:	00100213          	li	tp,1
    80000354:	0272aa33          	mulhsu	s4,t0,t2
    80000358:	d5700913          	li	s2,-681
    8000035c:	01293533          	sltu	a0,s2,s2
    80000360:	03f21213          	slli	tp,tp,0x3f
    80000364:	0cb00413          	li	s0,203
    80000368:	83900993          	li	s3,-1991
    8000036c:	fff00e93          	li	t4,-1
    80000370:	01b1f6b3          	and	a3,gp,s11
    80000374:	9e600293          	li	t0,-1562
    80000378:	008c2b33          	slt	s6,s8,s0
    8000037c:	00637db3          	and	s11,t1,t1
    80000380:	f8500093          	li	ra,-123
    80000384:	004eceb3          	xor	t4,t4,tp
    80000388:	77100593          	li	a1,1905
    8000038c:	00002397          	auipc	t2,0x2
    80000390:	76738393          	addi	t2,t2,1895 # 80002af3 <_end+0x4e3>
    80000394:	415801b3          	sub	gp,a6,s5
    80000398:	c3500d93          	li	s11,-971
    8000039c:	ab839ea3          	sh	s8,-1347(t2)
    800003a0:	01df1533          	sll	a0,t5,t4
    800003a4:	0010c4b3          	xor	s1,ra,ra
    800003a8:	c90d8313          	addi	t1,s11,-880
    800003ac:	01d47833          	and	a6,s0,t4
    800003b0:	28900f13          	li	t5,649
    800003b4:	02b5ce3b          	divw	t3,a1,a1
    800003b8:	b5c98613          	addi	a2,s3,-1188
    800003bc:	017bdab3          	srl	s5,s7,s7
    800003c0:	004467b3          	or	a5,s0,tp
    800003c4:	00002397          	auipc	t2,0x2
    800003c8:	09c38393          	addi	t2,t2,156 # 80002460 <test_memory+0x260>
    800003cc:	24d00b13          	li	s6,589
    800003d0:	1ad00f93          	li	t6,429
    800003d4:	60c98863          	beq	s3,a2,800009e4 <crash_forward>
    800003d8:	78000493          	li	s1,1920
    800003dc:	75800113          	li	sp,1880
    800003e0:	0058dbb3          	srl	s7,a7,t0
    800003e4:	ec83c083          	lbu	ra,-312(t2)
    800003e8:	3e5f8c93          	addi	s9,t6,997
    800003ec:	79d00913          	li	s2,1949
    800003f0:	00002d97          	auipc	s11,0x2
    800003f4:	d34d8d93          	addi	s11,s11,-716 # 80002124 <reg_x4_output+0x4>
    800003f8:	00ed5e33          	srl	t3,s10,a4
    800003fc:	5a800513          	li	a0,1448
    80000400:	02a4eab3          	rem	s5,s1,a0
    80000404:	03ef31b3          	mulhu	gp,t5,t5
    80000408:	edd00413          	li	s0,-291
    8000040c:	00100093          	li	ra,1
    80000410:	d9fcc2e3          	blt	s9,t6,80000194 <crash_backward>
    80000414:	03f09093          	slli	ra,ra,0x3f
    80000418:	364db303          	ld	t1,868(s11)
    8000041c:	f8800513          	li	a0,-120
    80000420:	0334d7b3          	divu	a5,s1,s3
    80000424:	ec300713          	li	a4,-317
    80000428:	01212c33          	slt	s8,sp,s2
    8000042c:	00000293          	li	t0,0
    80000430:	4b900813          	li	a6,1209
    80000434:	02e446b3          	div	a3,s0,a4
    80000438:	8d300c93          	li	s9,-1837
    8000043c:	33c00f93          	li	t6,828
    80000440:	402b8c33          	sub	s8,s7,sp
    80000444:	4a400913          	li	s2,1188
    80000448:	11600793          	li	a5,278
    8000044c:	bf000313          	li	t1,-1040
    80000450:	019829b3          	slt	s3,a6,s9
    80000454:	6dd00f13          	li	t5,1757
    80000458:	16000a93          	li	s5,352
    8000045c:	02f7e233          	rem	tp,a5,a5
    80000460:	00002797          	auipc	a5,0x2
    80000464:	a7a78793          	addi	a5,a5,-1414 # 80001eda <fromhost+0xe9a>
    80000468:	40695133          	sra	sp,s2,t1
    8000046c:	032ef9b3          	remu	s3,t4,s2
    80000470:	00000813          	li	a6,0
    80000474:	60f58d13          	addi	s10,a1,1551
    80000478:	4010813b          	subw	sp,ra,ra
    8000047c:	03ef71b3          	remu	gp,t5,t5
    80000480:	00000393          	li	t2,0
    80000484:	02f879bb          	remuw	s3,a6,a5
    80000488:	00000c93          	li	s9,0
    8000048c:	0118f6b3          	and	a3,a7,a7
    80000490:	d07292e3          	bne	t0,t2,80000194 <crash_backward>
    80000494:	05000913          	li	s2,80
    80000498:	415504b3          	sub	s1,a0,s5
    8000049c:	bde00d93          	li	s11,-1058
    800004a0:	a0b00d13          	li	s10,-1525
    800004a4:	3b300a93          	li	s5,947
    800004a8:	fdf00c13          	li	s8,-33
    800004ac:	c6400413          	li	s0,-924
    800004b0:	cf9862e3          	bltu	a6,s9,80000194 <crash_backward>
    800004b4:	83600f13          	li	t5,-1994
    800004b8:	028c2733          	mulhsu	a4,s8,s0
    800004bc:	41ad05b3          	sub	a1,s10,s10
    800004c0:	01293333          	sltu	t1,s2,s2
    800004c4:	a9400d13          	li	s10,-1388
    800004c8:	2c700c93          	li	s9,711
    800004cc:	6cb00c13          	li	s8,1739
    800004d0:	8f100493          	li	s1,-1807
    800004d4:	00100713          	li	a4,1
    800004d8:	03f71713          	slli	a4,a4,0x3f
    800004dc:	f60d8e93          	addi	t4,s11,-160
    800004e0:	fff00313          	li	t1,-1
    800004e4:	641b0a13          	addi	s4,s6,1601
    800004e8:	85d00293          	li	t0,-1955
    800004ec:	134f8e13          	addi	t3,t6,308
    800004f0:	cb4b52e3          	bge	s6,s4,80000194 <crash_backward>
    800004f4:	025ad3b3          	divu	t2,s5,t0
    800004f8:	009c35b3          	sltu	a1,s8,s1
    800004fc:	30700513          	li	a0,775
    80000500:	419d543b          	sraw	s0,s10,s9
    80000504:	4967b203          	ld	tp,1174(a5)
    80000508:	c9fe46e3          	blt	t3,t6,80000194 <crash_backward>
    8000050c:	4dddcc63          	blt	s11,t4,800009e4 <crash_forward>
    80000510:	43b00993          	li	s3,1083
    80000514:	00e34333          	xor	t1,t1,a4
    80000518:	fff00613          	li	a2,-1
    8000051c:	e5d00113          	li	sp,-419
    80000520:	006bf933          	and	s2,s7,t1
    80000524:	00e26833          	or	a6,tp,a4
    80000528:	4b097e63          	bgeu	s2,a6,800009e4 <crash_forward>
    8000052c:	00002797          	auipc	a5,0x2
    80000530:	30378793          	addi	a5,a5,771 # 8000282f <_end+0x21f>
    80000534:	c60010e3          	bnez	zero,80000194 <crash_backward>
    80000538:	a197a383          	lw	t2,-1511(a5)
    8000053c:	402f51b3          	sra	gp,t5,sp
    80000540:	02c15eb3          	divu	t4,sp,a2
    80000544:	033556bb          	divuw	a3,a0,s3
    80000548:	01db1c1b          	slliw	s8,s6,0x1d
    8000054c:	35f00d13          	li	s10,863
    80000550:	00164633          	xor	a2,a2,ra
    80000554:	00c57bb3          	and	s7,a0,a2
    80000558:	d2800413          	li	s0,-728
    8000055c:	001be8b3          	or	a7,s7,ra
    80000560:	4978e263          	bltu	a7,s7,800009e4 <crash_forward>
    80000564:	028d6fbb          	remw	t6,s10,s0
    80000568:	00008f13          	mv	t5,ra
    8000056c:	40575d1b          	sraiw	s10,a4,0x5
    80000570:	000f0413          	mv	s0,t5
    80000574:	b6e00793          	li	a5,-1170
    80000578:	8a578513          	addi	a0,a5,-1883
    8000057c:	c08f1ce3          	bne	t5,s0,80000194 <crash_backward>
    80000580:	0147c833          	xor	a6,a5,s4
    80000584:	28400693          	li	a3,644
    80000588:	d4100d13          	li	s10,-703
    8000058c:	41a68833          	sub	a6,a3,s10
    80000590:	44001a63          	bnez	zero,800009e4 <crash_forward>
    80000594:	7f500513          	li	a0,2037
    80000598:	42700b93          	li	s7,1063
    8000059c:	45900313          	li	t1,1113
    800005a0:	5c6b8c13          	addi	s8,s7,1478
    800005a4:	02d7d1b3          	divu	gp,a5,a3
    800005a8:	00829d9b          	slliw	s11,t0,0x8
    800005ac:	be0044e3          	bltz	zero,80000194 <crash_backward>
    800005b0:	413507bb          	subw	a5,a0,s3
    800005b4:	40fd06bb          	subw	a3,s10,a5
    800005b8:	00100393          	li	t2,1
    800005bc:	0d500f93          	li	t6,213
    800005c0:	0a200713          	li	a4,162
    800005c4:	03cbaf33          	mulhsu	t5,s7,t3
    800005c8:	3ad30293          	addi	t0,t1,941
    800005cc:	01f21cbb          	sllw	s9,tp,t6
    800005d0:	4ea00493          	li	s1,1258
    800005d4:	00002797          	auipc	a5,0x2
    800005d8:	a3578793          	addi	a5,a5,-1483 # 80002009 <reg_x1_init+0x1>
    800005dc:	02a57eb3          	remu	t4,a0,a0
    800005e0:	40efd9b3          	sra	s3,t6,a4
    800005e4:	30f7dd83          	lhu	s11,783(a5)
    800005e8:	eec00193          	li	gp,-276
    800005ec:	ced00e13          	li	t3,-787
    800005f0:	54300813          	li	a6,1347
    800005f4:	ba5350e3          	bge	t1,t0,80000194 <crash_backward>
    800005f8:	2b000113          	li	sp,688
    800005fc:	21f00593          	li	a1,543
    80000600:	03f39393          	slli	t2,t2,0x3f
    80000604:	02948d33          	mul	s10,s1,s1
    80000608:	018c06b3          	add	a3,s8,s8
    8000060c:	02210433          	mul	s0,sp,sp
    80000610:	410e593b          	sraw	s2,t3,a6
    80000614:	0389ef33          	rem	t5,s3,s8
    80000618:	02b198b3          	mulh	a7,gp,a1
    8000061c:	fff00a13          	li	s4,-1
    80000620:	007a4a33          	xor	s4,s4,t2
    80000624:	014ff633          	and	a2,t6,s4
    80000628:	00766b33          	or	s6,a2,t2
    8000062c:	00080d13          	mv	s10,a6
    80000630:	bb000a13          	li	s4,-1104
    80000634:	f3000813          	li	a6,-208
    80000638:	000d0213          	mv	tp,s10
    8000063c:	3a500b13          	li	s6,933
    80000640:	a1e00913          	li	s2,-1506
    80000644:	daba2337          	lui	t1,0xdaba2
    80000648:	416b0433          	sub	s0,s6,s6
    8000064c:	02636c33          	rem	s8,t1,t1
    80000650:	02e0553b          	divuw	a0,zero,a4
    80000654:	030824b3          	mulhsu	s1,a6,a6
    80000658:	032b75b3          	remu	a1,s6,s2
    8000065c:	35800e13          	li	t3,856
    80000660:	00002597          	auipc	a1,0x2
    80000664:	42858593          	addi	a1,a1,1064 # 80002a88 <_end+0x478>
    80000668:	09ce0093          	addi	ra,t3,156
    8000066c:	00100d93          	li	s11,1
    80000670:	03fd9d93          	slli	s11,s11,0x3f
    80000674:	fff00293          	li	t0,-1
    80000678:	00100e93          	li	t4,1
    8000067c:	848a0a93          	addi	s5,s4,-1976
    80000680:	00100413          	li	s0,1
    80000684:	03f41413          	slli	s0,s0,0x3f
    80000688:	fff00493          	li	s1,-1
    8000068c:	355a0c63          	beq	s4,s5,800009e4 <crash_forward>
    80000690:	010ad99b          	srliw	s3,s5,0x10
    80000694:	00001f97          	auipc	t6,0x1
    80000698:	725f8f93          	addi	t6,t6,1829 # 80001db9 <fromhost+0xd79>
    8000069c:	8d05b903          	ld	s2,-1840(a1)
    800006a0:	344d4263          	blt	s10,tp,800009e4 <crash_forward>
    800006a4:	03fe9e93          	slli	t4,t4,0x3f
    800006a8:	565f94a3          	sh	t0,1385(t6)
    800006ac:	f3100613          	li	a2,-207
    800006b0:	ae200713          	li	a4,-1310
    800006b4:	02e618b3          	mulh	a7,a2,a4
    800006b8:	32006663          	bltu	zero,zero,800009e4 <crash_forward>
    800006bc:	02421333          	mulh	t1,tp,tp
    800006c0:	fff00c93          	li	s9,-1
    800006c4:	0084c4b3          	xor	s1,s1,s0
    800006c8:	01dcccb3          	xor	s9,s9,t4
    800006cc:	bc000113          	li	sp,-1088
    800006d0:	67fbfb13          	andi	s6,s7,1663
    800006d4:	22300613          	li	a2,547
    800006d8:	f4300f93          	li	t6,-189
    800006dc:	01b2c2b3          	xor	t0,t0,s11
    800006e0:	abc0eae3          	bltu	ra,t3,80000194 <crash_backward>
    800006e4:	d1000713          	li	a4,-752
    800006e8:	00100213          	li	tp,1
    800006ec:	3b000693          	li	a3,944
    800006f0:	03f21213          	slli	tp,tp,0x3f
    800006f4:	fff00a13          	li	s4,-1
    800006f8:	019f77b3          	and	a5,t5,s9
    800006fc:	005dfbb3          	and	s7,s11,t0
    80000700:	02e76333          	rem	t1,a4,a4
    80000704:	f6700893          	li	a7,-153
    80000708:	01b9e1b3          	or	gp,s3,s11
    8000070c:	0097f533          	and	a0,a5,s1
    80000710:	41188ab3          	sub	s5,a7,a7
    80000714:	02d14f3b          	divw	t5,sp,a3
    80000718:	004a4a33          	xor	s4,s4,tp
    8000071c:	bb900913          	li	s2,-1095
    80000720:	03f63833          	mulhu	a6,a2,t6
    80000724:	02a74e3b          	divw	t3,a4,a0
    80000728:	41290d33          	sub	s10,s2,s2
    8000072c:	ce400693          	li	a3,-796
    80000730:	00856c33          	or	s8,a0,s0
    80000734:	00002897          	auipc	a7,0x2
    80000738:	9c988893          	addi	a7,a7,-1591 # 800020fd <reg_x31_init+0x5>
    8000073c:	40d6d33b          	sraw	t1,a3,a3
    80000740:	01d263b3          	or	t2,tp,t4
    80000744:	014475b3          	and	a1,s0,s4
    80000748:	09900a93          	li	s5,153
    8000074c:	7f8a8b13          	addi	s6,s5,2040
    80000750:	283b8a63          	beq	s7,gp,800009e4 <crash_forward>
    80000754:	0ae00d13          	li	s10,174
    80000758:	28ac5663          	bge	s8,a0,800009e4 <crash_forward>
    8000075c:	0045e9b3          	or	s3,a1,tp
    80000760:	a277fae3          	bgeu	a5,t2,80000194 <crash_backward>
    80000764:	24f00f13          	li	t5,591
    80000768:	cfe00093          	li	ra,-770
    8000076c:	021f673b          	remw	a4,t5,ra
    80000770:	44989103          	lh	sp,1097(a7)
    80000774:	27800793          	li	a5,632
    80000778:	a62b0893          	addi	a7,s6,-1438
    8000077c:	00f7abb3          	slt	s7,a5,a5
    80000780:	03ad7933          	remu	s2,s10,s10
    80000784:	4ff00413          	li	s0,1279
    80000788:	2535ce63          	blt	a1,s3,800009e4 <crash_forward>
    8000078c:	00002a97          	auipc	s5,0x2
    80000790:	b63a8a93          	addi	s5,s5,-1181 # 800022ef <test_memory+0xef>
    80000794:	fea77837          	lui	a6,0xfea77
    80000798:	00002297          	auipc	t0,0x2
    8000079c:	23f28293          	addi	t0,t0,575 # 800029d7 <_end+0x3c7>
    800007a0:	00002c97          	auipc	s9,0x2
    800007a4:	bf1c8c93          	addi	s9,s9,-1039 # 80002391 <test_memory+0x191>
    800007a8:	00e83533          	sltu	a0,a6,a4
    800007ac:	27800f93          	li	t6,632
    800007b0:	01bcd693          	srli	a3,s9,0x1b
    800007b4:	02f78133          	mul	sp,a5,a5
    800007b8:	0b500213          	li	tp,181
    800007bc:	b0200a13          	li	s4,-1278
    800007c0:	22800b93          	li	s7,552
    800007c4:	44a6081b          	addiw	a6,a2,1098
    800007c8:	007d0e33          	add	t3,s10,t2
    800007cc:	2d920b13          	addi	s6,tp,729 # 2d9 <_start-0x7ffffd27>
    800007d0:	01f181b3          	add	gp,gp,t6
    800007d4:	03e265bb          	remw	a1,tp,t5
    800007d8:	00078813          	mv	a6,a5
    800007dc:	00080893          	mv	a7,a6
    800007e0:	1e100793          	li	a5,481
    800007e4:	e4000393          	li	t2,-448
    800007e8:	1f184e63          	blt	a6,a7,800009e4 <crash_forward>
    800007ec:	4d700313          	li	t1,1239
    800007f0:	80900e13          	li	t3,-2039
    800007f4:	75513e93          	sltiu	t4,sp,1877
    800007f8:	9322a0a3          	sw	s2,-1759(t0)
    800007fc:	0073813b          	addw	sp,t2,t2
    80000800:	0284763b          	remuw	a2,s0,s0
    80000804:	03ffcdb3          	div	s11,t6,t6
    80000808:	46200693          	li	a3,1122
    8000080c:	00f799bb          	sllw	s3,a5,a5
    80000810:	00002f17          	auipc	t5,0x2
    80000814:	d6df0f13          	addi	t5,t5,-659 # 8000257d <test_memory+0x37d>
    80000818:	9652cee3          	blt	t0,t0,80000194 <crash_backward>
    8000081c:	a0a00d13          	li	s10,-1526
    80000820:	03ad493b          	divw	s2,s10,s10
    80000824:	026394b3          	mulh	s1,t2,t1
    80000828:	037a7533          	remu	a0,s4,s7
    8000082c:	067ce703          	lwu	a4,103(s9)
    80000830:	006f29a3          	sw	t1,19(t5)
    80000834:	02de31b3          	mulhu	gp,t3,a3
    80000838:	2a1aac03          	lw	s8,673(s5)
    8000083c:	6dd00f13          	li	t5,1757
    80000840:	01ef2a33          	slt	s4,t5,t5
    80000844:	7c900a93          	li	s5,1993
    80000848:	033184b3          	mul	s1,gp,s3
    8000084c:	017be533          	or	a0,s7,s7
    80000850:	00001d97          	auipc	s11,0x1
    80000854:	61ed8d93          	addi	s11,s11,1566 # 80001e6e <fromhost+0xe2e>
    80000858:	dad00b13          	li	s6,-595
    8000085c:	416b57bb          	sraw	a5,s6,s6
    80000860:	75300213          	li	tp,1875
    80000864:	76300613          	li	a2,1891
    80000868:	03dec733          	div	a4,t4,t4
    8000086c:	00800933          	add	s2,zero,s0
    80000870:	a9300f93          	li	t6,-1389
    80000874:	4bf00693          	li	a3,1215
    80000878:	9201a413          	slti	s0,gp,-1760
    8000087c:	3bd00193          	li	gp,957
    80000880:	4a760d13          	addi	s10,a2,1191
    80000884:	00002897          	auipc	a7,0x2
    80000888:	ead88893          	addi	a7,a7,-339 # 80002731 <_end+0x121>
    8000088c:	e3700c93          	li	s9,-457
    80000890:	d878e103          	lwu	sp,-633(a7)
    80000894:	0196b0b3          	sltu	ra,a3,s9
    80000898:	59600293          	li	t0,1430
    8000089c:	0052b833          	sltu	a6,t0,t0
    800008a0:	00425e3b          	srlw	t3,tp,tp
    800008a4:	4f200593          	li	a1,1266
    800008a8:	02b5fbbb          	remuw	s7,a1,a1
    800008ac:	41ff833b          	subw	t1,t6,t6
    800008b0:	403a83b3          	sub	t2,s5,gp
    800008b4:	4aadde83          	lhu	t4,1194(s11)
    800008b8:	33700993          	li	s3,823
    800008bc:	03398c33          	mul	s8,s3,s3
    800008c0:	0273ccbb          	divw	s9,t2,t2
    800008c4:	00425abb          	srlw	s5,tp,tp
    800008c8:	14200e13          	li	t3,322
    800008cc:	81b00513          	li	a0,-2021
    800008d0:	e7d00113          	li	sp,-387
    800008d4:	03ce62bb          	remw	t0,t3,t3
    800008d8:	dec00213          	li	tp,-532
    800008dc:	01bddf33          	srl	t5,s11,s11
    800008e0:	16400a13          	li	s4,356
    800008e4:	6f900d13          	li	s10,1785
    800008e8:	c5d10f93          	addi	t6,sp,-931
    800008ec:	8a0014e3          	bnez	zero,80000194 <crash_backward>
    800008f0:	7b4d0713          	addi	a4,s10,1972
    800008f4:	f4000593          	li	a1,-192
    800008f8:	f5100493          	li	s1,-175
    800008fc:	00038193          	mv	gp,t2
    80000900:	00921db3          	sll	s11,tp,s1
    80000904:	00100813          	li	a6,1
    80000908:	0ced7e63          	bgeu	s10,a4,800009e4 <crash_forward>
    8000090c:	03f81813          	slli	a6,a6,0x3f
    80000910:	034a73b3          	remu	t2,s4,s4
    80000914:	02b5fb3b          	remuw	s6,a1,a1
    80000918:	ca150613          	addi	a2,a0,-863
    8000091c:	00018093          	mv	ra,gp
    80000920:	7ea00693          	li	a3,2026
    80000924:	fff00413          	li	s0,-1
    80000928:	c2100893          	li	a7,-991
    8000092c:	862fd4e3          	bge	t6,sp,80000194 <crash_backward>
    80000930:	03168bb3          	mul	s7,a3,a7
    80000934:	01044433          	xor	s0,s0,a6
    80000938:	008cf9b3          	and	s3,s9,s0
    8000093c:	010be333          	or	t1,s7,a6
    80000940:	0040006f          	j	80000944 <reg_dump>

0000000080000944 <reg_dump>:
    80000944:	00002097          	auipc	ra,0x2
    80000948:	cbc08093          	addi	ra,ra,-836 # 80002600 <loop_count>
    8000094c:	0000a103          	lw	sp,0(ra)
    80000950:	fff10193          	addi	gp,sp,-1
    80000954:	0030a023          	sw	gp,0(ra)
    80000958:	8e0112e3          	bnez	sp,8000023c <pseg_0>
    8000095c:	00001097          	auipc	ra,0x1
    80000960:	7a408093          	addi	ra,ra,1956 # 80002100 <begin_signature>
    80000964:	0000b023          	sd	zero,0(ra)
    80000968:	0020b823          	sd	sp,16(ra)
    8000096c:	0030bc23          	sd	gp,24(ra)
    80000970:	0240b023          	sd	tp,32(ra)
    80000974:	0250b423          	sd	t0,40(ra)
    80000978:	0260b823          	sd	t1,48(ra)
    8000097c:	0270bc23          	sd	t2,56(ra)
    80000980:	0480b023          	sd	s0,64(ra)
    80000984:	0490b423          	sd	s1,72(ra)
    80000988:	04a0b823          	sd	a0,80(ra)
    8000098c:	04b0bc23          	sd	a1,88(ra)
    80000990:	06c0b023          	sd	a2,96(ra)
    80000994:	06d0b423          	sd	a3,104(ra)
    80000998:	06e0b823          	sd	a4,112(ra)
    8000099c:	06f0bc23          	sd	a5,120(ra)
    800009a0:	0900b023          	sd	a6,128(ra)
    800009a4:	0910b423          	sd	a7,136(ra)
    800009a8:	0920b823          	sd	s2,144(ra)
    800009ac:	0930bc23          	sd	s3,152(ra)
    800009b0:	0b40b023          	sd	s4,160(ra)
    800009b4:	0b50b423          	sd	s5,168(ra)
    800009b8:	0b60b823          	sd	s6,176(ra)
    800009bc:	0b70bc23          	sd	s7,184(ra)
    800009c0:	0d80b023          	sd	s8,192(ra)
    800009c4:	0d90b423          	sd	s9,200(ra)
    800009c8:	0da0b823          	sd	s10,208(ra)
    800009cc:	0db0bc23          	sd	s11,216(ra)
    800009d0:	0fc0b023          	sd	t3,224(ra)
    800009d4:	0fd0b423          	sd	t4,232(ra)
    800009d8:	0fe0b823          	sd	t5,240(ra)
    800009dc:	0ff0bc23          	sd	t6,248(ra)
    800009e0:	0200006f          	j	80000a00 <test_end>

00000000800009e4 <crash_forward>:
    800009e4:	0ff0000f          	fence
    800009e8:	00018063          	beqz	gp,800009e8 <crash_forward+0x4>
    800009ec:	00119193          	slli	gp,gp,0x1
    800009f0:	0011e193          	ori	gp,gp,1
    800009f4:	05d00893          	li	a7,93
    800009f8:	00018513          	mv	a0,gp
    800009fc:	00000073          	ecall

0000000080000a00 <test_end>:
    80000a00:	0ff0000f          	fence
    80000a04:	00100193          	li	gp,1
    80000a08:	05d00893          	li	a7,93
    80000a0c:	00000513          	li	a0,0
    80000a10:	00000073          	ecall
    80000a14:	c0001073          	unimp
	...

Disassembly of section .tohost:

0000000080001000 <tohost>:
	...

0000000080001040 <fromhost>:
	...

Disassembly of section .data:

0000000080002000 <hidden_data>:
    80002000:	f77b156b          	0xf77b156b
    80002004:	604703f7          	0x604703f7

0000000080002008 <reg_x1_init>:
    80002008:	dfa5                	beqz	a5,80001f80 <fromhost+0xf40>
    8000200a:	2d30                	fld	fa2,88(a0)
    8000200c:	0f3e                	slli	t5,t5,0xf
    8000200e:	8124                	0x8124

0000000080002010 <reg_x2_init>:
    80002010:	8ca4                	0x8ca4
    80002012:	5ddd                	li	s11,-9
    80002014:	70ec                	ld	a1,224(s1)
    80002016:	a015                	j	8000203a <reg_x7_init+0x2>

0000000080002018 <reg_x3_init>:
    80002018:	1aa1                	addi	s5,s5,-24
    8000201a:	f0f1                	bnez	s1,80001fde <fromhost+0xf9e>
    8000201c:	5d60                	lw	s0,124(a0)
    8000201e:	97c8                	0x97c8

0000000080002020 <reg_x4_init>:
    80002020:	a0ba                	fsd	fa4,64(sp)
    80002022:	33213f37          	lui	t5,0x33213
    80002026:	b972                	fsd	ft8,176(sp)

0000000080002028 <reg_x5_init>:
    80002028:	ffff                	0xffff
    8000202a:	ffff                	0xffff
    8000202c:	ffff                	0xffff
    8000202e:	ffff                	0xffff

0000000080002030 <reg_x6_init>:
    80002030:	8009                	srli	s0,s0,0x2
    80002032:	ffff                	0xffff
    80002034:	ffff                	0xffff
    80002036:	ffff                	0xffff

0000000080002038 <reg_x7_init>:
    80002038:	22612e57          	0x22612e57
    8000203c:	be79                	j	80001bda <fromhost+0xb9a>
    8000203e:	fac2                	sd	a6,368(sp)

0000000080002040 <reg_x8_init>:
    80002040:	21f8a593          	slti	a1,a7,543
    80002044:	26ba                	fld	fa3,392(sp)
    80002046:	b659                	j	80001bcc <fromhost+0xb8c>

0000000080002048 <reg_x9_init>:
    80002048:	63aa                	ld	t2,136(sp)
    8000204a:	2c54                	fld	fa3,152(s0)
    8000204c:	6722                	ld	a4,8(sp)
    8000204e:	ea91                	bnez	a3,80002062 <reg_x12_init+0x2>

0000000080002050 <reg_x10_init>:
    80002050:	ce88                	sw	a0,24(a3)
    80002052:	3c5cc32b          	0x3c5cc32b
    80002056:	674e                	ld	a4,208(sp)

0000000080002058 <reg_x11_init>:
    80002058:	7679                	lui	a2,0xffffe
    8000205a:	bdc9                	j	80001f2c <fromhost+0xeec>
    8000205c:	93bc                	0x93bc
    8000205e:	87d8                	0x87d8

0000000080002060 <reg_x12_init>:
    80002060:	0001                	nop
    80002062:	0000                	unimp
    80002064:	0000                	unimp
    80002066:	0800                	addi	s0,sp,16

0000000080002068 <reg_x13_init>:
    80002068:	ba6d5ca7          	0xba6d5ca7
    8000206c:	fdc0                	sd	s0,184(a1)
    8000206e:	02d8                	addi	a4,sp,324

0000000080002070 <reg_x14_init>:
    80002070:	985e                	add	a6,a6,s7
    80002072:	8c3d                	xor	s0,s0,a5
    80002074:	b24a                	fsd	fs2,288(sp)
    80002076:	3fba                	fld	ft11,424(sp)

0000000080002078 <reg_x15_init>:
    80002078:	2c5d                	addiw	s8,s8,23
    8000207a:	8fad                	xor	a5,a5,a1
    8000207c:	a5c0                	fsd	fs0,136(a1)
    8000207e:	3548                	fld	fa0,168(a0)

0000000080002080 <reg_x16_init>:
    80002080:	56c9                	li	a3,-14
    80002082:	c8d1                	beqz	s1,80002116 <reg_x2_output+0x6>
    80002084:	692e                	ld	s2,200(sp)
    80002086:	61ca                	ld	gp,144(sp)

0000000080002088 <reg_x17_init>:
    80002088:	44ba                	lw	s1,140(sp)
    8000208a:	bb5d                	j	80001e40 <fromhost+0xe00>
    8000208c:	fc89                	bnez	s1,80001fa6 <fromhost+0xf66>
    8000208e:	5fc4                	lw	s1,60(a5)

0000000080002090 <reg_x18_init>:
    80002090:	86f6                	mv	a3,t4
    80002092:	bd44                	fsd	fs1,184(a0)
    80002094:	55f5613f  	0xffffffff55f5613f

0000000080002098 <reg_x19_init>:
    80002098:	ffff                	0xffff
    8000209a:	ffff                	0xffff
    8000209c:	ffff                	0xffff
    8000209e:	ffff                	0xffff

00000000800020a0 <reg_x20_init>:
    800020a0:	dbaa                	sw	a0,244(sp)
    800020a2:	8288                	0x8288
    800020a4:	0d1af97b          	0xd1af97b

00000000800020a8 <reg_x21_init>:
    800020a8:	08a9                	addi	a7,a7,10
    800020aa:	9a58                	0x9a58
    800020ac:	c8bd                	beqz	s1,80002122 <reg_x4_output+0x2>
    800020ae:	d3f1                	beqz	a5,80002072 <reg_x14_init+0x2>

00000000800020b0 <reg_x22_init>:
    800020b0:	8220                	0x8220
    800020b2:	c9062d3f  	0x4d6c9062d3f

00000000800020b8 <reg_x23_init>:
	...

00000000800020c0 <reg_x24_init>:
    800020c0:	f582                	sd	zero,232(sp)
    800020c2:	dc1a                	sw	t1,56(sp)
    800020c4:	11f8                	addi	a4,sp,236
    800020c6:	4f44                	lw	s1,28(a4)

00000000800020c8 <reg_x25_init>:
    800020c8:	b6f1                	j	80001c94 <fromhost+0xc54>
    800020ca:	2422                	fld	fs0,8(sp)
    800020cc:	4d09                	li	s10,2
    800020ce:	b5d9                	j	80001f94 <fromhost+0xf54>

00000000800020d0 <reg_x26_init>:
    800020d0:	e022                	sd	s0,0(sp)
    800020d2:	ce76                	sw	t4,28(sp)
    800020d4:	2bac84f7          	0x2bac84f7

00000000800020d8 <reg_x27_init>:
    800020d8:	0002                	c.slli64	zero
    800020da:	0000                	unimp
    800020dc:	0000                	unimp
	...

00000000800020e0 <reg_x28_init>:
    800020e0:	77b0                	ld	a2,104(a5)
    800020e2:	13d8                	addi	a4,sp,484
    800020e4:	f832                	sd	a2,48(sp)
    800020e6:	0314                	addi	a3,sp,384

00000000800020e8 <reg_x29_init>:
    800020e8:	c554                	sw	a3,12(a0)
    800020ea:	b9fd                	j	80001de8 <fromhost+0xda8>
    800020ec:	7626                	ld	a2,104(sp)
    800020ee:	2fee                	fld	ft11,216(sp)

00000000800020f0 <reg_x30_init>:
    800020f0:	8008                	0x8008
    800020f2:	ffff                	0xffff
    800020f4:	ffff                	0xffff
    800020f6:	ffff                	0xffff

00000000800020f8 <reg_x31_init>:
    800020f8:	e5719a23          	sh	s7,-428(gp) # 80002c64 <_end+0x654>
    800020fc:	457d                	li	a0,31
    800020fe:	ae58                	fsd	fa4,152(a2)

0000000080002100 <begin_signature>:
    80002100:	00e9                	addi	ra,ra,26
    80002102:	494975af          	0x494975af
    80002106:	          	0x89fa428f

0000000080002108 <reg_x1_output>:
    80002108:	89fa                	mv	s3,t5
    8000210a:	01770e97          	auipc	t4,0x1770
    8000210e:	b85c                	fsd	fa5,176(s0)

0000000080002110 <reg_x2_output>:
    80002110:	3af0                	fld	fa2,240(a3)
    80002112:	5a8e871b          	addiw	a4,t4,1448
    80002116:	4991                	li	s3,4

0000000080002118 <reg_x3_output>:
    80002118:	f552                	sd	s4,168(sp)
    8000211a:	9e6b0f97          	auipc	t6,0x9e6b0
    8000211e:	5be1                	li	s7,-8

0000000080002120 <reg_x4_output>:
    80002120:	6ab8                	ld	a4,80(a3)
    80002122:	2534                	fld	fa3,72(a0)
    80002124:	61c6                	ld	gp,80(sp)
    80002126:	          	flw	fa7,-761(a4)

0000000080002128 <reg_x5_output>:
    80002128:	45ded077          	0x45ded077
    8000212c:	221003c7          	fmsub.d	ft7,ft0,ft1,ft4,rne

0000000080002130 <reg_x6_output>:
    80002130:	4544                	lw	s1,12(a0)
    80002132:	c3a5                	beqz	a5,80002192 <reg_x18_output+0x2>
    80002134:	dfde                	sw	s7,252(sp)
    80002136:	0431                	addi	s0,s0,12

0000000080002138 <reg_x7_output>:
    80002138:	effd                	bnez	a5,80002236 <test_memory+0x36>
    8000213a:	fc99c62b          	0xfc99c62b
    8000213e:	d244                	sw	s1,36(a2)

0000000080002140 <reg_x8_output>:
    80002140:	56f5                	li	a3,-3
    80002142:	3385ffef          	jal	t6,8006147a <__global_pointer$+0x5e66a>
    80002146:	          	0x41757523

0000000080002148 <reg_x9_output>:
    80002148:	4175                	li	sp,29
    8000214a:	a3df 816c 4e13      	0x4e13816ca3df

0000000080002150 <reg_x10_output>:
    80002150:	7b103153          	0x7b103153
    80002154:	3370                	fld	fa2,224(a4)
    80002156:	9ebc                	0x9ebc

0000000080002158 <reg_x11_output>:
    80002158:	38ce                	fld	fa7,240(sp)
    8000215a:	a302                	fsd	ft0,384(sp)
    8000215c:	4cba                	lw	s9,140(sp)
    8000215e:	cc66                	sw	s9,24(sp)

0000000080002160 <reg_x12_output>:
    80002160:	310d                	addiw	sp,sp,-29
    80002162:	9325                	srli	a4,a4,0x29
    80002164:	99f5                	andi	a1,a1,-3
    80002166:	          	0x2ff805a7

0000000080002168 <reg_x13_output>:
    80002168:	2ff8                	fld	fa4,216(a5)
    8000216a:	d3b0                	sw	a2,96(a5)
    8000216c:	c29f 0bd2       	0x203e0bd2c29f

0000000080002170 <reg_x14_output>:
    80002170:	203e                	fld	ft0,456(sp)
    80002172:	15e76277          	0x15e76277
    80002176:	e468                	sd	a0,200(s0)

0000000080002178 <reg_x15_output>:
    80002178:	9cc9                	0x9cc9
    8000217a:	4bb2                	lw	s7,12(sp)
    8000217c:	ed061fcf          	0xed061fcf

0000000080002180 <reg_x16_output>:
    80002180:	38f1                	addiw	a7,a7,-4
    80002182:	14988027          	0x14988027
    80002186:	f176                	sd	t4,160(sp)

0000000080002188 <reg_x17_output>:
    80002188:	4124                	lw	s1,64(a0)
    8000218a:	b110                	fsd	fa2,32(a0)
    8000218c:	23c8                	fld	fa0,128(a5)
    8000218e:	b662                	fsd	fs8,296(sp)

0000000080002190 <reg_x18_output>:
    80002190:	ca4b4be7          	0xca4b4be7
    80002194:	9940                	0x9940
    80002196:	          	0xb9589ca7

0000000080002198 <reg_x19_output>:
    80002198:	b958                	fsd	fa4,176(a0)
    8000219a:	929c                	0x929c
    8000219c:	aa4a                	fsd	fs2,272(sp)
    8000219e:	217d                	addiw	sp,sp,31

00000000800021a0 <reg_x20_output>:
    800021a0:	09df0f97          	auipc	t6,0x9df0
    800021a4:	b584                	fsd	fs1,40(a1)
    800021a6:	ba6d                	j	80001b60 <fromhost+0xb20>

00000000800021a8 <reg_x21_output>:
    800021a8:	0cc5                	addi	s9,s9,17
    800021aa:	8488                	0x8488
    800021ac:	e806                	sd	ra,16(sp)
    800021ae:	4590                	lw	a2,8(a1)

00000000800021b0 <reg_x22_output>:
    800021b0:	db75                	beqz	a4,800021a4 <reg_x20_output+0x4>
    800021b2:	d2cc                	sw	a1,36(a3)
    800021b4:	774c                	ld	a1,168(a4)
    800021b6:	3818                	fld	fa4,48(s0)

00000000800021b8 <reg_x23_output>:
    800021b8:	24c4                	fld	fs1,136(s1)
    800021ba:	64c4                	ld	s1,136(s1)
    800021bc:	6e1c3e97          	auipc	t4,0x6e1c3

00000000800021c0 <reg_x24_output>:
    800021c0:	6db05377          	0x6db05377
    800021c4:	5fe1                	li	t6,-8
    800021c6:	          	0x4dc8b60b

00000000800021c8 <reg_x25_output>:
    800021c8:	4dc8                	lw	a0,28(a1)
    800021ca:	f810                	sd	a2,48(s0)
    800021cc:	dbad                	beqz	a5,8000213e <reg_x7_output+0x6>
    800021ce:	          	0xc7d41e93

00000000800021d0 <reg_x26_output>:
    800021d0:	c7d4                	sw	a3,12(a5)
    800021d2:	7219                	lui	tp,0xfffe6
    800021d4:	00d9b82f          	amoadd.d	a6,a3,(s3)

00000000800021d8 <reg_x27_output>:
    800021d8:	26c0                	fld	fs0,136(a3)
    800021da:	8ad9                	andi	a3,a3,22
    800021dc:	89c9978f          	0x89c9978f

00000000800021e0 <reg_x28_output>:
    800021e0:	4d0e                	lw	s10,192(sp)
    800021e2:	9741                	srai	a4,a4,0x30
    800021e4:	29e3566b          	0x29e3566b

00000000800021e8 <reg_x29_output>:
    800021e8:	a2c0                	fsd	fs0,128(a3)
    800021ea:	5b1d                	li	s6,-25
    800021ec:	f171c6c3          	fmadd.s	fa3,ft3,fs7,ft10,rmm

00000000800021f0 <reg_x30_output>:
    800021f0:	0284d033          	divu	zero,s1,s0
    800021f4:	a8df 187f       	0xdf187fa8df

00000000800021f8 <reg_x31_output>:
    800021f8:	00df 2070 f306      	0xf306207000df
    800021fe:	feb6                	sd	a3,376(sp)

0000000080002200 <test_memory>:
    80002200:	ab5e                	fsd	fs7,400(sp)
    80002202:	5efc                	lw	a5,124(a3)
    80002204:	19f9                	addi	s3,s3,-2
    80002206:	8f4e                	mv	t5,s3
    80002208:	de62                	sw	s8,60(sp)
    8000220a:	af820733          	0xaf820733
    8000220e:	7e84ab9b          	0x7e84ab9b
    80002212:	7426                	ld	s0,104(sp)
    80002214:	21a8                	fld	fa0,64(a1)
    80002216:	db20                	sw	s0,112(a4)
    80002218:	c719                	beqz	a4,80002226 <test_memory+0x26>
    8000221a:	42a8                	lw	a0,64(a3)
    8000221c:	b528fc3f eb5e506c 	0xeb5e506cb528fc3f
    80002224:	536297eb          	0x536297eb
    80002228:	e809                	bnez	s0,8000223a <test_memory+0x3a>
    8000222a:	f862                	sd	s8,48(sp)
    8000222c:	ecd8                	sd	a4,152(s1)
    8000222e:	6b5a                	ld	s6,400(sp)
    80002230:	3bff                	0x3bff
    80002232:	e8da                	sd	s6,80(sp)
    80002234:	1ca8                	addi	a0,sp,632
    80002236:	f431                	bnez	s0,80002182 <reg_x16_output+0x2>
    80002238:	9dc9c84b          	0x9dc9c84b
    8000223c:	8671                	srai	a2,a2,0x1c
    8000223e:	a4a4                	fsd	fs1,72(s1)
    80002240:	2dc1                	addiw	s11,s11,16
    80002242:	fd5d                	bnez	a0,80002200 <test_memory>
    80002244:	a8be                	fsd	fa5,80(sp)
    80002246:	2c333197          	auipc	gp,0x2c333
    8000224a:	08e9f74f          	fnmadd.s	fa4,fs3,fa4,ft1
    8000224e:	6aff                	0x6aff
    80002250:	759f 7619 9c57      	0x9c577619759f
    80002256:	86b38f33          	0x86b38f33
    8000225a:	2f8e                	fld	ft11,192(sp)
    8000225c:	174d                	addi	a4,a4,-13
    8000225e:	e708                	sd	a0,8(a4)
    80002260:	30ea                	fld	ft1,184(sp)
    80002262:	e884                	sd	s1,16(s1)
    80002264:	de7e                	sw	t6,60(sp)
    80002266:	f8a6                	sd	s1,112(sp)
    80002268:	9d01                	subw	a0,a0,s0
    8000226a:	738d04a7          	0x738d04a7
    8000226e:	0df5                	addi	s11,s11,29
    80002270:	0466d0a3          	0x466d0a3
    80002274:	e1f9                	bnez	a1,8000233a <test_memory+0x13a>
    80002276:	9364                	0x9364
    80002278:	ca2d4077          	0xca2d4077
    8000227c:	905c416f          	jal	sp,7ffc6b80 <_start-0x39480>
    80002280:	3ff9                	addiw	t6,t6,-2
    80002282:	b78c                	fsd	fa1,40(a5)
    80002284:	228aa34f          	fnmadd.d	ft6,fs5,fs0,ft4,rdn
    80002288:	102b42bb          	0x102b42bb
    8000228c:	953504cb          	0x953504cb
    80002290:	c83b6f0f          	0xc83b6f0f
    80002294:	f42a                	sd	a0,40(sp)
    80002296:	081fc6ef          	jal	a3,800feb16 <__global_pointer$+0xfbd06>
    8000229a:	a255                	j	8000243e <test_memory+0x23e>
    8000229c:	7d64ceef          	jal	t4,8004ea72 <__global_pointer$+0x4bc62>
    800022a0:	4601                	li	a2,0
    800022a2:	8689                	srai	a3,a3,0x2
    800022a4:	a7e4                	fsd	fs1,200(a5)
    800022a6:	29b1                	addiw	s3,s3,12
    800022a8:	5c4a                	lw	s8,176(sp)
    800022aa:	67a0                	ld	s0,72(a5)
    800022ac:	4f64                	lw	s1,92(a4)
    800022ae:	442883a7          	0x442883a7
    800022b2:	9ca8                	0x9ca8
    800022b4:	0b59755b          	0xb59755b
    800022b8:	78a66d17          	auipc	s10,0x78a66
    800022bc:	bbd5                	j	800020b0 <reg_x22_init>
    800022be:	c23c                	sw	a5,64(a2)
    800022c0:	4f9d                	li	t6,7
    800022c2:	6bfc                	ld	a5,208(a5)
    800022c4:	a208                	fsd	fa0,0(a2)
    800022c6:	eec1                	bnez	a3,8000235e <test_memory+0x15e>
    800022c8:	0fbd                	addi	t6,t6,15
    800022ca:	b45f c349 6679      	0x6679c349b45f
    800022d0:	78fc                	ld	a5,240(s1)
    800022d2:	9c1d                	subw	s0,s0,a5
    800022d4:	a21fca4f          	fnmadd.d	fs4,ft11,ft1,fs4,rmm
    800022d8:	bd68b42f          	0xbd68b42f
    800022dc:	8187009b          	addiw	ra,a4,-2024
    800022e0:	b76a                	fsd	fs10,424(sp)
    800022e2:	625c                	ld	a5,128(a2)
    800022e4:	5b18                	lw	a4,48(a4)
    800022e6:	aac4d383          	lhu	t2,-1364(s1)
    800022ea:	d051                	beqz	s0,8000226e <test_memory+0x6e>
    800022ec:	8880a023          	sw	s0,-1920(ra)
    800022f0:	e0d8                	sd	a4,128(s1)
    800022f2:	b009                	j	80001af4 <fromhost+0xab4>
    800022f4:	909d                	srli	s1,s1,0x27
    800022f6:	8dc9                	or	a1,a1,a0
    800022f8:	a01a                	fsd	ft6,0(sp)
    800022fa:	637d                	lui	t1,0x1f
    800022fc:	2cb5                	addiw	s9,s9,13
    800022fe:	bbfe                	fsd	ft11,496(sp)
    80002300:	6288                	ld	a0,0(a3)
    80002302:	83ea                	mv	t2,s10
    80002304:	0e85                	addi	t4,t4,1
    80002306:	68d2                	ld	a7,272(sp)
    80002308:	7338                	ld	a4,96(a4)
    8000230a:	358c                	fld	fa1,40(a1)
    8000230c:	b7cc                	fsd	fa1,168(a5)
    8000230e:	1315                	addi	t1,t1,-27
    80002310:	74447dcf          	0x74447dcf
    80002314:	6532                	ld	a0,264(sp)
    80002316:	b0dc                	fsd	fa5,160(s1)
    80002318:	c9f2                	sw	t3,208(sp)
    8000231a:	f5d5                	bnez	a1,800022c6 <test_memory+0xc6>
    8000231c:	d105                	beqz	a0,8000223c <test_memory+0x3c>
    8000231e:	176c                	addi	a1,sp,940
    80002320:	0d1d                	addi	s10,s10,7
    80002322:	185692db          	0x185692db
    80002326:	aea8                	fsd	fa0,88(a3)
    80002328:	0791                	addi	a5,a5,4
    8000232a:	4ddf 00d1 421d      	0x421d00d14ddf
    80002330:	153a                	slli	a0,a0,0x2e
    80002332:	b772                	fsd	ft8,424(sp)
    80002334:	4175facb          	fnmsub.s	fs5,fa1,fs7,fs0
    80002338:	89b2                	mv	s3,a2
    8000233a:	ba65e8e7          	0xba65e8e7
    8000233e:	b358                	fsd	fa4,160(a4)
    80002340:	a6d2                	fsd	fs4,328(sp)
    80002342:	3834                	fld	fa3,112(s0)
    80002344:	f3a5                	bnez	a5,800022a4 <test_memory+0xa4>
    80002346:	eea2                	sd	s0,344(sp)
    80002348:	4f6e                	lw	t5,216(sp)
    8000234a:	7201                	lui	tp,0xfffe0
    8000234c:	f8f6                	sd	t4,112(sp)
    8000234e:	9c18                	0x9c18
    80002350:	15d8d433          	0x15d8d433
    80002354:	8080                	0x8080
    80002356:	8581                	c.srai64	a1
    80002358:	0fea6ebb          	0xfea6ebb
    8000235c:	e0eafc23          	0xe0eafc23
    80002360:	bf54                	fsd	fa3,184(a4)
    80002362:	9be6                	add	s7,s7,s9
    80002364:	891d                	andi	a0,a0,7
    80002366:	2a98                	fld	fa4,16(a3)
    80002368:	fc11                	bnez	s0,80002284 <test_memory+0x84>
    8000236a:	fa3d                	bnez	a2,800022e0 <test_memory+0xe0>
    8000236c:	d7b0                	sw	a2,104(a5)
    8000236e:	9278                	0x9278
    80002370:	0418                	addi	a4,sp,512
    80002372:	a854                	fsd	fa3,144(s0)
    80002374:	5834                	lw	a3,112(s0)
    80002376:	485090c3          	fmadd.s	ft1,ft1,ft5,fs1,rtz
    8000237a:	93d9                	srli	a5,a5,0x36
    8000237c:	ca7c                	sw	a5,84(a2)
    8000237e:	fade                	sd	s7,368(sp)
    80002380:	02d4                	addi	a3,sp,324
    80002382:	f8f5                	bnez	s1,80002376 <test_memory+0x176>
    80002384:	cd82                	sw	zero,216(sp)
    80002386:	98e0f217          	auipc	tp,0x98e0f
    8000238a:	5cbc                	lw	a5,120(s1)
    8000238c:	90ad                	srli	s1,s1,0x2b
    8000238e:	898a                	mv	s3,sp
    80002390:	cf0e                	sw	gp,156(sp)
    80002392:	8559                	srai	a0,a0,0x16
    80002394:	1d25                	addi	s10,s10,-23
    80002396:	eb35                	bnez	a4,8000240a <test_memory+0x20a>
    80002398:	be19                	j	80001eae <fromhost+0xe6e>
    8000239a:	c87c                	sw	a5,84(s0)
    8000239c:	a9812527          	fsw	fs8,-1398(sp)
    800023a0:	c688                	sw	a0,8(a3)
    800023a2:	98c4                	0x98c4
    800023a4:	b029                	j	80001bae <fromhost+0xb6e>
    800023a6:	32ee                	fld	ft5,248(sp)
    800023a8:	2be5                	addiw	s7,s7,25
    800023aa:	f7cd                	bnez	a5,80002354 <test_memory+0x154>
    800023ac:	0abaa647          	fmsub.d	fa2,fs5,fa1,ft1,rdn
    800023b0:	147c                	addi	a5,sp,556
    800023b2:	de45                	beqz	a2,8000236a <test_memory+0x16a>
    800023b4:	9b6bfa63          	bgeu	s7,s6,80001568 <fromhost+0x528>
    800023b8:	78a4                	ld	s1,112(s1)
    800023ba:	c200                	sw	s0,0(a2)
    800023bc:	51cd                	li	gp,-13
    800023be:	a528960b          	0xa528960b
    800023c2:	30df 597d 420f      	0x420f597d30df
    800023c8:	d0d7664f          	fnmadd.s	fa2,fa4,fa3,fs10,unknown
    800023cc:	cc15                	beqz	s0,80002408 <test_memory+0x208>
    800023ce:	4d8ccf0b          	0x4d8ccf0b
    800023d2:	d755                	beqz	a4,8000237e <test_memory+0x17e>
    800023d4:	5150                	lw	a2,36(a0)
    800023d6:	d9df0e03          	lb	t3,-611(t5) # 33212d9d <_start-0x4cded263>
    800023da:	9bd4                	0x9bd4
    800023dc:	268a                	fld	fa3,128(sp)
    800023de:	efe2                	sd	s8,472(sp)
    800023e0:	2b71                	addiw	s6,s6,28
    800023e2:	f6bd                	bnez	a3,80002350 <test_memory+0x150>
    800023e4:	b978                	fsd	fa4,240(a0)
    800023e6:	eb6e                	sd	s11,400(sp)
    800023e8:	42cf64ef          	jal	s1,800f8814 <__global_pointer$+0xf5a04>
    800023ec:	595c                	lw	a5,52(a0)
    800023ee:	62f0                	ld	a2,192(a3)
    800023f0:	81ad                	srli	a1,a1,0xb
    800023f2:	d516                	sw	t0,168(sp)
    800023f4:	b025                	j	80001c1c <fromhost+0xbdc>
    800023f6:	b845                	j	80001ca6 <fromhost+0xc66>
    800023f8:	45a0                	lw	s0,72(a1)
    800023fa:	f7df 246e 2d84      	0x2d84246ef7df
    80002400:	94a5                	srai	s1,s1,0x29
    80002402:	dd65                	beqz	a0,800023fa <test_memory+0x1fa>
    80002404:	d0b6662f          	0xd0b6662f
    80002408:	00bc                	addi	a5,sp,72
    8000240a:	5152                	lw	sp,52(sp)
    8000240c:	8b95                	andi	a5,a5,5
    8000240e:	4b135fef          	jal	t6,800380be <__global_pointer$+0x352ae>
    80002412:	186dde23          	0x186dde23
    80002416:	218e                	fld	ft3,192(sp)
    80002418:	fa1d                	bnez	a2,8000234e <test_memory+0x14e>
    8000241a:	5b3a                	lw	s6,172(sp)
    8000241c:	61ff                	0x61ff
    8000241e:	2230                	fld	fa2,64(a2)
    80002420:	9709                	srai	a4,a4,0x22
    80002422:	58ff                	0x58ff
    80002424:	bfe3ca47          	fmsub.q	fs4,ft7,ft10,fs7,rmm
    80002428:	17caaf4f          	fnmadd.q	ft10,fs5,ft8,ft2,rdn
    8000242c:	98f1                	andi	s1,s1,-4
    8000242e:	9bc0                	0x9bc0
    80002430:	eb36                	sd	a3,400(sp)
    80002432:	dc72                	sw	t3,56(sp)
    80002434:	9588                	0x9588
    80002436:	7874341b          	0x7874341b
    8000243a:	b40c                	fsd	fa1,40(s0)
    8000243c:	45b4                	lw	a3,72(a1)
    8000243e:	d890                	sw	a2,48(s1)
    80002440:	4066                	0x4066
    80002442:	a378b49b          	0xa378b49b
    80002446:	f42e                	sd	a1,40(sp)
    80002448:	f368                	sd	a0,224(a4)
    8000244a:	9644                	0x9644
    8000244c:	92d0                	0x92d0
    8000244e:	37c5                	addiw	a5,a5,-15
    80002450:	fda56f4f          	0xfda56f4f
    80002454:	2329                	addiw	t1,t1,10
    80002456:	5351                	li	t1,-12
    80002458:	7d25                	lui	s10,0xfffe9
    8000245a:	8229                	srli	a2,a2,0xa
    8000245c:	107a                	c.slli	zero,0x3e
    8000245e:	a1ee                	fsd	fs11,192(sp)
    80002460:	e289                	bnez	a3,80002462 <test_memory+0x262>
    80002462:	d1127ecb          	fnmsub.s	ft9,ft4,fa7,fs10
    80002466:	64d0                	ld	a2,136(s1)
    80002468:	efcb5d67          	0xefcb5d67
    8000246c:	184c                	addi	a1,sp,52
    8000246e:	2f10                	fld	fa2,24(a4)
    80002470:	e4de                	sd	s7,72(sp)
    80002472:	2dff                	0x2dff
    80002474:	e3d9                	bnez	a5,800024fa <test_memory+0x2fa>
    80002476:	8892ba9b          	0x8892ba9b
    8000247a:	3833d297          	auipc	t0,0x3833d
    8000247e:	70c2                	ld	ra,48(sp)
    80002480:	0fc4                	addi	s1,sp,980
    80002482:	7273d1e3          	bge	t2,t2,800033a4 <__global_pointer$+0x594>
    80002486:	5e89                	li	t4,-30
    80002488:	08761bd3          	fsub.s	fs7,fa2,ft7,rtz
    8000248c:	d8ae                	sw	a1,112(sp)
    8000248e:	dc59                	beqz	s0,8000242c <test_memory+0x22c>
    80002490:	9e26                	add	t3,t3,s1
    80002492:	ae0a                	fsd	ft2,280(sp)
    80002494:	a771                	j	80002c20 <_end+0x610>
    80002496:	1579                	addi	a0,a0,-2
    80002498:	f786                	sd	ra,488(sp)
    8000249a:	7c22                	ld	s8,40(sp)
    8000249c:	9234                	0x9234
    8000249e:	e4a1                	bnez	s1,800024e6 <test_memory+0x2e6>
    800024a0:	a76a                	fsd	fs10,392(sp)
    800024a2:	44de                	lw	s1,212(sp)
    800024a4:	5596                	lw	a1,100(sp)
    800024a6:	a5f5                	j	80002b92 <_end+0x582>
    800024a8:	538b1bd7          	0x538b1bd7
    800024ac:	e5f4                	sd	a3,200(a1)
    800024ae:	f49a                	sd	t1,104(sp)
    800024b0:	0f0386af          	0xf0386af
    800024b4:	c1a5                	beqz	a1,80002514 <test_memory+0x314>
    800024b6:	1659                	addi	a2,a2,-10
    800024b8:	d190abab          	0xd190abab
    800024bc:	4dc1                	li	s11,16
    800024be:	64d6                	ld	s1,336(sp)
    800024c0:	f256                	sd	s5,288(sp)
    800024c2:	b57f225b          	0xb57f225b
    800024c6:	4a16                	lw	s4,68(sp)
    800024c8:	b9c0                	fsd	fs0,176(a1)
    800024ca:	8c51                	or	s0,s0,a2
    800024cc:	9e27d74f          	fnmadd.q	fa4,fa5,ft2,fs3,unknown
    800024d0:	87c4                	0x87c4
    800024d2:	7696                	ld	a3,352(sp)
    800024d4:	3074                	fld	fa3,224(s0)
    800024d6:	0f52                	slli	t5,t5,0x14
    800024d8:	4412                	lw	s0,4(sp)
    800024da:	4c2c                	lw	a1,88(s0)
    800024dc:	be9d                	j	80002052 <reg_x10_init+0x2>
    800024de:	462d                	li	a2,11
    800024e0:	cf65                	beqz	a4,800025d8 <test_memory+0x3d8>
    800024e2:	1b21                	addi	s6,s6,-24
    800024e4:	48d0                	lw	a2,20(s1)
    800024e6:	1fa6                	slli	t6,t6,0x29
    800024e8:	0180                	addi	s0,sp,192
    800024ea:	067c                	addi	a5,sp,780
    800024ec:	9f81bbab          	0x9f81bbab
    800024f0:	e68dfcf3          	csrrci	s9,0xe68,27
    800024f4:	12b6                	slli	t0,t0,0x2d
    800024f6:	e5af34e3          	0xe5af34e3
    800024fa:	87b4                	0x87b4
    800024fc:	3fc4f773          	csrrci	a4,0x3fc,9
    80002500:	0a13eff7          	0xa13eff7
    80002504:	a038                	fsd	fa4,64(s0)
    80002506:	7f2e9707          	0x7f2e9707
    8000250a:	dc1e3d47          	0xdc1e3d47
    8000250e:	1c41                	addi	s8,s8,-16
    80002510:	3890                	fld	fa2,48(s1)
    80002512:	696d                	lui	s2,0x1b
    80002514:	40426e9b          	0x40426e9b
    80002518:	46ea93db          	0x46ea93db
    8000251c:	346d                	addiw	s0,s0,-5
    8000251e:	61de                	ld	gp,464(sp)
    80002520:	2472                	fld	fs0,280(sp)
    80002522:	87a1                	srai	a5,a5,0x8
    80002524:	d4fc                	sw	a5,108(s1)
    80002526:	3ffa                	fld	ft11,440(sp)
    80002528:	9f84                	0x9f84
    8000252a:	4e784ab7          	lui	s5,0x4e784
    8000252e:	1831f9cb          	fnmsub.s	fs3,ft3,ft3,ft3
    80002532:	481f7127          	0x481f7127
    80002536:	9bea                	add	s7,s7,s10
    80002538:	18d1                	addi	a7,a7,-12
    8000253a:	1e3e                	slli	t3,t3,0x2f
    8000253c:	159f 5909 b8bf      	0xb8bf5909159f
    80002542:	fafe                	sd	t6,368(sp)
    80002544:	8779                	srai	a4,a4,0x1e
    80002546:	d765                	beqz	a4,8000252e <test_memory+0x32e>
    80002548:	a060                	fsd	fs0,192(s0)
    8000254a:	57bbfa8b          	0x57bbfa8b
    8000254e:	d0ac                	sw	a1,96(s1)
    80002550:	6962a933          	0x6962a933
    80002554:	0795                	addi	a5,a5,5
    80002556:	7e312263          	0x7e312263
    8000255a:	d065                	beqz	s0,8000253a <test_memory+0x33a>
    8000255c:	a996                	fsd	ft5,208(sp)
    8000255e:	e0cb0727          	0xe0cb0727
    80002562:	8fc2                	mv	t6,a6
    80002564:	2d9a                	fld	fs11,384(sp)
    80002566:	2ccd                	addiw	s9,s9,19
    80002568:	3ed21143          	fmadd.q	ft2,ft4,fa3,ft7,rtz
    8000256c:	9e9f 42d9 dd34      	0xdd3442d99e9f
    80002572:	7aff                	0x7aff
    80002574:	bc843027          	fsd	fs0,-1088(s0)
    80002578:	157f                	0x157f
    8000257a:	47d75ed7          	0x47d75ed7
    8000257e:	631a                	ld	t1,384(sp)
    80002580:	3508                	fld	fa0,40(a0)
    80002582:	f6b0                	sd	a2,104(a3)
    80002584:	b161                	j	8000220c <test_memory+0xc>
    80002586:	865c                	0x865c
    80002588:	e3d5                	bnez	a5,8000262c <_end+0x1c>
    8000258a:	2e0de63b          	0x2e0de63b
    8000258e:	aa2d                	j	800026c8 <_end+0xb8>
    80002590:	c2ce4e97          	auipc	t4,0xc2ce4
    80002594:	d9a5664f          	fnmadd.s	fa2,fa0,fs10,fs11,unknown
    80002598:	10a4                	addi	s1,sp,104
    8000259a:	4e6d                	li	t3,27
    8000259c:	1f1c3b53          	fdiv.q	fs6,fs8,fa7,rup
    800025a0:	3ee9                	addiw	t4,t4,-6
    800025a2:	20c4                	fld	fs1,128(s1)
    800025a4:	5f66                	lw	t5,120(sp)
    800025a6:	0c5f6b8f          	0xc5f6b8f
    800025aa:	9691                	srai	a3,a3,0x24
    800025ac:	47a5                	li	a5,9
    800025ae:	150355d3          	0x150355d3
    800025b2:	c9a8                	sw	a0,80(a1)
    800025b4:	c65e                	sw	s7,12(sp)
    800025b6:	d179                	beqz	a0,8000257c <test_memory+0x37c>
    800025b8:	aa6c                	fsd	fa1,208(a2)
    800025ba:	3cf1a6b3          	0x3cf1a6b3
    800025be:	1569cd1b          	0x1569cd1b
    800025c2:	254f33db          	0x254f33db
    800025c6:	b24fe7db          	0xb24fe7db
    800025ca:	37e8                	fld	fa0,232(a5)
    800025cc:	063a                	slli	a2,a2,0xe
    800025ce:	a9e4f88f          	0xa9e4f88f
    800025d2:	e062                	sd	s8,0(sp)
    800025d4:	bc8f8af7          	0xbc8f8af7
    800025d8:	c0a3df07          	0xc0a3df07
    800025dc:	be12                	fsd	ft4,312(sp)
    800025de:	09851793          	0x9851793
    800025e2:	d07a                	sw	t5,32(sp)
    800025e4:	205a                	fld	ft0,400(sp)
    800025e6:	67f4                	ld	a3,200(a5)
    800025e8:	f0b8                	sd	a4,96(s1)
    800025ea:	2f86                	fld	ft11,64(sp)
    800025ec:	d052                	sw	s4,32(sp)
    800025ee:	7d00                	ld	s0,56(a0)
    800025f0:	dce9                	beqz	s1,800025ca <test_memory+0x3ca>
    800025f2:	03921e47          	fmsub.d	ft8,ft4,fs9,ft0,rtz
    800025f6:	35ae                	fld	fa1,232(sp)
    800025f8:	b489                	j	8000203a <reg_x7_init+0x2>
    800025fa:	0fcc                	addi	a1,sp,980
    800025fc:	0305                	addi	t1,t1,1
    800025fe:	2cbc                	fld	fa5,88(s1)

0000000080002600 <loop_count>:
    80002600:	0040                	addi	s0,sp,4
	...

Disassembly of section .riscv.attributes:

0000000000000000 <.riscv.attributes>:
   0:	1e41                	addi	t3,t3,-16
   2:	0000                	unimp
   4:	7200                	ld	s0,32(a2)
   6:	7369                	lui	t1,0xffffa
   8:	01007663          	bgeu	zero,a6,14 <_start-0x7fffffec>
   c:	0014                	0x14
   e:	0000                	unimp
  10:	7205                	lui	tp,0xfffe1
  12:	3676                	fld	fa2,376(sp)
  14:	6934                	ld	a3,80(a0)
  16:	7032                	0x7032
  18:	5f30                	lw	a2,120(a4)
  1a:	326d                	addiw	tp,tp,-5
  1c:	3070                	fld	fa2,224(s0)
	...
