
build/test20:     file format elf64-littleriscv


Disassembly of section .text.init:

0000000080000000 <_start>:
    80000000:	05c0006f          	j	8000005c <reset_vector>

0000000080000004 <trap_vector>:
    80000004:	34202f73          	csrr	t5,mcause
    80000008:	00800f93          	li	t6,8
    8000000c:	03ff0a63          	beq	t5,t6,80000040 <write_tohost>
    80000010:	00900f93          	li	t6,9
    80000014:	03ff0663          	beq	t5,t6,80000040 <write_tohost>
    80000018:	00b00f93          	li	t6,11
    8000001c:	03ff0263          	beq	t5,t6,80000040 <write_tohost>
    80000020:	80000f17          	auipc	t5,0x80000
    80000024:	fe0f0f13          	addi	t5,t5,-32 # 0 <_start-0x80000000>
    80000028:	000f0463          	beqz	t5,80000030 <trap_vector+0x2c>
    8000002c:	000f0067          	jr	t5
    80000030:	34202f73          	csrr	t5,mcause
    80000034:	000f5463          	bgez	t5,8000003c <handle_exception>
    80000038:	0040006f          	j	8000003c <handle_exception>

000000008000003c <handle_exception>:
    8000003c:	5391e193          	ori	gp,gp,1337

0000000080000040 <write_tohost>:
    80000040:	00001f17          	auipc	t5,0x1
    80000044:	fc3f2023          	sw	gp,-64(t5) # 80001000 <tohost>
    80000048:	000902b7          	lui	t0,0x90
    8000004c:	0012829b          	addiw	t0,t0,1
    80000050:	00c29293          	slli	t0,t0,0xc
    80000054:	0002af83          	lw	t6,0(t0) # 90000 <_start-0x7ff70000>
    80000058:	fe9ff06f          	j	80000040 <write_tohost>

000000008000005c <reset_vector>:
    8000005c:	00000093          	li	ra,0
    80000060:	00000113          	li	sp,0
    80000064:	00000193          	li	gp,0
    80000068:	00000213          	li	tp,0
    8000006c:	00000293          	li	t0,0
    80000070:	00000313          	li	t1,0
    80000074:	00000393          	li	t2,0
    80000078:	00000413          	li	s0,0
    8000007c:	00000493          	li	s1,0
    80000080:	00000513          	li	a0,0
    80000084:	00000593          	li	a1,0
    80000088:	00000613          	li	a2,0
    8000008c:	00000693          	li	a3,0
    80000090:	00000713          	li	a4,0
    80000094:	00000793          	li	a5,0
    80000098:	00000813          	li	a6,0
    8000009c:	00000893          	li	a7,0
    800000a0:	00000913          	li	s2,0
    800000a4:	00000993          	li	s3,0
    800000a8:	00000a13          	li	s4,0
    800000ac:	00000a93          	li	s5,0
    800000b0:	00000b13          	li	s6,0
    800000b4:	00000b93          	li	s7,0
    800000b8:	00000c13          	li	s8,0
    800000bc:	00000c93          	li	s9,0
    800000c0:	00000d13          	li	s10,0
    800000c4:	00000d93          	li	s11,0
    800000c8:	00000e13          	li	t3,0
    800000cc:	00000e93          	li	t4,0
    800000d0:	00000f13          	li	t5,0
    800000d4:	00000f93          	li	t6,0
    800000d8:	f1402573          	csrr	a0,mhartid
    800000dc:	00051063          	bnez	a0,800000dc <reset_vector+0x80>
    800000e0:	00000297          	auipc	t0,0x0
    800000e4:	01028293          	addi	t0,t0,16 # 800000f0 <reset_vector+0x94>
    800000e8:	30529073          	csrw	mtvec,t0
    800000ec:	18005073          	csrwi	satp,0
    800000f0:	00000297          	auipc	t0,0x0
    800000f4:	02428293          	addi	t0,t0,36 # 80000114 <reset_vector+0xb8>
    800000f8:	30529073          	csrw	mtvec,t0
    800000fc:	0010029b          	addiw	t0,zero,1
    80000100:	03529293          	slli	t0,t0,0x35
    80000104:	fff28293          	addi	t0,t0,-1
    80000108:	3b029073          	csrw	pmpaddr0,t0
    8000010c:	01f00293          	li	t0,31
    80000110:	3a029073          	csrw	pmpcfg0,t0
    80000114:	30405073          	csrwi	mie,0
    80000118:	00000297          	auipc	t0,0x0
    8000011c:	01428293          	addi	t0,t0,20 # 8000012c <reset_vector+0xd0>
    80000120:	30529073          	csrw	mtvec,t0
    80000124:	30205073          	csrwi	medeleg,0
    80000128:	30305073          	csrwi	mideleg,0
    8000012c:	00000193          	li	gp,0
    80000130:	00000297          	auipc	t0,0x0
    80000134:	ed428293          	addi	t0,t0,-300 # 80000004 <trap_vector>
    80000138:	30529073          	csrw	mtvec,t0
    8000013c:	00100513          	li	a0,1
    80000140:	01f51513          	slli	a0,a0,0x1f
    80000144:	00055c63          	bgez	a0,8000015c <reset_vector+0x100>
    80000148:	0ff0000f          	fence
    8000014c:	00100193          	li	gp,1
    80000150:	05d00893          	li	a7,93
    80000154:	00000513          	li	a0,0
    80000158:	00000073          	ecall
    8000015c:	80000297          	auipc	t0,0x80000
    80000160:	ea428293          	addi	t0,t0,-348 # 0 <_start-0x80000000>
    80000164:	00028a63          	beqz	t0,80000178 <reset_vector+0x11c>
    80000168:	10529073          	csrw	stvec,t0
    8000016c:	0000b2b7          	lui	t0,0xb
    80000170:	1092829b          	addiw	t0,t0,265
    80000174:	30229073          	csrw	medeleg,t0
    80000178:	30005073          	csrwi	mstatus,0
    8000017c:	00000297          	auipc	t0,0x0
    80000180:	01428293          	addi	t0,t0,20 # 80000190 <reset_vector+0x134>
    80000184:	34129073          	csrw	mepc,t0
    80000188:	f1402573          	csrr	a0,mhartid
    8000018c:	30200073          	mret
    80000190:	0200006f          	j	800001b0 <test_start>

0000000080000194 <crash_backward>:
    80000194:	0ff0000f          	fence
    80000198:	00018063          	beqz	gp,80000198 <crash_backward+0x4>
    8000019c:	00119193          	slli	gp,gp,0x1
    800001a0:	0011e193          	ori	gp,gp,1
    800001a4:	05d00893          	li	a7,93
    800001a8:	00018513          	mv	a0,gp
    800001ac:	00000073          	ecall

00000000800001b0 <test_start>:
    800001b0:	00002f97          	auipc	t6,0x2
    800001b4:	e50f8f93          	addi	t6,t6,-432 # 80002000 <hidden_data>
    800001b8:	000fb003          	ld	zero,0(t6)
    800001bc:	008fb083          	ld	ra,8(t6)
    800001c0:	010fb103          	ld	sp,16(t6)
    800001c4:	018fb183          	ld	gp,24(t6)
    800001c8:	020fb203          	ld	tp,32(t6)
    800001cc:	028fb283          	ld	t0,40(t6)
    800001d0:	030fb303          	ld	t1,48(t6)
    800001d4:	038fb383          	ld	t2,56(t6)
    800001d8:	040fb403          	ld	s0,64(t6)
    800001dc:	048fb483          	ld	s1,72(t6)
    800001e0:	050fb503          	ld	a0,80(t6)
    800001e4:	058fb583          	ld	a1,88(t6)
    800001e8:	060fb603          	ld	a2,96(t6)
    800001ec:	068fb683          	ld	a3,104(t6)
    800001f0:	070fb703          	ld	a4,112(t6)
    800001f4:	078fb783          	ld	a5,120(t6)
    800001f8:	080fb803          	ld	a6,128(t6)
    800001fc:	088fb883          	ld	a7,136(t6)
    80000200:	090fb903          	ld	s2,144(t6)
    80000204:	098fb983          	ld	s3,152(t6)
    80000208:	0a0fba03          	ld	s4,160(t6)
    8000020c:	0a8fba83          	ld	s5,168(t6)
    80000210:	0b0fbb03          	ld	s6,176(t6)
    80000214:	0b8fbb83          	ld	s7,184(t6)
    80000218:	0c0fbc03          	ld	s8,192(t6)
    8000021c:	0c8fbc83          	ld	s9,200(t6)
    80000220:	0d0fbd03          	ld	s10,208(t6)
    80000224:	0d8fbd83          	ld	s11,216(t6)
    80000228:	0e0fbe03          	ld	t3,224(t6)
    8000022c:	0e8fbe83          	ld	t4,232(t6)
    80000230:	0f0fbf03          	ld	t5,240(t6)
    80000234:	0f8fbf83          	ld	t6,248(t6)
    80000238:	0040006f          	j	8000023c <pseg_0>

000000008000023c <pseg_0>:
    8000023c:	033997b3          	mulh	a5,s3,s3
    80000240:	2cd00593          	li	a1,717
    80000244:	8bb00f93          	li	t6,-1861
    80000248:	01fffc33          	and	s8,t6,t6
    8000024c:	fbd00113          	li	sp,-67
    80000250:	03c34f3b          	divw	t5,t1,t3
    80000254:	6ea00a13          	li	s4,1770
    80000258:	79ba2413          	slti	s0,s4,1947
    8000025c:	4ca58913          	addi	s2,a1,1226
    80000260:	63400713          	li	a4,1588
    80000264:	19600d13          	li	s10,406
    80000268:	55a00513          	li	a0,1370
    8000026c:	028bf9b3          	remu	s3,s7,s0
    80000270:	a9710193          	addi	gp,sp,-1385
    80000274:	02c65cb3          	divu	s9,a2,a2
    80000278:	70000093          	li	ra,1792
    8000027c:	ee400293          	li	t0,-284
    80000280:	00a71b33          	sll	s6,a4,a0
    80000284:	0118d3b3          	srl	t2,a7,a7
    80000288:	0250d8b3          	divu	a7,ra,t0
    8000028c:	02630e3b          	mulw	t3,t1,t1
    80000290:	f021d2e3          	bge	gp,sp,80000194 <crash_backward>
    80000294:	01ad54bb          	srlw	s1,s10,s10
    80000298:	03c8edbb          	remw	s11,a7,t3
    8000029c:	1f200e93          	li	t4,498
    800002a0:	a8900813          	li	a6,-1399
    800002a4:	010e86b3          	add	a3,t4,a6
    800002a8:	0f5a0213          	addi	tp,s4,245
    800002ac:	b0c00313          	li	t1,-1268
    800002b0:	c8000a93          	li	s5,-896
    800002b4:	ef4240e3          	blt	tp,s4,80000194 <crash_backward>
    800002b8:	01535633          	srl	a2,t1,s5
    800002bc:	00090e13          	mv	t3,s2
    800002c0:	ec006ae3          	bltu	zero,zero,80000194 <crash_backward>
    800002c4:	6ad00213          	li	tp,1709
    800002c8:	00100f13          	li	t5,1
    800002cc:	000e0b13          	mv	s6,t3
    800002d0:	00002717          	auipc	a4,0x2
    800002d4:	f0e70713          	addi	a4,a4,-242 # 800021de <reg_x27_output+0x6>
    800002d8:	f3200493          	li	s1,-206
    800002dc:	0ef00a93          	li	s5,239
    800002e0:	03a2e63b          	remw	a2,t0,s10
    800002e4:	4a400d13          	li	s10,1188
    800002e8:	2f573123          	sd	s5,738(a4)
    800002ec:	03ff1f13          	slli	t5,t5,0x3f
    800002f0:	00948dbb          	addw	s11,s1,s1
    800002f4:	00003c97          	auipc	s9,0x3
    800002f8:	844c8c93          	addi	s9,s9,-1980 # 80002b38 <_end+0x528>
    800002fc:	02c60333          	mul	t1,a2,a2
    80000300:	18a00813          	li	a6,394
    80000304:	35300e93          	li	t4,851
    80000308:	00529fb3          	sll	t6,t0,t0
    8000030c:	00002617          	auipc	a2,0x2
    80000310:	6bf60613          	addi	a2,a2,1727 # 800029cb <_end+0x3bb>
    80000314:	03dee933          	rem	s2,t4,t4
    80000318:	76b20a13          	addi	s4,tp,1899 # 76b <_start-0x7ffff895>
    8000031c:	00f7d433          	srl	s0,a5,a5
    80000320:	3bf00d93          	li	s11,959
    80000324:	bdf00093          	li	ra,-1057
    80000328:	fff00693          	li	a3,-1
    8000032c:	91c60283          	lb	t0,-1764(a2)
    80000330:	01e6c6b3          	xor	a3,a3,t5
    80000334:	00100293          	li	t0,1
    80000338:	4014dbb3          	sra	s7,s1,ra
    8000033c:	010d65b3          	or	a1,s10,a6
    80000340:	00100113          	li	sp,1
    80000344:	015a99bb          	sllw	s3,s5,s5
    80000348:	82bc8503          	lb	a0,-2005(s9)
    8000034c:	00002097          	auipc	ra,0x2
    80000350:	eca08093          	addi	ra,ra,-310 # 80002216 <test_memory+0x16>
    80000354:	1050b123          	sd	t0,258(ra)
    80000358:	3be00493          	li	s1,958
    8000035c:	00841fbb          	sllw	t6,s0,s0
    80000360:	03ec7cb3          	remu	s9,s8,t5
    80000364:	00002517          	auipc	a0,0x2
    80000368:	e1d50513          	addi	a0,a0,-483 # 80002181 <reg_x16_output+0x1>
    8000036c:	03f11113          	slli	sp,sp,0x3f
    80000370:	44350d03          	lb	s10,1091(a0)
    80000374:	c4700313          	li	t1,-953
    80000378:	00de78b3          	and	a7,t3,a3
    8000037c:	02a83fb3          	mulhu	t6,a6,a0
    80000380:	03f29293          	slli	t0,t0,0x3f
    80000384:	fff00613          	li	a2,-1
    80000388:	66badfb7          	lui	t6,0x66bad
    8000038c:	58100993          	li	s3,1409
    80000390:	026d873b          	mulw	a4,s11,t1
    80000394:	00000093          	li	ra,0
    80000398:	0334c833          	div	a6,s1,s3
    8000039c:	0115b4b3          	sltu	s1,a1,a7
    800003a0:	02aff33b          	remuw	t1,t6,a0
    800003a4:	73e00d13          	li	s10,1854
    800003a8:	bc200813          	li	a6,-1086
    800003ac:	5c004e63          	bltz	zero,80000988 <crash_forward>
    800003b0:	00564633          	xor	a2,a2,t0
    800003b4:	fff00393          	li	t2,-1
    800003b8:	01084db3          	xor	s11,a6,a6
    800003bc:	0023c3b3          	xor	t2,t2,sp
    800003c0:	00000c93          	li	s9,0
    800003c4:	bf000a93          	li	s5,-1040
    800003c8:	41e8d99b          	sraiw	s3,a7,0x1e
    800003cc:	00028a13          	mv	s4,t0
    800003d0:	00c07e33          	and	t3,zero,a2
    800003d4:	015aebb3          	or	s7,s5,s5
    800003d8:	ca300b13          	li	s6,-861
    800003dc:	01e8e7b3          	or	a5,a7,t5
    800003e0:	5b909463          	bne	ra,s9,80000988 <crash_forward>
    800003e4:	0074fc33          	and	s8,s1,t2
    800003e8:	00002597          	auipc	a1,0x2
    800003ec:	38258593          	addi	a1,a1,898 # 8000276a <_end+0x15a>
    800003f0:	000a0513          	mv	a0,s4
    800003f4:	00976fb3          	or	t6,a4,s1
    800003f8:	344d0213          	addi	tp,s10,836
    800003fc:	b165b323          	sd	s6,-1274(a1)
    80000400:	d84d0ae3          	beq	s10,tp,80000194 <crash_backward>
    80000404:	005e6eb3          	or	t4,t3,t0
    80000408:	59cee063          	bltu	t4,t3,80000988 <crash_forward>
    8000040c:	d917d4e3          	bge	a5,a7,80000194 <crash_backward>
    80000410:	28000913          	li	s2,640
    80000414:	002c61b3          	or	gp,s8,sp
    80000418:	012b543b          	srlw	s0,s6,s2
    8000041c:	37600793          	li	a5,886
    80000420:	006dbe33          	sltu	t3,s11,t1
    80000424:	34800413          	li	s0,840
    80000428:	56006063          	bltu	zero,zero,80000988 <crash_forward>
    8000042c:	00001597          	auipc	a1,0x1
    80000430:	73658593          	addi	a1,a1,1846 # 80001b62 <fromhost+0xb22>
    80000434:	00003a17          	auipc	s4,0x3
    80000438:	8baa0a13          	addi	s4,s4,-1862 # 80002cee <_end+0x6de>
    8000043c:	fe000493          	li	s1,-32
    80000440:	bb400513          	li	a0,-1100
    80000444:	8cfa3523          	sd	a5,-1846(s4)
    80000448:	01a6933b          	sllw	t1,a3,s10
    8000044c:	02a79133          	mulh	sp,a5,a0
    80000450:	018c06bb          	addw	a3,s8,s8
    80000454:	c5942093          	slti	ra,s0,-935
    80000458:	40405b3b          	sraw	s6,zero,tp
    8000045c:	cb500793          	li	a5,-843
    80000460:	417a0ab3          	sub	s5,s4,s7
    80000464:	00841f33          	sll	t5,s0,s0
    80000468:	6f25bf23          	sd	s2,1790(a1)
    8000046c:	00002297          	auipc	t0,0x2
    80000470:	33528293          	addi	t0,t0,821 # 800027a1 <_end+0x191>
    80000474:	00002a97          	auipc	s5,0x2
    80000478:	777a8a93          	addi	s5,s5,1911 # 80002beb <_end+0x5db>
    8000047c:	47200113          	li	sp,1138
    80000480:	02b5eeb3          	rem	t4,a1,a1
    80000484:	00002597          	auipc	a1,0x2
    80000488:	c9458593          	addi	a1,a1,-876 # 80002118 <reg_x3_output>
    8000048c:	00002417          	auipc	s0,0x2
    80000490:	1ba40413          	addi	s0,s0,442 # 80002646 <_end+0x36>
    80000494:	cfc00b13          	li	s6,-772
    80000498:	036b053b          	mulw	a0,s6,s6
    8000049c:	d8000693          	li	a3,-640
    800004a0:	80978313          	addi	t1,a5,-2039
    800004a4:	96bace03          	lbu	t3,-1685(s5)
    800004a8:	0094cfb3          	xor	t6,s1,s1
    800004ac:	75600993          	li	s3,1878
    800004b0:	03256d3b          	remw	s10,a0,s2
    800004b4:	031cc0b3          	div	ra,s9,a7
    800004b8:	30500713          	li	a4,773
    800004bc:	00ab4833          	xor	a6,s6,a0
    800004c0:	02d11a33          	mulh	s4,sp,a3
    800004c4:	00100d93          	li	s11,1
    800004c8:	4cf35063          	bge	t1,a5,80000988 <crash_forward>
    800004cc:	4ab5cf03          	lbu	t5,1195(a1)
    800004d0:	01ee01bb          	addw	gp,t3,t5
    800004d4:	d1e00393          	li	t2,-738
    800004d8:	03fd9d93          	slli	s11,s11,0x3f
    800004dc:	e212c203          	lbu	tp,-479(t0)
    800004e0:	02771bb3          	mulh	s7,a4,t2
    800004e4:	f7842d23          	sw	s8,-134(s0)
    800004e8:	fff00c13          	li	s8,-1
    800004ec:	01bc4c33          	xor	s8,s8,s11
    800004f0:	03398cb3          	mul	s9,s3,s3
    800004f4:	23200993          	li	s3,562
    800004f8:	00100d13          	li	s10,1
    800004fc:	36e00393          	li	t2,878
    80000500:	02036f33          	rem	t5,t1,zero
    80000504:	04600793          	li	a5,70
    80000508:	13e00593          	li	a1,318
    8000050c:	46004e63          	bltz	zero,80000988 <crash_forward>
    80000510:	006308b3          	add	a7,t1,t1
    80000514:	018d7633          	and	a2,s10,s8
    80000518:	01b66933          	or	s2,a2,s11
    8000051c:	03fd1d13          	slli	s10,s10,0x3f
    80000520:	11900113          	li	sp,281
    80000524:	00002b97          	auipc	s7,0x2
    80000528:	345b8b93          	addi	s7,s7,837 # 80002869 <_end+0x259>
    8000052c:	fff00093          	li	ra,-1
    80000530:	4431cc63          	blt	gp,gp,80000988 <crash_forward>
    80000534:	a6fbe303          	lwu	t1,-1425(s7)
    80000538:	40f7dabb          	sraw	s5,a5,a5
    8000053c:	f2b00213          	li	tp,-213
    80000540:	0247ae33          	mulhsu	t3,a5,tp
    80000544:	01a0c0b3          	xor	ra,ra,s10
    80000548:	001ff1b3          	and	gp,t6,ra
    8000054c:	f5800693          	li	a3,-168
    80000550:	00b59cbb          	sllw	s9,a1,a1
    80000554:	76a98493          	addi	s1,s3,1898
    80000558:	e3768b13          	addi	s6,a3,-457
    8000055c:	4023873b          	subw	a4,t2,sp
    80000560:	01a1e533          	or	a0,gp,s10
    80000564:	42db7263          	bgeu	s6,a3,80000988 <crash_forward>
    80000568:	43264063          	blt	a2,s2,80000988 <crash_forward>
    8000056c:	0139d43b          	srlw	s0,s3,s3
    80000570:	c2a1c2e3          	blt	gp,a0,80000194 <crash_backward>
    80000574:	00100313          	li	t1,1
    80000578:	00002c97          	auipc	s9,0x2
    8000057c:	bbbc8c93          	addi	s9,s9,-1093 # 80002133 <reg_x6_output+0x3>
    80000580:	b0500e13          	li	t3,-1275
    80000584:	025753bb          	divuw	t2,a4,t0
    80000588:	0252c133          	div	sp,t0,t0
    8000058c:	37700b13          	li	s6,887
    80000590:	03042933          	mulhsu	s2,s0,a6
    80000594:	64800193          	li	gp,1608
    80000598:	02f5443b          	divw	s0,a0,a5
    8000059c:	08300d93          	li	s11,131
    800005a0:	00fb2a33          	slt	s4,s6,a5
    800005a4:	036b3f33          	mulhu	t5,s6,s6
    800005a8:	4054de9b          	sraiw	t4,s1,0x5
    800005ac:	00002397          	auipc	t2,0x2
    800005b0:	57138393          	addi	t2,t2,1393 # 80002b1d <_end+0x50d>
    800005b4:	80400493          	li	s1,-2044
    800005b8:	00100d13          	li	s10,1
    800005bc:	029e1c33          	mulh	s8,t3,s1
    800005c0:	255cb703          	ld	a4,597(s9)
    800005c4:	00002117          	auipc	sp,0x2
    800005c8:	f1f10113          	addi	sp,sp,-225 # 800024e3 <test_memory+0x2e3>
    800005cc:	3fd00793          	li	a5,1021
    800005d0:	e9b00993          	li	s3,-357
    800005d4:	03bddab3          	divu	s5,s11,s11
    800005d8:	023195b3          	mulh	a1,gp,gp
    800005dc:	07954a93          	xori	s5,a0,121
    800005e0:	02b8873b          	mulw	a4,a7,a1
    800005e4:	01eeddb3          	srl	s11,t4,t5
    800005e8:	03f31313          	slli	t1,t1,0x3f
    800005ec:	82100c93          	li	s9,-2015
    800005f0:	d14fca93          	xori	s5,t6,-748
    800005f4:	00000713          	li	a4,0
    800005f8:	2a600413          	li	s0,678
    800005fc:	dfe00e93          	li	t4,-514
    80000600:	03deb0b3          	mulhu	ra,t4,t4
    80000604:	03784bb3          	div	s7,a6,s7
    80000608:	fff00213          	li	tp,-1
    8000060c:	00624233          	xor	tp,tp,t1
    80000610:	0045f633          	and	a2,a1,tp
    80000614:	006668b3          	or	a7,a2,t1
    80000618:	03fd1d13          	slli	s10,s10,0x3f
    8000061c:	00319fbb          	sllw	t6,gp,gp
    80000620:	00100a13          	li	s4,1
    80000624:	f7800e13          	li	t3,-136
    80000628:	0337c6b3          	div	a3,a5,s3
    8000062c:	fff00813          	li	a6,-1
    80000630:	35160c63          	beq	a2,a7,80000988 <crash_forward>
    80000634:	03fa1a13          	slli	s4,s4,0x3f
    80000638:	01a84833          	xor	a6,a6,s10
    8000063c:	00844f33          	xor	t5,s0,s0
    80000640:	00000d93          	li	s11,0
    80000644:	3a700f93          	li	t6,935
    80000648:	00000993          	li	s3,0
    8000064c:	00000213          	li	tp,0
    80000650:	5f800793          	li	a5,1528
    80000654:	00002417          	auipc	s0,0x2
    80000658:	8d940413          	addi	s0,s0,-1831 # 80001f2d <fromhost+0xeed>
    8000065c:	c4600313          	li	t1,-954
    80000660:	03cce4bb          	remw	s1,s9,t3
    80000664:	310431a3          	sd	a6,771(s0)
    80000668:	fcd00093          	li	ra,-51
    8000066c:	01077533          	and	a0,a4,a6
    80000670:	02c35f3b          	divuw	t5,t1,a2
    80000674:	bf908193          	addi	gp,ra,-1031
    80000678:	a1200e93          	li	t4,-1518
    8000067c:	406788bb          	subw	a7,a5,t1
    80000680:	01a562b3          	or	t0,a0,s10
    80000684:	f21b6613          	ori	a2,s6,-223
    80000688:	8db00793          	li	a5,-1829
    8000068c:	d7600493          	li	s1,-650
    80000690:	c1700613          	li	a2,-1001
    80000694:	da4e0d93          	addi	s11,t3,-604
    80000698:	e8360e13          	addi	t3,a2,-381
    8000069c:	ec000893          	li	a7,-320
    800006a0:	2ece5463          	bge	t3,a2,80000988 <crash_forward>
    800006a4:	ae30e8e3          	bltu	ra,gp,80000194 <crash_backward>
    800006a8:	03178733          	mul	a4,a5,a7
    800006ac:	2c49ee63          	bltu	s3,tp,80000988 <crash_forward>
    800006b0:	407d86b3          	sub	a3,s11,t2
    800006b4:	01dfbbb3          	sltu	s7,t6,t4
    800006b8:	ff2114a3          	sh	s2,-23(sp)
    800006bc:	0297eab3          	rem	s5,a5,s1
    800006c0:	c7f00c93          	li	s9,-897
    800006c4:	fff00593          	li	a1,-1
    800006c8:	9b13d903          	lhu	s2,-1615(t2)
    800006cc:	0145c5b3          	xor	a1,a1,s4
    800006d0:	00b5fc33          	and	s8,a1,a1
    800006d4:	03949433          	mulh	s0,s1,s9
    800006d8:	01436b33          	or	s6,t1,s4
    800006dc:	02857f33          	remu	t5,a0,s0
    800006e0:	12600413          	li	s0,294
    800006e4:	c4100b13          	li	s6,-959
    800006e8:	036b0cbb          	mulw	s9,s6,s6
    800006ec:	1b500a93          	li	s5,437
    800006f0:	38100793          	li	a5,897
    800006f4:	0354c2b3          	div	t0,s1,s5
    800006f8:	01665eb3          	srl	t4,a2,s6
    800006fc:	00f46e33          	or	t3,s0,a5
    80000700:	415a8bbb          	subw	s7,s5,s5
    80000704:	3bc00713          	li	a4,956
    80000708:	55500993          	li	s3,1365
    8000070c:	0c500e93          	li	t4,197
    80000710:	71e00693          	li	a3,1822
    80000714:	020058b3          	divu	a7,zero,zero
    80000718:	4d200513          	li	a0,1234
    8000071c:	90000c93          	li	s9,-1792
    80000720:	c7603313          	sltiu	t1,zero,-906
    80000724:	00e70fbb          	addw	t6,a4,a4
    80000728:	002150b3          	srl	ra,sp,sp
    8000072c:	62b8e213          	ori	tp,a7,1579
    80000730:	02a9ca33          	div	s4,s3,a0
    80000734:	40c58db3          	sub	s11,a1,a2
    80000738:	00078393          	mv	t2,a5
    8000073c:	01dee7b3          	or	a5,t4,t4
    80000740:	00038d13          	mv	s10,t2
    80000744:	00002817          	auipc	a6,0x2
    80000748:	91980813          	addi	a6,a6,-1767 # 8000205d <reg_x11_init+0x5>
    8000074c:	30800713          	li	a4,776
    80000750:	2cd70093          	addi	ra,a4,717
    80000754:	22177a63          	bgeu	a4,ra,80000988 <crash_forward>
    80000758:	e9200c13          	li	s8,-366
    8000075c:	00002117          	auipc	sp,0x2
    80000760:	c0610113          	addi	sp,sp,-1018 # 80002362 <test_memory+0x162>
    80000764:	03c11483          	lh	s1,60(sp)
    80000768:	328823a3          	sw	s0,807(a6)
    8000076c:	00c658b3          	srl	a7,a2,a2
    80000770:	4a500193          	li	gp,1189
    80000774:	33f00a93          	li	s5,831
    80000778:	023c2633          	mulhsu	a2,s8,gp
    8000077c:	19c00593          	li	a1,412
    80000780:	02b6f933          	remu	s2,a3,a1
    80000784:	dde00413          	li	s0,-546
    80000788:	00842bb3          	slt	s7,s0,s0
    8000078c:	3db00f13          	li	t5,987
    80000790:	017b923b          	sllw	tp,s7,s7
    80000794:	62400293          	li	t0,1572
    80000798:	025ace3b          	divw	t3,s5,t0
    8000079c:	01eceb33          	or	s6,s9,t5
    800007a0:	03cb8133          	mul	sp,s7,t3
    800007a4:	28e00513          	li	a0,654
    800007a8:	0070989b          	slliw	a7,ra,0x7
    800007ac:	000f8c13          	mv	s8,t6
    800007b0:	00000293          	li	t0,0
    800007b4:	4027deb3          	sra	t4,a5,sp
    800007b8:	9def1ee3          	bne	t5,t5,80000194 <crash_backward>
    800007bc:	02d999b3          	mulh	s3,s3,a3
    800007c0:	40abd933          	sra	s2,s7,a0
    800007c4:	00000313          	li	t1,0
    800007c8:	0c600d13          	li	s10,198
    800007cc:	def00a93          	li	s5,-529
    800007d0:	00100493          	li	s1,1
    800007d4:	00a52cb3          	slt	s9,a0,a0
    800007d8:	00100213          	li	tp,1
    800007dc:	00843133          	sltu	sp,s0,s0
    800007e0:	000c0413          	mv	s0,s8
    800007e4:	02e701bb          	mulw	gp,a4,a4
    800007e8:	36100913          	li	s2,865
    800007ec:	44e33f93          	sltiu	t6,t1,1102
    800007f0:	015ad6bb          	srlw	a3,s5,s5
    800007f4:	037bddb3          	divu	s11,s7,s7
    800007f8:	03f21213          	slli	tp,tp,0x3f
    800007fc:	188c4663          	blt	s8,s0,80000988 <crash_forward>
    80000800:	f4700b13          	li	s6,-185
    80000804:	fff00813          	li	a6,-1
    80000808:	012d39b3          	sltu	s3,s10,s2
    8000080c:	03f49493          	slli	s1,s1,0x3f
    80000810:	fff00613          	li	a2,-1
    80000814:	00002e97          	auipc	t4,0x2
    80000818:	edbe8e93          	addi	t4,t4,-293 # 800026ef <_end+0xdf>
    8000081c:	00964633          	xor	a2,a2,s1
    80000820:	00484833          	xor	a6,a6,tp
    80000824:	016b4e33          	xor	t3,s6,s6
    80000828:	010bff33          	and	t5,s7,a6
    8000082c:	00002297          	auipc	t0,0x2
    80000830:	d4328293          	addi	t0,t0,-701 # 8000256f <test_memory+0x36f>
    80000834:	00cbf7b3          	and	a5,s7,a2
    80000838:	03d2e533          	rem	a0,t0,t4
    8000083c:	00002897          	auipc	a7,0x2
    80000840:	24888893          	addi	a7,a7,584 # 80002a84 <_end+0x474>
    80000844:	0097e733          	or	a4,a5,s1
    80000848:	87200c93          	li	s9,-1934
    8000084c:	00002d17          	auipc	s10,0x2
    80000850:	f49d0d13          	addi	s10,s10,-183 # 80002795 <_end+0x185>
    80000854:	02e92c33          	mulhsu	s8,s2,a4
    80000858:	bf6d31a3          	sd	s6,-1053(s10)
    8000085c:	a4f88a23          	sb	a5,-1452(a7)
    80000860:	00002f97          	auipc	t6,0x2
    80000864:	be0f8f93          	addi	t6,t6,-1056 # 80002440 <test_memory+0x240>
    80000868:	03dafab3          	remu	s5,s5,t4
    8000086c:	dd9eb8a3          	sd	s9,-559(t4)
    80000870:	fe1c8d93          	addi	s11,s9,-31
    80000874:	f7500b93          	li	s7,-139
    80000878:	2bd00993          	li	s3,701
    8000087c:	92d00393          	li	t2,-1747
    80000880:	07e00b13          	li	s6,126
    80000884:	e24fb423          	sd	tp,-472(t6)
    80000888:	91bce6e3          	bltu	s9,s11,80000194 <crash_backward>
    8000088c:	004f6a33          	or	s4,t5,tp
    80000890:	59700693          	li	a3,1431
    80000894:	914f00e3          	beq	t5,s4,80000194 <crash_backward>
    80000898:	0d398193          	addi	gp,s3,211
    8000089c:	0163d5b3          	srl	a1,t2,s6
    800008a0:	00aa5933          	srl	s2,s4,a0
    800008a4:	30c00393          	li	t2,780
    800008a8:	00001a17          	auipc	s4,0x1
    800008ac:	732a0a13          	addi	s4,s4,1842 # 80001fda <fromhost+0xf9a>
    800008b0:	00002c97          	auipc	s9,0x2
    800008b4:	ec7c8c93          	addi	s9,s9,-313 # 80002777 <_end+0x167>
    800008b8:	00100213          	li	tp,1
    800008bc:	49f00513          	li	a0,1183
    800008c0:	91800a93          	li	s5,-1768
    800008c4:	59ea2483          	lw	s1,1438(s4)
    800008c8:	03f21213          	slli	tp,tp,0x3f
    800008cc:	02dbf33b          	remuw	t1,s7,a3
    800008d0:	01539fb3          	sll	t6,t2,s5
    800008d4:	f6d2ee03          	lwu	t3,-147(t0)
    800008d8:	008450bb          	srlw	ra,s0,s0
    800008dc:	e03c92a3          	sh	gp,-507(s9)
    800008e0:	20200f13          	li	t5,514
    800008e4:	fff00813          	li	a6,-1
    800008e8:	00484833          	xor	a6,a6,tp
    800008ec:	010775b3          	and	a1,a4,a6
    800008f0:	0045ec33          	or	s8,a1,tp
    800008f4:	01e54eb3          	xor	t4,a0,t5
    800008f8:	0040006f          	j	800008fc <reg_dump>

00000000800008fc <reg_dump>:
    800008fc:	00002097          	auipc	ra,0x2
    80000900:	d0408093          	addi	ra,ra,-764 # 80002600 <loop_count>
    80000904:	0000a103          	lw	sp,0(ra)
    80000908:	fff10193          	addi	gp,sp,-1
    8000090c:	0030a023          	sw	gp,0(ra)
    80000910:	920116e3          	bnez	sp,8000023c <pseg_0>
    80000914:	00001097          	auipc	ra,0x1
    80000918:	7ec08093          	addi	ra,ra,2028 # 80002100 <begin_signature>
    8000091c:	0000b023          	sd	zero,0(ra)
    80000920:	0020b823          	sd	sp,16(ra)
    80000924:	0030bc23          	sd	gp,24(ra)
    80000928:	0240b023          	sd	tp,32(ra)
    8000092c:	0260b823          	sd	t1,48(ra)
    80000930:	0270bc23          	sd	t2,56(ra)
    80000934:	0480b023          	sd	s0,64(ra)
    80000938:	0490b423          	sd	s1,72(ra)
    8000093c:	04a0b823          	sd	a0,80(ra)
    80000940:	04b0bc23          	sd	a1,88(ra)
    80000944:	06c0b023          	sd	a2,96(ra)
    80000948:	06d0b423          	sd	a3,104(ra)
    8000094c:	06e0b823          	sd	a4,112(ra)
    80000950:	06f0bc23          	sd	a5,120(ra)
    80000954:	0900b023          	sd	a6,128(ra)
    80000958:	0920b823          	sd	s2,144(ra)
    8000095c:	0930bc23          	sd	s3,152(ra)
    80000960:	0b50b423          	sd	s5,168(ra)
    80000964:	0b60b823          	sd	s6,176(ra)
    80000968:	0b70bc23          	sd	s7,184(ra)
    8000096c:	0d80b023          	sd	s8,192(ra)
    80000970:	0db0bc23          	sd	s11,216(ra)
    80000974:	0fc0b023          	sd	t3,224(ra)
    80000978:	0fd0b423          	sd	t4,232(ra)
    8000097c:	0fe0b823          	sd	t5,240(ra)
    80000980:	0ff0bc23          	sd	t6,248(ra)
    80000984:	0200006f          	j	800009a4 <test_end>

0000000080000988 <crash_forward>:
    80000988:	0ff0000f          	fence
    8000098c:	00018063          	beqz	gp,8000098c <crash_forward+0x4>
    80000990:	00119193          	slli	gp,gp,0x1
    80000994:	0011e193          	ori	gp,gp,1
    80000998:	05d00893          	li	a7,93
    8000099c:	00018513          	mv	a0,gp
    800009a0:	00000073          	ecall

00000000800009a4 <test_end>:
    800009a4:	0ff0000f          	fence
    800009a8:	00100193          	li	gp,1
    800009ac:	05d00893          	li	a7,93
    800009b0:	00000513          	li	a0,0
    800009b4:	00000073          	ecall
    800009b8:	c0001073          	unimp
	...

Disassembly of section .tohost:

0000000080001000 <tohost>:
	...

0000000080001040 <fromhost>:
	...

Disassembly of section .data:

0000000080002000 <hidden_data>:
    80002000:	661a                	ld	a2,384(sp)
    80002002:	1029                	c.nop	-22
    80002004:	a129                	j	8000240e <test_memory+0x20e>
    80002006:	fc6c                	sd	a1,248(s0)

0000000080002008 <reg_x1_init>:
	...

0000000080002010 <reg_x2_init>:
    80002010:	ce0a9cbb          	0xce0a9cbb
    80002014:	b1cdf7e7          	0xb1cdf7e7

0000000080002018 <reg_x3_init>:
    80002018:	375e                	fld	fa4,496(sp)
    8000201a:	e6f2                	sd	t3,328(sp)
    8000201c:	cfa9                	beqz	a5,80002076 <reg_x14_init+0x6>
    8000201e:	1309                	addi	t1,t1,-30

0000000080002020 <reg_x4_init>:
    80002020:	9d3d                	addw	a0,a0,a5
    80002022:	8622                	mv	a2,s0
    80002024:	f8f6                	sd	t4,112(sp)
    80002026:	af62                	fsd	fs8,408(sp)

0000000080002028 <reg_x5_init>:
    80002028:	0005                	c.nop	1
    8000202a:	0000                	unimp
    8000202c:	0000                	unimp
    8000202e:	0800                	addi	s0,sp,16

0000000080002030 <reg_x6_init>:
    80002030:	ffff                	0xffff
    80002032:	ffff                	0xffff
    80002034:	ffff                	0xffff
    80002036:	ffff                	0xffff

0000000080002038 <reg_x7_init>:
    80002038:	7355                	lui	t1,0xffff5
    8000203a:	e7e2                	sd	s8,456(sp)
    8000203c:	0f144e43          	fmadd.q	ft8,fs0,fa7,ft1,rmm

0000000080002040 <reg_x8_init>:
    80002040:	ec5a                	sd	s6,24(sp)
    80002042:	af0c                	fsd	fa1,24(a4)
    80002044:	97357dab          	0x97357dab

0000000080002048 <reg_x9_init>:
    80002048:	bf64                	fsd	fs1,248(a4)
    8000204a:	45b2                	lw	a1,12(sp)
    8000204c:	8198136b          	0x8198136b

0000000080002050 <reg_x10_init>:
    80002050:	ffff                	0xffff
    80002052:	ffff                	0xffff
    80002054:	ffff                	0xffff
    80002056:	ffff                	0xffff

0000000080002058 <reg_x11_init>:
    80002058:	ffff                	0xffff
    8000205a:	ffff                	0xffff
    8000205c:	ffff                	0xffff
    8000205e:	ffff                	0xffff

0000000080002060 <reg_x12_init>:
    80002060:	619f fb4f e1b6      	0xe1b6fb4f619f
    80002066:	57ff                	0x57ff

0000000080002068 <reg_x13_init>:
    80002068:	22624c6f          	jal	s8,8002628e <__global_pointer$+0x2347e>
    8000206c:	03a4                	addi	s1,sp,456
    8000206e:	2ba8                	fld	fa0,80(a5)

0000000080002070 <reg_x14_init>:
	...

0000000080002078 <reg_x15_init>:
	...

0000000080002080 <reg_x16_init>:
    80002080:	ffffff87          	0xffffff87
    80002084:	ffff                	0xffff
    80002086:	ffff                	0xffff

0000000080002088 <reg_x17_init>:
    80002088:	00000007          	0x7
    8000208c:	0000                	unimp
	...

0000000080002090 <reg_x18_init>:
    80002090:	0899                	addi	a7,a7,6
    80002092:	ea44                	sd	s1,144(a2)
    80002094:	06683a63          	0x6683a63

0000000080002098 <reg_x19_init>:
    80002098:	8005                	srli	s0,s0,0x1
    8000209a:	ffff                	0xffff
    8000209c:	ffff                	0xffff
    8000209e:	ffff                	0xffff

00000000800020a0 <reg_x20_init>:
    800020a0:	ffff8007          	0xffff8007
    800020a4:	ffff                	0xffff
    800020a6:	ffff                	0xffff

00000000800020a8 <reg_x21_init>:
    800020a8:	0d2d                	addi	s10,s10,11
    800020aa:	ca16130f          	0xca16130f
    800020ae:	1b2d                	addi	s6,s6,-21

00000000800020b0 <reg_x22_init>:
    800020b0:	df171347          	fmsub.q	ft6,fa4,fa7,fs11,rtz
    800020b4:	b966                	fsd	fs9,176(sp)
    800020b6:	1286                	slli	t0,t0,0x21

00000000800020b8 <reg_x23_init>:
    800020b8:	17c4                	addi	s1,sp,996
    800020ba:	0d48                	addi	a0,sp,660
    800020bc:	5178                	lw	a4,100(a0)
    800020be:	2c65                	addiw	s8,s8,25

00000000800020c0 <reg_x24_init>:
    800020c0:	7cae                	ld	s9,232(sp)
    800020c2:	2b8e                	fld	fs7,192(sp)
    800020c4:	468a                	lw	a3,128(sp)
    800020c6:	          	0x66ecf4d3

00000000800020c8 <reg_x25_init>:
    800020c8:	66ec                	ld	a1,200(a3)
    800020ca:	6c30                	ld	a2,88(s0)
    800020cc:	45ba                	lw	a1,140(sp)
    800020ce:	b259                	j	80001a54 <fromhost+0xa14>

00000000800020d0 <reg_x26_init>:
	...

00000000800020d8 <reg_x27_init>:
    800020d8:	8000                	0x8000
    800020da:	ffff                	0xffff
    800020dc:	ffff                	0xffff
    800020de:	ffff                	0xffff

00000000800020e0 <reg_x28_init>:
	...

00000000800020e8 <reg_x29_init>:
    800020e8:	ffff                	0xffff
    800020ea:	ffff                	0xffff
    800020ec:	ffff                	0xffff
    800020ee:	ffff                	0xffff

00000000800020f0 <reg_x30_init>:
    800020f0:	2ed5                	addiw	t4,t4,21
    800020f2:	fbee                	sd	s11,496(sp)
    800020f4:	6cc1                	lui	s9,0x10
    800020f6:	0d1d                	addi	s10,s10,7

00000000800020f8 <reg_x31_init>:
    800020f8:	1648                	addi	a0,sp,804
    800020fa:	b345                	j	80001e9a <fromhost+0xe5a>
    800020fc:	23da                	fld	ft7,400(sp)
    800020fe:	a78d                	j	80002860 <_end+0x250>

0000000080002100 <begin_signature>:
    80002100:	b038                	fsd	fa4,96(s0)
    80002102:	46880acb          	fnmsub.q	fs5,fa6,fs0,fs0,rne
    80002106:	          	fnmsub.d	fa4,ft11,fa3,ft5,unknown

0000000080002108 <reg_x1_output>:
    80002108:	2adf 9525 4b20      	0x4b2095252adf
    8000210e:	1c50                	addi	a2,sp,564

0000000080002110 <reg_x2_output>:
    80002110:	758d                	lui	a1,0xfffe3
    80002112:	0e456ea3          	0xe456ea3
    80002116:	ab92                	fsd	ft4,464(sp)

0000000080002118 <reg_x3_output>:
    80002118:	d690                	sw	a2,40(a3)
    8000211a:	482cfb0f          	0x482cfb0f
    8000211e:	085a                	slli	a6,a6,0x16

0000000080002120 <reg_x4_output>:
    80002120:	add4                	fsd	fa3,152(a1)
    80002122:	7b49                	lui	s6,0xffff2
    80002124:	d32dee57          	0xd32dee57

0000000080002128 <reg_x5_output>:
    80002128:	9f1e75b7          	lui	a1,0x9f1e7
    8000212c:	5616                	lw	a2,100(sp)
    8000212e:	6126                	ld	sp,72(sp)

0000000080002130 <reg_x6_output>:
    80002130:	7d52                	ld	s10,304(sp)
    80002132:	ffe6                	sd	s9,504(sp)
    80002134:	e3b2                	sd	a2,448(sp)
    80002136:	ea45                	bnez	a2,800021e6 <reg_x28_output+0x6>

0000000080002138 <reg_x7_output>:
    80002138:	1c19                	addi	s8,s8,-26
    8000213a:	c170                	sw	a2,68(a0)
    8000213c:	845734a7          	fsd	ft5,-1975(a4)

0000000080002140 <reg_x8_output>:
    80002140:	0f3824fb          	0xf3824fb
    80002144:	fa47eacb          	fnmsub.d	fs5,fa5,ft4,ft11,unknown

0000000080002148 <reg_x9_output>:
    80002148:	6f71                	lui	t5,0x1c
    8000214a:	7e2c                	ld	a1,120(a2)
    8000214c:	675a                	ld	a4,400(sp)
    8000214e:	4061                	c.li	zero,24

0000000080002150 <reg_x10_output>:
    80002150:	7714                	ld	a3,40(a4)
    80002152:	9b4c                	0x9b4c
    80002154:	3044                	fld	fs1,160(s0)
    80002156:	87c8                	0x87c8

0000000080002158 <reg_x11_output>:
    80002158:	e6b8                	sd	a4,72(a3)
    8000215a:	f8a2                	sd	s0,112(sp)
    8000215c:	807d372b          	0x807d372b

0000000080002160 <reg_x12_output>:
    80002160:	721a                	ld	tp,416(sp)
    80002162:	e74a                	sd	s2,392(sp)
    80002164:	4c5618eb          	0x4c5618eb

0000000080002168 <reg_x13_output>:
    80002168:	39a6                	fld	fs3,104(sp)
    8000216a:	4c88                	lw	a0,24(s1)
    8000216c:	7db4                	ld	a3,120(a1)
    8000216e:	62d6                	ld	t0,336(sp)

0000000080002170 <reg_x14_output>:
    80002170:	25e2                	fld	fa1,24(sp)
    80002172:	8180                	0x8180
    80002174:	54ea                	lw	s1,184(sp)
    80002176:	6585                	lui	a1,0x1

0000000080002178 <reg_x15_output>:
    80002178:	c478                	sw	a4,76(s0)
    8000217a:	e61c                	sd	a5,8(a2)
    8000217c:	8d79                	and	a0,a0,a4
    8000217e:	a185                	j	800025de <test_memory+0x3de>

0000000080002180 <reg_x16_output>:
    80002180:	4701                	li	a4,0
    80002182:	72382487          	flw	fs1,1827(a6)
    80002186:	4b98                	lw	a4,16(a5)

0000000080002188 <reg_x17_output>:
    80002188:	e3f4                	sd	a3,192(a5)
    8000218a:	dd6e                	sw	s11,184(sp)
    8000218c:	cb81                	beqz	a5,8000219c <reg_x19_output+0x4>
    8000218e:	e3bd                	bnez	a5,800021f4 <reg_x30_output+0x4>

0000000080002190 <reg_x18_output>:
    80002190:	146d                	addi	s0,s0,-5
    80002192:	0e95                	addi	t4,t4,5
    80002194:	a24d                	j	80002336 <test_memory+0x136>
    80002196:	971d                	srai	a4,a4,0x27

0000000080002198 <reg_x19_output>:
    80002198:	8da9                	xor	a1,a1,a0
    8000219a:	5298                	lw	a4,32(a3)
    8000219c:	ce2a                	sw	a0,28(sp)
    8000219e:	          	0x73649e53

00000000800021a0 <reg_x20_output>:
    800021a0:	7364                	ld	s1,224(a4)
    800021a2:	2830                	fld	fa2,80(s0)
    800021a4:	a71d                	j	800028ca <_end+0x2ba>
    800021a6:	f4a5                	bnez	s1,8000210e <reg_x1_output+0x6>

00000000800021a8 <reg_x21_output>:
    800021a8:	3107a87b          	0x3107a87b
    800021ac:	1536                	slli	a0,a0,0x2d
    800021ae:	9a86                	add	s5,s5,ra

00000000800021b0 <reg_x22_output>:
    800021b0:	658c                	ld	a1,8(a1)
    800021b2:	1b44f1d3          	fdiv.d	ft3,fs1,fs4
    800021b6:	5bc8                	lw	a0,52(a5)

00000000800021b8 <reg_x23_output>:
    800021b8:	e95e                	sd	s7,144(sp)
    800021ba:	92d4                	0x92d4
    800021bc:	af28                	fsd	fa0,88(a4)
    800021be:	5510                	lw	a2,40(a0)

00000000800021c0 <reg_x24_output>:
    800021c0:	40ab3d5b          	0x40ab3d5b
    800021c4:	8982                	jr	s3
    800021c6:	          	0x3861e227

00000000800021c8 <reg_x25_output>:
    800021c8:	3861                	addiw	a6,a6,-8
    800021ca:	a325                	j	800026f2 <_end+0xe2>
    800021cc:	5fd5                	li	t6,-11
    800021ce:	0f45                	addi	t5,t5,17

00000000800021d0 <reg_x26_output>:
    800021d0:	34b8                	fld	fa4,104(s1)
    800021d2:	97fd                	srai	a5,a5,0x3f
    800021d4:	0762                	slli	a4,a4,0x18
    800021d6:	          	0xe1ee375b

00000000800021d8 <reg_x27_output>:
    800021d8:	e1ee                	sd	s11,192(sp)
    800021da:	03cd                	addi	t2,t2,19
    800021dc:	1c35                	addi	s8,s8,-19
    800021de:	          	0x49e25567

00000000800021e0 <reg_x28_output>:
    800021e0:	49e2                	lw	s3,24(sp)
    800021e2:	473e8ceb          	0x473e8ceb
    800021e6:	d2ca                	sw	s2,100(sp)

00000000800021e8 <reg_x29_output>:
    800021e8:	1850                	addi	a2,sp,52
    800021ea:	8f34                	0x8f34
    800021ec:	ef79                	bnez	a4,800022ca <test_memory+0xca>
    800021ee:	b220                	fsd	fs0,96(a2)

00000000800021f0 <reg_x30_output>:
    800021f0:	8690                	0x8690
    800021f2:	556867af          	0x556867af
    800021f6:	2be4                	fld	fs1,208(a5)

00000000800021f8 <reg_x31_output>:
    800021f8:	8974                	0x8974
    800021fa:	c7e4                	sw	s1,76(a5)
    800021fc:	9d62                	add	s10,s10,s8
    800021fe:	63dd                	lui	t2,0x17

0000000080002200 <test_memory>:
    80002200:	155a                	slli	a0,a0,0x36
    80002202:	ce22                	sw	s0,28(sp)
    80002204:	749f 76e8 0cf3      	0xcf376e8749f
    8000220a:	5be8                	lw	a0,116(a5)
    8000220c:	95d1                	srai	a1,a1,0x34
    8000220e:	df46                	sw	a7,188(sp)
    80002210:	01c0c957          	0x1c0c957
    80002214:	87fbcdcb          	fnmsub.q	fs11,fs7,ft11,fa6,rmm
    80002218:	0ea6ae4f          	fnmadd.q	ft8,fa3,fa0,ft1,rdn
    8000221c:	0d9a                	slli	s11,s11,0x6
    8000221e:	3f86                	fld	ft11,96(sp)
    80002220:	fc06                	sd	ra,56(sp)
    80002222:	55b4                	lw	a3,104(a1)
    80002224:	e6e6                	sd	s9,328(sp)
    80002226:	d2bd                	beqz	a3,8000218c <reg_x17_output+0x4>
    80002228:	977c                	0x977c
    8000222a:	e17a                	sd	t5,128(sp)
    8000222c:	509c                	lw	a5,32(s1)
    8000222e:	1251                	addi	tp,tp,-12
    80002230:	e571                	bnez	a0,800022fc <test_memory+0xfc>
    80002232:	51be                	lw	gp,236(sp)
    80002234:	59391537          	lui	a0,0x59391
    80002238:	9fa2                	add	t6,t6,s0
    8000223a:	f528                	sd	a0,104(a0)
    8000223c:	a115                	j	80002660 <_end+0x50>
    8000223e:	207d                	0x207d
    80002240:	3bbbd28f          	0x3bbbd28f
    80002244:	5ec6                	lw	t4,112(sp)
    80002246:	8221912b          	0x8221912b
    8000224a:	e58c                	sd	a1,8(a1)
    8000224c:	3831                	addiw	a6,a6,-20
    8000224e:	ddea6d33          	0xddea6d33
    80002252:	dcee                	sw	s11,120(sp)
    80002254:	7f0a                	ld	t5,160(sp)
    80002256:	01d55577          	0x1d55577
    8000225a:	3be51923          	sh	t5,946(a0) # 593913b2 <_start-0x26c6ec4e>
    8000225e:	0e81faf7          	0xe81faf7
    80002262:	908a                	add	ra,ra,sp
    80002264:	5a5502e7          	jalr	t0,1445(a0)
    80002268:	7c9a                	ld	s9,416(sp)
    8000226a:	f7fc                	sd	a5,232(a5)
    8000226c:	bdfa                	fsd	ft10,248(sp)
    8000226e:	5ffe                	lw	t6,252(sp)
    80002270:	687000ef          	jal	ra,800030f6 <__global_pointer$+0x2e6>
    80002274:	afd8                	fsd	fa4,152(a5)
    80002276:	f8d1                	bnez	s1,8000220a <test_memory+0xa>
    80002278:	b312                	fsd	ft4,416(sp)
    8000227a:	4d46                	lw	s10,80(sp)
    8000227c:	186d                	addi	a6,a6,-5
    8000227e:	8fca                	mv	t6,s2
    80002280:	4a047ecb          	fnmsub.d	ft9,fs0,ft0,fs1
    80002284:	aa69                	j	8000241e <test_memory+0x21e>
    80002286:	a0a5                	j	800022ee <test_memory+0xee>
    80002288:	c8a5                	beqz	s1,800022f8 <test_memory+0xf8>
    8000228a:	5444                	lw	s1,44(s0)
    8000228c:	3af5                	addiw	s5,s5,-3
    8000228e:	d029                	beqz	s0,800021d0 <reg_x26_output>
    80002290:	a852                	fsd	fs4,16(sp)
    80002292:	c164                	sw	s1,68(a0)
    80002294:	0fe6                	slli	t6,t6,0x19
    80002296:	a97f                	0xa97f
    80002298:	bfc9                	j	8000226a <test_memory+0x6a>
    8000229a:	7978                	ld	a4,240(a0)
    8000229c:	bde4                	fsd	fs1,248(a1)
    8000229e:	b8be                	fsd	fa5,112(sp)
    800022a0:	43c59443          	fmadd.d	fs0,fa1,ft8,fs0,rtz
    800022a4:	f759                	bnez	a4,80002232 <test_memory+0x32>
    800022a6:	5e00                	lw	s0,56(a2)
    800022a8:	8b31f683          	0x8b31f683
    800022ac:	ce32                	sw	a2,28(sp)
    800022ae:	9720                	0x9720
    800022b0:	8a0a                	mv	s4,sp
    800022b2:	2c42                	fld	fs8,16(sp)
    800022b4:	0db1                	addi	s11,s11,12
    800022b6:	edfd                	bnez	a1,800023b4 <test_memory+0x1b4>
    800022b8:	672c                	ld	a1,72(a4)
    800022ba:	95e8                	0x95e8
    800022bc:	46d6                	lw	a3,84(sp)
    800022be:	2c14                	fld	fa3,24(s0)
    800022c0:	3a20                	fld	fs0,112(a2)
    800022c2:	c752                	sw	s4,140(sp)
    800022c4:	413d                	li	sp,15
    800022c6:	ea2e                	sd	a1,272(sp)
    800022c8:	b178                	fsd	fa4,224(a0)
    800022ca:	a104                	fsd	fs1,0(a0)
    800022cc:	914f8b57          	0x914f8b57
    800022d0:	98b1                	andi	s1,s1,-20
    800022d2:	c2ac                	sw	a1,64(a3)
    800022d4:	3064                	fld	fs1,224(s0)
    800022d6:	252e                	fld	fa0,200(sp)
    800022d8:	2fb4                	fld	fa3,88(a5)
    800022da:	dc31                	beqz	s0,80002236 <test_memory+0x36>
    800022dc:	27f7f7a3          	0x27f7f7a3
    800022e0:	3e7e                	fld	ft8,504(sp)
    800022e2:	b7e1                	j	800022aa <test_memory+0xaa>
    800022e4:	4f8e                	lw	t6,192(sp)
    800022e6:	6ac6                	ld	s5,80(sp)
    800022e8:	9c4e                	add	s8,s8,s3
    800022ea:	fc50                	sd	a2,184(s0)
    800022ec:	f91f bfe5 7404      	0x7404bfe5f91f
    800022f2:	d178                	sw	a4,100(a0)
    800022f4:	fa64                	sd	s1,240(a2)
    800022f6:	bb58                	fsd	fa4,176(a4)
    800022f8:	0b9a                	slli	s7,s7,0x6
    800022fa:	24febdfb          	0x24febdfb
    800022fe:	13e9                	addi	t2,t2,-6
    80002300:	4ade                	lw	s5,212(sp)
    80002302:	e439ab77          	0xe439ab77
    80002306:	5c2d                	li	s8,-21
    80002308:	fa2a3dd3          	0xfa2a3dd3
    8000230c:	dfd6                	sw	s5,252(sp)
    8000230e:	3106                	fld	ft2,96(sp)
    80002310:	1ac16967          	0x1ac16967
    80002314:	9bc9                	andi	a5,a5,-14
    80002316:	8a30                	0x8a30
    80002318:	8d5f ecca 6a70      	0x6a70ecca8d5f
    8000231e:	6ca32b43          	0x6ca32b43
    80002322:	f159                	bnez	a0,800022a8 <test_memory+0xa8>
    80002324:	161e                	slli	a2,a2,0x27
    80002326:	fd565a67          	0xfd565a67
    8000232a:	3c75                	addiw	s8,s8,-3
    8000232c:	67e0                	ld	s0,200(a5)
    8000232e:	7b2e                	ld	s6,232(sp)
    80002330:	045e                	slli	s0,s0,0x17
    80002332:	74d9ba2b          	0x74d9ba2b
    80002336:	ed51                	bnez	a0,800023d2 <test_memory+0x1d2>
    80002338:	2c44                	fld	fs1,152(s0)
    8000233a:	30d3c2f3          	0x30d3c2f3
    8000233e:	b169                	j	80001fc8 <fromhost+0xf88>
    80002340:	2d95                	addiw	s11,s11,5
    80002342:	c418                	sw	a4,8(s0)
    80002344:	7b92                	ld	s7,288(sp)
    80002346:	2f2e9fc3          	fmadd.q	ft11,ft9,fs2,ft5,rtz
    8000234a:	cf6a                	sw	s10,156(sp)
    8000234c:	882e                	mv	a6,a1
    8000234e:	99ee                	add	s3,s3,s11
    80002350:	2f15                	addiw	t5,t5,5
    80002352:	4bb5                	li	s7,13
    80002354:	6898                	ld	a4,16(s1)
    80002356:	98d317db          	0x98d317db
    8000235a:	a9dd                	j	80002850 <_end+0x240>
    8000235c:	054884d7          	0x54884d7
    80002360:	3c62                	fld	fs8,56(sp)
    80002362:	abb5                	j	800028de <_end+0x2ce>
    80002364:	24dd                	addiw	s1,s1,23
    80002366:	a6c1                	j	80002726 <_end+0x116>
    80002368:	13963133          	0x13963133
    8000236c:	e35ac4cf          	fnmadd.d	fs1,fs5,fs5,ft8,rmm
    80002370:	e2d9                	bnez	a3,800023f6 <test_memory+0x1f6>
    80002372:	ff34dfc3          	fmadd.q	ft11,fs1,fs3,ft11,unknown
    80002376:	21546313          	ori	t1,s0,533
    8000237a:	ae14                	fsd	fa3,24(a2)
    8000237c:	3d81                	addiw	s11,s11,-32
    8000237e:	2734                	fld	fa3,72(a4)
    80002380:	a518                	fsd	fa4,8(a0)
    80002382:	62a5                	lui	t0,0x9
    80002384:	66bd                	lui	a3,0xf
    80002386:	fb9c                	sd	a5,48(a5)
    80002388:	f2009743          	fmadd.d	fa4,ft1,ft0,ft10,rtz
    8000238c:	3d5d                	addiw	s10,s10,-9
    8000238e:	9ebd                	addw	a3,a3,a5
    80002390:	689d                	lui	a7,0x7
    80002392:	393c                	fld	fa5,112(a0)
    80002394:	5898                	lw	a4,48(s1)
    80002396:	a13a                	fsd	fa4,128(sp)
    80002398:	2658                	fld	fa4,136(a2)
    8000239a:	72a84dc7          	fmsub.d	fs11,fa6,fa0,fa4,rmm
    8000239e:	99ade94b          	fnmsub.s	fs2,fs11,fs10,fs3,unknown
    800023a2:	66b2                	ld	a3,264(sp)
    800023a4:	74e0                	ld	s0,232(s1)
    800023a6:	9160                	0x9160
    800023a8:	67be                	ld	a5,456(sp)
    800023aa:	402e                	0x402e
    800023ac:	0b8c                	addi	a1,sp,464
    800023ae:	29767e6f          	jal	t3,80069e44 <__global_pointer$+0x67034>
    800023b2:	ccda                	sw	s6,88(sp)
    800023b4:	eeda                	sd	s6,344(sp)
    800023b6:	faf6                	sd	t4,368(sp)
    800023b8:	b2bb9f33          	0xb2bb9f33
    800023bc:	4375                	li	t1,29
    800023be:	0fe9                	addi	t6,t6,26
    800023c0:	bcfaca77          	0xbcfaca77
    800023c4:	cc6c                	sw	a1,92(s0)
    800023c6:	dd80                	sw	s0,56(a1)
    800023c8:	6225680b          	0x6225680b
    800023cc:	f1a0                	sd	s0,96(a1)
    800023ce:	dfed                	beqz	a5,800023c8 <test_memory+0x1c8>
    800023d0:	0f1f fb1d 28cd      	0x28cdfb1d0f1f
    800023d6:	8111                	srli	a0,a0,0x4
    800023d8:	ae79                	j	80002776 <_end+0x166>
    800023da:	f4d5                	bnez	s1,80002386 <test_memory+0x186>
    800023dc:	ecea                	sd	s10,88(sp)
    800023de:	1cd6                	slli	s9,s9,0x35
    800023e0:	4eb4                	lw	a3,88(a3)
    800023e2:	5696                	lw	a3,100(sp)
    800023e4:	6e7c                	ld	a5,216(a2)
    800023e6:	9445                	srai	s0,s0,0x31
    800023e8:	7911                	lui	s2,0xfffe4
    800023ea:	58f328bb          	0x58f328bb
    800023ee:	3e89                	addiw	t4,t4,-30
    800023f0:	7476                	ld	s0,376(sp)
    800023f2:	bc710873          	0xbc710873
    800023f6:	6754                	ld	a3,136(a4)
    800023f8:	4688                	lw	a0,8(a3)
    800023fa:	b6b1                	j	80001f46 <fromhost+0xf06>
    800023fc:	305c                	fld	fa5,160(s0)
    800023fe:	5d3a                	lw	s10,172(sp)
    80002400:	1d04                	addi	s1,sp,688
    80002402:	f19f ea97 1f93      	0x1f93ea97f19f
    80002408:	03be                	slli	t2,t2,0xf
    8000240a:	a2c5                	j	800025ea <test_memory+0x3ea>
    8000240c:	a071                	j	80002498 <test_memory+0x298>
    8000240e:	b640                	fsd	fs0,168(a2)
    80002410:	a5fd                	j	80002afe <_end+0x4ee>
    80002412:	6981                	0x6981
    80002414:	e17d                	bnez	a0,800024fa <test_memory+0x2fa>
    80002416:	d0d0                	sw	a2,36(s1)
    80002418:	ddfe                	sw	t6,248(sp)
    8000241a:	69fa                	ld	s3,408(sp)
    8000241c:	09f1                	addi	s3,s3,28
    8000241e:	177a                	slli	a4,a4,0x3e
    80002420:	13e9                	addi	t2,t2,-6
    80002422:	48a0                	lw	s0,80(s1)
    80002424:	3944                	fld	fs1,176(a0)
    80002426:	d0df 7584 17f4      	0x17f47584d0df
    8000242c:	bb20                	fsd	fs0,112(a4)
    8000242e:	cdac                	sw	a1,88(a1)
    80002430:	f25a                	sd	s6,288(sp)
    80002432:	13a8                	addi	a0,sp,488
    80002434:	53dc                	lw	a5,36(a5)
    80002436:	343f30db          	0x343f30db
    8000243a:	cd7a                	sw	t5,152(sp)
    8000243c:	6393b723          	sd	s9,1582(t2) # 1762e <_start-0x7ffe89d2>
    80002440:	924e                	add	tp,tp,s3
    80002442:	e0ac                	sd	a1,64(s1)
    80002444:	5e486673          	csrrsi	a2,0x5e4,16
    80002448:	ac7cccd7          	0xac7cccd7
    8000244c:	1e91                	addi	t4,t4,-28
    8000244e:	4ad7ff0f          	0x4ad7ff0f
    80002452:	a430                	fsd	fa2,72(s0)
    80002454:	262c                	fld	fa1,72(a2)
    80002456:	8781                	c.srai64	a5
    80002458:	25f0                	fld	fa2,200(a1)
    8000245a:	c301                	beqz	a4,8000245a <test_memory+0x25a>
    8000245c:	0d44                	addi	s1,sp,660
    8000245e:	4d9a                	lw	s11,132(sp)
    80002460:	9ffd                	0x9ffd
    80002462:	cca2                	sw	s0,88(sp)
    80002464:	723a0c0f          	0x723a0c0f
    80002468:	35b0                	fld	fa2,104(a1)
    8000246a:	3cc9                	addiw	s9,s9,-14
    8000246c:	0171                	addi	sp,sp,28
    8000246e:	a1e0                	fsd	fs0,192(a1)
    80002470:	5ab073e3          	bgeu	zero,a1,80003216 <__global_pointer$+0x406>
    80002474:	6441                	lui	s0,0x10
    80002476:	917f2b4f          	fnmadd.s	fs6,ft10,fs7,fs2,rdn
    8000247a:	6fb0                	ld	a2,88(a5)
    8000247c:	1ff8                	addi	a4,sp,1020
    8000247e:	5f59                	li	t5,-10
    80002480:	4a59a627          	fsw	ft5,1196(s3)
    80002484:	9c75                	0x9c75
    80002486:	f408                	sd	a0,40(s0)
    80002488:	b60d                	j	80001faa <fromhost+0xf6a>
    8000248a:	e9fbd8db          	0xe9fbd8db
    8000248e:	e775                	bnez	a4,8000257a <test_memory+0x37a>
    80002490:	15a5c58f          	0x15a5c58f
    80002494:	85a1                	srai	a1,a1,0x8
    80002496:	659d                	lui	a1,0x7
    80002498:	4b98                	lw	a4,16(a5)
    8000249a:	b545                	j	8000233a <test_memory+0x13a>
    8000249c:	935837b3          	0x935837b3
    800024a0:	b7e1                	j	80002468 <test_memory+0x268>
    800024a2:	7cf334bf ea6e3761 	0xea6e37617cf334bf
    800024aa:	e724                	sd	s1,72(a4)
    800024ac:	8c82                	jr	s9
    800024ae:	96a0                	0x96a0
    800024b0:	7c11                	lui	s8,0xfffe4
    800024b2:	ba49                	j	80001e44 <fromhost+0xe04>
    800024b4:	b004                	fsd	fs1,32(s0)
    800024b6:	23b1e1c3          	fmadd.d	ft3,ft3,fs11,ft4,unknown
    800024ba:	775f 1846 00b4      	0xb41846775f
    800024c0:	6aa1                	lui	s5,0x8
    800024c2:	f04fe427          	0xf04fe427
    800024c6:	6f92                	ld	t6,256(sp)
    800024c8:	d25a                	sw	s6,36(sp)
    800024ca:	5ee6                	lw	t4,120(sp)
    800024cc:	f9ed                	bnez	a1,800024be <test_memory+0x2be>
    800024ce:	1350                	addi	a2,sp,420
    800024d0:	9844                	0x9844
    800024d2:	b314                	fsd	fa3,32(a4)
    800024d4:	c9dd                	beqz	a1,8000258a <test_memory+0x38a>
    800024d6:	d2e6                	sw	s9,100(sp)
    800024d8:	f87f                	0xf87f
    800024da:	974bcbf3          	0x974bcbf3
    800024de:	3ec5448b          	0x3ec5448b
    800024e2:	3c48                	fld	fa0,184(s0)
    800024e4:	9af6d143          	fmadd.d	ft2,fa3,fa5,fs3,unknown
    800024e8:	acd8                	fsd	fa4,152(s1)
    800024ea:	ba74                	fsd	fa3,240(a2)
    800024ec:	1e32                	slli	t3,t3,0x2c
    800024ee:	08a9                	addi	a7,a7,10
    800024f0:	7a8e5027          	0x7a8e5027
    800024f4:	5ccd                	li	s9,-13
    800024f6:	bf44                	fsd	fs1,184(a4)
    800024f8:	dc7f                	0xdc7f
    800024fa:	2a60                	fld	fs0,208(a2)
    800024fc:	caf882bb          	0xcaf882bb
    80002500:	980c                	0x980c
    80002502:	1cfa55b3          	0x1cfa55b3
    80002506:	9a0a                	add	s4,s4,sp
    80002508:	39e1e4f7          	0x39e1e4f7
    8000250c:	8ee2                	mv	t4,s8
    8000250e:	bd0c                	fsd	fa1,56(a0)
    80002510:	0f5a                	slli	t5,t5,0x16
    80002512:	7a48                	ld	a0,176(a2)
    80002514:	482a                	lw	a6,136(sp)
    80002516:	1328                	addi	a0,sp,424
    80002518:	4a6e                	lw	s4,216(sp)
    8000251a:	d759e8cb          	fnmsub.q	fa7,fs3,fs5,fs10,unknown
    8000251e:	9ece                	add	t4,t4,s3
    80002520:	66c0461b          	0x66c0461b
    80002524:	4d95                	li	s11,5
    80002526:	0e464cfb          	0xe464cfb
    8000252a:	cef2                	sw	t3,92(sp)
    8000252c:	a99c                	fsd	fa5,16(a1)
    8000252e:	b10c                	fsd	fa1,32(a0)
    80002530:	07a4                	addi	s1,sp,968
    80002532:	e029                	bnez	s0,80002574 <test_memory+0x374>
    80002534:	437d                	li	t1,31
    80002536:	f8f6                	sd	t4,112(sp)
    80002538:	69d1                	lui	s3,0x14
    8000253a:	dbc4                	sw	s1,52(a5)
    8000253c:	549c4743          	0x549c4743
    80002540:	9cf9                	0x9cf9
    80002542:	4e2e                	lw	t3,200(sp)
    80002544:	84a8                	0x84a8
    80002546:	61b9                	lui	gp,0xe
    80002548:	f15c                	sd	a5,160(a0)
    8000254a:	0298935b          	0x298935b
    8000254e:	ab4a                	fsd	fs2,400(sp)
    80002550:	6e6b516f          	jal	sp,800b7c36 <__global_pointer$+0xb4e26>
    80002554:	3109                	addiw	sp,sp,-30
    80002556:	76f1                	lui	a3,0xffffc
    80002558:	636e                	ld	t1,216(sp)
    8000255a:	b860                	fsd	fs0,240(s0)
    8000255c:	1069                	c.nop	-6
    8000255e:	faa2                	sd	s0,368(sp)
    80002560:	68071d93          	0x68071d93
    80002564:	85bd                	srai	a1,a1,0xf
    80002566:	f3ce                	sd	s3,480(sp)
    80002568:	a851                	j	800025fc <test_memory+0x3fc>
    8000256a:	fab1                	bnez	a3,800024be <test_memory+0x2be>
    8000256c:	231f bca5 9c4a      	0x9c4abca5231f
    80002572:	b4ec                	fsd	fa1,232(s1)
    80002574:	403c                	lw	a5,64(s0)
    80002576:	7eaa                	ld	t4,168(sp)
    80002578:	c5d1                	beqz	a1,80002604 <loop_count+0x4>
    8000257a:	230eed33          	0x230eed33
    8000257e:	ae39b4c3          	fmadd.q	fs1,fs3,ft3,fs5,rup
    80002582:	2375                	addiw	t1,t1,29
    80002584:	80d0                	0x80d0
    80002586:	3e8d                	addiw	t4,t4,-29
    80002588:	097fcb43          	fmadd.s	fs6,ft11,fs7,ft1,rmm
    8000258c:	980e                	add	a6,a6,gp
    8000258e:	1958                	addi	a4,sp,180
    80002590:	6f66                	ld	t5,88(sp)
    80002592:	94b4                	0x94b4
    80002594:	6d41e03f 02e8f9c9 	0x2e8f9c96d41e03f
    8000259c:	984a                	add	a6,a6,s2
    8000259e:	d0a0                	sw	s0,96(s1)
    800025a0:	631f 26a3 acd1      	0xacd126a3631f
    800025a6:	6960                	ld	s0,208(a0)
    800025a8:	bb75acd3          	0xbb75acd3
    800025ac:	5056                	0x5056
    800025ae:	dcd6                	sw	s5,120(sp)
    800025b0:	fa1a                	sd	t1,304(sp)
    800025b2:	68d1                	lui	a7,0x14
    800025b4:	826e                	mv	tp,s11
    800025b6:	76e4                	ld	s1,232(a3)
    800025b8:	c6e8                	sw	a0,76(a3)
    800025ba:	395f 7887 ab5e      	0xab5e7887395f
    800025c0:	d6dd                	beqz	a3,8000256e <test_memory+0x36e>
    800025c2:	abd0                	fsd	fa2,144(a5)
    800025c4:	b224                	fsd	fs1,96(a2)
    800025c6:	a6a5e53f 4b7f6aa8 	0x4b7f6aa8a6a5e53f
    800025ce:	ef82                	sd	zero,472(sp)
    800025d0:	7460                	ld	s0,232(s0)
    800025d2:	2cd4b1f3          	csrrc	gp,0x2cd,s1
    800025d6:	9b2d                	andi	a4,a4,-21
    800025d8:	e806                	sd	ra,16(sp)
    800025da:	0288                	addi	a0,sp,320
    800025dc:	d206                	sw	ra,36(sp)
    800025de:	b7ca                	fsd	fs2,488(sp)
    800025e0:	12f0                	addi	a2,sp,364
    800025e2:	e5262933          	0xe5262933
    800025e6:	e998                	sd	a4,16(a1)
    800025e8:	75e4                	ld	s1,232(a1)
    800025ea:	7a44                	ld	s1,176(a2)
    800025ec:	9820                	0x9820
    800025ee:	4ea4                	lw	s1,88(a3)
    800025f0:	0f55                	addi	t5,t5,21
    800025f2:	ac59                	j	80002888 <_end+0x278>
    800025f4:	0b57dcb7          	lui	s9,0xb57d
    800025f8:	afbe                	fsd	fa5,472(sp)
    800025fa:	1f5b306f          	j	800b5fee <__global_pointer$+0xb31de>
    800025fe:	50e1                	li	ra,-8

0000000080002600 <loop_count>:
    80002600:	0040                	addi	s0,sp,4
	...

Disassembly of section .riscv.attributes:

0000000000000000 <.riscv.attributes>:
   0:	1e41                	addi	t3,t3,-16
   2:	0000                	unimp
   4:	7200                	ld	s0,32(a2)
   6:	7369                	lui	t1,0xffffa
   8:	01007663          	bgeu	zero,a6,14 <_start-0x7fffffec>
   c:	0014                	0x14
   e:	0000                	unimp
  10:	7205                	lui	tp,0xfffe1
  12:	3676                	fld	fa2,376(sp)
  14:	6934                	ld	a3,80(a0)
  16:	7032                	0x7032
  18:	5f30                	lw	a2,120(a4)
  1a:	326d                	addiw	tp,tp,-5
  1c:	3070                	fld	fa2,224(s0)
	...
