
build/test93:     file format elf64-littleriscv


Disassembly of section .text.init:

0000000080000000 <_start>:
    80000000:	05c0006f          	j	8000005c <reset_vector>

0000000080000004 <trap_vector>:
    80000004:	34202f73          	csrr	t5,mcause
    80000008:	00800f93          	li	t6,8
    8000000c:	03ff0a63          	beq	t5,t6,80000040 <write_tohost>
    80000010:	00900f93          	li	t6,9
    80000014:	03ff0663          	beq	t5,t6,80000040 <write_tohost>
    80000018:	00b00f93          	li	t6,11
    8000001c:	03ff0263          	beq	t5,t6,80000040 <write_tohost>
    80000020:	80000f17          	auipc	t5,0x80000
    80000024:	fe0f0f13          	addi	t5,t5,-32 # 0 <_start-0x80000000>
    80000028:	000f0463          	beqz	t5,80000030 <trap_vector+0x2c>
    8000002c:	000f0067          	jr	t5
    80000030:	34202f73          	csrr	t5,mcause
    80000034:	000f5463          	bgez	t5,8000003c <handle_exception>
    80000038:	0040006f          	j	8000003c <handle_exception>

000000008000003c <handle_exception>:
    8000003c:	5391e193          	ori	gp,gp,1337

0000000080000040 <write_tohost>:
    80000040:	00001f17          	auipc	t5,0x1
    80000044:	fc3f2023          	sw	gp,-64(t5) # 80001000 <tohost>
    80000048:	000902b7          	lui	t0,0x90
    8000004c:	0012829b          	addiw	t0,t0,1
    80000050:	00c29293          	slli	t0,t0,0xc
    80000054:	0002af83          	lw	t6,0(t0) # 90000 <_start-0x7ff70000>
    80000058:	fe9ff06f          	j	80000040 <write_tohost>

000000008000005c <reset_vector>:
    8000005c:	00000093          	li	ra,0
    80000060:	00000113          	li	sp,0
    80000064:	00000193          	li	gp,0
    80000068:	00000213          	li	tp,0
    8000006c:	00000293          	li	t0,0
    80000070:	00000313          	li	t1,0
    80000074:	00000393          	li	t2,0
    80000078:	00000413          	li	s0,0
    8000007c:	00000493          	li	s1,0
    80000080:	00000513          	li	a0,0
    80000084:	00000593          	li	a1,0
    80000088:	00000613          	li	a2,0
    8000008c:	00000693          	li	a3,0
    80000090:	00000713          	li	a4,0
    80000094:	00000793          	li	a5,0
    80000098:	00000813          	li	a6,0
    8000009c:	00000893          	li	a7,0
    800000a0:	00000913          	li	s2,0
    800000a4:	00000993          	li	s3,0
    800000a8:	00000a13          	li	s4,0
    800000ac:	00000a93          	li	s5,0
    800000b0:	00000b13          	li	s6,0
    800000b4:	00000b93          	li	s7,0
    800000b8:	00000c13          	li	s8,0
    800000bc:	00000c93          	li	s9,0
    800000c0:	00000d13          	li	s10,0
    800000c4:	00000d93          	li	s11,0
    800000c8:	00000e13          	li	t3,0
    800000cc:	00000e93          	li	t4,0
    800000d0:	00000f13          	li	t5,0
    800000d4:	00000f93          	li	t6,0
    800000d8:	f1402573          	csrr	a0,mhartid
    800000dc:	00051063          	bnez	a0,800000dc <reset_vector+0x80>
    800000e0:	00000297          	auipc	t0,0x0
    800000e4:	01028293          	addi	t0,t0,16 # 800000f0 <reset_vector+0x94>
    800000e8:	30529073          	csrw	mtvec,t0
    800000ec:	18005073          	csrwi	satp,0
    800000f0:	00000297          	auipc	t0,0x0
    800000f4:	02428293          	addi	t0,t0,36 # 80000114 <reset_vector+0xb8>
    800000f8:	30529073          	csrw	mtvec,t0
    800000fc:	0010029b          	addiw	t0,zero,1
    80000100:	03529293          	slli	t0,t0,0x35
    80000104:	fff28293          	addi	t0,t0,-1
    80000108:	3b029073          	csrw	pmpaddr0,t0
    8000010c:	01f00293          	li	t0,31
    80000110:	3a029073          	csrw	pmpcfg0,t0
    80000114:	30405073          	csrwi	mie,0
    80000118:	00000297          	auipc	t0,0x0
    8000011c:	01428293          	addi	t0,t0,20 # 8000012c <reset_vector+0xd0>
    80000120:	30529073          	csrw	mtvec,t0
    80000124:	30205073          	csrwi	medeleg,0
    80000128:	30305073          	csrwi	mideleg,0
    8000012c:	00000193          	li	gp,0
    80000130:	00000297          	auipc	t0,0x0
    80000134:	ed428293          	addi	t0,t0,-300 # 80000004 <trap_vector>
    80000138:	30529073          	csrw	mtvec,t0
    8000013c:	00100513          	li	a0,1
    80000140:	01f51513          	slli	a0,a0,0x1f
    80000144:	00055c63          	bgez	a0,8000015c <reset_vector+0x100>
    80000148:	0ff0000f          	fence
    8000014c:	00100193          	li	gp,1
    80000150:	05d00893          	li	a7,93
    80000154:	00000513          	li	a0,0
    80000158:	00000073          	ecall
    8000015c:	80000297          	auipc	t0,0x80000
    80000160:	ea428293          	addi	t0,t0,-348 # 0 <_start-0x80000000>
    80000164:	00028a63          	beqz	t0,80000178 <reset_vector+0x11c>
    80000168:	10529073          	csrw	stvec,t0
    8000016c:	0000b2b7          	lui	t0,0xb
    80000170:	1092829b          	addiw	t0,t0,265
    80000174:	30229073          	csrw	medeleg,t0
    80000178:	30005073          	csrwi	mstatus,0
    8000017c:	00000297          	auipc	t0,0x0
    80000180:	01428293          	addi	t0,t0,20 # 80000190 <reset_vector+0x134>
    80000184:	34129073          	csrw	mepc,t0
    80000188:	f1402573          	csrr	a0,mhartid
    8000018c:	30200073          	mret
    80000190:	0200006f          	j	800001b0 <test_start>

0000000080000194 <crash_backward>:
    80000194:	0ff0000f          	fence
    80000198:	00018063          	beqz	gp,80000198 <crash_backward+0x4>
    8000019c:	00119193          	slli	gp,gp,0x1
    800001a0:	0011e193          	ori	gp,gp,1
    800001a4:	05d00893          	li	a7,93
    800001a8:	00018513          	mv	a0,gp
    800001ac:	00000073          	ecall

00000000800001b0 <test_start>:
    800001b0:	00002f97          	auipc	t6,0x2
    800001b4:	e50f8f93          	addi	t6,t6,-432 # 80002000 <hidden_data>
    800001b8:	000fb003          	ld	zero,0(t6)
    800001bc:	008fb083          	ld	ra,8(t6)
    800001c0:	010fb103          	ld	sp,16(t6)
    800001c4:	018fb183          	ld	gp,24(t6)
    800001c8:	020fb203          	ld	tp,32(t6)
    800001cc:	028fb283          	ld	t0,40(t6)
    800001d0:	030fb303          	ld	t1,48(t6)
    800001d4:	038fb383          	ld	t2,56(t6)
    800001d8:	040fb403          	ld	s0,64(t6)
    800001dc:	048fb483          	ld	s1,72(t6)
    800001e0:	050fb503          	ld	a0,80(t6)
    800001e4:	058fb583          	ld	a1,88(t6)
    800001e8:	060fb603          	ld	a2,96(t6)
    800001ec:	068fb683          	ld	a3,104(t6)
    800001f0:	070fb703          	ld	a4,112(t6)
    800001f4:	078fb783          	ld	a5,120(t6)
    800001f8:	080fb803          	ld	a6,128(t6)
    800001fc:	088fb883          	ld	a7,136(t6)
    80000200:	090fb903          	ld	s2,144(t6)
    80000204:	098fb983          	ld	s3,152(t6)
    80000208:	0a0fba03          	ld	s4,160(t6)
    8000020c:	0a8fba83          	ld	s5,168(t6)
    80000210:	0b0fbb03          	ld	s6,176(t6)
    80000214:	0b8fbb83          	ld	s7,184(t6)
    80000218:	0c0fbc03          	ld	s8,192(t6)
    8000021c:	0c8fbc83          	ld	s9,200(t6)
    80000220:	0d0fbd03          	ld	s10,208(t6)
    80000224:	0d8fbd83          	ld	s11,216(t6)
    80000228:	0e0fbe03          	ld	t3,224(t6)
    8000022c:	0e8fbe83          	ld	t4,232(t6)
    80000230:	0f0fbf03          	ld	t5,240(t6)
    80000234:	0f8fbf83          	ld	t6,248(t6)
    80000238:	0040006f          	j	8000023c <pseg_0>

000000008000023c <pseg_0>:
    8000023c:	036b0e33          	mul	t3,s6,s6
    80000240:	69400f13          	li	t5,1684
    80000244:	17222693          	slti	a3,tp,370
    80000248:	27642e93          	slti	t4,s0,630
    8000024c:	017bb433          	sltu	s0,s7,s7
    80000250:	00002517          	auipc	a0,0x2
    80000254:	b6e50513          	addi	a0,a0,-1170 # 80001dbe <fromhost+0xd7e>
    80000258:	031bf2bb          	remuw	t0,s7,a7
    8000025c:	77b00c13          	li	s8,1915
    80000260:	402cd23b          	sraw	tp,s9,sp
    80000264:	61e00713          	li	a4,1566
    80000268:	50351423          	sh	gp,1288(a0)
    8000026c:	00100a93          	li	s5,1
    80000270:	9980f213          	andi	tp,ra,-1640
    80000274:	41915593          	srai	a1,sp,0x19
    80000278:	5b900293          	li	t0,1465
    8000027c:	00000b13          	li	s6,0
    80000280:	03e3c9b3          	div	s3,t2,t5
    80000284:	0252d53b          	divuw	a0,t0,t0
    80000288:	02e7043b          	mulw	s0,a4,a4
    8000028c:	b2600113          	li	sp,-1242
    80000290:	014d3933          	sltu	s2,s10,s4
    80000294:	a3a28493          	addi	s1,t0,-1478
    80000298:	00c64e33          	xor	t3,a2,a2
    8000029c:	038c5ebb          	divuw	t4,s8,s8
    800002a0:	03fa9a93          	slli	s5,s5,0x3f
    800002a4:	40ec5cb3          	sra	s9,s8,a4
    800002a8:	00000193          	li	gp,0
    800002ac:	f2710f93          	addi	t6,sp,-217
    800002b0:	0eb00d13          	li	s10,235
    800002b4:	98300893          	li	a7,-1661
    800002b8:	01295db3          	srl	s11,s2,s2
    800002bc:	41af57bb          	sraw	a5,t5,s10
    800002c0:	fff00093          	li	ra,-1
    800002c4:	02355bb3          	divu	s7,a0,gp
    800002c8:	37400a13          	li	s4,884
    800002cc:	034a533b          	divuw	t1,s4,s4
    800002d0:	0150c0b3          	xor	ra,ra,s5
    800002d4:	001df833          	and	a6,s11,ra
    800002d8:	ea3b4ee3          	blt	s6,gp,80000194 <crash_backward>
    800002dc:	0318c3b3          	div	t2,a7,a7
    800002e0:	015a6633          	or	a2,s4,s5
    800002e4:	eb700a13          	li	s4,-329
    800002e8:	28700613          	li	a2,647
    800002ec:	abe00f13          	li	t5,-1346
    800002f0:	416b5b3b          	sraw	s6,s6,s6
    800002f4:	0010dbb3          	srl	s7,ra,ra
    800002f8:	01ef06bb          	addw	a3,t5,t5
    800002fc:	0c600e93          	li	t4,198
    80000300:	0113993b          	sllw	s2,t2,a7
    80000304:	4f500c13          	li	s8,1269
    80000308:	0045b7b3          	sltu	a5,a1,tp
    8000030c:	6cf00393          	li	t2,1743
    80000310:	a6200193          	li	gp,-1438
    80000314:	4031873b          	subw	a4,gp,gp
    80000318:	88e00b13          	li	s6,-1906
    8000031c:	7f000093          	li	ra,2032
    80000320:	de600913          	li	s2,-538
    80000324:	0073923b          	sllw	tp,t2,t2
    80000328:	021669b3          	rem	s3,a2,ra
    8000032c:	011897b3          	sll	a5,a7,a7
    80000330:	78200f13          	li	t5,1922
    80000334:	87400213          	li	tp,-1932
    80000338:	03ef0bbb          	mulw	s7,t5,t5
    8000033c:	034a6fbb          	remw	t6,s4,s4
    80000340:	018e8433          	add	s0,t4,s8
    80000344:	032b56b3          	divu	a3,s6,s2
    80000348:	00000393          	li	t2,0
    8000034c:	53900493          	li	s1,1337
    80000350:	4e800e13          	li	t3,1256
    80000354:	c9700813          	li	a6,-873
    80000358:	00002717          	auipc	a4,0x2
    8000035c:	54770713          	addi	a4,a4,1351 # 8000289f <_end+0x28f>
    80000360:	00002617          	auipc	a2,0x2
    80000364:	9e860613          	addi	a2,a2,-1560 # 80001d48 <fromhost+0xd08>
    80000368:	01081133          	sll	sp,a6,a6
    8000036c:	c6575083          	lhu	ra,-923(a4)
    80000370:	edd00c93          	li	s9,-291
    80000374:	18e00d13          	li	s10,398
    80000378:	3e100d93          	li	s11,993
    8000037c:	5ef00893          	li	a7,1519
    80000380:	03be1533          	mulh	a0,t3,s11
    80000384:	019cfab3          	and	s5,s9,s9
    80000388:	00000793          	li	a5,0
    8000038c:	41ad02bb          	subw	t0,s10,s10
    80000390:	db000993          	li	s3,-592
    80000394:	82800513          	li	a0,-2008
    80000398:	000c8413          	mv	s0,s9
    8000039c:	00040d13          	mv	s10,s0
    800003a0:	0139f133          	and	sp,s3,s3
    800003a4:	def398e3          	bne	t2,a5,80000194 <crash_backward>
    800003a8:	5c004c63          	bltz	zero,80000980 <crash_forward>
    800003ac:	98000f93          	li	t6,-1664
    800003b0:	03de8b3b          	mulw	s6,t4,t4
    800003b4:	019bdf33          	srl	t5,s7,s9
    800003b8:	0073fc33          	and	s8,t2,t2
    800003bc:	010877b3          	and	a5,a6,a6
    800003c0:	03f5583b          	divuw	a6,a0,t6
    800003c4:	5a94ce63          	blt	s1,s1,80000980 <crash_forward>
    800003c8:	4547839b          	addiw	t2,a5,1108
    800003cc:	0314f333          	remu	t1,s1,a7
    800003d0:	03fd2e33          	mulhsu	t3,s10,t6
    800003d4:	5ca00c93          	li	s9,1482
    800003d8:	b5a00913          	li	s2,-1190
    800003dc:	7b261d23          	sh	s2,1978(a2)
    800003e0:	032946b3          	div	a3,s2,s2
    800003e4:	8e900613          	li	a2,-1815
    800003e8:	033261bb          	remw	gp,tp,s3
    800003ec:	2f482293          	slti	t0,a6,756
    800003f0:	00c670b3          	and	ra,a2,a2
    800003f4:	57f00a93          	li	s5,1407
    800003f8:	015aadb3          	slt	s11,s5,s5
    800003fc:	039cdc33          	divu	s8,s9,s9
    80000400:	038c1133          	mulh	sp,s8,s8
    80000404:	4015d5b3          	sra	a1,a1,ra
    80000408:	69400e93          	li	t4,1684
    8000040c:	00002f17          	auipc	t5,0x2
    80000410:	a52f0f13          	addi	t5,t5,-1454 # 80001e5e <fromhost+0xe1e>
    80000414:	cdd00a13          	li	s4,-803
    80000418:	034edbb3          	divu	s7,t4,s4
    8000041c:	51af3b03          	ld	s6,1306(t5)
    80000420:	00000893          	li	a7,0
    80000424:	eb600913          	li	s2,-330
    80000428:	00000693          	li	a3,0
    8000042c:	8de00713          	li	a4,-1826
    80000430:	65d00e93          	li	t4,1629
    80000434:	416b5cbb          	sraw	s9,s6,s6
    80000438:	fab00493          	li	s1,-85
    8000043c:	0d400813          	li	a6,212
    80000440:	40c8d43b          	sraw	s0,a7,a2
    80000444:	015abab3          	sltu	s5,s5,s5
    80000448:	015ad533          	srl	a0,s5,s5
    8000044c:	00f02233          	sgtz	tp,a5
    80000450:	00002897          	auipc	a7,0x2
    80000454:	2ee88893          	addi	a7,a7,750 # 8000273e <_end+0x12e>
    80000458:	aaa00593          	li	a1,-1366
    8000045c:	02b5d2b3          	divu	t0,a1,a1
    80000460:	e43a6b13          	ori	s6,s4,-445
    80000464:	a3400b93          	li	s7,-1484
    80000468:	ac68e683          	lwu	a3,-1338(a7)
    8000046c:	009e9e3b          	sllw	t3,t4,s1
    80000470:	e8400a93          	li	s5,-380
    80000474:	035ab633          	mulhu	a2,s5,s5
    80000478:	40d68d3b          	subw	s10,a3,a3
    8000047c:	03782133          	mulhsu	sp,a6,s7
    80000480:	cf200d93          	li	s11,-782
    80000484:	02c61193          	slli	gp,a2,0x2c
    80000488:	c2000f13          	li	t5,-992
    8000048c:	00002f97          	auipc	t6,0x2
    80000490:	428f8f93          	addi	t6,t6,1064 # 800028b4 <_end+0x2a4>
    80000494:	27200c93          	li	s9,626
    80000498:	038c4133          	div	sp,s8,s8
    8000049c:	dd370393          	addi	t2,a4,-557
    800004a0:	ad8f8323          	sb	s8,-1338(t6)
    800004a4:	00000993          	li	s3,0
    800004a8:	00002617          	auipc	a2,0x2
    800004ac:	a8860613          	addi	a2,a2,-1400 # 80001f30 <fromhost+0xef0>
    800004b0:	33e60b83          	lb	s7,830(a2)
    800004b4:	00100a93          	li	s5,1
    800004b8:	41ed833b          	subw	t1,s11,t5
    800004bc:	033988b3          	mul	a7,s3,s3
    800004c0:	0231ea33          	rem	s4,gp,gp
    800004c4:	66800593          	li	a1,1640
    800004c8:	012927b3          	slt	a5,s2,s2
    800004cc:	d6400513          	li	a0,-668
    800004d0:	81c00213          	li	tp,-2020
    800004d4:	00a50eb3          	add	t4,a0,a0
    800004d8:	02b5c1bb          	divw	gp,a1,a1
    800004dc:	c8f00513          	li	a0,-881
    800004e0:	00c4113b          	sllw	sp,s0,a2
    800004e4:	014a1a33          	sll	s4,s4,s4
    800004e8:	019de433          	or	s0,s11,s9
    800004ec:	01ef1733          	sll	a4,t5,t5
    800004f0:	012752b3          	srl	t0,a4,s2
    800004f4:	004c9833          	sll	a6,s9,tp
    800004f8:	00000c13          	li	s8,0
    800004fc:	000d8893          	mv	a7,s11
    80000500:	00002597          	auipc	a1,0x2
    80000504:	ab258593          	addi	a1,a1,-1358 # 80001fb2 <fromhost+0xf72>
    80000508:	a3d50d93          	addi	s11,a0,-1475
    8000050c:	01ffce33          	xor	t3,t6,t6
    80000510:	00100493          	li	s1,1
    80000514:	c989c0e3          	blt	s3,s8,80000194 <crash_backward>
    80000518:	00088913          	mv	s2,a7
    8000051c:	00100c93          	li	s9,1
    80000520:	c0800793          	li	a5,-1016
    80000524:	acc00193          	li	gp,-1332
    80000528:	03fa9a93          	slli	s5,s5,0x3f
    8000052c:	3f900e13          	li	t3,1017
    80000530:	a7700113          	li	sp,-1417
    80000534:	fff00693          	li	a3,-1
    80000538:	45b54463          	blt	a0,s11,80000980 <crash_forward>
    8000053c:	0101163b          	sllw	a2,sp,a6
    80000540:	0031a333          	slt	t1,gp,gp
    80000544:	03f49493          	slli	s1,s1,0x3f
    80000548:	c528e6e3          	bltu	a7,s2,80000194 <crash_backward>
    8000054c:	0156c6b3          	xor	a3,a3,s5
    80000550:	03fc9c93          	slli	s9,s9,0x3f
    80000554:	35158b83          	lb	s7,849(a1)
    80000558:	40500e93          	li	t4,1029
    8000055c:	fff00713          	li	a4,-1
    80000560:	02f7ff3b          	remuw	t5,a5,a5
    80000564:	018811b3          	sll	gp,a6,s8
    80000568:	12c00313          	li	t1,300
    8000056c:	000002bb          	addw	t0,zero,zero
    80000570:	00dc7b33          	and	s6,s8,a3
    80000574:	015b6d33          	or	s10,s6,s5
    80000578:	02213433          	mulhu	s0,sp,sp
    8000057c:	03de083b          	mulw	a6,t3,t4
    80000580:	90800913          	li	s2,-1784
    80000584:	fff00093          	li	ra,-1
    80000588:	412a58b3          	sra	a7,s4,s2
    8000058c:	01290bbb          	addw	s7,s2,s2
    80000590:	0090c0b3          	xor	ra,ra,s1
    80000594:	01dad1bb          	srlw	gp,s5,t4
    80000598:	0e900c13          	li	s8,233
    8000059c:	02d0c63b          	divw	a2,ra,a3
    800005a0:	01974733          	xor	a4,a4,s9
    800005a4:	03fae43b          	remw	s0,s5,t6
    800005a8:	038c0233          	mul	tp,s8,s8
    800005ac:	00e75e3b          	srlw	t3,a4,a4
    800005b0:	41f1519b          	sraiw	gp,sp,0x1f
    800005b4:	00002f17          	auipc	t5,0x2
    800005b8:	e20f0f13          	addi	t5,t5,-480 # 800023d4 <test_memory+0x1d4>
    800005bc:	f4800913          	li	s2,-184
    800005c0:	012bae33          	slt	t3,s7,s2
    800005c4:	01ad4433          	xor	s0,s10,s10
    800005c8:	032942b3          	div	t0,s2,s2
    800005cc:	82e00593          	li	a1,-2002
    800005d0:	00002b97          	auipc	s7,0x2
    800005d4:	16cb8b93          	addi	s7,s7,364 # 8000273c <_end+0x12c>
    800005d8:	00b33533          	sltu	a0,t1,a1
    800005dc:	00e2fa33          	and	s4,t0,a4
    800005e0:	001973b3          	and	t2,s2,ra
    800005e4:	00002897          	auipc	a7,0x2
    800005e8:	4d588893          	addi	a7,a7,1237 # 80002ab9 <_end+0x4a9>
    800005ec:	00002e97          	auipc	t4,0x2
    800005f0:	efde8e93          	addi	t4,t4,-259 # 800024e9 <test_memory+0x2e9>
    800005f4:	03047db3          	remu	s11,s0,a6
    800005f8:	38600193          	li	gp,902
    800005fc:	59e18613          	addi	a2,gp,1438 # 800033ae <__global_pointer$+0x59e>
    80000600:	02d6b333          	mulhu	t1,a3,a3
    80000604:	01cb5813          	srli	a6,s6,0x1c
    80000608:	b96d56e3          	bge	s10,s6,80000194 <crash_backward>
    8000060c:	00926fb3          	or	t6,tp,s1
    80000610:	130f2783          	lw	a5,304(t5)
    80000614:	36366663          	bltu	a2,gp,80000980 <crash_forward>
    80000618:	00000213          	li	tp,0
    8000061c:	019a69b3          	or	s3,s4,s9
    80000620:	a4a89ea3          	sh	a0,-1443(a7)
    80000624:	00100293          	li	t0,1
    80000628:	89800d93          	li	s11,-1896
    8000062c:	03bdb333          	mulhu	t1,s11,s11
    80000630:	03f29293          	slli	t0,t0,0x3f
    80000634:	dd8ba103          	lw	sp,-552(s7)
    80000638:	d6400413          	li	s0,-668
    8000063c:	b5f3fce3          	bgeu	t2,t6,80000194 <crash_backward>
    80000640:	00000c13          	li	s8,0
    80000644:	fff00593          	li	a1,-1
    80000648:	ec9e93a3          	sh	s1,-313(t4)
    8000064c:	33826a63          	bltu	tp,s8,80000980 <crash_forward>
    80000650:	0055c5b3          	xor	a1,a1,t0
    80000654:	00b97533          	and	a0,s2,a1
    80000658:	41745113          	srai	sp,s0,0x17
    8000065c:	000b0b13          	mv	s6,s6
    80000660:	02134bb3          	div	s7,t1,ra
    80000664:	000b0193          	mv	gp,s6
    80000668:	a6500213          	li	tp,-1435
    8000066c:	c3900813          	li	a6,-967
    80000670:	00840e3b          	addw	t3,s0,s0
    80000674:	303b6663          	bltu	s6,gp,80000980 <crash_forward>
    80000678:	00002c97          	auipc	s9,0x2
    8000067c:	e76c8c93          	addi	s9,s9,-394 # 800024ee <test_memory+0x2ee>
    80000680:	00002717          	auipc	a4,0x2
    80000684:	98970713          	addi	a4,a4,-1655 # 80002009 <reg_x1_init+0x1>
    80000688:	03025333          	divu	t1,tp,a6
    8000068c:	0fe00a93          	li	s5,254
    80000690:	00556933          	or	s2,a0,t0
    80000694:	00002617          	auipc	a2,0x2
    80000698:	52260613          	addi	a2,a2,1314 # 80002bb6 <_end+0x5a6>
    8000069c:	01d63833          	sltu	a6,a2,t4
    800006a0:	6f700193          	li	gp,1783
    800006a4:	fdac8d83          	lb	s11,-38(s9)
    800006a8:	035a98b3          	mulh	a7,s5,s5
    800006ac:	00001097          	auipc	ra,0x1
    800006b0:	74108093          	addi	ra,ra,1857 # 80001ded <fromhost+0xdad>
    800006b4:	4580b9a3          	sd	s8,1107(ra)
    800006b8:	00002797          	auipc	a5,0x2
    800006bc:	72478793          	addi	a5,a5,1828 # 80002ddc <_end+0x7cc>
    800006c0:	f2800a13          	li	s4,-216
    800006c4:	44218e13          	addi	t3,gp,1090 # 80003252 <__global_pointer$+0x442>
    800006c8:	8077a223          	sw	t2,-2044(a5)
    800006cc:	ad2504e3          	beq	a0,s2,80000194 <crash_backward>
    800006d0:	40300393          	li	t2,1027
    800006d4:	2de00893          	li	a7,734
    800006d8:	0073dc3b          	srlw	s8,t2,t2
    800006dc:	e7300c93          	li	s9,-397
    800006e0:	0118ef33          	or	t5,a7,a7
    800006e4:	88e00413          	li	s0,-1906
    800006e8:	039ccdb3          	div	s11,s9,s9
    800006ec:	94d60d03          	lb	s10,-1715(a2)
    800006f0:	c1840e93          	addi	t4,s0,-1000
    800006f4:	00100313          	li	t1,1
    800006f8:	41030bb3          	sub	s7,t1,a6
    800006fc:	dc700a93          	li	s5,-569
    80000700:	5d773983          	ld	s3,1495(a4)
    80000704:	415ad833          	sra	a6,s5,s5
    80000708:	00100c93          	li	s9,1
    8000070c:	58e00d13          	li	s10,1422
    80000710:	03f31313          	slli	t1,t1,0x3f
    80000714:	a6c00693          	li	a3,-1428
    80000718:	00100f13          	li	t5,1
    8000071c:	03ad4c33          	div	s8,s10,s10
    80000720:	03fc9c93          	slli	s9,s9,0x3f
    80000724:	01ce39b3          	sltu	s3,t3,t3
    80000728:	00b5b7b3          	sltu	a5,a1,a1
    8000072c:	fff00b13          	li	s6,-1
    80000730:	01305733          	srl	a4,zero,s3
    80000734:	6d500413          	li	s0,1749
    80000738:	fff00613          	li	a2,-1
    8000073c:	014a6fb3          	or	t6,s4,s4
    80000740:	03ff1f13          	slli	t5,t5,0x3f
    80000744:	40d684bb          	subw	s1,a3,a3
    80000748:	fff00093          	li	ra,-1
    8000074c:	72440813          	addi	a6,s0,1828
    80000750:	a43e42e3          	blt	t3,gp,80000194 <crash_backward>
    80000754:	01e0c0b3          	xor	ra,ra,t5
    80000758:	00002e97          	auipc	t4,0x2
    8000075c:	a44e8e93          	addi	t4,t4,-1468 # 8000219c <reg_x19_output+0x4>
    80000760:	006b4b33          	xor	s6,s6,t1
    80000764:	01964633          	xor	a2,a2,s9
    80000768:	00c8f3b3          	and	t2,a7,a2
    8000076c:	016af233          	and	tp,s5,s6
    80000770:	00002d17          	auipc	s10,0x2
    80000774:	288d0d13          	addi	s10,s10,648 # 800029f8 <_end+0x3e8>
    80000778:	87fd3423          	sd	t6,-1944(s10)
    8000077c:	00001797          	auipc	a5,0x1
    80000780:	67b78793          	addi	a5,a5,1659 # 80001df7 <fromhost+0xdb7>
    80000784:	00676133          	or	sp,a4,t1
    80000788:	0193edb3          	or	s11,t2,s9
    8000078c:	1e224a63          	blt	tp,sp,80000980 <crash_forward>
    80000790:	03080c33          	mul	s8,a6,a6
    80000794:	00100593          	li	a1,1
    80000798:	03f59593          	slli	a1,a1,0x3f
    8000079c:	00002697          	auipc	a3,0x2
    800007a0:	1db68693          	addi	a3,a3,475 # 80002977 <_end+0x367>
    800007a4:	00002497          	auipc	s1,0x2
    800007a8:	c2148493          	addi	s1,s1,-991 # 800023c5 <test_memory+0x1c5>
    800007ac:	9056df83          	lhu	t6,-1787(a3)
    800007b0:	00002a17          	auipc	s4,0x2
    800007b4:	c97a0a13          	addi	s4,s4,-873 # 80002447 <test_memory+0x247>
    800007b8:	0c8e9a83          	lh	s5,200(t4)
    800007bc:	7b17d703          	lhu	a4,1969(a5)
    800007c0:	23349983          	lh	s3,563(s1)
    800007c4:	1b1a0a23          	sb	a7,436(s4)
    800007c8:	001c72b3          	and	t0,s8,ra
    800007cc:	fff00513          	li	a0,-1
    800007d0:	00b54533          	xor	a0,a0,a1
    800007d4:	01e2ebb3          	or	s7,t0,t5
    800007d8:	1a5be463          	bltu	s7,t0,80000980 <crash_forward>
    800007dc:	00a078b3          	and	a7,zero,a0
    800007e0:	00b26933          	or	s2,tp,a1
    800007e4:	9b28f8e3          	bgeu	a7,s2,80000194 <crash_backward>
    800007e8:	52600513          	li	a0,1318
    800007ec:	14b00113          	li	sp,331
    800007f0:	23a1c293          	xori	t0,gp,570
    800007f4:	a6f00193          	li	gp,-1425
    800007f8:	84500a13          	li	s4,-1979
    800007fc:	197bc263          	blt	s7,s7,80000980 <crash_forward>
    80000800:	21300393          	li	t2,531
    80000804:	02fc5c33          	divu	s8,s8,a5
    80000808:	bdb18213          	addi	tp,gp,-1061 # 800029eb <_end+0x3db>
    8000080c:	019b043b          	addw	s0,s6,s9
    80000810:	007117b3          	sll	a5,sp,t2
    80000814:	6fc00a93          	li	s5,1788
    80000818:	f6500b13          	li	s6,-155
    8000081c:	c6a00d93          	li	s11,-918
    80000820:	4f900313          	li	t1,1273
    80000824:	963278e3          	bgeu	tp,gp,80000194 <crash_backward>
    80000828:	034a4d33          	div	s10,s4,s4
    8000082c:	00100113          	li	sp,1
    80000830:	00002e17          	auipc	t3,0x2
    80000834:	8c0e0e13          	addi	t3,t3,-1856 # 800020f0 <reg_x30_init>
    80000838:	03f11113          	slli	sp,sp,0x3f
    8000083c:	0357c9b3          	div	s3,a5,s5
    80000840:	01d00c93          	li	s9,29
    80000844:	039da633          	mulhsu	a2,s11,s9
    80000848:	40a558b3          	sra	a7,a0,a0
    8000084c:	fff00213          	li	tp,-1
    80000850:	014a28b3          	slt	a7,s4,s4
    80000854:	028834b3          	mulhu	s1,a6,s0
    80000858:	ba300693          	li	a3,-1117
    8000085c:	00100c13          	li	s8,1
    80000860:	40db0bb3          	sub	s7,s6,a3
    80000864:	00038f93          	mv	t6,t2
    80000868:	00c622b3          	slt	t0,a2,a2
    8000086c:	00001097          	auipc	ra,0x1
    80000870:	57608093          	addi	ra,ra,1398 # 80001de2 <fromhost+0xda2>
    80000874:	00224233          	xor	tp,tp,sp
    80000878:	00417433          	and	s0,sp,tp
    8000087c:	01900713          	li	a4,25
    80000880:	6df0b323          	sd	t6,1734(ra)
    80000884:	03fc1c13          	slli	s8,s8,0x3f
    80000888:	000f8c93          	mv	s9,t6
    8000088c:	00002397          	auipc	t2,0x2
    80000890:	f2238393          	addi	t2,t2,-222 # 800027ae <_end+0x19e>
    80000894:	fff00513          	li	a0,-1
    80000898:	3b8e1f03          	lh	t5,952(t3)
    8000089c:	e1400e93          	li	t4,-492
    800008a0:	00e34933          	xor	s2,t1,a4
    800008a4:	ca800a13          	li	s4,-856
    800008a8:	01daa5b3          	slt	a1,s5,t4
    800008ac:	014a2833          	slt	a6,s4,s4
    800008b0:	e3c3d183          	lhu	gp,-452(t2)
    800008b4:	002767b3          	or	a5,a4,sp
    800008b8:	01854533          	xor	a0,a0,s8
    800008bc:	00a1f9b3          	and	s3,gp,a0
    800008c0:	06700d13          	li	s10,103
    800008c4:	0af44e63          	blt	s0,a5,80000980 <crash_forward>
    800008c8:	0189e633          	or	a2,s3,s8
    800008cc:	5afd0d93          	addi	s11,s10,1455
    800008d0:	0bade863          	bltu	s11,s10,80000980 <crash_forward>
    800008d4:	8d3650e3          	bge	a2,s3,80000194 <crash_backward>
    800008d8:	97b00093          	li	ra,-1669
    800008dc:	cec08513          	addi	a0,ra,-788
    800008e0:	0aa0e063          	bltu	ra,a0,80000980 <crash_forward>
    800008e4:	0040006f          	j	800008e8 <reg_dump>

00000000800008e8 <reg_dump>:
    800008e8:	00002097          	auipc	ra,0x2
    800008ec:	d1808093          	addi	ra,ra,-744 # 80002600 <loop_count>
    800008f0:	0000a103          	lw	sp,0(ra)
    800008f4:	fff10193          	addi	gp,sp,-1
    800008f8:	0030a023          	sw	gp,0(ra)
    800008fc:	940110e3          	bnez	sp,8000023c <pseg_0>
    80000900:	00002097          	auipc	ra,0x2
    80000904:	80008093          	addi	ra,ra,-2048 # 80002100 <begin_signature>
    80000908:	0000b023          	sd	zero,0(ra)
    8000090c:	0020b823          	sd	sp,16(ra)
    80000910:	0030bc23          	sd	gp,24(ra)
    80000914:	0240b023          	sd	tp,32(ra)
    80000918:	0250b423          	sd	t0,40(ra)
    8000091c:	0260b823          	sd	t1,48(ra)
    80000920:	0480b023          	sd	s0,64(ra)
    80000924:	0490b423          	sd	s1,72(ra)
    80000928:	04a0b823          	sd	a0,80(ra)
    8000092c:	04b0bc23          	sd	a1,88(ra)
    80000930:	06c0b023          	sd	a2,96(ra)
    80000934:	06d0b423          	sd	a3,104(ra)
    80000938:	06e0b823          	sd	a4,112(ra)
    8000093c:	06f0bc23          	sd	a5,120(ra)
    80000940:	0900b023          	sd	a6,128(ra)
    80000944:	0910b423          	sd	a7,136(ra)
    80000948:	0920b823          	sd	s2,144(ra)
    8000094c:	0930bc23          	sd	s3,152(ra)
    80000950:	0b40b023          	sd	s4,160(ra)
    80000954:	0b50b423          	sd	s5,168(ra)
    80000958:	0b60b823          	sd	s6,176(ra)
    8000095c:	0b70bc23          	sd	s7,184(ra)
    80000960:	0d80b023          	sd	s8,192(ra)
    80000964:	0d90b423          	sd	s9,200(ra)
    80000968:	0da0b823          	sd	s10,208(ra)
    8000096c:	0db0bc23          	sd	s11,216(ra)
    80000970:	0fd0b423          	sd	t4,232(ra)
    80000974:	0fe0b823          	sd	t5,240(ra)
    80000978:	0ff0bc23          	sd	t6,248(ra)
    8000097c:	0200006f          	j	8000099c <test_end>

0000000080000980 <crash_forward>:
    80000980:	0ff0000f          	fence
    80000984:	00018063          	beqz	gp,80000984 <crash_forward+0x4>
    80000988:	00119193          	slli	gp,gp,0x1
    8000098c:	0011e193          	ori	gp,gp,1
    80000990:	05d00893          	li	a7,93
    80000994:	00018513          	mv	a0,gp
    80000998:	00000073          	ecall

000000008000099c <test_end>:
    8000099c:	0ff0000f          	fence
    800009a0:	00100193          	li	gp,1
    800009a4:	05d00893          	li	a7,93
    800009a8:	00000513          	li	a0,0
    800009ac:	00000073          	ecall
    800009b0:	c0001073          	unimp
	...

Disassembly of section .tohost:

0000000080001000 <tohost>:
	...

0000000080001040 <fromhost>:
	...

Disassembly of section .data:

0000000080002000 <hidden_data>:
    80002000:	00000007          	0x7
    80002004:	0000                	unimp
    80002006:	0800                	addi	s0,sp,16

0000000080002008 <reg_x1_init>:
    80002008:	0004                	0x4
    8000200a:	8000                	0x8000
    8000200c:	ffff                	0xffff
    8000200e:	ffff                	0xffff

0000000080002010 <reg_x2_init>:
    80002010:	d9aa                	sw	a0,240(sp)
    80002012:	534c                	lw	a1,36(a4)
    80002014:	f17d                	bnez	a0,80001ffa <fromhost+0xfba>
    80002016:	5dd6                	lw	s11,116(sp)

0000000080002018 <reg_x3_init>:
    80002018:	3754                	fld	fa3,168(a4)
    8000201a:	d102                	sw	zero,160(sp)
    8000201c:	d10e                	sw	gp,160(sp)
    8000201e:	3da2                	fld	fs11,40(sp)

0000000080002020 <reg_x4_init>:
    80002020:	80000007          	0x80000007
    80002024:	ffff                	0xffff
    80002026:	ffff                	0xffff

0000000080002028 <reg_x5_init>:
    80002028:	ffff                	0xffff
    8000202a:	ffff                	0xffff
    8000202c:	ffff                	0xffff
    8000202e:	ffff                	0xffff

0000000080002030 <reg_x6_init>:
    80002030:	0008                	0x8
    80002032:	8000                	0x8000
    80002034:	ffff                	0xffff
    80002036:	ffff                	0xffff

0000000080002038 <reg_x7_init>:
    80002038:	ff86                	sd	ra,504(sp)
    8000203a:	ffff                	0xffff
    8000203c:	ffff                	0xffff
    8000203e:	ffff                	0xffff

0000000080002040 <reg_x8_init>:
    80002040:	51da                	lw	gp,180(sp)
    80002042:	e188                	sd	a0,0(a1)
    80002044:	3c95                	addiw	s9,s9,-27
    80002046:	19ed                	addi	s3,s3,-5

0000000080002048 <reg_x9_init>:
    80002048:	74e0                	ld	s0,232(s1)
    8000204a:	d805                	beqz	s0,80001f7a <fromhost+0xf3a>
    8000204c:	e278                	sd	a4,192(a2)
    8000204e:	d66a                	sw	s10,44(sp)

0000000080002050 <reg_x10_init>:
    80002050:	408e                	lw	ra,192(sp)
    80002052:	1725                	addi	a4,a4,-23
    80002054:	5a22                	lw	s4,40(sp)
    80002056:	be64                	fsd	fs1,248(a2)

0000000080002058 <reg_x11_init>:
    80002058:	8000                	0x8000
    8000205a:	ffff                	0xffff
    8000205c:	ffff                	0xffff
    8000205e:	ffff                	0xffff

0000000080002060 <reg_x12_init>:
    80002060:	00000003          	lb	zero,0(zero) # 0 <_start-0x80000000>
    80002064:	0000                	unimp
    80002066:	0800                	addi	s0,sp,16

0000000080002068 <reg_x13_init>:
    80002068:	8005                	srli	s0,s0,0x1
    8000206a:	ffff                	0xffff
    8000206c:	ffff                	0xffff
    8000206e:	ffff                	0xffff

0000000080002070 <reg_x14_init>:
	...

0000000080002078 <reg_x15_init>:
    80002078:	899a                	mv	s3,t1
    8000207a:	51826667          	0x51826667
    8000207e:	df58                	sw	a4,60(a4)

0000000080002080 <reg_x16_init>:
    80002080:	fb41                	bnez	a4,80002010 <reg_x2_init>
    80002082:	f015                	bnez	s0,80001fa6 <fromhost+0xf66>
    80002084:	5819620b          	0x5819620b

0000000080002088 <reg_x17_init>:
	...

0000000080002090 <reg_x18_init>:
    80002090:	248a                	fld	fs1,128(sp)
    80002092:	1a6e710f          	0x1a6e710f
    80002096:	          	fnmsub.s	fs2,ft7,ft0,ft0,rup

0000000080002098 <reg_x19_init>:
    80002098:	00000003          	lb	zero,0(zero) # 0 <_start-0x80000000>
    8000209c:	0000                	unimp
	...

00000000800020a0 <reg_x20_init>:
    800020a0:	0002                	c.slli64	zero
    800020a2:	8000                	0x8000
    800020a4:	ffff                	0xffff
    800020a6:	ffff                	0xffff

00000000800020a8 <reg_x21_init>:
	...

00000000800020b0 <reg_x22_init>:
    800020b0:	8322                	mv	t1,s0
    800020b2:	f5a5                	bnez	a1,8000201a <reg_x3_init+0x2>
    800020b4:	8940                	0x8940
    800020b6:	b581                	j	80001ef6 <fromhost+0xeb6>

00000000800020b8 <reg_x23_init>:
    800020b8:	67d80dc7          	fmsub.q	fs11,fa6,ft9,fa2,rne
    800020bc:	467e2263          	0x467e2263

00000000800020c0 <reg_x24_init>:
    800020c0:	8bd4                	0x8bd4
    800020c2:	31614bbf  	0x28aa31614bbf

00000000800020c8 <reg_x25_init>:
	...

00000000800020d0 <reg_x26_init>:
    800020d0:	ffff                	0xffff
    800020d2:	ffff                	0xffff
    800020d4:	ffff                	0xffff
    800020d6:	ffff                	0xffff

00000000800020d8 <reg_x27_init>:
    800020d8:	0009                	c.nop	2
    800020da:	8000                	0x8000
    800020dc:	ffff                	0xffff
    800020de:	ffff                	0xffff

00000000800020e0 <reg_x28_init>:
    800020e0:	ff80                	sd	s0,56(a5)
    800020e2:	ffff                	0xffff
    800020e4:	ffff                	0xffff
    800020e6:	ffff                	0xffff

00000000800020e8 <reg_x29_init>:
    800020e8:	0006                	c.slli	zero,0x1
    800020ea:	8000                	0x8000
    800020ec:	ffff                	0xffff
    800020ee:	ffff                	0xffff

00000000800020f0 <reg_x30_init>:
    800020f0:	f320e593          	ori	a1,ra,-206
    800020f4:	fbd2                	sd	s4,496(sp)
    800020f6:	          	0xec77

00000000800020f8 <reg_x31_init>:
	...

0000000080002100 <begin_signature>:
    80002100:	aa493cab          	0xaa493cab
    80002104:	78a4553b          	0x78a4553b

0000000080002108 <reg_x1_output>:
    80002108:	d6c4                	sw	s1,44(a3)
    8000210a:	24b764bf  	0xf4c4691f24b764bf

0000000080002110 <reg_x2_output>:
    80002110:	f4c4                	sd	s1,168(s1)
    80002112:	20074e3b          	0x20074e3b
    80002116:	0af0                	addi	a2,sp,348

0000000080002118 <reg_x3_output>:
    80002118:	35a5                	addiw	a1,a1,-23
    8000211a:	6880                	ld	s0,16(s1)
    8000211c:	70f4edf3          	csrrsi	s11,0x70f,9

0000000080002120 <reg_x4_output>:
    80002120:	5265                	li	tp,-7
    80002122:	2d049957          	0x2d049957
    80002126:	d715                	beqz	a4,80002052 <reg_x10_init+0x2>

0000000080002128 <reg_x5_output>:
    80002128:	ce723bd3          	0xce723bd3
    8000212c:	2fcd                	addiw	t6,t6,19
    8000212e:	9c1a                	add	s8,s8,t1

0000000080002130 <reg_x6_output>:
    80002130:	4df88b03          	lb	s6,1247(a7)
    80002134:	f820                	sd	s0,112(s0)
    80002136:	6b81                	0x6b81

0000000080002138 <reg_x7_output>:
    80002138:	f61f b256 6d1f      	0x6d1fb256f61f
    8000213e:	f434                	sd	a3,104(s0)

0000000080002140 <reg_x8_output>:
    80002140:	388984a7          	0x388984a7
    80002144:	e3af2e53          	0xe3af2e53

0000000080002148 <reg_x9_output>:
    80002148:	896c                	0x896c
    8000214a:	2581                	sext.w	a1,a1
    8000214c:	d61c                	sw	a5,40(a2)
    8000214e:	2c59                	addiw	s8,s8,22

0000000080002150 <reg_x10_output>:
    80002150:	c5bd                	beqz	a1,800021be <reg_x23_output+0x6>
    80002152:	2388                	fld	fa0,0(a5)
    80002154:	0848                	addi	a0,sp,20
    80002156:	4f2a                	lw	t5,136(sp)

0000000080002158 <reg_x11_output>:
    80002158:	d8a5                	beqz	s1,800020c8 <reg_x25_init>
    8000215a:	94f6                	add	s1,s1,t4
    8000215c:	995add8f          	0x995add8f

0000000080002160 <reg_x12_output>:
    80002160:	0e2c                	addi	a1,sp,792
    80002162:	c280                	sw	s0,0(a3)
    80002164:	2b41                	addiw	s6,s6,16
    80002166:	          	auipc	sp,0x15f13

0000000080002168 <reg_x13_output>:
    80002168:	15f1                	addi	a1,a1,-4
    8000216a:	420d                	li	tp,3
    8000216c:	40b95e6b          	0x40b95e6b

0000000080002170 <reg_x14_output>:
    80002170:	eda6                	sd	s1,216(sp)
    80002172:	6aa2                	ld	s5,8(sp)
    80002174:	343d                	addiw	s0,s0,-17
    80002176:	2c88                	fld	fa0,24(s1)

0000000080002178 <reg_x15_output>:
    80002178:	b325                	j	80001ea0 <fromhost+0xe60>
    8000217a:	9cd6                	add	s9,s9,s5
    8000217c:	157f                	0x157f
    8000217e:	5cae                	lw	s9,232(sp)

0000000080002180 <reg_x16_output>:
    80002180:	eb40                	sd	s0,144(a4)
    80002182:	5152118f          	0x5152118f
    80002186:	dafc                	sw	a5,116(a3)

0000000080002188 <reg_x17_output>:
    80002188:	657a                	ld	a0,408(sp)
    8000218a:	73893467          	0x73893467
    8000218e:	3265                	addiw	tp,tp,-7

0000000080002190 <reg_x18_output>:
    80002190:	1244                	addi	s1,sp,292
    80002192:	7f44                	ld	s1,184(a4)
    80002194:	8d60                	0x8d60
    80002196:	9d06                	add	s10,s10,ra

0000000080002198 <reg_x19_output>:
    80002198:	307f                	0x307f
    8000219a:	96b9                	srai	a3,a3,0x2e
    8000219c:	0b6c                	addi	a1,sp,412
    8000219e:	d2a9                	beqz	a3,800020e0 <reg_x28_init>

00000000800021a0 <reg_x20_output>:
    800021a0:	f846                	sd	a7,48(sp)
    800021a2:	c0f9                	beqz	s1,80002268 <test_memory+0x68>
    800021a4:	679ab1e7          	0x679ab1e7

00000000800021a8 <reg_x21_output>:
    800021a8:	ac51                	j	8000243c <test_memory+0x23c>
    800021aa:	7be2                	ld	s7,56(sp)
    800021ac:	20c5                	addiw	ra,ra,17
    800021ae:	          	0x907554bb

00000000800021b0 <reg_x22_output>:
    800021b0:	9075                	srli	s0,s0,0x3d
    800021b2:	e4aa                	sd	a0,72(sp)
    800021b4:	e338                	sd	a4,64(a4)
    800021b6:	          	0xfb08bd2b

00000000800021b8 <reg_x23_output>:
    800021b8:	fb08                	sd	a0,48(a4)
    800021ba:	05ae                	slli	a1,a1,0xb
    800021bc:	1a9c                	addi	a5,sp,368
    800021be:	137e                	slli	t1,t1,0x3f

00000000800021c0 <reg_x24_output>:
    800021c0:	6032                	0x6032
    800021c2:	5acb9977          	0x5acb9977
    800021c6:	26d6                	fld	fa3,336(sp)

00000000800021c8 <reg_x25_output>:
    800021c8:	2174                	fld	fa3,192(a0)
    800021ca:	de7678bb          	0xde7678bb
    800021ce:	3659                	addiw	a2,a2,-10

00000000800021d0 <reg_x26_output>:
    800021d0:	e8e6                	sd	s9,80(sp)
    800021d2:	15aa                	slli	a1,a1,0x2a
    800021d4:	e3f1                	bnez	a5,80002298 <test_memory+0x98>
    800021d6:	417f                	0x417f

00000000800021d8 <reg_x27_output>:
    800021d8:	b708                	fsd	fa0,40(a4)
    800021da:	57935643          	fmadd.q	fa2,ft6,fs9,fa0,unknown
    800021de:	65ed                	lui	a1,0x1b

00000000800021e0 <reg_x28_output>:
    800021e0:	5b10                	lw	a2,48(a4)
    800021e2:	4075                	c.li	zero,29
    800021e4:	feaa                	sd	a0,376(sp)
    800021e6:	5370                	lw	a2,100(a4)

00000000800021e8 <reg_x29_output>:
    800021e8:	2116                	fld	ft2,320(sp)
    800021ea:	1109                	addi	sp,sp,-30
    800021ec:	ae74                	fsd	fa3,216(a2)
    800021ee:	88ba                	mv	a7,a4

00000000800021f0 <reg_x30_output>:
    800021f0:	e69c                	sd	a5,8(a3)
    800021f2:	9158                	0x9158
    800021f4:	ccd5                	beqz	s1,800022b0 <test_memory+0xb0>
    800021f6:	0aa2                	slli	s5,s5,0x8

00000000800021f8 <reg_x31_output>:
    800021f8:	cd3c                	sw	a5,88(a0)
    800021fa:	1b5f f49e 19e0      	0x19e0f49e1b5f

0000000080002200 <test_memory>:
    80002200:	f29a3c7b          	0xf29a3c7b
    80002204:	2d90                	fld	fa2,24(a1)
    80002206:	891c                	0x891c
    80002208:	1f1e                	slli	t5,t5,0x27
    8000220a:	d3e5                	beqz	a5,800021ea <reg_x29_output+0x2>
    8000220c:	489c                	lw	a5,16(s1)
    8000220e:	73de                	ld	t2,496(sp)
    80002210:	9c3f156f          	jal	a0,7fff3bd2 <_start-0xc42e>
    80002214:	aad9                	j	800023ea <test_memory+0x1ea>
    80002216:	f57a                	sd	t5,168(sp)
    80002218:	0554                	addi	a3,sp,644
    8000221a:	e8a9                	bnez	s1,8000226c <test_memory+0x6c>
    8000221c:	b64a                	fsd	fs2,296(sp)
    8000221e:	df81                	beqz	a5,80002136 <reg_x6_output+0x6>
    80002220:	d226                	sw	s1,36(sp)
    80002222:	cb6d                	beqz	a4,80002314 <test_memory+0x114>
    80002224:	1d76                	slli	s10,s10,0x3d
    80002226:	f86a                	sd	s10,48(sp)
    80002228:	69a6                	ld	s3,72(sp)
    8000222a:	57516127          	0x57516127
    8000222e:	7be4                	ld	s1,240(a5)
    80002230:	888a                	mv	a7,sp
    80002232:	3b9e                	fld	fs7,480(sp)
    80002234:	2b15                	addiw	s6,s6,5
    80002236:	9e98                	0x9e98
    80002238:	f076                	sd	t4,32(sp)
    8000223a:	77ee4d6b          	0x77ee4d6b
    8000223e:	0bb5                	addi	s7,s7,13
    80002240:	bd3f1257          	0xbd3f1257
    80002244:	02b1                	addi	t0,t0,12
    80002246:	1fdf bb7d 7f6d      	0x7f6dbb7d1fdf
    8000224c:	469dc3f7          	0x469dc3f7
    80002250:	f0ed                	bnez	s1,80002232 <test_memory+0x32>
    80002252:	6570                	ld	a2,200(a0)
    80002254:	d234fb3f 0a5823b9 	0xa5823b9d234fb3f
    8000225c:	c01e                	sw	t2,0(sp)
    8000225e:	a739                	j	8000296c <_end+0x35c>
    80002260:	e5a11a67          	0xe5a11a67
    80002264:	f87f                	0xf87f
    80002266:	b7a4                	fsd	fs1,104(a5)
    80002268:	9ea6                	add	t4,t4,s1
    8000226a:	1550                	addi	a2,sp,676
    8000226c:	1376                	slli	t1,t1,0x3d
    8000226e:	7f6c                	ld	a1,248(a4)
    80002270:	3d2703eb          	0x3d2703eb
    80002274:	6c6dba37          	lui	s4,0x6c6db
    80002278:	db9942ab          	0xdb9942ab
    8000227c:	6535                	lui	a0,0xd
    8000227e:	d9cc                	sw	a1,52(a1)
    80002280:	5c197d43          	0x5c197d43
    80002284:	7980                	ld	s0,48(a1)
    80002286:	eba4                	sd	s1,80(a5)
    80002288:	2df29ed7          	0x2df29ed7
    8000228c:	d2bc                	sw	a5,96(a3)
    8000228e:	cfff                	0xcfff
    80002290:	31ac                	fld	fa1,96(a1)
    80002292:	7a5d                	lui	s4,0xffff7
    80002294:	787e                	ld	a6,504(sp)
    80002296:	7f99                	lui	t6,0xfffe6
    80002298:	d9cc                	sw	a1,52(a1)
    8000229a:	1816                	slli	a6,a6,0x25
    8000229c:	41d5                	li	gp,21
    8000229e:	3f14                	fld	fa3,56(a4)
    800022a0:	e1ee                	sd	s11,192(sp)
    800022a2:	f1d9                	bnez	a1,80002228 <test_memory+0x28>
    800022a4:	6836                	ld	a6,328(sp)
    800022a6:	4bfbf603          	0x4bfbf603
    800022aa:	133b4c53          	fmul.d	fs8,fs6,fs3,rmm
    800022ae:	64c8                	ld	a0,136(s1)
    800022b0:	abac                	fsd	fa1,80(a5)
    800022b2:	c400                	sw	s0,8(s0)
    800022b4:	b0e0c8bb          	0xb0e0c8bb
    800022b8:	0911                	addi	s2,s2,4
    800022ba:	f5e5                	bnez	a1,800022a2 <test_memory+0xa2>
    800022bc:	f95d                	bnez	a0,80002272 <test_memory+0x72>
    800022be:	f1fdf73b          	0xf1fdf73b
    800022c2:	9a9e                	add	s5,s5,t2
    800022c4:	a78c                	fsd	fa1,8(a5)
    800022c6:	aa4c                	fsd	fa1,144(a2)
    800022c8:	0cb0                	addi	a2,sp,600
    800022ca:	9410                	0x9410
    800022cc:	f766                	sd	s9,424(sp)
    800022ce:	bc24                	fsd	fs1,120(s0)
    800022d0:	bb3a                	fsd	fa4,432(sp)
    800022d2:	df9e                	sw	t2,252(sp)
    800022d4:	6039                	c.lui	zero,0xe
    800022d6:	dd76                	sw	t4,184(sp)
    800022d8:	fe62                	sd	s8,312(sp)
    800022da:	cc797b2f          	0xcc797b2f
    800022de:	d170                	sw	a2,100(a0)
    800022e0:	9819                	andi	s0,s0,-26
    800022e2:	600e                	0x600e
    800022e4:	434d                	li	t1,19
    800022e6:	87c2                	mv	a5,a6
    800022e8:	c0ca                	sw	s2,64(sp)
    800022ea:	b97c                	fsd	fa5,240(a0)
    800022ec:	4f38                	lw	a4,88(a4)
    800022ee:	67fa8faf          	0x67fa8faf
    800022f2:	11d8                	addi	a4,sp,228
    800022f4:	45134767          	0x45134767
    800022f8:	401c                	lw	a5,0(s0)
    800022fa:	022c                	addi	a1,sp,264
    800022fc:	7d90                	ld	a2,56(a1)
    800022fe:	8e81c2b7          	lui	t0,0x8e81c
    80002302:	28a7d22f          	0x28a7d22f
    80002306:	779c                	ld	a5,40(a5)
    80002308:	33ce                	fld	ft7,240(sp)
    8000230a:	3e3e                	fld	ft8,488(sp)
    8000230c:	7f2744af          	0x7f2744af
    80002310:	6e64                	ld	s1,216(a2)
    80002312:	f234                	sd	a3,96(a2)
    80002314:	a8989a53          	0xa8989a53
    80002318:	bdd5c78f          	0xbdd5c78f
    8000231c:	4552                	lw	a0,20(sp)
    8000231e:	f7c9                	bnez	a5,800022a8 <test_memory+0xa8>
    80002320:	3d85                	addiw	s11,s11,-31
    80002322:	e0d4                	sd	a3,128(s1)
    80002324:	6eb1                	lui	t4,0xc
    80002326:	7235                	lui	tp,0xfffed
    80002328:	5f78                	lw	a4,124(a4)
    8000232a:	3ad0                	fld	fa2,176(a3)
    8000232c:	184a                	slli	a6,a6,0x32
    8000232e:	c4dc                	sw	a5,12(s1)
    80002330:	41c98643          	fmadd.s	fa2,fs3,ft8,fs0,rne
    80002334:	05f8d937          	lui	s2,0x5f8d
    80002338:	eb80                	sd	s0,16(a5)
    8000233a:	d733dc87          	0xd733dc87
    8000233e:	34ea                	fld	fs1,184(sp)
    80002340:	ea0c                	sd	a1,16(a2)
    80002342:	eb12                	sd	tp,400(sp)
    80002344:	e46a2ee3          	0xe46a2ee3
    80002348:	7e35                	lui	t3,0xfffed
    8000234a:	d8a2                	sw	s0,112(sp)
    8000234c:	ed8d                	bnez	a1,80002386 <test_memory+0x186>
    8000234e:	a39e                	fsd	ft7,448(sp)
    80002350:	f936                	sd	a3,176(sp)
    80002352:	097a                	slli	s2,s2,0x1e
    80002354:	c8ec                	sw	a1,84(s1)
    80002356:	dcca                	sw	s2,120(sp)
    80002358:	1aa9                	addi	s5,s5,-22
    8000235a:	bcb8                	fsd	fa4,120(s1)
    8000235c:	e2ef75eb          	0xe2ef75eb
    80002360:	9b25340f          	0x9b25340f
    80002364:	ed98                	sd	a4,24(a1)
    80002366:	eda9d4a7          	0xeda9d4a7
    8000236a:	abb2                	fsd	fa2,464(sp)
    8000236c:	a784                	fsd	fs1,8(a5)
    8000236e:	6e92                	ld	t4,256(sp)
    80002370:	8932                	mv	s2,a2
    80002372:	61c1                	lui	gp,0x10
    80002374:	3127e36f          	jal	t1,80080686 <__global_pointer$+0x7d876>
    80002378:	6635                	lui	a2,0xd
    8000237a:	275d                	addiw	a4,a4,23
    8000237c:	17f4                	addi	a3,sp,1004
    8000237e:	1cda                	slli	s9,s9,0x36
    80002380:	d648e51b          	0xd648e51b
    80002384:	9290                	0x9290
    80002386:	7572                	ld	a0,312(sp)
    80002388:	4dd4e12b          	0x4dd4e12b
    8000238c:	d53d                	beqz	a0,800022fa <test_memory+0xfa>
    8000238e:	036a                	slli	t1,t1,0x1a
    80002390:	a6fe                	fsd	ft11,328(sp)
    80002392:	cb3a                	sw	a4,148(sp)
    80002394:	5862                	lw	a6,56(sp)
    80002396:	d4b8                	sw	a4,104(s1)
    80002398:	dc44                	sw	s1,60(s0)
    8000239a:	aace                	fsd	fs3,336(sp)
    8000239c:	9c0c                	0x9c0c
    8000239e:	4dce                	lw	s11,208(sp)
    800023a0:	a17c0ed3          	fle.s	t4,fs8,fs7
    800023a4:	095ff16f          	jal	sp,80101c38 <__global_pointer$+0xfee28>
    800023a8:	e444                	sd	s1,136(s0)
    800023aa:	f909                	bnez	a0,800022bc <test_memory+0xbc>
    800023ac:	ae44                	fsd	fs1,152(a2)
    800023ae:	f8b54feb          	0xf8b54feb
    800023b2:	9d8dec77          	0x9d8dec77
    800023b6:	d80e                	sw	gp,48(sp)
    800023b8:	b26d                	j	80001d62 <fromhost+0xd22>
    800023ba:	0022                	c.slli	zero,0x8
    800023bc:	0db9                	addi	s11,s11,14
    800023be:	7345                	lui	t1,0xffff1
    800023c0:	796c                	ld	a1,240(a0)
    800023c2:	5d2e                	lw	s10,232(sp)
    800023c4:	e240                	sd	s0,128(a2)
    800023c6:	2d34bacb          	0x2d34bacb
    800023ca:	6199                	lui	gp,0x6
    800023cc:	1f34                	addi	a3,sp,952
    800023ce:	03bd                	addi	t2,t2,15
    800023d0:	3048                	fld	fa0,160(s0)
    800023d2:	dec9                	beqz	a3,8000236c <test_memory+0x16c>
    800023d4:	8f59                	or	a4,a4,a4
    800023d6:	68b4                	ld	a3,80(s1)
    800023d8:	dc584037          	lui	zero,0xdc584
    800023dc:	f9be                	sd	a5,240(sp)
    800023de:	e3b0                	sd	a2,64(a5)
    800023e0:	6230                	ld	a2,64(a2)
    800023e2:	2342                	fld	ft6,16(sp)
    800023e4:	4fc6e9eb          	0x4fc6e9eb
    800023e8:	bf6d                	j	800023a2 <test_memory+0x1a2>
    800023ea:	bbce                	fsd	fs3,496(sp)
    800023ec:	e621                	bnez	a2,80002434 <test_memory+0x234>
    800023ee:	dfe2                	sw	s8,252(sp)
    800023f0:	31fa                	fld	ft3,440(sp)
    800023f2:	f0fa                	sd	t5,96(sp)
    800023f4:	2155                	addiw	sp,sp,21
    800023f6:	ca8c                	sw	a1,16(a3)
    800023f8:	c99e                	sw	t2,208(sp)
    800023fa:	add6                	fsd	fs5,216(sp)
    800023fc:	d2aa                	sw	a0,100(sp)
    800023fe:	8e0e                	mv	t3,gp
    80002400:	89fc                	0x89fc
    80002402:	63f6                	ld	t2,344(sp)
    80002404:	72c2                	ld	t0,48(sp)
    80002406:	7101                	addi	sp,sp,-512
    80002408:	5e16                	lw	t3,100(sp)
    8000240a:	ac8c                	fsd	fa1,24(s1)
    8000240c:	bf2c                	fsd	fa1,120(a4)
    8000240e:	8ae22d6b          	0x8ae22d6b
    80002412:	9eb3ec3f 19958d65 	0x19958d659eb3ec3f
    8000241a:	654a8e0b          	0x654a8e0b
    8000241e:	0309                	addi	t1,t1,2
    80002420:	93c1                	srli	a5,a5,0x30
    80002422:	94f91793          	0x94f91793
    80002426:	90b5                	srli	s1,s1,0x2d
    80002428:	4e89                	li	t4,2
    8000242a:	df16                	sw	t0,188(sp)
    8000242c:	a0f5                	j	80002518 <test_memory+0x318>
    8000242e:	c529                	beqz	a0,80002478 <test_memory+0x278>
    80002430:	376c                	fld	fa1,232(a4)
    80002432:	7ac874cb          	fnmsub.d	fs1,fa6,fa2,fa5
    80002436:	99ed                	andi	a1,a1,-5
    80002438:	ec7e                	sd	t6,24(sp)
    8000243a:	1e2d                	addi	t3,t3,-21
    8000243c:	3ca95d33          	0x3ca95d33
    80002440:	b306                	fsd	ft1,416(sp)
    80002442:	fbf6                	sd	t4,496(sp)
    80002444:	5cd16f27          	0x5cd16f27
    80002448:	ead5                	bnez	a3,800024fc <test_memory+0x2fc>
    8000244a:	1dc5                	addi	s11,s11,-15
    8000244c:	0921                	addi	s2,s2,8
    8000244e:	ba85                	j	80001dbe <fromhost+0xd7e>
    80002450:	b9d8                	fsd	fa4,176(a1)
    80002452:	b18f14c3          	fmadd.s	fs1,ft10,fs8,fs6,rtz
    80002456:	2ab33353          	0x2ab33353
    8000245a:	1d7d                	addi	s10,s10,-1
    8000245c:	d93a                	sw	a4,176(sp)
    8000245e:	05c0                	addi	s0,sp,708
    80002460:	aa64                	fsd	fs1,208(a2)
    80002462:	0ecb5e53          	fsub.q	ft8,fs6,fa2,unknown
    80002466:	0de4                	addi	s1,sp,732
    80002468:	043c                	addi	a5,sp,520
    8000246a:	168c                	addi	a1,sp,864
    8000246c:	58d9                	li	a7,-10
    8000246e:	2bbd                	addiw	s7,s7,15
    80002470:	80ba                	mv	ra,a4
    80002472:	b824dd97          	auipc	s11,0xb824d
    80002476:	954e                	add	a0,a0,s3
    80002478:	f301                	bnez	a4,80002378 <test_memory+0x178>
    8000247a:	4671                	li	a2,28
    8000247c:	16850ffb          	0x16850ffb
    80002480:	1a09                	addi	s4,s4,-30
    80002482:	e2c8                	sd	a0,128(a3)
    80002484:	e8c2                	sd	a6,80(sp)
    80002486:	d28e                	sw	gp,100(sp)
    80002488:	15b6                	slli	a1,a1,0x2d
    8000248a:	676d                	lui	a4,0x1b
    8000248c:	4149                	li	sp,18
    8000248e:	f228                	sd	a0,96(a2)
    80002490:	9d78                	0x9d78
    80002492:	50e6                	lw	ra,120(sp)
    80002494:	fd4e                	sd	s3,184(sp)
    80002496:	7528685b          	0x7528685b
    8000249a:	67bd                	lui	a5,0xf
    8000249c:	0455                	addi	s0,s0,21
    8000249e:	7808                	ld	a0,48(s0)
    800024a0:	1e36                	slli	t3,t3,0x2d
    800024a2:	949a                	add	s1,s1,t1
    800024a4:	0d7de1d3          	0xd7de1d3
    800024a8:	466d                	li	a2,27
    800024aa:	2a61                	addiw	s4,s4,24
    800024ac:	4024                	lw	s1,64(s0)
    800024ae:	ed42                	sd	a6,152(sp)
    800024b0:	6f7ccacf          	fnmadd.q	fs5,fs9,fs7,fa3,rmm
    800024b4:	f9ee                	sd	s11,240(sp)
    800024b6:	e05f 9c5c bd16      	0xbd169c5ce05f
    800024bc:	848449eb          	0x848449eb
    800024c0:	3dc1                	addiw	s11,s11,-16
    800024c2:	4b3c                	lw	a5,80(a4)
    800024c4:	e725                	bnez	a4,8000252c <test_memory+0x32c>
    800024c6:	3c3f1a27          	0x3c3f1a27
    800024ca:	fb42                	sd	a6,432(sp)
    800024cc:	2c1c                	fld	fa5,24(s0)
    800024ce:	6ba2                	ld	s7,8(sp)
    800024d0:	6215c34f          	fnmadd.d	ft6,fa1,ft1,fa2,rmm
    800024d4:	d191                	beqz	a1,800023d8 <test_memory+0x1d8>
    800024d6:	89c7fc07          	0x89c7fc07
    800024da:	4322                	lw	t1,8(sp)
    800024dc:	d9a5                	beqz	a1,8000244c <test_memory+0x24c>
    800024de:	e6ac                	sd	a1,72(a3)
    800024e0:	a894                	fsd	fa3,16(s1)
    800024e2:	1970                	addi	a2,sp,188
    800024e4:	d2da16c3          	fmadd.d	fa3,fs4,fa3,fs10,rtz
    800024e8:	be40                	fsd	fs0,184(a2)
    800024ea:	5db0                	lw	a2,120(a1)
    800024ec:	d170                	sw	a2,100(a0)
    800024ee:	c521                	beqz	a0,80002536 <test_memory+0x336>
    800024f0:	e7da                	sd	s6,456(sp)
    800024f2:	2ce5                	addiw	s9,s9,25
    800024f4:	82e4                	0x82e4
    800024f6:	058e                	slli	a1,a1,0x3
    800024f8:	df05                	beqz	a4,80002430 <test_memory+0x230>
    800024fa:	2101                	sext.w	sp,sp
    800024fc:	f62e                	sd	a1,296(sp)
    800024fe:	4e72                	lw	t3,28(sp)
    80002500:	c62c                	sw	a1,72(a2)
    80002502:	0d25                	addi	s10,s10,9
    80002504:	781d                	lui	a6,0xfffe7
    80002506:	273520cf          	fnmadd.q	ft1,fa0,fs3,ft4,rdn
    8000250a:	7c1c                	ld	a5,56(s0)
    8000250c:	9e58                	0x9e58
    8000250e:	91cd                	srli	a1,a1,0x33
    80002510:	3629                	addiw	a2,a2,-22
    80002512:	4421                	li	s0,8
    80002514:	a839                	j	80002532 <test_memory+0x332>
    80002516:	d8a627c7          	fmsub.s	fa5,fa2,fa0,fs11,rdn
    8000251a:	494c                	lw	a1,20(a0)
    8000251c:	2df42073          	csrs	0x2df,s0
    80002520:	141a                	slli	s0,s0,0x26
    80002522:	ffe6                	sd	s9,504(sp)
    80002524:	4488                	lw	a0,8(s1)
    80002526:	a8197557          	0xa8197557
    8000252a:	7455                	lui	s0,0xffff5
    8000252c:	5f96                	lw	t6,100(sp)
    8000252e:	096d                	addi	s2,s2,27
    80002530:	a4fa8f47          	0xa4fa8f47
    80002534:	a491c807          	flq	fa6,-1463(gp) # 5a49 <_start-0x7fffa5b7>
    80002538:	238838af          	amoxor.d.rl	a7,s8,(a6)
    8000253c:	1c2a                	slli	s8,s8,0x2a
    8000253e:	b582                	fsd	ft0,232(sp)
    80002540:	5486                	lw	s1,96(sp)
    80002542:	98f5                	andi	s1,s1,-3
    80002544:	bfbd                	j	800024c2 <test_memory+0x2c2>
    80002546:	5a9c294b          	fnmsub.d	fs2,fs8,fs1,fa1,rdn
    8000254a:	c959                	beqz	a0,800025e0 <test_memory+0x3e0>
    8000254c:	0cf0                	addi	a2,sp,604
    8000254e:	ffb8                	sd	a4,120(a5)
    80002550:	4e14                	lw	a3,24(a2)
    80002552:	4bd5                	li	s7,21
    80002554:	3568                	fld	fa0,232(a0)
    80002556:	fc12                	sd	tp,56(sp)
    80002558:	0119                	addi	sp,sp,6
    8000255a:	665d                	lui	a2,0x17
    8000255c:	0449                	addi	s0,s0,18
    8000255e:	0ca771f7          	0xca771f7
    80002562:	eb75                	bnez	a4,80002656 <_end+0x46>
    80002564:	665ba057          	0x665ba057
    80002568:	239f 1d37 a5b0      	0xa5b01d37239f
    8000256e:	a184                	fsd	fs1,0(a1)
    80002570:	7da32dc3          	0x7da32dc3
    80002574:	809a                	mv	ra,t1
    80002576:	1e5c                	addi	a5,sp,820
    80002578:	fe51                	bnez	a2,80002514 <test_memory+0x314>
    8000257a:	4a1c                	lw	a5,16(a2)
    8000257c:	6f8a                	ld	t6,128(sp)
    8000257e:	534c64c7          	fmsub.d	fs1,fs8,fs4,fa0,unknown
    80002582:	4c2a                	lw	s8,136(sp)
    80002584:	0858                	addi	a4,sp,20
    80002586:	6be8                	ld	a0,208(a5)
    80002588:	65b9                	lui	a1,0xe
    8000258a:	0945                	addi	s2,s2,17
    8000258c:	1d22                	slli	s10,s10,0x28
    8000258e:	8f8a                	mv	t6,sp
    80002590:	805c                	0x805c
    80002592:	5fa8                	lw	a0,120(a5)
    80002594:	777f                	0x777f
    80002596:	21b69367          	0x21b69367
    8000259a:	e25e                	sd	s7,256(sp)
    8000259c:	a4ed                	j	80002886 <_end+0x276>
    8000259e:	2984                	fld	fs1,16(a1)
    800025a0:	ef56                	sd	s5,408(sp)
    800025a2:	13be                	slli	t2,t2,0x2f
    800025a4:	0da1                	addi	s11,s11,8
    800025a6:	b779                	j	80002534 <test_memory+0x334>
    800025a8:	83b5                	srli	a5,a5,0xd
    800025aa:	5715c607          	flq	fa2,1393(a1) # e571 <_start-0x7fff1a8f>
    800025ae:	3380                	fld	fs0,32(a5)
    800025b0:	c620b53b          	0xc620b53b
    800025b4:	5f71b61b          	0x5f71b61b
    800025b8:	ac1f bcb6 e036      	0xe036bcb6ac1f
    800025be:	c0c0                	sw	s0,4(s1)
    800025c0:	0397c63b          	divw	a2,a5,s9
    800025c4:	d27c                	sw	a5,100(a2)
    800025c6:	d70a                	sw	sp,172(sp)
    800025c8:	3312                	fld	ft6,288(sp)
    800025ca:	5772                	lw	a4,60(sp)
    800025cc:	34b43463          	0x34b43463
    800025d0:	f77d2f8f          	0xf77d2f8f
    800025d4:	c71c                	sw	a5,8(a4)
    800025d6:	28524c37          	lui	s8,0x28524
    800025da:	d9e4                	sw	s1,116(a1)
    800025dc:	e487a66b          	0xe487a66b
    800025e0:	9a85                	andi	a3,a3,-31
    800025e2:	ec9a                	sd	t1,88(sp)
    800025e4:	2e14                	fld	fa3,24(a2)
    800025e6:	71b5                	lui	gp,0xfffed
    800025e8:	9e81                	subw	a3,a3,s0
    800025ea:	af621d77          	0xaf621d77
    800025ee:	c160                	sw	s0,68(a0)
    800025f0:	6cdc                	ld	a5,152(s1)
    800025f2:	5f38                	lw	a4,120(a4)
    800025f4:	d450                	sw	a2,44(s0)
    800025f6:	299d                	addiw	s3,s3,7
    800025f8:	358e                	fld	fa1,224(sp)
    800025fa:	2a58b5e7          	0x2a58b5e7
    800025fe:	5edc                	lw	a5,60(a3)

0000000080002600 <loop_count>:
    80002600:	0040                	addi	s0,sp,4
	...

Disassembly of section .riscv.attributes:

0000000000000000 <.riscv.attributes>:
   0:	1e41                	addi	t3,t3,-16
   2:	0000                	unimp
   4:	7200                	ld	s0,32(a2)
   6:	7369                	lui	t1,0xffffa
   8:	01007663          	bgeu	zero,a6,14 <_start-0x7fffffec>
   c:	0014                	0x14
   e:	0000                	unimp
  10:	7205                	lui	tp,0xfffe1
  12:	3676                	fld	fa2,376(sp)
  14:	6934                	ld	a3,80(a0)
  16:	7032                	0x7032
  18:	5f30                	lw	a2,120(a4)
  1a:	326d                	addiw	tp,tp,-5
  1c:	3070                	fld	fa2,224(s0)
	...
