
build/test21:     file format elf64-littleriscv


Disassembly of section .text.init:

0000000080000000 <_start>:
    80000000:	05c0006f          	j	8000005c <reset_vector>

0000000080000004 <trap_vector>:
    80000004:	34202f73          	csrr	t5,mcause
    80000008:	00800f93          	li	t6,8
    8000000c:	03ff0a63          	beq	t5,t6,80000040 <write_tohost>
    80000010:	00900f93          	li	t6,9
    80000014:	03ff0663          	beq	t5,t6,80000040 <write_tohost>
    80000018:	00b00f93          	li	t6,11
    8000001c:	03ff0263          	beq	t5,t6,80000040 <write_tohost>
    80000020:	80000f17          	auipc	t5,0x80000
    80000024:	fe0f0f13          	addi	t5,t5,-32 # 0 <_start-0x80000000>
    80000028:	000f0463          	beqz	t5,80000030 <trap_vector+0x2c>
    8000002c:	000f0067          	jr	t5
    80000030:	34202f73          	csrr	t5,mcause
    80000034:	000f5463          	bgez	t5,8000003c <handle_exception>
    80000038:	0040006f          	j	8000003c <handle_exception>

000000008000003c <handle_exception>:
    8000003c:	5391e193          	ori	gp,gp,1337

0000000080000040 <write_tohost>:
    80000040:	00001f17          	auipc	t5,0x1
    80000044:	fc3f2023          	sw	gp,-64(t5) # 80001000 <tohost>
    80000048:	000902b7          	lui	t0,0x90
    8000004c:	0012829b          	addiw	t0,t0,1
    80000050:	00c29293          	slli	t0,t0,0xc
    80000054:	0002af83          	lw	t6,0(t0) # 90000 <_start-0x7ff70000>
    80000058:	fe9ff06f          	j	80000040 <write_tohost>

000000008000005c <reset_vector>:
    8000005c:	00000093          	li	ra,0
    80000060:	00000113          	li	sp,0
    80000064:	00000193          	li	gp,0
    80000068:	00000213          	li	tp,0
    8000006c:	00000293          	li	t0,0
    80000070:	00000313          	li	t1,0
    80000074:	00000393          	li	t2,0
    80000078:	00000413          	li	s0,0
    8000007c:	00000493          	li	s1,0
    80000080:	00000513          	li	a0,0
    80000084:	00000593          	li	a1,0
    80000088:	00000613          	li	a2,0
    8000008c:	00000693          	li	a3,0
    80000090:	00000713          	li	a4,0
    80000094:	00000793          	li	a5,0
    80000098:	00000813          	li	a6,0
    8000009c:	00000893          	li	a7,0
    800000a0:	00000913          	li	s2,0
    800000a4:	00000993          	li	s3,0
    800000a8:	00000a13          	li	s4,0
    800000ac:	00000a93          	li	s5,0
    800000b0:	00000b13          	li	s6,0
    800000b4:	00000b93          	li	s7,0
    800000b8:	00000c13          	li	s8,0
    800000bc:	00000c93          	li	s9,0
    800000c0:	00000d13          	li	s10,0
    800000c4:	00000d93          	li	s11,0
    800000c8:	00000e13          	li	t3,0
    800000cc:	00000e93          	li	t4,0
    800000d0:	00000f13          	li	t5,0
    800000d4:	00000f93          	li	t6,0
    800000d8:	f1402573          	csrr	a0,mhartid
    800000dc:	00051063          	bnez	a0,800000dc <reset_vector+0x80>
    800000e0:	00000297          	auipc	t0,0x0
    800000e4:	01028293          	addi	t0,t0,16 # 800000f0 <reset_vector+0x94>
    800000e8:	30529073          	csrw	mtvec,t0
    800000ec:	18005073          	csrwi	satp,0
    800000f0:	00000297          	auipc	t0,0x0
    800000f4:	02428293          	addi	t0,t0,36 # 80000114 <reset_vector+0xb8>
    800000f8:	30529073          	csrw	mtvec,t0
    800000fc:	0010029b          	addiw	t0,zero,1
    80000100:	03529293          	slli	t0,t0,0x35
    80000104:	fff28293          	addi	t0,t0,-1
    80000108:	3b029073          	csrw	pmpaddr0,t0
    8000010c:	01f00293          	li	t0,31
    80000110:	3a029073          	csrw	pmpcfg0,t0
    80000114:	30405073          	csrwi	mie,0
    80000118:	00000297          	auipc	t0,0x0
    8000011c:	01428293          	addi	t0,t0,20 # 8000012c <reset_vector+0xd0>
    80000120:	30529073          	csrw	mtvec,t0
    80000124:	30205073          	csrwi	medeleg,0
    80000128:	30305073          	csrwi	mideleg,0
    8000012c:	00000193          	li	gp,0
    80000130:	00000297          	auipc	t0,0x0
    80000134:	ed428293          	addi	t0,t0,-300 # 80000004 <trap_vector>
    80000138:	30529073          	csrw	mtvec,t0
    8000013c:	00100513          	li	a0,1
    80000140:	01f51513          	slli	a0,a0,0x1f
    80000144:	00055c63          	bgez	a0,8000015c <reset_vector+0x100>
    80000148:	0ff0000f          	fence
    8000014c:	00100193          	li	gp,1
    80000150:	05d00893          	li	a7,93
    80000154:	00000513          	li	a0,0
    80000158:	00000073          	ecall
    8000015c:	80000297          	auipc	t0,0x80000
    80000160:	ea428293          	addi	t0,t0,-348 # 0 <_start-0x80000000>
    80000164:	00028a63          	beqz	t0,80000178 <reset_vector+0x11c>
    80000168:	10529073          	csrw	stvec,t0
    8000016c:	0000b2b7          	lui	t0,0xb
    80000170:	1092829b          	addiw	t0,t0,265
    80000174:	30229073          	csrw	medeleg,t0
    80000178:	30005073          	csrwi	mstatus,0
    8000017c:	00000297          	auipc	t0,0x0
    80000180:	01428293          	addi	t0,t0,20 # 80000190 <reset_vector+0x134>
    80000184:	34129073          	csrw	mepc,t0
    80000188:	f1402573          	csrr	a0,mhartid
    8000018c:	30200073          	mret
    80000190:	0200006f          	j	800001b0 <test_start>

0000000080000194 <crash_backward>:
    80000194:	0ff0000f          	fence
    80000198:	00018063          	beqz	gp,80000198 <crash_backward+0x4>
    8000019c:	00119193          	slli	gp,gp,0x1
    800001a0:	0011e193          	ori	gp,gp,1
    800001a4:	05d00893          	li	a7,93
    800001a8:	00018513          	mv	a0,gp
    800001ac:	00000073          	ecall

00000000800001b0 <test_start>:
    800001b0:	00002f97          	auipc	t6,0x2
    800001b4:	e50f8f93          	addi	t6,t6,-432 # 80002000 <hidden_data>
    800001b8:	000fb003          	ld	zero,0(t6)
    800001bc:	008fb083          	ld	ra,8(t6)
    800001c0:	010fb103          	ld	sp,16(t6)
    800001c4:	018fb183          	ld	gp,24(t6)
    800001c8:	020fb203          	ld	tp,32(t6)
    800001cc:	028fb283          	ld	t0,40(t6)
    800001d0:	030fb303          	ld	t1,48(t6)
    800001d4:	038fb383          	ld	t2,56(t6)
    800001d8:	040fb403          	ld	s0,64(t6)
    800001dc:	048fb483          	ld	s1,72(t6)
    800001e0:	050fb503          	ld	a0,80(t6)
    800001e4:	058fb583          	ld	a1,88(t6)
    800001e8:	060fb603          	ld	a2,96(t6)
    800001ec:	068fb683          	ld	a3,104(t6)
    800001f0:	070fb703          	ld	a4,112(t6)
    800001f4:	078fb783          	ld	a5,120(t6)
    800001f8:	080fb803          	ld	a6,128(t6)
    800001fc:	088fb883          	ld	a7,136(t6)
    80000200:	090fb903          	ld	s2,144(t6)
    80000204:	098fb983          	ld	s3,152(t6)
    80000208:	0a0fba03          	ld	s4,160(t6)
    8000020c:	0a8fba83          	ld	s5,168(t6)
    80000210:	0b0fbb03          	ld	s6,176(t6)
    80000214:	0b8fbb83          	ld	s7,184(t6)
    80000218:	0c0fbc03          	ld	s8,192(t6)
    8000021c:	0c8fbc83          	ld	s9,200(t6)
    80000220:	0d0fbd03          	ld	s10,208(t6)
    80000224:	0d8fbd83          	ld	s11,216(t6)
    80000228:	0e0fbe03          	ld	t3,224(t6)
    8000022c:	0e8fbe83          	ld	t4,232(t6)
    80000230:	0f0fbf03          	ld	t5,240(t6)
    80000234:	0f8fbf83          	ld	t6,248(t6)
    80000238:	0040006f          	j	8000023c <pseg_0>

000000008000023c <pseg_0>:
    8000023c:	022f6cbb          	remw	s9,t5,sp
    80000240:	00000893          	li	a7,0
    80000244:	41acd69b          	sraiw	a3,s9,0x1a
    80000248:	00002097          	auipc	ra,0x2
    8000024c:	7a708093          	addi	ra,ra,1959 # 800029ef <_end+0x3df>
    80000250:	00100c13          	li	s8,1
    80000254:	e6600213          	li	tp,-410
    80000258:	00000413          	li	s0,0
    8000025c:	48400493          	li	s1,1156
    80000260:	02ef1393          	slli	t2,t5,0x2e
    80000264:	41ef063b          	subw	a2,t5,t5
    80000268:	92700593          	li	a1,-1753
    8000026c:	4070d33b          	sraw	t1,ra,t2
    80000270:	03a0f3bb          	remuw	t2,ra,s10
    80000274:	00d77a33          	and	s4,a4,a3
    80000278:	001f2d33          	slt	s10,t5,ra
    8000027c:	00002a97          	auipc	s5,0x2
    80000280:	875a8a93          	addi	s5,s5,-1931 # 80001af1 <fromhost+0xab1>
    80000284:	f088e8e3          	bltu	a7,s0,80000194 <crash_backward>
    80000288:	02949833          	mulh	a6,s1,s1
    8000028c:	0187ca33          	xor	s4,a5,s8
    80000290:	00b5d533          	srl	a0,a1,a1
    80000294:	b3b0c703          	lbu	a4,-1221(ra)
    80000298:	02d6d7bb          	divuw	a5,a3,a3
    8000029c:	00002197          	auipc	gp,0x2
    800002a0:	2d718193          	addi	gp,gp,727 # 80002573 <test_memory+0x373>
    800002a4:	06b62893          	slti	a7,a2,107
    800002a8:	00004433          	xor	s0,zero,zero
    800002ac:	00000e13          	li	t3,0
    800002b0:	00000f93          	li	t6,0
    800002b4:	31900593          	li	a1,793
    800002b8:	ec001ee3          	bnez	zero,80000194 <crash_backward>
    800002bc:	03fc1c13          	slli	s8,s8,0x3f
    800002c0:	7adaafa3          	sw	a3,1983(s5)
    800002c4:	7c200813          	li	a6,1986
    800002c8:	6bfe1463          	bne	t3,t6,80000970 <crash_forward>
    800002cc:	fff00293          	li	t0,-1
    800002d0:	015e563b          	srlw	a2,t3,s5
    800002d4:	00002797          	auipc	a5,0x2
    800002d8:	9f878793          	addi	a5,a5,-1544 # 80001ccc <fromhost+0xc8c>
    800002dc:	00427b33          	and	s6,tp,tp
    800002e0:	8be00093          	li	ra,-1858
    800002e4:	ee300993          	li	s3,-285
    800002e8:	b5a00a13          	li	s4,-1190
    800002ec:	7cb00c93          	li	s9,1995
    800002f0:	74780393          	addi	t2,a6,1863
    800002f4:	0345f73b          	remuw	a4,a1,s4
    800002f8:	0251a103          	lw	sp,37(gp) # 80002e35 <__global_pointer$+0x25>
    800002fc:	00000313          	li	t1,0
    80000300:	34a00d93          	li	s11,842
    80000304:	e2108493          	addi	s1,ra,-479
    80000308:	67c7d503          	lhu	a0,1660(a5)
    8000030c:	00000d13          	li	s10,0
    80000310:	e9a362e3          	bltu	t1,s10,80000194 <crash_backward>
    80000314:	0182c2b3          	xor	t0,t0,s8
    80000318:	25200b93          	li	s7,594
    8000031c:	01b98eb3          	add	t4,s3,s11
    80000320:	017cb6b3          	sltu	a3,s9,s7
    80000324:	0055f933          	and	s2,a1,t0
    80000328:	01826f33          	or	t5,tp,s8
    8000032c:	65e90263          	beq	s2,t5,80000970 <crash_forward>
    80000330:	2ff00b93          	li	s7,767
    80000334:	39c00613          	li	a2,924
    80000338:	f477c893          	xori	a7,a5,-185
    8000033c:	00100413          	li	s0,1
    80000340:	00000813          	li	a6,0
    80000344:	0280b8b3          	mulhu	a7,ra,s0
    80000348:	16300093          	li	ra,355
    8000034c:	41ce5533          	sra	a0,t3,t3
    80000350:	034f1733          	mulh	a4,t5,s4
    80000354:	03b884bb          	mulw	s1,a7,s11
    80000358:	e2500d93          	li	s11,-475
    8000035c:	02300993          	li	s3,35
    80000360:	0102b8b3          	sltu	a7,t0,a6
    80000364:	03f41413          	slli	s0,s0,0x3f
    80000368:	08e00213          	li	tp,142
    8000036c:	87c00f93          	li	t6,-1924
    80000370:	fff00593          	li	a1,-1
    80000374:	8ad00713          	li	a4,-1875
    80000378:	035042bb          	divw	t0,zero,s5
    8000037c:	39598913          	addi	s2,s3,917
    80000380:	8cc70493          	addi	s1,a4,-1844
    80000384:	024deeb3          	rem	t4,s11,tp
    80000388:	00002c97          	auipc	s9,0x2
    8000038c:	387c8c93          	addi	s9,s9,903 # 8000270f <_end+0xff>
    80000390:	037baab3          	mulhsu	s5,s7,s7
    80000394:	c789f513          	andi	a0,s3,-904
    80000398:	0010da3b          	srlw	s4,ra,ra
    8000039c:	0085c5b3          	xor	a1,a1,s0
    800003a0:	bb300f13          	li	t5,-1101
    800003a4:	00ba7c33          	and	s8,s4,a1
    800003a8:	cebcc303          	lbu	t1,-789(s9)
    800003ac:	019cb4b3          	sltu	s1,s9,s9
    800003b0:	01f617b3          	sll	a5,a2,t6
    800003b4:	84800a13          	li	s4,-1976
    800003b8:	2ad00093          	li	ra,685
    800003bc:	07c00993          	li	s3,124
    800003c0:	008aeb33          	or	s6,s5,s0
    800003c4:	00002397          	auipc	t2,0x2
    800003c8:	1b338393          	addi	t2,t2,435 # 80002577 <test_memory+0x377>
    800003cc:	dc738103          	lb	sp,-569(t2)
    800003d0:	00100513          	li	a0,1
    800003d4:	021a3233          	mulhu	tp,s4,ra
    800003d8:	f1000913          	li	s2,-240
    800003dc:	0339dbbb          	divuw	s7,s3,s3
    800003e0:	37c00d13          	li	s10,892
    800003e4:	01ad01b3          	add	gp,s10,s10
    800003e8:	598b6463          	bltu	s6,s8,80000970 <crash_forward>
    800003ec:	4b500a93          	li	s5,1205
    800003f0:	00000e13          	li	t3,0
    800003f4:	035968bb          	remw	a7,s2,s5
    800003f8:	cdb00793          	li	a5,-805
    800003fc:	15700493          	li	s1,343
    80000400:	06e00b13          	li	s6,110
    80000404:	03f51513          	slli	a0,a0,0x3f
    80000408:	4094d9bb          	sraw	s3,s1,s1
    8000040c:	01ef56b3          	srl	a3,t5,t5
    80000410:	fff00d93          	li	s11,-1
    80000414:	55c81e63          	bne	a6,t3,80000970 <crash_forward>
    80000418:	a7a78193          	addi	gp,a5,-1414
    8000041c:	00000813          	li	a6,0
    80000420:	00adcdb3          	xor	s11,s11,a0
    80000424:	00000893          	li	a7,0
    80000428:	00000393          	li	t2,0
    8000042c:	00000113          	li	sp,0
    80000430:	dcb00f93          	li	t6,-565
    80000434:	00100b93          	li	s7,1
    80000438:	d4239ee3          	bne	t2,sp,80000194 <crash_backward>
    8000043c:	94800e13          	li	t3,-1720
    80000440:	01f6c433          	xor	s0,a3,t6
    80000444:	d43788e3          	beq	a5,gp,80000194 <crash_backward>
    80000448:	0c800f13          	li	t5,200
    8000044c:	a9500a93          	li	s5,-1387
    80000450:	4056531b          	sraiw	t1,a2,0x5
    80000454:	035e76b3          	remu	a3,t3,s5
    80000458:	024263bb          	remw	t2,tp,tp
    8000045c:	6e400393          	li	t2,1764
    80000460:	03fb75b3          	remu	a1,s6,t6
    80000464:	01b7f733          	and	a4,a5,s11
    80000468:	01ded9bb          	srlw	s3,t4,t4
    8000046c:	03fb9b93          	slli	s7,s7,0x3f
    80000470:	fff00d13          	li	s10,-1
    80000474:	00100213          	li	tp,1
    80000478:	62a00893          	li	a7,1578
    8000047c:	0273c43b          	divw	s0,t2,t2
    80000480:	fb000b13          	li	s6,-80
    80000484:	00a76eb3          	or	t4,a4,a0
    80000488:	4fd74463          	blt	a4,t4,80000970 <crash_forward>
    8000048c:	026c4e33          	div	t3,s8,t1
    80000490:	023652b3          	divu	t0,a2,gp
    80000494:	a7f00693          	li	a3,-1409
    80000498:	19900813          	li	a6,409
    8000049c:	a3900313          	li	t1,-1479
    800004a0:	017d4d33          	xor	s10,s10,s7
    800004a4:	49838a93          	addi	s5,t2,1176
    800004a8:	00029593          	slli	a1,t0,0x0
    800004ac:	40485793          	srai	a5,a6,0x4
    800004b0:	01a8fcb3          	and	s9,a7,s10
    800004b4:	017ce0b3          	or	ra,s9,s7
    800004b8:	00687133          	and	sp,a6,t1
    800004bc:	6c9f0493          	addi	s1,t5,1737
    800004c0:	13688913          	addi	s2,a7,310
    800004c4:	03f21213          	slli	tp,tp,0x3f
    800004c8:	7fe00e93          	li	t4,2046
    800004cc:	ff700813          	li	a6,-9
    800004d0:	f7b80793          	addi	a5,a6,-133
    800004d4:	90d00c93          	li	s9,-1779
    800004d8:	037b9733          	mulh	a4,s7,s7
    800004dc:	018c61b3          	or	gp,s8,s8
    800004e0:	26800093          	li	ra,616
    800004e4:	00002f17          	auipc	t5,0x2
    800004e8:	86cf0f13          	addi	t5,t5,-1940 # 80001d50 <fromhost+0xd10>
    800004ec:	48800493          	li	s1,1160
    800004f0:	02f7dab3          	divu	s5,a5,a5
    800004f4:	f4400293          	li	t0,-188
    800004f8:	03297db3          	remu	s11,s2,s2
    800004fc:	625f4883          	lbu	a7,1573(t5)
    80000500:	01a3993b          	sllw	s2,t2,s10
    80000504:	fff00a13          	li	s4,-1
    80000508:	30000513          	li	a0,768
    8000050c:	11600313          	li	t1,278
    80000510:	039cc1b3          	div	gp,s9,s9
    80000514:	98d00113          	li	sp,-1651
    80000518:	72c00d13          	li	s10,1836
    8000051c:	00db19b3          	sll	s3,s6,a3
    80000520:	44f84863          	blt	a6,a5,80000970 <crash_forward>
    80000524:	03a283bb          	mulw	t2,t0,s10
    80000528:	039ec5b3          	div	a1,t4,s9
    8000052c:	004a4a33          	xor	s4,s4,tp
    80000530:	01407633          	and	a2,zero,s4
    80000534:	004bec33          	or	s8,s7,tp
    80000538:	40a08e33          	sub	t3,ra,a0
    8000053c:	0094e733          	or	a4,s1,s1
    80000540:	b6b00413          	li	s0,-1173
    80000544:	02846fb3          	rem	t6,s0,s0
    80000548:	02237bb3          	remu	s7,t1,sp
    8000054c:	00f788b3          	add	a7,a5,a5
    80000550:	a9b00813          	li	a6,-1381
    80000554:	43e00993          	li	s3,1086
    80000558:	017bda3b          	srlw	s4,s7,s7
    8000055c:	0308693b          	remw	s2,a6,a6
    80000560:	e8000d93          	li	s11,-384
    80000564:	82400193          	li	gp,-2012
    80000568:	00002497          	auipc	s1,0x2
    8000056c:	00848493          	addi	s1,s1,8 # 80002570 <test_memory+0x370>
    80000570:	415a8e3b          	subw	t3,s5,s5
    80000574:	03639733          	mulh	a4,t2,s6
    80000578:	0013dd1b          	srliw	s10,t2,0x1
    8000057c:	00100213          	li	tp,1
    80000580:	e1e00513          	li	a0,-482
    80000584:	03bdc633          	div	a2,s11,s11
    80000588:	00319b33          	sll	s6,gp,gp
    8000058c:	00100f93          	li	t6,1
    80000590:	00100c93          	li	s9,1
    80000594:	78d00793          	li	a5,1933
    80000598:	02f7c2b3          	div	t0,a5,a5
    8000059c:	d7648103          	lb	sp,-650(s1)
    800005a0:	03ff9f93          	slli	t6,t6,0x3f
    800005a4:	fff00693          	li	a3,-1
    800005a8:	00a55bb3          	srl	s7,a0,a0
    800005ac:	01f6c6b3          	xor	a3,a3,t6
    800005b0:	5d898f13          	addi	t5,s3,1496
    800005b4:	03fc9c93          	slli	s9,s9,0x3f
    800005b8:	03f21213          	slli	tp,tp,0x3f
    800005bc:	fff00093          	li	ra,-1
    800005c0:	00d17eb3          	and	t4,sp,a3
    800005c4:	0190c0b3          	xor	ra,ra,s9
    800005c8:	01feeab3          	or	s5,t4,t6
    800005cc:	fff00c13          	li	s8,-1
    800005d0:	001b7433          	and	s0,s6,ra
    800005d4:	004c4c33          	xor	s8,s8,tp
    800005d8:	028448bb          	divw	a7,s0,s0
    800005dc:	01c0129b          	slliw	t0,zero,0x1c
    800005e0:	007396b3          	sll	a3,t2,t2
    800005e4:	01946333          	or	t1,s0,s9
    800005e8:	66100f13          	li	t5,1633
    800005ec:	0b500a93          	li	s5,181
    800005f0:	01ad7bb3          	and	s7,s10,s10
    800005f4:	00002517          	auipc	a0,0x2
    800005f8:	51450513          	addi	a0,a0,1300 # 80002b08 <_end+0x4f8>
    800005fc:	4079d6bb          	sraw	a3,s3,t2
    80000600:	ea100813          	li	a6,-351
    80000604:	5cba8613          	addi	a2,s5,1483
    80000608:	00eb893b          	addw	s2,s7,a4
    8000060c:	018d73b3          	and	t2,s10,s8
    80000610:	0043e5b3          	or	a1,t2,tp
    80000614:	00100113          	li	sp,1
    80000618:	03502fb3          	mulhsu	t6,zero,s5
    8000061c:	00002e17          	auipc	t3,0x2
    80000620:	566e0e13          	addi	t3,t3,1382 # 80002b82 <_end+0x572>
    80000624:	01ef31b3          	sltu	gp,t5,t5
    80000628:	400bd7b3          	sra	a5,s7,zero
    8000062c:	41b38a33          	sub	s4,t2,s11
    80000630:	00002497          	auipc	s1,0x2
    80000634:	1a548493          	addi	s1,s1,421 # 800027d5 <_end+0x1c5>
    80000638:	03f11113          	slli	sp,sp,0x3f
    8000063c:	037bc9b3          	div	s3,s7,s7
    80000640:	fff00b13          	li	s6,-1
    80000644:	00002897          	auipc	a7,0x2
    80000648:	f4188893          	addi	a7,a7,-191 # 80002585 <test_memory+0x385>
    8000064c:	cf34d283          	lhu	t0,-781(s1)
    80000650:	f478a1a3          	sw	t2,-189(a7)
    80000654:	03082eb3          	mulhsu	t4,a6,a6
    80000658:	b2e74ee3          	blt	a4,a4,80000194 <crash_backward>
    8000065c:	97456d83          	lwu	s11,-1676(a0)
    80000660:	8f6e0b23          	sb	s6,-1802(t3)
    80000664:	002b4b33          	xor	s6,s6,sp
    80000668:	9a103613          	sltiu	a2,zero,-1631
    8000066c:	08800513          	li	a0,136
    80000670:	02a5483b          	divw	a6,a0,a0
    80000674:	00b5c2b3          	xor	t0,a1,a1
    80000678:	0169f733          	and	a4,s3,s6
    8000067c:	00276d33          	or	s10,a4,sp
    80000680:	0374e93b          	remw	s2,s1,s7
    80000684:	d1100493          	li	s1,-751
    80000688:	b1a746e3          	blt	a4,s10,80000194 <crash_backward>
    8000068c:	ebd00693          	li	a3,-323
    80000690:	0a100613          	li	a2,161
    80000694:	c5700e93          	li	t4,-937
    80000698:	4dc00993          	li	s3,1244
    8000069c:	00700a93          	li	s5,7
    800006a0:	00c625b3          	slt	a1,a2,a2
    800006a4:	41ce5e3b          	sraw	t3,t3,t3
    800006a8:	8bc00893          	li	a7,-1860
    800006ac:	c06b2837          	lui	a6,0xc06b2
    800006b0:	3ba00413          	li	s0,954
    800006b4:	015ee1b3          	or	gp,t4,s5
    800006b8:	5b898c93          	addi	s9,s3,1464
    800006bc:	ad99fce3          	bgeu	s3,s9,80000194 <crash_backward>
    800006c0:	0286ef3b          	remw	t5,a3,s0
    800006c4:	0314adb3          	mulhsu	s11,s1,a7
    800006c8:	37c00313          	li	t1,892
    800006cc:	00100f13          	li	t5,1
    800006d0:	03ff1f13          	slli	t5,t5,0x3f
    800006d4:	01c45a3b          	srlw	s4,s0,t3
    800006d8:	0084573b          	srlw	a4,s0,s0
    800006dc:	93900593          	li	a1,-1735
    800006e0:	0259bfb3          	mulhu	t6,s3,t0
    800006e4:	0315743b          	remuw	s0,a0,a7
    800006e8:	41ffd133          	sra	sp,t6,t6
    800006ec:	9a200993          	li	s3,-1630
    800006f0:	034a58b3          	divu	a7,s4,s4
    800006f4:	00b592bb          	sllw	t0,a1,a1
    800006f8:	4a800613          	li	a2,1192
    800006fc:	0339c833          	div	a6,s3,s3
    80000700:	00100193          	li	gp,1
    80000704:	3e900a93          	li	s5,1001
    80000708:	02d6cb33          	div	s6,a3,a3
    8000070c:	02c63db3          	mulhu	s11,a2,a2
    80000710:	dca0bd37          	lui	s10,0xdca0b
    80000714:	fff00e13          	li	t3,-1
    80000718:	73ea8c93          	addi	s9,s5,1854
    8000071c:	00650bbb          	addw	s7,a0,t1
    80000720:	a6006ae3          	bltu	zero,zero,80000194 <crash_backward>
    80000724:	01ee4e33          	xor	t3,t3,t5
    80000728:	03f19193          	slli	gp,gp,0x3f
    8000072c:	fff00793          	li	a5,-1
    80000730:	95b00213          	li	tp,-1701
    80000734:	33f00593          	li	a1,831
    80000738:	eb300113          	li	sp,-333
    8000073c:	f8000b93          	li	s7,-128
    80000740:	87900413          	li	s0,-1927
    80000744:	41500a13          	li	s4,1045
    80000748:	01cdfc33          	and	s8,s11,t3
    8000074c:	00040713          	mv	a4,s0
    80000750:	44a00b13          	li	s6,1098
    80000754:	13300993          	li	s3,307
    80000758:	00070f93          	mv	t6,a4
    8000075c:	a3f74ce3          	blt	a4,t6,80000194 <crash_backward>
    80000760:	0052ad33          	slt	s10,t0,t0
    80000764:	036a3ab3          	mulhu	s5,s4,s6
    80000768:	01e764b3          	or	s1,a4,t5
    8000076c:	c8210893          	addi	a7,sp,-894
    80000770:	f8a00913          	li	s2,-118
    80000774:	1e9c4e63          	blt	s8,s1,80000970 <crash_forward>
    80000778:	a028fee3          	bgeu	a7,sp,80000194 <crash_backward>
    8000077c:	013b953b          	sllw	a0,s7,s3
    80000780:	67400d93          	li	s11,1652
    80000784:	0037c7b3          	xor	a5,a5,gp
    80000788:	48600613          	li	a2,1158
    8000078c:	0285ecbb          	remw	s9,a1,s0
    80000790:	00cdd83b          	srlw	a6,s11,a2
    80000794:	03226ebb          	remw	t4,tp,s2
    80000798:	00f576b3          	and	a3,a0,a5
    8000079c:	5d400293          	li	t0,1492
    800007a0:	16128313          	addi	t1,t0,353
    800007a4:	0033e3b3          	or	t2,t2,gp
    800007a8:	1cd3e463          	bltu	t2,a3,80000970 <crash_forward>
    800007ac:	00100093          	li	ra,1
    800007b0:	1a800e93          	li	t4,424
    800007b4:	f5300b13          	li	s6,-173
    800007b8:	000e8193          	mv	gp,t4
    800007bc:	b6f00913          	li	s2,-1169
    800007c0:	037ddcb3          	divu	s9,s11,s7
    800007c4:	00100613          	li	a2,1
    800007c8:	0077539b          	srliw	t2,a4,0x7
    800007cc:	01bc6233          	or	tp,s8,s11
    800007d0:	03f09093          	slli	ra,ra,0x3f
    800007d4:	00e7513b          	srlw	sp,a4,a4
    800007d8:	00008413          	mv	s0,ra
    800007dc:	00100793          	li	a5,1
    800007e0:	3a6e8693          	addi	a3,t4,934
    800007e4:	00018d93          	mv	s11,gp
    800007e8:	02004f33          	div	t5,zero,zero
    800007ec:	03f61613          	slli	a2,a2,0x3f
    800007f0:	bc600293          	li	t0,-1082
    800007f4:	b8200393          	li	t2,-1150
    800007f8:	84f00c93          	li	s9,-1969
    800007fc:	028469bb          	remw	s3,s0,s0
    80000800:	fff00513          	li	a0,-1
    80000804:	03f79793          	slli	a5,a5,0x3f
    80000808:	019c9f3b          	sllw	t5,s9,s9
    8000080c:	ed1b0b93          	addi	s7,s6,-303
    80000810:	b6000113          	li	sp,-1184
    80000814:	00154533          	xor	a0,a0,ra
    80000818:	fff00d13          	li	s10,-1
    8000081c:	03295c3b          	divuw	s8,s2,s2
    80000820:	00a27fb3          	and	t6,tp,a0
    80000824:	028429b3          	mulhsu	s3,s0,s0
    80000828:	025298b3          	mulh	a7,t0,t0
    8000082c:	000f0c13          	mv	s8,t5
    80000830:	00040e13          	mv	t3,s0
    80000834:	fff00a93          	li	s5,-1
    80000838:	000c0893          	mv	a7,s8
    8000083c:	0210edbb          	remw	s11,ra,ra
    80000840:	410d5733          	sra	a4,s10,a6
    80000844:	957b98e3          	bne	s7,s7,80000194 <crash_backward>
    80000848:	0023823b          	addw	tp,t2,sp
    8000084c:	00cd4d33          	xor	s10,s10,a2
    80000850:	00100b93          	li	s7,1
    80000854:	00facab3          	xor	s5,s5,a5
    80000858:	001fea33          	or	s4,t6,ra
    8000085c:	00ebd933          	srl	s2,s7,a4
    80000860:	11c46863          	bltu	s0,t3,80000970 <crash_forward>
    80000864:	01ad7333          	and	t1,s10,s10
    80000868:	015a75b3          	and	a1,s4,s5
    8000086c:	00ca64b3          	or	s1,s4,a2
    80000870:	414401bb          	subw	gp,s0,s4
    80000874:	03fb9b93          	slli	s7,s7,0x3f
    80000878:	90930ee3          	beq	t1,s1,80000194 <crash_backward>
    8000087c:	00ffe833          	or	a6,t6,a5
    80000880:	48900993          	li	s3,1161
    80000884:	fff00293          	li	t0,-1
    80000888:	0172c2b3          	xor	t0,t0,s7
    8000088c:	005c7f33          	and	t5,s8,t0
    80000890:	b1200e93          	li	t4,-1262
    80000894:	01d9b6b3          	sltu	a3,s3,t4
    80000898:	017f6b33          	or	s6,t5,s7
    8000089c:	8f6f7ce3          	bgeu	t5,s6,80000194 <crash_backward>
    800008a0:	0231c8b3          	div	a7,gp,gp
    800008a4:	56300593          	li	a1,1379
    800008a8:	00b5f133          	and	sp,a1,a1
    800008ac:	85400093          	li	ra,-1964
    800008b0:	2b500393          	li	t2,693
    800008b4:	017ba6b3          	slt	a3,s7,s7
    800008b8:	2a0d7f93          	andi	t6,s10,672
    800008bc:	a7100513          	li	a0,-1423
    800008c0:	02a3833b          	mulw	t1,t2,a0
    800008c4:	33900c13          	li	s8,825
    800008c8:	0380f7bb          	remuw	a5,ra,s8
    800008cc:	0040006f          	j	800008d0 <reg_dump>

00000000800008d0 <reg_dump>:
    800008d0:	00002097          	auipc	ra,0x2
    800008d4:	d3008093          	addi	ra,ra,-720 # 80002600 <loop_count>
    800008d8:	0000a103          	lw	sp,0(ra)
    800008dc:	fff10193          	addi	gp,sp,-1
    800008e0:	0030a023          	sw	gp,0(ra)
    800008e4:	94011ce3          	bnez	sp,8000023c <pseg_0>
    800008e8:	00002097          	auipc	ra,0x2
    800008ec:	81808093          	addi	ra,ra,-2024 # 80002100 <begin_signature>
    800008f0:	0000b023          	sd	zero,0(ra)
    800008f4:	0020b823          	sd	sp,16(ra)
    800008f8:	0030bc23          	sd	gp,24(ra)
    800008fc:	0240b023          	sd	tp,32(ra)
    80000900:	0250b423          	sd	t0,40(ra)
    80000904:	0260b823          	sd	t1,48(ra)
    80000908:	0270bc23          	sd	t2,56(ra)
    8000090c:	0480b023          	sd	s0,64(ra)
    80000910:	0490b423          	sd	s1,72(ra)
    80000914:	04a0b823          	sd	a0,80(ra)
    80000918:	04b0bc23          	sd	a1,88(ra)
    8000091c:	06c0b023          	sd	a2,96(ra)
    80000920:	06d0b423          	sd	a3,104(ra)
    80000924:	06e0b823          	sd	a4,112(ra)
    80000928:	06f0bc23          	sd	a5,120(ra)
    8000092c:	0900b023          	sd	a6,128(ra)
    80000930:	0910b423          	sd	a7,136(ra)
    80000934:	0920b823          	sd	s2,144(ra)
    80000938:	0930bc23          	sd	s3,152(ra)
    8000093c:	0b40b023          	sd	s4,160(ra)
    80000940:	0b50b423          	sd	s5,168(ra)
    80000944:	0b60b823          	sd	s6,176(ra)
    80000948:	0b70bc23          	sd	s7,184(ra)
    8000094c:	0d80b023          	sd	s8,192(ra)
    80000950:	0d90b423          	sd	s9,200(ra)
    80000954:	0da0b823          	sd	s10,208(ra)
    80000958:	0db0bc23          	sd	s11,216(ra)
    8000095c:	0fc0b023          	sd	t3,224(ra)
    80000960:	0fd0b423          	sd	t4,232(ra)
    80000964:	0fe0b823          	sd	t5,240(ra)
    80000968:	0ff0bc23          	sd	t6,248(ra)
    8000096c:	0200006f          	j	8000098c <test_end>

0000000080000970 <crash_forward>:
    80000970:	0ff0000f          	fence
    80000974:	00018063          	beqz	gp,80000974 <crash_forward+0x4>
    80000978:	00119193          	slli	gp,gp,0x1
    8000097c:	0011e193          	ori	gp,gp,1
    80000980:	05d00893          	li	a7,93
    80000984:	00018513          	mv	a0,gp
    80000988:	00000073          	ecall

000000008000098c <test_end>:
    8000098c:	0ff0000f          	fence
    80000990:	00100193          	li	gp,1
    80000994:	05d00893          	li	a7,93
    80000998:	00000513          	li	a0,0
    8000099c:	00000073          	ecall
    800009a0:	c0001073          	unimp
	...

Disassembly of section .tohost:

0000000080001000 <tohost>:
	...

0000000080001040 <fromhost>:
	...

Disassembly of section .data:

0000000080002000 <hidden_data>:
    80002000:	53bc                	lw	a5,96(a5)
    80002002:	b04c                	fsd	fa1,160(s0)
    80002004:	3cf6                	fld	fs9,376(sp)
    80002006:	          	0xe25b

0000000080002008 <reg_x1_init>:
	...

0000000080002010 <reg_x2_init>:
	...

0000000080002018 <reg_x3_init>:
    80002018:	f6a4                	sd	s1,104(a3)
    8000201a:	dc48                	sw	a0,60(s0)
    8000201c:	aa22                	fsd	fs0,272(sp)
    8000201e:	8ed4                	0x8ed4

0000000080002020 <reg_x4_init>:
    80002020:	8006                	c.mv	zero,ra
    80002022:	ffff                	0xffff
    80002024:	ffff                	0xffff
    80002026:	ffff                	0xffff

0000000080002028 <reg_x5_init>:
    80002028:	8008                	0x8008
    8000202a:	ffff                	0xffff
    8000202c:	ffff                	0xffff
    8000202e:	ffff                	0xffff

0000000080002030 <reg_x6_init>:
    80002030:	801a                	c.mv	zero,t1
    80002032:	38d0                	fld	fa2,176(s1)
    80002034:	c830853b          	0xc830853b

0000000080002038 <reg_x7_init>:
    80002038:	ffff                	0xffff
    8000203a:	ffff                	0xffff
    8000203c:	ffff                	0xffff
    8000203e:	ffff                	0xffff

0000000080002040 <reg_x8_init>:
    80002040:	ffff                	0xffff
    80002042:	ffff                	0xffff
    80002044:	ffff                	0xffff
    80002046:	ffff                	0xffff

0000000080002048 <reg_x9_init>:
    80002048:	ffff8007          	0xffff8007
    8000204c:	ffff                	0xffff
    8000204e:	ffff                	0xffff

0000000080002050 <reg_x10_init>:
    80002050:	ffff                	0xffff
    80002052:	ffff                	0xffff
    80002054:	ffff                	0xffff
    80002056:	ffff                	0xffff

0000000080002058 <reg_x11_init>:
    80002058:	0005                	c.nop	1
    8000205a:	0000                	unimp
    8000205c:	0000                	unimp
    8000205e:	0800                	addi	s0,sp,16

0000000080002060 <reg_x12_init>:
	...

0000000080002068 <reg_x13_init>:
    80002068:	2836                	fld	fa6,328(sp)
    8000206a:	246d                	addiw	s0,s0,27
    8000206c:	490f5aa7          	0x490f5aa7

0000000080002070 <reg_x14_init>:
    80002070:	8001                	c.srli64	s0
    80002072:	ffff                	0xffff
    80002074:	ffff                	0xffff
    80002076:	ffff                	0xffff

0000000080002078 <reg_x15_init>:
    80002078:	ffff                	0xffff
    8000207a:	ffff                	0xffff
    8000207c:	ffff                	0xffff
    8000207e:	ffff                	0xffff

0000000080002080 <reg_x16_init>:
    80002080:	ffff                	0xffff
    80002082:	ffff                	0xffff
    80002084:	ffff                	0xffff
    80002086:	ffff                	0xffff

0000000080002088 <reg_x17_init>:
    80002088:	0004                	0x4
    8000208a:	0000                	unimp
    8000208c:	0000                	unimp
	...

0000000080002090 <reg_x18_init>:
	...

0000000080002098 <reg_x19_init>:
    80002098:	0004                	0x4
    8000209a:	8000                	0x8000
    8000209c:	ffff                	0xffff
    8000209e:	ffff                	0xffff

00000000800020a0 <reg_x20_init>:
    800020a0:	6468                	ld	a0,200(s0)
    800020a2:	4b08                	lw	a0,16(a4)
    800020a4:	0342                	slli	t1,t1,0x10
    800020a6:	          	0x1d9c67cb

00000000800020a8 <reg_x21_init>:
    800020a8:	1d9c                	addi	a5,sp,752
    800020aa:	4eba                	lw	t4,140(sp)
    800020ac:	cf50                	sw	a2,28(a4)
    800020ae:	37e9                	addiw	a5,a5,-6

00000000800020b0 <reg_x22_init>:
    800020b0:	a1e6                	fsd	fs9,192(sp)
    800020b2:	0f22                	slli	t5,t5,0x8
    800020b4:	7bf8f1bf  	0xda52f9bf7bf8f1bf

00000000800020b8 <reg_x23_init>:
    800020b8:	da52f9bf 8a496ef6 	0x8a496ef6da52f9bf

00000000800020c0 <reg_x24_init>:
    800020c0:	0006                	c.slli	zero,0x1
    800020c2:	0000                	unimp
    800020c4:	0000                	unimp
    800020c6:	0800                	addi	s0,sp,16

00000000800020c8 <reg_x25_init>:
    800020c8:	ece0                	sd	s0,216(s1)
    800020ca:	51d5                	li	gp,-11
    800020cc:	86a42c23          	sw	a0,-1928(s0)

00000000800020d0 <reg_x26_init>:
    800020d0:	4472                	lw	s0,28(sp)
    800020d2:	4d79                	li	s10,30
    800020d4:	ee89                	bnez	a3,800020ee <reg_x29_init+0x6>
    800020d6:	e5f5                	bnez	a1,800021c2 <reg_x24_output+0x2>

00000000800020d8 <reg_x27_init>:
    800020d8:	3f60                	fld	fs0,248(a4)
    800020da:	a900                	fsd	fs0,16(a0)
    800020dc:	bba75373          	csrrwi	t1,0xbba,14

00000000800020e0 <reg_x28_init>:
    800020e0:	ffff                	0xffff
    800020e2:	ffff                	0xffff
    800020e4:	ffff                	0xffff
    800020e6:	ffff                	0xffff

00000000800020e8 <reg_x29_init>:
    800020e8:	c7d9                	beqz	a5,80002176 <reg_x14_output+0x6>
    800020ea:	5766                	lw	a4,120(sp)
    800020ec:	70fbd52b          	0x70fbd52b

00000000800020f0 <reg_x30_init>:
    800020f0:	61dc                	ld	a5,128(a1)
    800020f2:	894735fb          	0x894735fb
    800020f6:	fdca                	sd	s2,248(sp)

00000000800020f8 <reg_x31_init>:
    800020f8:	c0535a73          	csrrwi	s4,hpmcounter5,6
    800020fc:	c705                	beqz	a4,80002124 <reg_x4_output+0x4>
    800020fe:	d3ea                	sw	s10,228(sp)

0000000080002100 <begin_signature>:
    80002100:	0d54                	addi	a3,sp,660
    80002102:	72a8                	ld	a0,96(a3)
    80002104:	fbf5                	bnez	a5,800020f8 <reg_x31_init>
    80002106:	16aa                	slli	a3,a3,0x2a

0000000080002108 <reg_x1_output>:
    80002108:	62c2                	ld	t0,16(sp)
    8000210a:	7c81                	lui	s9,0xfffe0
    8000210c:	7412                	ld	s0,288(sp)
    8000210e:	          	0x6aa1a39b

0000000080002110 <reg_x2_output>:
    80002110:	6aa1                	lui	s5,0x8
    80002112:	44ed                	li	s1,27
    80002114:	cd08                	sw	a0,24(a0)
    80002116:	cea6                	sw	s1,92(sp)

0000000080002118 <reg_x3_output>:
    80002118:	6179                	addi	sp,sp,464
    8000211a:	0d94                	addi	a3,sp,720
    8000211c:	b068                	fsd	fa0,224(s0)
    8000211e:	247c                	fld	fa5,200(s0)

0000000080002120 <reg_x4_output>:
    80002120:	0908                	addi	a0,sp,144
    80002122:	8158                	0x8158
    80002124:	51cdaae7          	0x51cdaae7

0000000080002128 <reg_x5_output>:
    80002128:	1d457fa3          	0x1d457fa3
    8000212c:	bab480e7          	jalr	-1109(s1)

0000000080002130 <reg_x6_output>:
    80002130:	4314                	lw	a3,0(a4)
    80002132:	9ffc                	0x9ffc
    80002134:	3bb2f243          	fmadd.d	ft4,ft5,fs11,ft7

0000000080002138 <reg_x7_output>:
    80002138:	ebb5                	bnez	a5,800021ac <reg_x21_output+0x4>
    8000213a:	e5b6                	sd	a3,200(sp)
    8000213c:	5068                	lw	a0,100(s0)
    8000213e:	6ce0                	ld	s0,216(s1)

0000000080002140 <reg_x8_output>:
    80002140:	2dde                	fld	fs11,464(sp)
    80002142:	87b541bb          	0x87b541bb
    80002146:	271d                	addiw	a4,a4,7

0000000080002148 <reg_x9_output>:
    80002148:	b2ec                	fsd	fa1,224(a3)
    8000214a:	d0c4                	sw	s1,36(s1)
    8000214c:	45b8                	lw	a4,72(a1)
    8000214e:	          	0x305acc67

0000000080002150 <reg_x10_output>:
    80002150:	305a                	fld	ft0,432(sp)
    80002152:	529e                	lw	t0,228(sp)
    80002154:	c7da                	sw	s6,204(sp)
    80002156:	e401                	bnez	s0,8000215e <reg_x11_output+0x6>

0000000080002158 <reg_x11_output>:
    80002158:	1ac8                	addi	a0,sp,372
    8000215a:	f2ff                	0xf2ff
    8000215c:	2a56                	fld	fs4,336(sp)
    8000215e:	39df        	0x5d843bed39df

0000000080002160 <reg_x12_output>:
    80002160:	3bed                	addiw	s7,s7,-5
    80002162:	5d84                	lw	s1,56(a1)
    80002164:	d5c4                	sw	s1,44(a1)
    80002166:	          	0x9dbacf67

0000000080002168 <reg_x13_output>:
    80002168:	9dba                	add	s11,s11,a4
    8000216a:	696c                	ld	a1,208(a0)
    8000216c:	797c                	ld	a5,240(a0)
    8000216e:	a712                	fsd	ft4,392(sp)

0000000080002170 <reg_x14_output>:
    80002170:	7a41                	lui	s4,0xffff0
    80002172:	e811                	bnez	s0,80002186 <reg_x16_output+0x6>
    80002174:	eb94                	sd	a3,16(a5)
    80002176:	15fd                	addi	a1,a1,-1

0000000080002178 <reg_x15_output>:
    80002178:	ab227f1b          	0xab227f1b
    8000217c:	db5a                	sw	s6,180(sp)
    8000217e:	29a9                	addiw	s3,s3,10

0000000080002180 <reg_x16_output>:
    80002180:	845d                	srai	s0,s0,0x17
    80002182:	9162eb8b          	0x9162eb8b
    80002186:	83ec                	0x83ec

0000000080002188 <reg_x17_output>:
    80002188:	2a60                	fld	fs0,208(a2)
    8000218a:	6d3e                	ld	s10,456(sp)
    8000218c:	90a9                	srli	s1,s1,0x2a
    8000218e:	          	0x76ef68db

0000000080002190 <reg_x18_output>:
    80002190:	575976ef          	jal	a3,80099f04 <__global_pointer$+0x970f4>
    80002194:	de61                	beqz	a2,8000216c <reg_x13_output+0x4>
    80002196:	7d7c                	ld	a5,248(a0)

0000000080002198 <reg_x19_output>:
    80002198:	d18c                	sw	a1,32(a1)
    8000219a:	d9b8                	sw	a4,112(a1)
    8000219c:	925e                	add	tp,tp,s7
    8000219e:	          	0x77ecd5a7

00000000800021a0 <reg_x20_output>:
    800021a0:	77ec                	ld	a1,232(a5)
    800021a2:	cd80                	sw	s0,24(a1)
    800021a4:	227f283f  	0xe331fee5227f283f

00000000800021a8 <reg_x21_output>:
    800021a8:	fee5                	bnez	a3,800021a0 <reg_x20_output>
    800021aa:	e331                	bnez	a4,800021ee <reg_x29_output+0x6>
    800021ac:	69bd                	lui	s3,0xf
    800021ae:	          	fnmadd.s	fa6,fs4,fs5,fa6,rmm

00000000800021b0 <reg_x22_output>:
    800021b0:	815a                	mv	sp,s6
    800021b2:	1dea                	slli	s11,s11,0x3a
    800021b4:	c4d2                	sw	s4,72(sp)
    800021b6:	6462                	ld	s0,24(sp)

00000000800021b8 <reg_x23_output>:
    800021b8:	0dea                	slli	s11,s11,0x1a
    800021ba:	b865                	j	80001a72 <fromhost+0xa32>
    800021bc:	0492                	slli	s1,s1,0x4
    800021be:	eb25                	bnez	a4,8000222e <test_memory+0x2e>

00000000800021c0 <reg_x24_output>:
    800021c0:	856c                	0x856c
    800021c2:	23ce                	fld	ft7,208(sp)
    800021c4:	c1f1                	beqz	a1,80002288 <test_memory+0x88>
    800021c6:	d2d5                	beqz	a3,8000216a <reg_x13_output+0x2>

00000000800021c8 <reg_x25_output>:
    800021c8:	3cc8bf83          	ld	t6,972(a7)
    800021cc:	09bc                	addi	a5,sp,216
    800021ce:	aabc                	fsd	fa5,80(a3)

00000000800021d0 <reg_x26_output>:
    800021d0:	9e6e3fcf          	fnmadd.q	ft11,ft8,ft6,fs3,rup
    800021d4:	b79d                	j	8000213a <reg_x7_output+0x2>
    800021d6:	0ecd                	addi	t4,t4,19

00000000800021d8 <reg_x27_output>:
    800021d8:	5d7a                	lw	s10,188(sp)
    800021da:	71e9e817          	auipc	a6,0x71e9e
    800021de:	da3d                	beqz	a2,80002154 <reg_x10_output+0x4>

00000000800021e0 <reg_x28_output>:
    800021e0:	4842                	lw	a6,16(sp)
    800021e2:	186c0ccf          	fnmadd.s	fs9,fs8,ft6,ft3,rne
    800021e6:	8e49                	or	a2,a2,a0

00000000800021e8 <reg_x29_output>:
    800021e8:	212a                	fld	ft2,136(sp)
    800021ea:	2771                	addiw	a4,a4,28
    800021ec:	805568a7          	0x805568a7

00000000800021f0 <reg_x30_output>:
    800021f0:	3a6c                	fld	fa1,240(a2)
    800021f2:	f05a                	sd	s6,32(sp)
    800021f4:	a41d                	j	8000241a <test_memory+0x21a>
    800021f6:	a62a                	fsd	fa0,264(sp)

00000000800021f8 <reg_x31_output>:
    800021f8:	d175                	beqz	a0,800021dc <reg_x27_output+0x4>
    800021fa:	e7b1                	bnez	a5,80002246 <test_memory+0x46>
    800021fc:	b999                	j	80001e52 <fromhost+0xe12>
    800021fe:	          	0x6e9422f

0000000080002200 <test_memory>:
    80002200:	06e9                	addi	a3,a3,26
    80002202:	ada4                	fsd	fs1,88(a1)
    80002204:	e08e                	sd	gp,64(sp)
    80002206:	9186                	add	gp,gp,ra
    80002208:	cbfa                	sw	t5,212(sp)
    8000220a:	1cad                	addi	s9,s9,-21
    8000220c:	4e0a                	lw	t3,128(sp)
    8000220e:	c1a50e77          	0xc1a50e77
    80002212:	6a52                	ld	s4,272(sp)
    80002214:	bcd2                	fsd	fs4,120(sp)
    80002216:	70d5                	lui	ra,0xffff5
    80002218:	2399ed87          	0x2399ed87
    8000221c:	7ea0                	ld	s0,120(a3)
    8000221e:	3691                	addiw	a3,a3,-28
    80002220:	816d                	srli	a0,a0,0x1b
    80002222:	3450                	fld	fa2,168(s0)
    80002224:	c299                	beqz	a3,8000222a <test_memory+0x2a>
    80002226:	6df8                	ld	a4,216(a1)
    80002228:	0dcc                	addi	a1,sp,724
    8000222a:	bb25                	j	80001f62 <fromhost+0xf22>
    8000222c:	48963d6f          	jal	s10,80065eb4 <__global_pointer$+0x630a4>
    80002230:	24c2                	fld	fs1,16(sp)
    80002232:	b694                	fsd	fa3,40(a3)
    80002234:	79d9                	lui	s3,0xffff6
    80002236:	6628                	ld	a0,72(a2)
    80002238:	0252                	slli	tp,tp,0x14
    8000223a:	e101                	bnez	a0,8000223a <test_memory+0x3a>
    8000223c:	5c39                	li	s8,-18
    8000223e:	b512                	fsd	ft4,168(sp)
    80002240:	0ff1                	addi	t6,t6,28
    80002242:	1bf1                	addi	s7,s7,-4
    80002244:	a6e1e2af          	0xa6e1e2af
    80002248:	5caa                	lw	s9,168(sp)
    8000224a:	4e04                	lw	s1,24(a2)
    8000224c:	72ec                	ld	a1,224(a3)
    8000224e:	98b1                	andi	s1,s1,-20
    80002250:	3860                	fld	fs0,240(s0)
    80002252:	2ddc                	fld	fa5,152(a1)
    80002254:	297d                	addiw	s2,s2,31
    80002256:	57e98917          	auipc	s2,0x57e98
    8000225a:	16ed                	addi	a3,a3,-5
    8000225c:	27c12a6b          	0x27c12a6b
    80002260:	1129                	addi	sp,sp,-22
    80002262:	7d26                	ld	s10,104(sp)
    80002264:	f958                	sd	a4,176(a0)
    80002266:	8474                	0x8474
    80002268:	6b61a953          	0x6b61a953
    8000226c:	ef92                	sd	tp,472(sp)
    8000226e:	2cec8057          	0x2cec8057
    80002272:	8a8e                	mv	s5,gp
    80002274:	10a5                	addi	ra,ra,-23
    80002276:	d5c0                	sw	s0,44(a1)
    80002278:	2855                	addiw	a6,a6,21
    8000227a:	be4e                	fsd	fs3,312(sp)
    8000227c:	5279                	li	tp,-2
    8000227e:	9c05                	subw	s0,s0,s1
    80002280:	a8e0                	fsd	fs0,208(s1)
    80002282:	9e0e                	add	t3,t3,gp
    80002284:	fc01                	bnez	s0,8000219c <reg_x19_output+0x4>
    80002286:	0d64                	addi	s1,sp,668
    80002288:	81b8                	0x81b8
    8000228a:	3d84                	fld	fs1,56(a1)
    8000228c:	cb9295fb          	0xcb9295fb
    80002290:	c30ab52b          	0xc30ab52b
    80002294:	1b61                	addi	s6,s6,-8
    80002296:	f88e                	sd	gp,112(sp)
    80002298:	6a14                	ld	a3,16(a2)
    8000229a:	41a4                	lw	s1,64(a1)
    8000229c:	6abe3373          	csrrc	t1,0x6ab,t3
    800022a0:	ce74                	sw	a3,92(a2)
    800022a2:	466c                	lw	a1,76(a2)
    800022a4:	e5b2557b          	0xe5b2557b
    800022a8:	0382                	c.slli64	t2
    800022aa:	de41                	beqz	a2,80002242 <test_memory+0x42>
    800022ac:	56c4                	lw	s1,44(a3)
    800022ae:	2745                	addiw	a4,a4,17
    800022b0:	7cb5                	lui	s9,0xfffed
    800022b2:	ff76                	sd	t4,440(sp)
    800022b4:	1d62                	slli	s10,s10,0x38
    800022b6:	77d1                	lui	a5,0xffff4
    800022b8:	6a95                	lui	s5,0x5
    800022ba:	7c0a                	ld	s8,160(sp)
    800022bc:	96a4                	0x96a4
    800022be:	6a3a                	ld	s4,392(sp)
    800022c0:	ab55                	j	80002874 <_end+0x264>
    800022c2:	95cc                	0x95cc
    800022c4:	27b6ae77          	0x27b6ae77
    800022c8:	9e89                	subw	a3,a3,a0
    800022ca:	26ce                	fld	fa3,208(sp)
    800022cc:	6d11                	lui	s10,0x4
    800022ce:	ccd9                	beqz	s1,8000236c <test_memory+0x16c>
    800022d0:	ee75                	bnez	a2,800023cc <test_memory+0x1cc>
    800022d2:	2c68                	fld	fa0,216(s0)
    800022d4:	a280                	fsd	fs0,0(a3)
    800022d6:	72ed                	lui	t0,0xffffb
    800022d8:	38bd                	addiw	a7,a7,-17
    800022da:	26a4                	fld	fs1,72(a3)
    800022dc:	3421                	addiw	s0,s0,-24
    800022de:	66fa                	ld	a3,408(sp)
    800022e0:	4989                	li	s3,2
    800022e2:	3ac9                	addiw	s5,s5,-14
    800022e4:	4611                	li	a2,4
    800022e6:	2ab1                	addiw	s5,s5,12
    800022e8:	a75e                	fsd	fs7,392(sp)
    800022ea:	79c4                	ld	s1,176(a1)
    800022ec:	ab04                	fsd	fs1,16(a4)
    800022ee:	9d42                	add	s10,s10,a6
    800022f0:	a13d4b2b          	0xa13d4b2b
    800022f4:	4f32                	lw	t5,12(sp)
    800022f6:	9c86                	add	s9,s9,ra
    800022f8:	df65                	beqz	a4,800022f0 <test_memory+0xf0>
    800022fa:	aac2                	fsd	fa6,336(sp)
    800022fc:	4741                	li	a4,16
    800022fe:	922b8c6b          	0x922b8c6b
    80002302:	f3c8                	sd	a0,160(a5)
    80002304:	da42                	sw	a6,52(sp)
    80002306:	9055                	srli	s0,s0,0x35
    80002308:	b9c2                	fsd	fa6,240(sp)
    8000230a:	5826                	lw	a6,104(sp)
    8000230c:	d646                	sw	a7,44(sp)
    8000230e:	75b1                	lui	a1,0xfffec
    80002310:	0fea                	slli	t6,t6,0x1a
    80002312:	ae00                	fsd	fs0,24(a2)
    80002314:	d118                	sw	a4,32(a0)
    80002316:	9f40                	0x9f40
    80002318:	6fd9                	lui	t6,0x16
    8000231a:	0e44                	addi	s1,sp,788
    8000231c:	3320                	fld	fs0,96(a4)
    8000231e:	9b16                	add	s6,s6,t0
    80002320:	32c89be7          	0x32c89be7
    80002324:	206d                	0x206d
    80002326:	e120                	sd	s0,64(a0)
    80002328:	eb2d                	bnez	a4,8000239a <test_memory+0x19a>
    8000232a:	05aa                	slli	a1,a1,0xa
    8000232c:	1486                	slli	s1,s1,0x21
    8000232e:	c086                	sw	ra,64(sp)
    80002330:	ac9a                	fsd	ft6,88(sp)
    80002332:	aa32                	fsd	fa2,272(sp)
    80002334:	5f75                	li	t5,-3
    80002336:	af08                	fsd	fa0,24(a4)
    80002338:	dc5a                	sw	s6,56(sp)
    8000233a:	16fa                	slli	a3,a3,0x3e
    8000233c:	45e9371b          	0x45e9371b
    80002340:	4980                	lw	s0,16(a1)
    80002342:	9718                	0x9718
    80002344:	cdd2                	sw	s4,216(sp)
    80002346:	756d                	lui	a0,0xffffb
    80002348:	cd48                	sw	a0,28(a0)
    8000234a:	67f31ba3          	sh	t6,1655(t1)
    8000234e:	8a77454f          	fnmadd.d	fa0,fa4,ft7,fa7,rmm
    80002352:	4adf cbae a2ef      	0xa2efcbae4adf
    80002358:	a29d                	j	800024be <test_memory+0x2be>
    8000235a:	3355d123          	0x3355d123
    8000235e:	d496                	sw	t0,104(sp)
    80002360:	b115384b          	fnmsub.s	fa6,fa0,fa7,fs6,rup
    80002364:	301d                	0x301d
    80002366:	67a1                	lui	a5,0x8
    80002368:	ad384073          	0xad384073
    8000236c:	02f43bc3          	fmadd.d	fs7,fs0,fa5,ft0,rup
    80002370:	6290                	ld	a2,0(a3)
    80002372:	9bb8                	0x9bb8
    80002374:	21cc                	fld	fa1,128(a1)
    80002376:	9615                	srai	a2,a2,0x25
    80002378:	5c3a464b          	0x5c3a464b
    8000237c:	7d39                	lui	s10,0xfffee
    8000237e:	3534                	fld	fa3,104(a0)
    80002380:	feb1                	bnez	a3,800022dc <test_memory+0xdc>
    80002382:	2d48                	fld	fa0,152(a0)
    80002384:	55da                	lw	a1,180(sp)
    80002386:	d1ce                	sw	s3,224(sp)
    80002388:	1640                	addi	s0,sp,804
    8000238a:	00b18ad3          	fadd.s	fs5,ft3,fa1,rne
    8000238e:	6f4c                	ld	a1,152(a4)
    80002390:	e449                	bnez	s0,8000241a <test_memory+0x21a>
    80002392:	f438                	sd	a4,104(s0)
    80002394:	d8ff                	0xd8ff
    80002396:	b828                	fsd	fa0,112(s0)
    80002398:	9b7f                	0x9b7f
    8000239a:	c3ef40af          	0xc3ef40af
    8000239e:	fb98                	sd	a4,48(a5)
    800023a0:	bab1                	j	80001cfc <fromhost+0xcbc>
    800023a2:	157f                	0x157f
    800023a4:	a7b4c6f7          	0xa7b4c6f7
    800023a8:	83f6                	mv	t2,t4
    800023aa:	45f4                	lw	a3,76(a1)
    800023ac:	d979                	beqz	a0,80002382 <test_memory+0x182>
    800023ae:	cfc0                	sw	s0,28(a5)
    800023b0:	abd9                	j	80002986 <_end+0x376>
    800023b2:	9419a707          	flw	fa4,-1727(s3) # ffffffffffff5941 <__global_pointer$+0xffffffff7fff2b31>
    800023b6:	a87a                	fsd	ft10,16(sp)
    800023b8:	984fe14b          	fnmsub.s	ft2,ft11,ft4,fs3,unknown
    800023bc:	04e5                	addi	s1,s1,25
    800023be:	6915                	lui	s2,0x5
    800023c0:	4fb1f05b          	0x4fb1f05b
    800023c4:	cd49                	beqz	a0,8000245e <test_memory+0x25e>
    800023c6:	650f1407          	0x650f1407
    800023ca:	575ad1cf          	fnmadd.q	ft3,fs5,fs5,fa0,unknown
    800023ce:	7eca                	ld	t4,176(sp)
    800023d0:	88cd                	andi	s1,s1,19
    800023d2:	720ff70f          	0x720ff70f
    800023d6:	70ad                	lui	ra,0xfffeb
    800023d8:	0261ac33          	mulhsu	s8,gp,t1
    800023dc:	9051                	srli	s0,s0,0x34
    800023de:	7b92                	ld	s7,288(sp)
    800023e0:	b856                	fsd	fs5,48(sp)
    800023e2:	4d07e3db          	0x4d07e3db
    800023e6:	4dba5e47          	0x4dba5e47
    800023ea:	005c                	addi	a5,sp,4
    800023ec:	469c                	lw	a5,8(a3)
    800023ee:	1483da53          	0x1483da53
    800023f2:	ee7d130b          	0xee7d130b
    800023f6:	f675                	bnez	a2,800023e2 <test_memory+0x1e2>
    800023f8:	b3c7a0af          	0xb3c7a0af
    800023fc:	1da8                	addi	a0,sp,760
    800023fe:	2f38                	fld	fa4,88(a4)
    80002400:	db1b3e5b          	0xdb1b3e5b
    80002404:	2d50                	fld	fa2,152(a0)
    80002406:	6d5904ab          	0x6d5904ab
    8000240a:	a6cc                	fsd	fa1,136(a3)
    8000240c:	8b06                	mv	s6,ra
    8000240e:	475c                	lw	a5,12(a4)
    80002410:	98b0                	0x98b0
    80002412:	757c                	ld	a5,232(a0)
    80002414:	521f 8603 fdae      	0xfdae8603521f
    8000241a:	f2ae                	sd	a1,352(sp)
    8000241c:	920df027          	0x920df027
    80002420:	bbb08fb7          	lui	t6,0xbbb08
    80002424:	50a1                	li	ra,-24
    80002426:	4104e3e3          	bltu	s1,a6,8000302c <__global_pointer$+0x21c>
    8000242a:	e786                	sd	ra,456(sp)
    8000242c:	0c66                	slli	s8,s8,0x19
    8000242e:	45db2f6f          	jal	t5,800b508a <__global_pointer$+0xb227a>
    80002432:	0c4c                	addi	a1,sp,532
    80002434:	b358                	fsd	fa4,160(a4)
    80002436:	e8f6                	sd	t4,80(sp)
    80002438:	f70e                	sd	gp,424(sp)
    8000243a:	f494                	sd	a3,40(s1)
    8000243c:	05520b4b          	0x5520b4b
    80002440:	b9cd                	j	80002132 <reg_x6_output+0x2>
    80002442:	beb8                	fsd	fa4,120(a3)
    80002444:	1d61                	addi	s10,s10,-8
    80002446:	fcae                	sd	a1,120(sp)
    80002448:	1605                	addi	a2,a2,-31
    8000244a:	fb16                	sd	t0,432(sp)
    8000244c:	b30e                	fsd	ft3,416(sp)
    8000244e:	1cae                	slli	s9,s9,0x2b
    80002450:	b9df f886 86ad      	0x86adf886b9df
    80002456:	5809                	li	a6,-30
    80002458:	e025                	bnez	s0,800024b8 <test_memory+0x2b8>
    8000245a:	64ac                	ld	a1,72(s1)
    8000245c:	775a                	ld	a4,432(sp)
    8000245e:	0c6e                	slli	s8,s8,0x1b
    80002460:	3892                	fld	fa7,288(sp)
    80002462:	ddbe                	sw	a5,248(sp)
    80002464:	9656                	add	a2,a2,s5
    80002466:	5c5aa587          	flw	fa1,1477(s5) # 55c5 <_start-0x7fffaa3b>
    8000246a:	d4bc                	sw	a5,104(s1)
    8000246c:	7452                	ld	s0,304(sp)
    8000246e:	21a0                	fld	fs0,64(a1)
    80002470:	d66d                	beqz	a2,8000245a <test_memory+0x25a>
    80002472:	8bf5                	andi	a5,a5,29
    80002474:	bf4a                	fsd	fs2,440(sp)
    80002476:	77c5                	lui	a5,0xffff1
    80002478:	cff1263b          	0xcff1263b
    8000247c:	95d8                	0x95d8
    8000247e:	b50f55c3          	0xb50f55c3
    80002482:	bf78                	fsd	fa4,248(a4)
    80002484:	032d                	addi	t1,t1,11
    80002486:	c937bcf3          	csrrc	s9,hpmcounter19h,a5
    8000248a:	6f0d2a83          	lw	s5,1776(s10) # fffffffffffee6f0 <__global_pointer$+0xffffffff7ffeb8e0>
    8000248e:	89f5                	andi	a1,a1,29
    80002490:	678de787          	0x678de787
    80002494:	7f7d                	lui	t5,0xfffff
    80002496:	7af1                	lui	s5,0xffffc
    80002498:	1b0d                	addi	s6,s6,-29
    8000249a:	d369                	beqz	a4,8000245c <test_memory+0x25c>
    8000249c:	8612                	mv	a2,tp
    8000249e:	3db8                	fld	fa4,120(a1)
    800024a0:	5c5613e3          	bne	a2,t0,80003266 <__global_pointer$+0x456>
    800024a4:	28f6                	fld	fa7,344(sp)
    800024a6:	bf21                	j	800023be <test_memory+0x1be>
    800024a8:	4981                	li	s3,0
    800024aa:	bc09                	j	80001ebc <fromhost+0xe7c>
    800024ac:	1818                	addi	a4,sp,48
    800024ae:	69ed                	lui	s3,0x1b
    800024b0:	1a06                	slli	s4,s4,0x21
    800024b2:	42e9                	li	t0,26
    800024b4:	77905937          	lui	s2,0x77905
    800024b8:	8f4c                	0x8f4c
    800024ba:	306d                	0x306d
    800024bc:	e8c39997          	auipc	s3,0xe8c39
    800024c0:	eca6d3bf 77f512a4 	0x77f512a4eca6d3bf
    800024c8:	2e5fc453          	0x2e5fc453
    800024cc:	76d8                	ld	a4,168(a3)
    800024ce:	0220                	addi	s0,sp,264
    800024d0:	4216                	lw	tp,68(sp)
    800024d2:	1e8ef24b          	fnmsub.q	ft4,ft9,fs0,ft3
    800024d6:	f59c                	sd	a5,40(a1)
    800024d8:	3d1c                	fld	fa5,56(a0)
    800024da:	d9f6                	sw	t4,240(sp)
    800024dc:	d8b9                	beqz	s1,80002432 <test_memory+0x232>
    800024de:	355c                	fld	fa5,168(a0)
    800024e0:	bbe8                	fsd	fa0,240(a5)
    800024e2:	69925387          	0x69925387
    800024e6:	68a9                	lui	a7,0xa
    800024e8:	ad7d                	j	80002ba6 <_end+0x596>
    800024ea:	76b9                	lui	a3,0xfffee
    800024ec:	71b1                	lui	gp,0xfffec
    800024ee:	15c8                	addi	a0,sp,740
    800024f0:	f1b5                	bnez	a1,80002454 <test_memory+0x254>
    800024f2:	423db5e7          	0x423db5e7
    800024f6:	0295c0d7          	0x295c0d7
    800024fa:	a53a                	fsd	fa4,136(sp)
    800024fc:	9710                	0x9710
    800024fe:	330c                	fld	fa1,32(a4)
    80002500:	dab8                	sw	a4,112(a3)
    80002502:	c2e2                	sw	s8,68(sp)
    80002504:	5df8                	lw	a4,124(a1)
    80002506:	de98                	sw	a4,56(a3)
    80002508:	6800                	ld	s0,16(s0)
    8000250a:	98c2                	add	a7,a7,a6
    8000250c:	41d12a8b          	0x41d12a8b
    80002510:	ba64df37          	lui	t5,0xba64d
    80002514:	c822                	sw	s0,16(sp)
    80002516:	115a                	slli	sp,sp,0x36
    80002518:	ec46                	sd	a7,24(sp)
    8000251a:	17f7872b          	0x17f7872b
    8000251e:	8008                	0x8008
    80002520:	d41c                	sw	a5,40(s0)
    80002522:	c621                	beqz	a2,8000256a <test_memory+0x36a>
    80002524:	1f79                	addi	t5,t5,-2
    80002526:	26e8                	fld	fa0,200(a3)
    80002528:	70d17893          	andi	a7,sp,1805
    8000252c:	6b55                	lui	s6,0x15
    8000252e:	1b4c                	addi	a1,sp,436
    80002530:	9bc5                	andi	a5,a5,-15
    80002532:	f7d2                	sd	s4,488(sp)
    80002534:	30c1c5bf 2f9f0fad 	0x2f9f0fad30c1c5bf
    8000253c:	430e                	lw	t1,192(sp)
    8000253e:	eb0e                	sd	gp,400(sp)
    80002540:	3a6b8017          	auipc	zero,0x3a6b8
    80002544:	411de59b          	0x411de59b
    80002548:	8821                	andi	s0,s0,8
    8000254a:	5d61                	li	s10,-8
    8000254c:	227f                	0x227f
    8000254e:	5c15                	li	s8,-27
    80002550:	99d9                	andi	a1,a1,-10
    80002552:	4995                	li	s3,5
    80002554:	dc1472bb          	0xdc1472bb
    80002558:	35c0                	fld	fs0,168(a1)
    8000255a:	68b7621b          	0x68b7621b
    8000255e:	fb76                	sd	t4,432(sp)
    80002560:	d93e                	sw	a5,176(sp)
    80002562:	fc86                	sd	ra,120(sp)
    80002564:	8840                	0x8840
    80002566:	f0d9                	bnez	s1,800024ec <test_memory+0x2ec>
    80002568:	3649                	addiw	a2,a2,-14
    8000256a:	de75                	beqz	a2,80002566 <test_memory+0x366>
    8000256c:	ef7d                	bnez	a4,8000266a <_end+0x5a>
    8000256e:	acb5                	j	800027ea <_end+0x1da>
    80002570:	aef983c3          	fmadd.q	ft7,fs3,fa5,fs5,rne
    80002574:	c95e                	sw	s7,144(sp)
    80002576:	c4d4                	sw	a3,12(s1)
    80002578:	a3ac5567          	0xa3ac5567
    8000257c:	1698                	addi	a4,sp,864
    8000257e:	3b3b8da3          	sb	s3,955(s7)
    80002582:	3dbd                	addiw	s11,s11,-17
    80002584:	153ba83b          	0x153ba83b
    80002588:	bbdd                	j	8000237e <test_memory+0x17e>
    8000258a:	bf4bacd3          	0xbf4bacd3
    8000258e:	aae4                	fsd	fs1,208(a3)
    80002590:	2168e227          	0x2168e227
    80002594:	b718                	fsd	fa4,40(a4)
    80002596:	bdce                	fsd	fs3,248(sp)
    80002598:	ddff                	0xddff
    8000259a:	b436                	fsd	fa3,40(sp)
    8000259c:	fc1e                	sd	t2,56(sp)
    8000259e:	864a                	mv	a2,s2
    800025a0:	8255f14b          	fnmsub.d	ft2,fa1,ft5,fa6
    800025a4:	67b6                	ld	a5,328(sp)
    800025a6:	bab8                	fsd	fa4,112(a3)
    800025a8:	5e475d63          	bge	a4,tp,80002ba2 <_end+0x592>
    800025ac:	78e5                	lui	a7,0xffff9
    800025ae:	a425                	j	800027d6 <_end+0x1c6>
    800025b0:	127d                	addi	tp,tp,-1
    800025b2:	dcfb5283          	lhu	t0,-561(s6) # 14dcf <_start-0x7ffeb231>
    800025b6:	528d                	li	t0,-29
    800025b8:	d1d8                	sw	a4,36(a1)
    800025ba:	d11a                	sw	t1,160(sp)
    800025bc:	def8                	sw	a4,124(a3)
    800025be:	bb49                	j	80002350 <test_memory+0x150>
    800025c0:	458514bf 7258b2cb 	0x7258b2cb458514bf
    800025c8:	6747ad97          	auipc	s11,0x6747a
    800025cc:	b9ca                	fsd	fs2,240(sp)
    800025ce:	1c65                	addi	s8,s8,-7
    800025d0:	8d90                	0x8d90
    800025d2:	f18a                	sd	sp,224(sp)
    800025d4:	e03a                	sd	a4,0(sp)
    800025d6:	c29a                	sw	t1,68(sp)
    800025d8:	b0b8                	fsd	fa4,96(s1)
    800025da:	9f99ee2f          	0x9f99ee2f
    800025de:	bb7e94eb          	0xbb7e94eb
    800025e2:	17ed1fe7          	0x17ed1fe7
    800025e6:	17ac                	addi	a1,sp,1000
    800025e8:	2db99fe7          	0x2db99fe7
    800025ec:	a282                	fsd	ft0,320(sp)
    800025ee:	7e00a0a3          	sw	zero,2017(ra) # fffffffffffeb7e1 <__global_pointer$+0xffffffff7ffe89d1>
    800025f2:	cce5                	beqz	s1,800026ea <_end+0xda>
    800025f4:	4ab4                	lw	a3,80(a3)
    800025f6:	9be2                	add	s7,s7,s8
    800025f8:	e9633257          	0xe9633257
    800025fc:	4db8                	lw	a4,88(a1)
    800025fe:	          	bne	ra,tp,80002e0a <_end+0x7fa>

0000000080002600 <loop_count>:
    80002600:	0040                	addi	s0,sp,4
	...

Disassembly of section .riscv.attributes:

0000000000000000 <.riscv.attributes>:
   0:	1e41                	addi	t3,t3,-16
   2:	0000                	unimp
   4:	7200                	ld	s0,32(a2)
   6:	7369                	lui	t1,0xffffa
   8:	01007663          	bgeu	zero,a6,14 <_start-0x7fffffec>
   c:	0014                	0x14
   e:	0000                	unimp
  10:	7205                	lui	tp,0xfffe1
  12:	3676                	fld	fa2,376(sp)
  14:	6934                	ld	a3,80(a0)
  16:	7032                	0x7032
  18:	5f30                	lw	a2,120(a4)
  1a:	326d                	addiw	tp,tp,-5
  1c:	3070                	fld	fa2,224(s0)
	...
