
build/test83:     file format elf64-littleriscv


Disassembly of section .text.init:

0000000080000000 <_start>:
    80000000:	05c0006f          	j	8000005c <reset_vector>

0000000080000004 <trap_vector>:
    80000004:	34202f73          	csrr	t5,mcause
    80000008:	00800f93          	li	t6,8
    8000000c:	03ff0a63          	beq	t5,t6,80000040 <write_tohost>
    80000010:	00900f93          	li	t6,9
    80000014:	03ff0663          	beq	t5,t6,80000040 <write_tohost>
    80000018:	00b00f93          	li	t6,11
    8000001c:	03ff0263          	beq	t5,t6,80000040 <write_tohost>
    80000020:	80000f17          	auipc	t5,0x80000
    80000024:	fe0f0f13          	addi	t5,t5,-32 # 0 <_start-0x80000000>
    80000028:	000f0463          	beqz	t5,80000030 <trap_vector+0x2c>
    8000002c:	000f0067          	jr	t5
    80000030:	34202f73          	csrr	t5,mcause
    80000034:	000f5463          	bgez	t5,8000003c <handle_exception>
    80000038:	0040006f          	j	8000003c <handle_exception>

000000008000003c <handle_exception>:
    8000003c:	5391e193          	ori	gp,gp,1337

0000000080000040 <write_tohost>:
    80000040:	00001f17          	auipc	t5,0x1
    80000044:	fc3f2023          	sw	gp,-64(t5) # 80001000 <tohost>
    80000048:	000902b7          	lui	t0,0x90
    8000004c:	0012829b          	addiw	t0,t0,1
    80000050:	00c29293          	slli	t0,t0,0xc
    80000054:	0002af83          	lw	t6,0(t0) # 90000 <_start-0x7ff70000>
    80000058:	fe9ff06f          	j	80000040 <write_tohost>

000000008000005c <reset_vector>:
    8000005c:	00000093          	li	ra,0
    80000060:	00000113          	li	sp,0
    80000064:	00000193          	li	gp,0
    80000068:	00000213          	li	tp,0
    8000006c:	00000293          	li	t0,0
    80000070:	00000313          	li	t1,0
    80000074:	00000393          	li	t2,0
    80000078:	00000413          	li	s0,0
    8000007c:	00000493          	li	s1,0
    80000080:	00000513          	li	a0,0
    80000084:	00000593          	li	a1,0
    80000088:	00000613          	li	a2,0
    8000008c:	00000693          	li	a3,0
    80000090:	00000713          	li	a4,0
    80000094:	00000793          	li	a5,0
    80000098:	00000813          	li	a6,0
    8000009c:	00000893          	li	a7,0
    800000a0:	00000913          	li	s2,0
    800000a4:	00000993          	li	s3,0
    800000a8:	00000a13          	li	s4,0
    800000ac:	00000a93          	li	s5,0
    800000b0:	00000b13          	li	s6,0
    800000b4:	00000b93          	li	s7,0
    800000b8:	00000c13          	li	s8,0
    800000bc:	00000c93          	li	s9,0
    800000c0:	00000d13          	li	s10,0
    800000c4:	00000d93          	li	s11,0
    800000c8:	00000e13          	li	t3,0
    800000cc:	00000e93          	li	t4,0
    800000d0:	00000f13          	li	t5,0
    800000d4:	00000f93          	li	t6,0
    800000d8:	f1402573          	csrr	a0,mhartid
    800000dc:	00051063          	bnez	a0,800000dc <reset_vector+0x80>
    800000e0:	00000297          	auipc	t0,0x0
    800000e4:	01028293          	addi	t0,t0,16 # 800000f0 <reset_vector+0x94>
    800000e8:	30529073          	csrw	mtvec,t0
    800000ec:	18005073          	csrwi	satp,0
    800000f0:	00000297          	auipc	t0,0x0
    800000f4:	02428293          	addi	t0,t0,36 # 80000114 <reset_vector+0xb8>
    800000f8:	30529073          	csrw	mtvec,t0
    800000fc:	0010029b          	addiw	t0,zero,1
    80000100:	03529293          	slli	t0,t0,0x35
    80000104:	fff28293          	addi	t0,t0,-1
    80000108:	3b029073          	csrw	pmpaddr0,t0
    8000010c:	01f00293          	li	t0,31
    80000110:	3a029073          	csrw	pmpcfg0,t0
    80000114:	30405073          	csrwi	mie,0
    80000118:	00000297          	auipc	t0,0x0
    8000011c:	01428293          	addi	t0,t0,20 # 8000012c <reset_vector+0xd0>
    80000120:	30529073          	csrw	mtvec,t0
    80000124:	30205073          	csrwi	medeleg,0
    80000128:	30305073          	csrwi	mideleg,0
    8000012c:	00000193          	li	gp,0
    80000130:	00000297          	auipc	t0,0x0
    80000134:	ed428293          	addi	t0,t0,-300 # 80000004 <trap_vector>
    80000138:	30529073          	csrw	mtvec,t0
    8000013c:	00100513          	li	a0,1
    80000140:	01f51513          	slli	a0,a0,0x1f
    80000144:	00055c63          	bgez	a0,8000015c <reset_vector+0x100>
    80000148:	0ff0000f          	fence
    8000014c:	00100193          	li	gp,1
    80000150:	05d00893          	li	a7,93
    80000154:	00000513          	li	a0,0
    80000158:	00000073          	ecall
    8000015c:	80000297          	auipc	t0,0x80000
    80000160:	ea428293          	addi	t0,t0,-348 # 0 <_start-0x80000000>
    80000164:	00028a63          	beqz	t0,80000178 <reset_vector+0x11c>
    80000168:	10529073          	csrw	stvec,t0
    8000016c:	0000b2b7          	lui	t0,0xb
    80000170:	1092829b          	addiw	t0,t0,265
    80000174:	30229073          	csrw	medeleg,t0
    80000178:	30005073          	csrwi	mstatus,0
    8000017c:	00000297          	auipc	t0,0x0
    80000180:	01428293          	addi	t0,t0,20 # 80000190 <reset_vector+0x134>
    80000184:	34129073          	csrw	mepc,t0
    80000188:	f1402573          	csrr	a0,mhartid
    8000018c:	30200073          	mret
    80000190:	0200006f          	j	800001b0 <test_start>

0000000080000194 <crash_backward>:
    80000194:	0ff0000f          	fence
    80000198:	00018063          	beqz	gp,80000198 <crash_backward+0x4>
    8000019c:	00119193          	slli	gp,gp,0x1
    800001a0:	0011e193          	ori	gp,gp,1
    800001a4:	05d00893          	li	a7,93
    800001a8:	00018513          	mv	a0,gp
    800001ac:	00000073          	ecall

00000000800001b0 <test_start>:
    800001b0:	00002f97          	auipc	t6,0x2
    800001b4:	e50f8f93          	addi	t6,t6,-432 # 80002000 <hidden_data>
    800001b8:	000fb003          	ld	zero,0(t6)
    800001bc:	008fb083          	ld	ra,8(t6)
    800001c0:	010fb103          	ld	sp,16(t6)
    800001c4:	018fb183          	ld	gp,24(t6)
    800001c8:	020fb203          	ld	tp,32(t6)
    800001cc:	028fb283          	ld	t0,40(t6)
    800001d0:	030fb303          	ld	t1,48(t6)
    800001d4:	038fb383          	ld	t2,56(t6)
    800001d8:	040fb403          	ld	s0,64(t6)
    800001dc:	048fb483          	ld	s1,72(t6)
    800001e0:	050fb503          	ld	a0,80(t6)
    800001e4:	058fb583          	ld	a1,88(t6)
    800001e8:	060fb603          	ld	a2,96(t6)
    800001ec:	068fb683          	ld	a3,104(t6)
    800001f0:	070fb703          	ld	a4,112(t6)
    800001f4:	078fb783          	ld	a5,120(t6)
    800001f8:	080fb803          	ld	a6,128(t6)
    800001fc:	088fb883          	ld	a7,136(t6)
    80000200:	090fb903          	ld	s2,144(t6)
    80000204:	098fb983          	ld	s3,152(t6)
    80000208:	0a0fba03          	ld	s4,160(t6)
    8000020c:	0a8fba83          	ld	s5,168(t6)
    80000210:	0b0fbb03          	ld	s6,176(t6)
    80000214:	0b8fbb83          	ld	s7,184(t6)
    80000218:	0c0fbc03          	ld	s8,192(t6)
    8000021c:	0c8fbc83          	ld	s9,200(t6)
    80000220:	0d0fbd03          	ld	s10,208(t6)
    80000224:	0d8fbd83          	ld	s11,216(t6)
    80000228:	0e0fbe03          	ld	t3,224(t6)
    8000022c:	0e8fbe83          	ld	t4,232(t6)
    80000230:	0f0fbf03          	ld	t5,240(t6)
    80000234:	0f8fbf83          	ld	t6,248(t6)
    80000238:	0040006f          	j	8000023c <pseg_0>

000000008000023c <pseg_0>:
    8000023c:	eee00793          	li	a5,-274
    80000240:	00100b93          	li	s7,1
    80000244:	67ecd4b7          	lui	s1,0x67ecd
    80000248:	40840eb3          	sub	t4,s0,s0
    8000024c:	ff878313          	addi	t1,a5,-8
    80000250:	ae200913          	li	s2,-1310
    80000254:	00002817          	auipc	a6,0x2
    80000258:	c0b80813          	addi	a6,a6,-1013 # 80001e5f <fromhost+0xe1f>
    8000025c:	d0d90213          	addi	tp,s2,-755
    80000260:	002313b3          	sll	t2,t1,sp
    80000264:	4f280123          	sb	s2,1250(a6)
    80000268:	00100293          	li	t0,1
    8000026c:	01880d3b          	addw	s10,a6,s8
    80000270:	0273f8bb          	remuw	a7,t2,t2
    80000274:	03fb9b93          	slli	s7,s7,0x3f
    80000278:	03f29293          	slli	t0,t0,0x3f
    8000027c:	b4700e13          	li	t3,-1209
    80000280:	fff00d93          	li	s11,-1
    80000284:	51b00193          	li	gp,1307
    80000288:	f3c00f13          	li	t5,-196
    8000028c:	017dcdb3          	xor	s11,s11,s7
    80000290:	00100613          	li	a2,1
    80000294:	41ef06b3          	sub	a3,t5,t5
    80000298:	01b679b3          	and	s3,a2,s11
    8000029c:	003e4733          	xor	a4,t3,gp
    800002a0:	03fff5bb          	remuw	a1,t6,t6
    800002a4:	fff00f93          	li	t6,-1
    800002a8:	005fcfb3          	xor	t6,t6,t0
    800002ac:	0179e133          	or	sp,s3,s7
    800002b0:	ef3152e3          	bge	sp,s3,80000194 <crash_backward>
    800002b4:	01f67cb3          	and	s9,a2,t6
    800002b8:	00586ab3          	or	s5,a6,t0
    800002bc:	416b543b          	sraw	s0,s6,s6
    800002c0:	739ad663          	bge	s5,s9,800009ec <crash_forward>
    800002c4:	03f61613          	slli	a2,a2,0x3f
    800002c8:	fff00a13          	li	s4,-1
    800002cc:	00ca4a33          	xor	s4,s4,a2
    800002d0:	014c7533          	and	a0,s8,s4
    800002d4:	00c56c33          	or	s8,a0,a2
    800002d8:	e8800a13          	li	s4,-376
    800002dc:	03211c33          	mulh	s8,sp,s2
    800002e0:	73200093          	li	ra,1842
    800002e4:	b2400d93          	li	s11,-1244
    800002e8:	ef100d13          	li	s10,-271
    800002ec:	8c5d8813          	addi	a6,s11,-1851
    800002f0:	6f0dee63          	bltu	s11,a6,800009ec <crash_forward>
    800002f4:	00002f97          	auipc	t6,0x2
    800002f8:	229f8f93          	addi	t6,t6,553 # 8000251d <test_memory+0x31d>
    800002fc:	00002597          	auipc	a1,0x2
    80000300:	00d58593          	addi	a1,a1,13 # 80002309 <test_memory+0x109>
    80000304:	c08d0e93          	addi	t4,s10,-1016
    80000308:	cef00893          	li	a7,-785
    8000030c:	ebd88a93          	addi	s5,a7,-323
    80000310:	034f6f33          	rem	t5,t5,s4
    80000314:	cab00493          	li	s1,-853
    80000318:	0094a133          	slt	sp,s1,s1
    8000031c:	0339f333          	remu	t1,s3,s3
    80000320:	00961b1b          	slliw	s6,a2,0x9
    80000324:	70e00993          	li	s3,1806
    80000328:	00002697          	auipc	a3,0x2
    8000032c:	9f968693          	addi	a3,a3,-1543 # 80001d21 <fromhost+0xce1>
    80000330:	00100b93          	li	s7,1
    80000334:	5e600493          	li	s1,1510
    80000338:	0094e833          	or	a6,s1,s1
    8000033c:	4010d1bb          	sraw	gp,ra,ra
    80000340:	0329613b          	remw	sp,s2,s2
    80000344:	6b1ad463          	bge	s5,a7,800009ec <crash_forward>
    80000348:	0339a233          	mulhsu	tp,s3,s3
    8000034c:	025f9703          	lh	a4,37(t6)
    80000350:	0318bc33          	mulhu	s8,a7,a7
    80000354:	414a033b          	subw	t1,s4,s4
    80000358:	15100813          	li	a6,337
    8000035c:	00002e17          	auipc	t3,0x2
    80000360:	95be0e13          	addi	t3,t3,-1701 # 80001cb7 <fromhost+0xc77>
    80000364:	b0b00d93          	li	s11,-1269
    80000368:	03fb9b93          	slli	s7,s7,0x3f
    8000036c:	f2f00513          	li	a0,-209
    80000370:	005282bb          	addw	t0,t0,t0
    80000374:	00aa53b3          	srl	t2,s4,a0
    80000378:	65400413          	li	s0,1620
    8000037c:	011e8f3b          	addw	t5,t4,a7
    80000380:	23358ba3          	sb	s3,567(a1)
    80000384:	00002197          	auipc	gp,0x2
    80000388:	bb418193          	addi	gp,gp,-1100 # 80001f38 <fromhost+0xef8>
    8000038c:	67aed063          	bge	t4,s10,800009ec <crash_forward>
    80000390:	78ce28a3          	sw	a2,1937(t3)
    80000394:	408ddb3b          	sraw	s6,s11,s0
    80000398:	fff00c93          	li	s9,-1
    8000039c:	72b6e783          	lwu	a5,1835(a3)
    800003a0:	017cccb3          	xor	s9,s9,s7
    800003a4:	030800b3          	mul	ra,a6,a6
    800003a8:	0194f933          	and	s2,s1,s9
    800003ac:	64819483          	lh	s1,1608(gp) # 80003458 <__global_pointer$+0x648>
    800003b0:	03acefbb          	remw	t6,s9,s10
    800003b4:	00002397          	auipc	t2,0x2
    800003b8:	d4538393          	addi	t2,t2,-699 # 800020f9 <reg_x31_init+0x1>
    800003bc:	009925b3          	slt	a1,s2,s1
    800003c0:	00100313          	li	t1,1
    800003c4:	02b58b3b          	mulw	s6,a1,a1
    800003c8:	4373b983          	ld	s3,1079(t2)
    800003cc:	90200e93          	li	t4,-1790
    800003d0:	3b500813          	li	a6,949
    800003d4:	22a00593          	li	a1,554
    800003d8:	01de973b          	sllw	a4,t4,t4
    800003dc:	ee300493          	li	s1,-285
    800003e0:	00371d13          	slli	s10,a4,0x3
    800003e4:	97000793          	li	a5,-1680
    800003e8:	03f31313          	slli	t1,t1,0x3f
    800003ec:	03aec3b3          	div	t2,t4,s10
    800003f0:	fff00213          	li	tp,-1
    800003f4:	010856b3          	srl	a3,a6,a6
    800003f8:	01736633          	or	a2,t1,s7
    800003fc:	98f00a93          	li	s5,-1649
    80000400:	a0500193          	li	gp,-1531
    80000404:	00000893          	li	a7,0
    80000408:	8c300c13          	li	s8,-1853
    8000040c:	03549db3          	mulh	s11,s1,s5
    80000410:	02379f33          	mulh	t5,a5,gp
    80000414:	403cda33          	sra	s4,s9,gp
    80000418:	d6001ee3          	bnez	zero,80000194 <crash_backward>
    8000041c:	30f58f93          	addi	t6,a1,783
    80000420:	03678f3b          	mulw	t5,a5,s6
    80000424:	00003a97          	auipc	s5,0x3
    80000428:	939a8a93          	addi	s5,s5,-1735 # 80002d5d <_end+0x74d>
    8000042c:	82e00f13          	li	t5,-2002
    80000430:	55700293          	li	t0,1367
    80000434:	4069d6bb          	sraw	a3,s3,t1
    80000438:	c29d4193          	xori	gp,s10,-983
    8000043c:	8a2f0493          	addi	s1,t5,-1886
    80000440:	03cd40bb          	divw	ra,s10,t3
    80000444:	c7000393          	li	t2,-912
    80000448:	00000513          	li	a0,0
    8000044c:	01400813          	li	a6,20
    80000450:	00002997          	auipc	s3,0x2
    80000454:	a3298993          	addi	s3,s3,-1486 # 80001e82 <fromhost+0xe42>
    80000458:	005c513b          	srlw	sp,s8,t0
    8000045c:	00002f97          	auipc	t6,0x2
    80000460:	510f8f93          	addi	t6,t6,1296 # 8000296c <_end+0x35c>
    80000464:	1ef00713          	li	a4,495
    80000468:	00002a17          	auipc	s4,0x2
    8000046c:	5efa0a13          	addi	s4,s4,1519 # 80002a57 <_end+0x447>
    80000470:	745af693          	andi	a3,s5,1861
    80000474:	03dee7bb          	remw	a5,t4,t4
    80000478:	9b7a28a3          	sw	s7,-1615(s4)
    8000047c:	883aed83          	lwu	s11,-1917(s5)
    80000480:	4103deb3          	sra	t4,t2,a6
    80000484:	73570d13          	addi	s10,a4,1845
    80000488:	d0ed46e3          	blt	s10,a4,80000194 <crash_backward>
    8000048c:	0da00693          	li	a3,218
    80000490:	20100793          	li	a5,513
    80000494:	03ce3833          	mulhu	a6,t3,t3
    80000498:	24600a13          	li	s4,582
    8000049c:	20668513          	addi	a0,a3,518
    800004a0:	be600593          	li	a1,-1050
    800004a4:	cec978e3          	bgeu	s2,a2,80000194 <crash_backward>
    800004a8:	00f7dc3b          	srlw	s8,a5,a5
    800004ac:	00b5c3b3          	xor	t2,a1,a1
    800004b0:	014a4eb3          	xor	t4,s4,s4
    800004b4:	c24fe183          	lwu	gp,-988(t6)
    800004b8:	e4700a93          	li	s5,-441
    800004bc:	61700813          	li	a6,1559
    800004c0:	00b5e0b3          	or	ra,a1,a1
    800004c4:	037bf533          	remu	a0,s7,s7
    800004c8:	0210f13b          	remuw	sp,ra,ra
    800004cc:	00624233          	xor	tp,tp,t1
    800004d0:	00002c97          	auipc	s9,0x2
    800004d4:	350c8c93          	addi	s9,s9,848 # 80002820 <_end+0x210>
    800004d8:	e5f00b93          	li	s7,-417
    800004dc:	037bdc33          	divu	s8,s7,s7
    800004e0:	0111593b          	srlw	s2,sp,a7
    800004e4:	16f00713          	li	a4,367
    800004e8:	00002b97          	auipc	s7,0x2
    800004ec:	829b8b93          	addi	s7,s7,-2007 # 80001d11 <fromhost+0xcd1>
    800004f0:	00002d97          	auipc	s11,0x2
    800004f4:	f4dd8d93          	addi	s11,s11,-179 # 8000243d <test_memory+0x23d>
    800004f8:	00002697          	auipc	a3,0x2
    800004fc:	85f68693          	addi	a3,a3,-1953 # 80001d57 <fromhost+0xd17>
    80000500:	010807bb          	addw	a5,a6,a6
    80000504:	41e00893          	li	a7,1054
    80000508:	85400e93          	li	t4,-1964
    8000050c:	011a92bb          	sllw	t0,s5,a7
    80000510:	004f7433          	and	s0,t5,tp
    80000514:	25100c13          	li	s8,593
    80000518:	e44db1a3          	sd	tp,-445(s11)
    8000051c:	76bbaba3          	sw	a1,1911(s7)
    80000520:	02e74d33          	div	s10,a4,a4
    80000524:	00000293          	li	t0,0
    80000528:	23200913          	li	s2,562
    8000052c:	019253b3          	srl	t2,tp,s9
    80000530:	00000113          	li	sp,0
    80000534:	6ab00793          	li	a5,1707
    80000538:	02896ab3          	rem	s5,s2,s0
    8000053c:	00090b93          	mv	s7,s2
    80000540:	000b8713          	mv	a4,s7
    80000544:	09300193          	li	gp,147
    80000548:	02847a33          	remu	s4,s0,s0
    8000054c:	a6e54893          	xori	a7,a0,-1426
    80000550:	038c25b3          	mulhsu	a1,s8,s8
    80000554:	00646e33          	or	t3,s0,t1
    80000558:	41618d3b          	subw	s10,gp,s6
    8000055c:	003edfb3          	srl	t6,t4,gp
    80000560:	fe900513          	li	a0,-23
    80000564:	ea300593          	li	a1,-349
    80000568:	c3c406e3          	beq	s0,t3,80000194 <crash_backward>
    8000056c:	41290dbb          	subw	s11,s2,s2
    80000570:	00b383b3          	add	t2,t2,a1
    80000574:	ebf50093          	addi	ra,a0,-321
    80000578:	0052fa33          	and	s4,t0,t0
    8000057c:	00f7b833          	sltu	a6,a5,a5
    80000580:	02318c3b          	mulw	s8,gp,gp
    80000584:	02b5cabb          	divw	s5,a1,a1
    80000588:	5a368323          	sb	gp,1446(a3)
    8000058c:	adacc603          	lbu	a2,-1318(s9)
    80000590:	3e398b03          	lb	s6,995(s3)
    80000594:	6aa00c93          	li	s9,1706
    80000598:	00c60bb3          	add	s7,a2,a2
    8000059c:	0084d9b3          	srl	s3,s1,s0
    800005a0:	012215bb          	sllw	a1,tp,s2
    800005a4:	d9f00493          	li	s1,-609
    800005a8:	9ce00d13          	li	s10,-1586
    800005ac:	e2b00413          	li	s0,-469
    800005b0:	4b700713          	li	a4,1207
    800005b4:	a4300d93          	li	s11,-1469
    800005b8:	00001697          	auipc	a3,0x1
    800005bc:	7fa68693          	addi	a3,a3,2042 # 80001db2 <fromhost+0xd72>
    800005c0:	61a6a523          	sw	s10,1546(a3)
    800005c4:	74100f13          	li	t5,1857
    800005c8:	0be00993          	li	s3,190
    800005cc:	0273c93b          	divw	s2,t2,t2
    800005d0:	00845833          	srl	a6,s0,s0
    800005d4:	00002797          	auipc	a5,0x2
    800005d8:	b9778793          	addi	a5,a5,-1129 # 8000216b <reg_x13_output+0x3>
    800005dc:	03ecbe33          	mulhu	t3,s9,t5
    800005e0:	70400893          	li	a7,1796
    800005e4:	0f878603          	lb	a2,248(a5)
    800005e8:	0b188513          	addi	a0,a7,177
    800005ec:	00002597          	auipc	a1,0x2
    800005f0:	eff58593          	addi	a1,a1,-257 # 800024eb <test_memory+0x2eb>
    800005f4:	7df00b13          	li	s6,2015
    800005f8:	41025c93          	srai	s9,tp,0x10
    800005fc:	60e00913          	li	s2,1550
    80000600:	00000313          	li	t1,0
    80000604:	02210cbb          	mulw	s9,sp,sp
    80000608:	0364f23b          	remuw	tp,s1,s6
    8000060c:	c3f00f13          	li	t5,-961
    80000610:	e6858023          	sb	s0,-416(a1)
    80000614:	24300613          	li	a2,579
    80000618:	00002e17          	auipc	t3,0x2
    8000061c:	a65e0e13          	addi	t3,t3,-1435 # 8000207d <reg_x15_init+0x5>
    80000620:	00000a93          	li	s5,0
    80000624:	09900f93          	li	t6,153
    80000628:	42200b93          	li	s7,1058
    8000062c:	0329483b          	divw	a6,s2,s2
    80000630:	03a367bb          	remw	a5,t1,s10
    80000634:	12d00293          	li	t0,301
    80000638:	00cf7433          	and	s0,t5,a2
    8000063c:	0379e1bb          	remw	gp,s3,s7
    80000640:	05a00e93          	li	t4,90
    80000644:	93900113          	li	sp,-1735
    80000648:	4dde25a3          	sw	t4,1227(t3)
    8000064c:	ab200493          	li	s1,-1358
    80000650:	00100913          	li	s2,1
    80000654:	97300213          	li	tp,-1677
    80000658:	0044dcbb          	srlw	s9,s1,tp
    8000065c:	03f91913          	slli	s2,s2,0x3f
    80000660:	03f770b3          	remu	ra,a4,t6
    80000664:	01dd6a33          	or	s4,s10,t4
    80000668:	0252cc33          	div	s8,t0,t0
    8000066c:	34c00b13          	li	s6,844
    80000670:	94500593          	li	a1,-1723
    80000674:	02bb67bb          	remw	a5,s6,a1
    80000678:	002d83bb          	addw	t2,s11,sp
    8000067c:	fff00a93          	li	s5,-1
    80000680:	8d800493          	li	s1,-1832
    80000684:	bdd48d93          	addi	s11,s1,-1059 # 67eccbdd <_start-0x18133423>
    80000688:	a8200d13          	li	s10,-1406
    8000068c:	0244fcb3          	remu	s9,s1,tp
    80000690:	012acab3          	xor	s5,s5,s2
    80000694:	b09df0e3          	bgeu	s11,s1,80000194 <crash_backward>
    80000698:	0151f333          	and	t1,gp,s5
    8000069c:	00100713          	li	a4,1
    800006a0:	3473c663          	blt	t2,t2,800009ec <crash_forward>
    800006a4:	012be833          	or	a6,s7,s2
    800006a8:	1f0c851b          	addiw	a0,s9,496
    800006ac:	00002c17          	auipc	s8,0x2
    800006b0:	8dac0c13          	addi	s8,s8,-1830 # 80001f86 <fromhost+0xf46>
    800006b4:	015b46b3          	xor	a3,s6,s5
    800006b8:	03ad68bb          	remw	a7,s10,s10
    800006bc:	cb09f613          	andi	a2,s3,-848
    800006c0:	ff400093          	li	ra,-12
    800006c4:	90800413          	li	s0,-1784
    800006c8:	0000abb3          	sltz	s7,ra
    800006cc:	00002f17          	auipc	t5,0x2
    800006d0:	bb0f0f13          	addi	t5,t5,-1104 # 8000227c <test_memory+0x7c>
    800006d4:	00002a17          	auipc	s4,0x2
    800006d8:	e80a0a13          	addi	s4,s4,-384 # 80002554 <test_memory+0x354>
    800006dc:	aa685ce3          	bge	a6,t1,80000194 <crash_backward>
    800006e0:	03f71713          	slli	a4,a4,0x3f
    800006e4:	d4700113          	li	sp,-697
    800006e8:	006332b3          	sltu	t0,t1,t1
    800006ec:	77e00e93          	li	t4,1918
    800006f0:	4d2c0823          	sb	s2,1232(s8)
    800006f4:	00809e33          	sll	t3,ra,s0
    800006f8:	02215db3          	divu	s11,sp,sp
    800006fc:	00319abb          	sllw	s5,gp,gp
    80000700:	00100693          	li	a3,1
    80000704:	162f5f83          	lhu	t6,354(t5)
    80000708:	7f400213          	li	tp,2036
    8000070c:	f55a0aa3          	sb	s5,-171(s4)
    80000710:	00100893          	li	a7,1
    80000714:	12100493          	li	s1,289
    80000718:	03f69693          	slli	a3,a3,0x3f
    8000071c:	035af1b3          	remu	gp,s5,s5
    80000720:	fff00393          	li	t2,-1
    80000724:	024105bb          	mulw	a1,sp,tp
    80000728:	03f89893          	slli	a7,a7,0x3f
    8000072c:	fff00293          	li	t0,-1
    80000730:	00100093          	li	ra,1
    80000734:	00e3c3b3          	xor	t2,t2,a4
    80000738:	fff00d13          	li	s10,-1
    8000073c:	0112c2b3          	xor	t0,t0,a7
    80000740:	00dd4d33          	xor	s10,s10,a3
    80000744:	0033583b          	srlw	a6,t1,gp
    80000748:	f8200b93          	li	s7,-126
    8000074c:	0174d63b          	srlw	a2,s1,s7
    80000750:	00100d93          	li	s11,1
    80000754:	01a97cb3          	and	s9,s2,s10
    80000758:	02c67a3b          	remuw	s4,a2,a2
    8000075c:	01debb33          	sltu	s6,t4,t4
    80000760:	005cfc33          	and	s8,s9,t0
    80000764:	0074f7b3          	and	a5,s1,t2
    80000768:	0e846837          	lui	a6,0xe846
    8000076c:	00e569b3          	or	s3,a0,a4
    80000770:	49600b93          	li	s7,1174
    80000774:	baf00593          	li	a1,-1105
    80000778:	fc100993          	li	s3,-63
    8000077c:	03fd9d93          	slli	s11,s11,0x3f
    80000780:	011c6333          	or	t1,s8,a7
    80000784:	fff00f13          	li	t5,-1
    80000788:	00dce533          	or	a0,s9,a3
    8000078c:	23900113          	li	sp,569
    80000790:	402581b3          	sub	gp,a1,sp
    80000794:	b7700813          	li	a6,-1161
    80000798:	128b8b13          	addi	s6,s7,296
    8000079c:	9f7b4ce3          	blt	s6,s7,80000194 <crash_backward>
    800007a0:	77f00793          	li	a5,1919
    800007a4:	02f9e733          	rem	a4,s3,a5
    800007a8:	00001a17          	auipc	s4,0x1
    800007ac:	79aa0a13          	addi	s4,s4,1946 # 80001f42 <fromhost+0xf02>
    800007b0:	03f09093          	slli	ra,ra,0x3f
    800007b4:	fff00913          	li	s2,-1
    800007b8:	406a8fb3          	sub	t6,s5,t1
    800007bc:	b0700193          	li	gp,-1273
    800007c0:	00194933          	xor	s2,s2,ra
    800007c4:	dde00593          	li	a1,-546
    800007c8:	9cacc6e3          	blt	s9,a0,80000194 <crash_backward>
    800007cc:	00318c3b          	addw	s8,gp,gp
    800007d0:	ce600893          	li	a7,-794
    800007d4:	f5800313          	li	t1,-168
    800007d8:	012afe33          	and	t3,s5,s2
    800007dc:	3c900293          	li	t0,969
    800007e0:	001e6433          	or	s0,t3,ra
    800007e4:	00631b3b          	sllw	s6,t1,t1
    800007e8:	00002b97          	auipc	s7,0x2
    800007ec:	186b8b93          	addi	s7,s7,390 # 8000296e <_end+0x35e>
    800007f0:	abc00613          	li	a2,-1348
    800007f4:	0318d3b3          	divu	t2,a7,a7
    800007f8:	01bf4f33          	xor	t5,t5,s11
    800007fc:	00c80eb3          	add	t4,a6,a2
    80000800:	3c900513          	li	a0,969
    80000804:	00e866b3          	or	a3,a6,a4
    80000808:	4e100993          	li	s3,1249
    8000080c:	04300893          	li	a7,67
    80000810:	00002617          	auipc	a2,0x2
    80000814:	18b60613          	addi	a2,a2,395 # 8000299b <_end+0x38b>
    80000818:	d7600813          	li	a6,-650
    8000081c:	0308afb3          	mulhsu	t6,a7,a6
    80000820:	5b9a0483          	lb	s1,1465(s4)
    80000824:	00100e13          	li	t3,1
    80000828:	03fe1e13          	slli	t3,t3,0x3f
    8000082c:	00002c17          	auipc	s8,0x2
    80000830:	a44c0c13          	addi	s8,s8,-1468 # 80002270 <test_memory+0x70>
    80000834:	00000793          	li	a5,0
    80000838:	979b81a3          	sb	s9,-1693(s7)
    8000083c:	fff00693          	li	a3,-1
    80000840:	008d541b          	srliw	s0,s10,0x8
    80000844:	40f90333          	sub	t1,s2,a5
    80000848:	0335b733          	mulhu	a4,a1,s3
    8000084c:	00000e93          	li	t4,0
    80000850:	2bcc1383          	lh	t2,700(s8)
    80000854:	01c6c6b3          	xor	a3,a3,t3
    80000858:	01e37ab3          	and	s5,t1,t5
    8000085c:	36c50d13          	addi	s10,a0,876
    80000860:	00c74333          	xor	t1,a4,a2
    80000864:	00100413          	li	s0,1
    80000868:	003bb833          	sltu	a6,s7,gp
    8000086c:	93a574e3          	bgeu	a0,s10,80000194 <crash_backward>
    80000870:	00d77933          	and	s2,a4,a3
    80000874:	01c960b3          	or	ra,s2,t3
    80000878:	01b4e233          	or	tp,s1,s11
    8000087c:	3b800c93          	li	s9,952
    80000880:	0273e9b3          	rem	s3,t2,t2
    80000884:	199c8b13          	addi	s6,s9,409
    80000888:	8d000593          	li	a1,-1840
    8000088c:	48600893          	li	a7,1158
    80000890:	034a0533          	mul	a0,s4,s4
    80000894:	2a388193          	addi	gp,a7,675
    80000898:	a5c636a3          	sd	t3,-1459(a2)
    8000089c:	8f526ce3          	bltu	tp,s5,80000194 <crash_backward>
    800008a0:	00529133          	sll	sp,t0,t0
    800008a4:	b0200b93          	li	s7,-1278
    800008a8:	00002e97          	auipc	t4,0x2
    800008ac:	192e8e93          	addi	t4,t4,402 # 80002a3a <_end+0x42a>
    800008b0:	02b5ffb3          	remu	t6,a1,a1
    800008b4:	03f41413          	slli	s0,s0,0x3f
    800008b8:	fff00493          	li	s1,-1
    800008bc:	00002397          	auipc	t2,0x2
    800008c0:	ab238393          	addi	t2,t2,-1358 # 8000236e <test_memory+0x16e>
    800008c4:	417bdd3b          	sraw	s10,s7,s7
    800008c8:	aaee89a3          	sb	a4,-1357(t4)
    800008cc:	00001817          	auipc	a6,0x1
    800008d0:	5b980813          	addi	a6,a6,1465 # 80001e85 <fromhost+0xe45>
    800008d4:	20a39783          	lh	a5,522(t2)
    800008d8:	6ee829a3          	sw	a4,1779(a6)
    800008dc:	00048793          	mv	a5,s1
    800008e0:	00078093          	mv	ra,a5
    800008e4:	171a6613          	ori	a2,s4,369
    800008e8:	41a75ebb          	sraw	t4,a4,s10
    800008ec:	4db00f37          	lui	t5,0x4db00
    800008f0:	41588a13          	addi	s4,a7,1045
    800008f4:	d3800193          	li	gp,-712
    800008f8:	00001297          	auipc	t0,0x1
    800008fc:	2c828293          	addi	t0,t0,712 # 80001bc0 <fromhost+0xb80>
    80000900:	00002917          	auipc	s2,0x2
    80000904:	d2790913          	addi	s2,s2,-729 # 80002627 <_end+0x17>
    80000908:	019b1a9b          	slliw	s5,s6,0x19
    8000090c:	6d500313          	li	t1,1749
    80000910:	0084c4b3          	xor	s1,s1,s0
    80000914:	0c004c63          	bltz	zero,800009ec <crash_forward>
    80000918:	0091fc33          	and	s8,gp,s1
    8000091c:	00000d93          	li	s11,0
    80000920:	00000513          	li	a0,0
    80000924:	008d6733          	or	a4,s10,s0
    80000928:	6c02d383          	lhu	t2,1728(t0)
    8000092c:	0cade063          	bltu	s11,a0,800009ec <crash_forward>
    80000930:	8617c2e3          	blt	a5,ra,80000194 <crash_backward>
    80000934:	0031d23b          	srlw	tp,gp,gp
    80000938:	026339b3          	mulhu	s3,t1,t1
    8000093c:	c5190ca3          	sb	a7,-935(s2)
    80000940:	0aec7663          	bgeu	s8,a4,800009ec <crash_forward>
    80000944:	71300f93          	li	t6,1811
    80000948:	0010dbb3          	srl	s7,ra,ra
    8000094c:	ba200593          	li	a1,-1118
    80000950:	00bf96bb          	sllw	a3,t6,a1
    80000954:	0040006f          	j	80000958 <reg_dump>

0000000080000958 <reg_dump>:
    80000958:	00002097          	auipc	ra,0x2
    8000095c:	ca808093          	addi	ra,ra,-856 # 80002600 <loop_count>
    80000960:	0000a103          	lw	sp,0(ra)
    80000964:	fff10193          	addi	gp,sp,-1
    80000968:	0030a023          	sw	gp,0(ra)
    8000096c:	8c0118e3          	bnez	sp,8000023c <pseg_0>
    80000970:	00001097          	auipc	ra,0x1
    80000974:	79008093          	addi	ra,ra,1936 # 80002100 <begin_signature>
    80000978:	0000b023          	sd	zero,0(ra)
    8000097c:	0020b823          	sd	sp,16(ra)
    80000980:	0030bc23          	sd	gp,24(ra)
    80000984:	0240b023          	sd	tp,32(ra)
    80000988:	0260b823          	sd	t1,48(ra)
    8000098c:	0270bc23          	sd	t2,56(ra)
    80000990:	0480b023          	sd	s0,64(ra)
    80000994:	0490b423          	sd	s1,72(ra)
    80000998:	04a0b823          	sd	a0,80(ra)
    8000099c:	04b0bc23          	sd	a1,88(ra)
    800009a0:	06c0b023          	sd	a2,96(ra)
    800009a4:	06d0b423          	sd	a3,104(ra)
    800009a8:	06e0b823          	sd	a4,112(ra)
    800009ac:	06f0bc23          	sd	a5,120(ra)
    800009b0:	0910b423          	sd	a7,136(ra)
    800009b4:	0930bc23          	sd	s3,152(ra)
    800009b8:	0b40b023          	sd	s4,160(ra)
    800009bc:	0b50b423          	sd	s5,168(ra)
    800009c0:	0b60b823          	sd	s6,176(ra)
    800009c4:	0b70bc23          	sd	s7,184(ra)
    800009c8:	0d80b023          	sd	s8,192(ra)
    800009cc:	0d90b423          	sd	s9,200(ra)
    800009d0:	0da0b823          	sd	s10,208(ra)
    800009d4:	0db0bc23          	sd	s11,216(ra)
    800009d8:	0fc0b023          	sd	t3,224(ra)
    800009dc:	0fd0b423          	sd	t4,232(ra)
    800009e0:	0fe0b823          	sd	t5,240(ra)
    800009e4:	0ff0bc23          	sd	t6,248(ra)
    800009e8:	0200006f          	j	80000a08 <test_end>

00000000800009ec <crash_forward>:
    800009ec:	0ff0000f          	fence
    800009f0:	00018063          	beqz	gp,800009f0 <crash_forward+0x4>
    800009f4:	00119193          	slli	gp,gp,0x1
    800009f8:	0011e193          	ori	gp,gp,1
    800009fc:	05d00893          	li	a7,93
    80000a00:	00018513          	mv	a0,gp
    80000a04:	00000073          	ecall

0000000080000a08 <test_end>:
    80000a08:	0ff0000f          	fence
    80000a0c:	00100193          	li	gp,1
    80000a10:	05d00893          	li	a7,93
    80000a14:	00000513          	li	a0,0
    80000a18:	00000073          	ecall
    80000a1c:	c0001073          	unimp
	...

Disassembly of section .tohost:

0000000080001000 <tohost>:
	...

0000000080001040 <fromhost>:
	...

Disassembly of section .data:

0000000080002000 <hidden_data>:
    80002000:	7a37f36f          	jal	t1,80081fa2 <__global_pointer$+0x7f192>
    80002004:	e46e                	sd	s11,8(sp)
    80002006:	          	fmsub.s	fa3,fs1,ft0,ft0,rdn

0000000080002008 <reg_x1_init>:
    80002008:	0004                	0x4
    8000200a:	0000                	unimp
    8000200c:	0000                	unimp
	...

0000000080002010 <reg_x2_init>:
    80002010:	6757d43f 409ea684 	0x409ea6846757d43f

0000000080002018 <reg_x3_init>:
    80002018:	50b367e3          	bltu	t1,a1,80002d26 <_end+0x716>
    8000201c:	b61c80a3          	sb	ra,-1183(s9)

0000000080002020 <reg_x4_init>:
    80002020:	80000007          	0x80000007
    80002024:	ffff                	0xffff
    80002026:	ffff                	0xffff

0000000080002028 <reg_x5_init>:
    80002028:	fffffffb          	0xfffffffb
    8000202c:	ffff                	0xffff
    8000202e:	ffff                	0xffff

0000000080002030 <reg_x6_init>:
    80002030:	5ee9                	li	t4,-6
    80002032:	d45d                	beqz	s0,80001fe0 <fromhost+0xfa0>
    80002034:	d549                	beqz	a0,80001fbe <fromhost+0xf7e>
    80002036:	b6c9                	j	80001bf8 <fromhost+0xbb8>

0000000080002038 <reg_x7_init>:
    80002038:	db50                	sw	a2,52(a4)
    8000203a:	5f48                	lw	a0,60(a4)
    8000203c:	3624                	fld	fs1,104(a2)
    8000203e:	ad69                	j	800026d8 <_end+0xc8>

0000000080002040 <reg_x8_init>:
    80002040:	0008                	0x8
    80002042:	8000                	0x8000
    80002044:	ffff                	0xffff
    80002046:	ffff                	0xffff

0000000080002048 <reg_x9_init>:
    80002048:	ff85                	bnez	a5,80001f80 <fromhost+0xf40>
    8000204a:	ffff                	0xffff
    8000204c:	ffff                	0xffff
    8000204e:	ffff                	0xffff

0000000080002050 <reg_x10_init>:
    80002050:	ffff8003          	lb	zero,-1(t6)
    80002054:	ffff                	0xffff
    80002056:	ffff                	0xffff

0000000080002058 <reg_x11_init>:
    80002058:	a6da                	fsd	fs6,328(sp)
    8000205a:	e9b5                	bnez	a1,800020ce <reg_x25_init+0x6>
    8000205c:	1db5                	addi	s11,s11,-19
    8000205e:	871c                	0x871c

0000000080002060 <reg_x12_init>:
    80002060:	ffff8007          	0xffff8007
    80002064:	ffff                	0xffff
    80002066:	ffff                	0xffff

0000000080002068 <reg_x13_init>:
    80002068:	ff81                	bnez	a5,80001f80 <fromhost+0xf40>
    8000206a:	ffff                	0xffff
    8000206c:	ffff                	0xffff
    8000206e:	ffff                	0xffff

0000000080002070 <reg_x14_init>:
    80002070:	0005                	c.nop	1
    80002072:	0000                	unimp
    80002074:	0000                	unimp
	...

0000000080002078 <reg_x15_init>:
    80002078:	0001                	nop
    8000207a:	8000                	0x8000
    8000207c:	ffff                	0xffff
    8000207e:	ffff                	0xffff

0000000080002080 <reg_x16_init>:
	...

0000000080002088 <reg_x17_init>:
    80002088:	0008                	0x8
    8000208a:	8000                	0x8000
    8000208c:	ffff                	0xffff
    8000208e:	ffff                	0xffff

0000000080002090 <reg_x18_init>:
    80002090:	873ee933          	0x873ee933
    80002094:	f4d8                	sd	a4,168(s1)
    80002096:	72d5                	lui	t0,0xffff5

0000000080002098 <reg_x19_init>:
    80002098:	3676                	fld	fa2,376(sp)
    8000209a:	caf6200b          	0xcaf6200b
    8000209e:	          	0x33267

00000000800020a0 <reg_x20_init>:
    800020a0:	80000003          	lb	zero,-2048(zero) # fffffffffffff800 <__global_pointer$+0xffffffff7fffc9f0>
    800020a4:	ffff                	0xffff
    800020a6:	ffff                	0xffff

00000000800020a8 <reg_x21_init>:
    800020a8:	0a47f28b          	0xa47f28b
    800020ac:	ee4d                	bnez	a2,80002166 <reg_x12_output+0x6>
    800020ae:	1f98                	addi	a4,sp,1008

00000000800020b0 <reg_x22_init>:
    800020b0:	655f 976b cf95      	0xcf95976b655f
    800020b6:	          	fmsub.d	fs8,ft5,fs2,ft10,rtz

00000000800020b8 <reg_x23_init>:
    800020b8:	f322                	sd	s0,416(sp)
    800020ba:	b7ce                	fsd	fs3,488(sp)
    800020bc:	dcf1                	beqz	s1,80002098 <reg_x19_init>
    800020be:	04a5                	addi	s1,s1,9

00000000800020c0 <reg_x24_init>:
    800020c0:	35e9                	addiw	a1,a1,-6
    800020c2:	121c                	addi	a5,sp,288
    800020c4:	a8b6                	fsd	fa3,80(sp)
    800020c6:	af58                	fsd	fa4,152(a4)

00000000800020c8 <reg_x25_init>:
    800020c8:	0c79                	addi	s8,s8,30
    800020ca:	d061                	beqz	s0,8000208a <reg_x17_init+0x2>
    800020cc:	1934                	addi	a3,sp,184
    800020ce:	78ea                	ld	a7,184(sp)

00000000800020d0 <reg_x26_init>:
    800020d0:	c648                	sw	a0,12(a2)
    800020d2:	2881                	sext.w	a7,a7
    800020d4:	0b2295d3          	fsub.d	fa1,ft5,fs2,rtz

00000000800020d8 <reg_x27_init>:
    800020d8:	6c44                	ld	s1,152(s0)
    800020da:	450c                	lw	a1,8(a0)
    800020dc:	cd80                	sw	s0,24(a1)
    800020de:	df3e                	sw	a5,188(sp)

00000000800020e0 <reg_x28_init>:
    800020e0:	0ea2fc2f          	0xea2fc2f
    800020e4:	ba96                	fsd	ft5,368(sp)
    800020e6:	          	0x391b9e0b

00000000800020e8 <reg_x29_init>:
    800020e8:	3d63391b          	0x3d63391b
    800020ec:	2625aa23          	sw	sp,628(a1)

00000000800020f0 <reg_x30_init>:
    800020f0:	ff82                	sd	zero,504(sp)
    800020f2:	ffff                	0xffff
    800020f4:	ffff                	0xffff
    800020f6:	ffff                	0xffff

00000000800020f8 <reg_x31_init>:
	...

0000000080002100 <begin_signature>:
    80002100:	bc26                	fsd	fs1,56(sp)
    80002102:	3b0a                	fld	fs6,160(sp)
    80002104:	8da8                	0x8da8
    80002106:	d87d                	beqz	s0,800020fc <reg_x31_init+0x4>

0000000080002108 <reg_x1_output>:
    80002108:	732d                	lui	t1,0xfffeb
    8000210a:	0a45                	addi	s4,s4,17
    8000210c:	6a96                	ld	s5,320(sp)
    8000210e:	79f1                	lui	s3,0xffffc

0000000080002110 <reg_x2_output>:
    80002110:	eafaf1b3          	0xeafaf1b3
    80002114:	4804                	lw	s1,16(s0)
    80002116:	761c                	ld	a5,40(a2)

0000000080002118 <reg_x3_output>:
    80002118:	b1d0d163          	bge	ra,t4,8000141a <fromhost+0x3da>
    8000211c:	bf24                	fsd	fs1,120(a4)
    8000211e:	e690                	sd	a2,8(a3)

0000000080002120 <reg_x4_output>:
    80002120:	0128                	addi	a0,sp,136
    80002122:	2448                	fld	fa0,136(s0)
    80002124:	6e3e                	ld	t3,456(sp)
    80002126:	9572                	add	a0,a0,t3

0000000080002128 <reg_x5_output>:
    80002128:	59ad                	li	s3,-21
    8000212a:	8503f13f  	0x919262c48503f13f

0000000080002130 <reg_x6_output>:
    80002130:	9192                	add	gp,gp,tp
    80002132:	824e333b          	0x824e333b
    80002136:	e638                	sd	a4,72(a2)

0000000080002138 <reg_x7_output>:
    80002138:	84e0                	0x84e0
    8000213a:	5240                	lw	s0,36(a2)
    8000213c:	4fe6                	lw	t6,88(sp)
    8000213e:	3edf        	0xe06602823edf

0000000080002140 <reg_x8_output>:
    80002140:	0282                	c.slli64	t0
    80002142:	e066                	sd	s9,0(sp)
    80002144:	9d4a                	add	s10,s10,s2
    80002146:	  	0xc8966672c3c9c6bf

0000000080002148 <reg_x9_output>:
    80002148:	c3c9                	beqz	a5,800021ca <reg_x25_output+0x2>
    8000214a:	6672                	ld	a2,280(sp)
    8000214c:	c896                	sw	t0,80(sp)
    8000214e:	e548                	sd	a0,136(a0)

0000000080002150 <reg_x10_output>:
    80002150:	c9832547          	fmsub.s	fa0,ft6,fs8,fs9,rdn
    80002154:	5cea                	lw	s9,184(sp)
    80002156:	a829                	j	80002170 <reg_x14_output>

0000000080002158 <reg_x11_output>:
    80002158:	7d84                	ld	s1,56(a1)
    8000215a:	40162fef          	jal	t6,80064d5a <__global_pointer$+0x61f4a>
    8000215e:	0635                	addi	a2,a2,13

0000000080002160 <reg_x12_output>:
    80002160:	d55e                	sw	s7,168(sp)
    80002162:	2a54                	fld	fa3,144(a2)
    80002164:	a548                	fsd	fa0,136(a0)
    80002166:	a5f2                	fsd	ft8,200(sp)

0000000080002168 <reg_x13_output>:
    80002168:	1f0e                	slli	t5,t5,0x23
    8000216a:	c868                	sw	a0,84(s0)
    8000216c:	d10a                	sw	sp,160(sp)
    8000216e:	a4a0                	fsd	fs0,72(s1)

0000000080002170 <reg_x14_output>:
    80002170:	2429                	addiw	s0,s0,10
    80002172:	71aa                	ld	gp,168(sp)
    80002174:	7dc23ae7          	0x7dc23ae7

0000000080002178 <reg_x15_output>:
    80002178:	1019                	c.nop	-26
    8000217a:	bc4c                	fsd	fa1,184(s0)
    8000217c:	5d90b357          	0x5d90b357

0000000080002180 <reg_x16_output>:
    80002180:	0bdf ff01 78f5      	0x78f5ff010bdf
    80002186:	03f8                	addi	a4,sp,460

0000000080002188 <reg_x17_output>:
    80002188:	a11f ce98 a606      	0xa606ce98a11f
    8000218e:	          	0xddc4fda3

0000000080002190 <reg_x18_output>:
    80002190:	ddc4                	sw	s1,60(a1)
    80002192:	a7d4e99b          	0xa7d4e99b
    80002196:	258d                	addiw	a1,a1,3

0000000080002198 <reg_x19_output>:
    80002198:	46ba                	lw	a3,140(sp)
    8000219a:	5a71                	li	s4,-4
    8000219c:	9370                	0x9370
    8000219e:	3624                	fld	fs1,104(a2)

00000000800021a0 <reg_x20_output>:
    800021a0:	df99                	beqz	a5,800020be <reg_x23_init+0x6>
    800021a2:	49c2                	lw	s3,16(sp)
    800021a4:	c4a0b7d7          	0xc4a0b7d7

00000000800021a8 <reg_x21_output>:
    800021a8:	b631                	j	80001cb4 <fromhost+0xc74>
    800021aa:	d3938aaf          	0xd3938aaf
    800021ae:	8060                	0x8060

00000000800021b0 <reg_x22_output>:
    800021b0:	cc54                	sw	a3,28(s0)
    800021b2:	6b7d                	lui	s6,0x1f
    800021b4:	6448                	ld	a0,136(s0)
    800021b6:	8af0                	0x8af0

00000000800021b8 <reg_x23_output>:
    800021b8:	b755                	j	8000215c <reg_x11_output+0x4>
    800021ba:	3a80                	fld	fs0,48(a3)
    800021bc:	b0c9                	j	80001a7e <fromhost+0xa3e>
    800021be:	1e35                	addi	t3,t3,-19

00000000800021c0 <reg_x24_output>:
    800021c0:	2c14                	fld	fa3,24(s0)
    800021c2:	ce98                	sw	a4,24(a3)
    800021c4:	02b1                	addi	t0,t0,12
    800021c6:	b895                	j	80001a3a <fromhost+0x9fa>

00000000800021c8 <reg_x25_output>:
    800021c8:	bf8e                	fsd	ft3,504(sp)
    800021ca:	129bae1b          	0x129bae1b
    800021ce:	afdf        	0x4d7eb74eafdf

00000000800021d0 <reg_x26_output>:
    800021d0:	b74e                	fsd	fs3,424(sp)
    800021d2:	4d7e                	lw	s10,220(sp)
    800021d4:	825c                	0x825c
    800021d6:	0df1                	addi	s11,s11,28

00000000800021d8 <reg_x27_output>:
    800021d8:	aa30                	fsd	fa2,80(a2)
    800021da:	ecf0                	sd	a2,216(s1)
    800021dc:	72f1                	lui	t0,0xffffc
    800021de:	          	fnmsub.s	ft6,fs8,fs4,ft7,rup

00000000800021e0 <reg_x28_output>:
    800021e0:	394c                	fld	fa1,176(a0)
    800021e2:	601312b3          	0x601312b3
    800021e6:	0a36                	slli	s4,s4,0xd

00000000800021e8 <reg_x29_output>:
    800021e8:	70882213          	slti	tp,a6,1800
    800021ec:	8170                	0x8170
    800021ee:	          	0xa5d8fed7

00000000800021f0 <reg_x30_output>:
    800021f0:	a5d8                	fsd	fa4,136(a1)
    800021f2:	922bbe77          	0x922bbe77
    800021f6:	ac39                	j	80002414 <test_memory+0x214>

00000000800021f8 <reg_x31_output>:
    800021f8:	9061                	srli	s0,s0,0x38
    800021fa:	fa08                	sd	a0,48(a2)
    800021fc:	9a96191b          	0x9a96191b

0000000080002200 <test_memory>:
    80002200:	5634                	lw	a3,104(a2)
    80002202:	cb28                	sw	a0,80(a4)
    80002204:	ce12b0c7          	fmsub.q	ft1,ft5,ft1,fs9,rup
    80002208:	a4b1                	j	80002454 <test_memory+0x254>
    8000220a:	ad1a                	fsd	ft6,152(sp)
    8000220c:	566f6c43          	fmadd.q	fs8,ft10,ft6,fa0,unknown
    80002210:	a14c                	fsd	fa1,128(a0)
    80002212:	99c8                	0x99c8
    80002214:	de58                	sw	a4,60(a2)
    80002216:	b51a                	fsd	ft6,168(sp)
    80002218:	ca55                	beqz	a2,800022cc <test_memory+0xcc>
    8000221a:	5705                	li	a4,-31
    8000221c:	8a9e                	mv	s5,t2
    8000221e:	5aac                	lw	a1,112(a3)
    80002220:	432e                	lw	t1,200(sp)
    80002222:	c8c4                	sw	s1,20(s1)
    80002224:	3464                	fld	fs1,232(s0)
    80002226:	ebe4                	sd	s1,208(a5)
    80002228:	ed8e1eef          	jal	t4,7ffe3900 <_start-0x1c700>
    8000222c:	5232a5af          	0x5232a5af
    80002230:	47b9                	li	a5,14
    80002232:	b88a701b          	0xb88a701b
    80002236:	5ab4                	lw	a3,112(a3)
    80002238:	be4a                	fsd	fs2,312(sp)
    8000223a:	87a2                	mv	a5,s0
    8000223c:	b771                	j	800021c8 <reg_x25_output>
    8000223e:	6c94f403          	0x6c94f403
    80002242:	6f55                	lui	t5,0x15
    80002244:	1dc1                	addi	s11,s11,-16
    80002246:	814d                	srli	a0,a0,0x13
    80002248:	7766                	ld	a4,120(sp)
    8000224a:	2384                	fld	fs1,0(a5)
    8000224c:	6f30                	ld	a2,88(a4)
    8000224e:	c2d0                	sw	a2,4(a3)
    80002250:	2e62                	fld	ft8,24(sp)
    80002252:	2df5                	addiw	s11,s11,29
    80002254:	d5e6                	sw	s9,232(sp)
    80002256:	3ed4e283          	lwu	t0,1005(s1)
    8000225a:	97fa                	add	a5,a5,t5
    8000225c:	88b4                	0x88b4
    8000225e:	9fc1                	0x9fc1
    80002260:	85f1f533          	0x85f1f533
    80002264:	3776                	fld	fa4,376(sp)
    80002266:	13c1                	addi	t2,t2,-16
    80002268:	f244                	sd	s1,160(a2)
    8000226a:	c1a9                	beqz	a1,800022ac <test_memory+0xac>
    8000226c:	f1a4                	sd	s1,96(a1)
    8000226e:	f75c                	sd	a5,168(a4)
    80002270:	143d                	addi	s0,s0,-17
    80002272:	3c44                	fld	fs1,184(s0)
    80002274:	6ff1bb9b          	0x6ff1bb9b
    80002278:	415c                	lw	a5,4(a0)
    8000227a:	e001                	bnez	s0,8000227a <test_memory+0x7a>
    8000227c:	6129                	addi	sp,sp,192
    8000227e:	aecd                	j	80002670 <_end+0x60>
    80002280:	950490cb          	0x950490cb
    80002284:	9865                	andi	s0,s0,-7
    80002286:	cfca634f          	fnmadd.q	ft6,fs4,ft8,fs9,unknown
    8000228a:	45d2bf83          	ld	t6,1117(t0) # ffffffffffffc45d <__global_pointer$+0xffffffff7fff964d>
    8000228e:	c319                	beqz	a4,80002294 <test_memory+0x94>
    80002290:	e474                	sd	a3,200(s0)
    80002292:	924d                	srli	a2,a2,0x33
    80002294:	3b5a                	fld	fs6,432(sp)
    80002296:	63b5                	lui	t2,0xd
    80002298:	e49c                	sd	a5,8(s1)
    8000229a:	af10                	fsd	fa2,24(a4)
    8000229c:	1d402db7          	lui	s11,0x1d402
    800022a0:	2e90                	fld	fa2,24(a3)
    800022a2:	162a                	slli	a2,a2,0x2a
    800022a4:	6832                	ld	a6,264(sp)
    800022a6:	743e                	ld	s0,488(sp)
    800022a8:	3ace                	fld	fs5,240(sp)
    800022aa:	d404                	sw	s1,40(s0)
    800022ac:	0ce0                	addi	s0,sp,604
    800022ae:	3404                	fld	fs1,40(s0)
    800022b0:	88e8                	0x88e8
    800022b2:	f3ae                	sd	a1,480(sp)
    800022b4:	ffd9                	bnez	a5,80002252 <test_memory+0x52>
    800022b6:	1315                	addi	t1,t1,-27
    800022b8:	c724                	sw	s1,72(a4)
    800022ba:	933a                	add	t1,t1,a4
    800022bc:	109605e7          	jalr	a1,265(a2)
    800022c0:	73ac                	ld	a1,96(a5)
    800022c2:	712a                	ld	sp,168(sp)
    800022c4:	b3c0                	fsd	fs0,160(a5)
    800022c6:	71aa                	ld	gp,168(sp)
    800022c8:	873a                	mv	a4,a4
    800022ca:	dc3d                	beqz	s0,80002248 <test_memory+0x48>
    800022cc:	74b498db          	0x74b498db
    800022d0:	8ca9                	xor	s1,s1,a0
    800022d2:	804d                	srli	s0,s0,0x13
    800022d4:	2950                	fld	fa2,144(a0)
    800022d6:	2a65                	addiw	s4,s4,25
    800022d8:	add9                	j	800029ae <_end+0x39e>
    800022da:	ed61                	bnez	a0,800023b2 <test_memory+0x1b2>
    800022dc:	a1435c67          	0xa1435c67
    800022e0:	05ba                	slli	a1,a1,0xe
    800022e2:	2095                	addiw	ra,ra,5
    800022e4:	51be                	lw	gp,236(sp)
    800022e6:	5f9e                	lw	t6,228(sp)
    800022e8:	f4cec08b          	0xf4cec08b
    800022ec:	a532                	fsd	fa2,136(sp)
    800022ee:	6242                	ld	tp,16(sp)
    800022f0:	8e7f                	0x8e7f
    800022f2:	cf75                	beqz	a4,800023ee <test_memory+0x1ee>
    800022f4:	f9fd                	bnez	a1,800022ea <test_memory+0xea>
    800022f6:	663c                	ld	a5,72(a2)
    800022f8:	7a70                	ld	a2,240(a2)
    800022fa:	e850                	sd	a2,144(s0)
    800022fc:	bf89                	j	8000224e <test_memory+0x4e>
    800022fe:	a54d028f          	0xa54d028f
    80002302:	5fcd                	li	t6,-13
    80002304:	d718                	sw	a4,40(a4)
    80002306:	2f4d                	addiw	t5,t5,19
    80002308:	8852                	mv	a6,s4
    8000230a:	9f3c45e3          	blt	s8,s3,80001cf4 <fromhost+0xcb4>
    8000230e:	f53c                	sd	a5,104(a0)
    80002310:	8364                	0x8364
    80002312:	92a20a77          	0x92a20a77
    80002316:	6f59                	lui	t5,0x16
    80002318:	b64971f7          	0xb64971f7
    8000231c:	29c4                	fld	fs1,144(a1)
    8000231e:	d5d8                	sw	a4,44(a1)
    80002320:	73911867          	0x73911867
    80002324:	9b84                	0x9b84
    80002326:	ac70                	fsd	fa2,216(s0)
    80002328:	e2e144b7          	lui	s1,0xe2e14
    8000232c:	7ead                	lui	t4,0xfffeb
    8000232e:	baee                	fsd	fs11,368(sp)
    80002330:	c908                	sw	a0,16(a0)
    80002332:	bf00de83          	lhu	t4,-1040(ra)
    80002336:	8d1c                	0x8d1c
    80002338:	d34d                	beqz	a4,800022da <test_memory+0xda>
    8000233a:	e2332dc7          	fmsub.d	fs11,ft6,ft3,ft8,rdn
    8000233e:	389a                	fld	fa7,416(sp)
    80002340:	e502                	sd	zero,136(sp)
    80002342:	f53c                	sd	a5,104(a0)
    80002344:	e6e4cdf7          	0xe6e4cdf7
    80002348:	9ef1                	0x9ef1
    8000234a:	2e25681b          	0x2e25681b
    8000234e:	084c427b          	0x84c427b
    80002352:	d265a8a3          	sw	t1,-719(a1)
    80002356:	930e                	add	t1,t1,gp
    80002358:	bda5                	j	800021d0 <reg_x26_output>
    8000235a:	7b6d                	lui	s6,0xffffb
    8000235c:	ed12                	sd	tp,152(sp)
    8000235e:	e6ee                	sd	s11,328(sp)
    80002360:	8863db8b          	0x8863db8b
    80002364:	992d                	andi	a0,a0,-21
    80002366:	3011                	0x3011
    80002368:	322a51cf          	fnmadd.d	ft3,fs4,ft2,ft6,unknown
    8000236c:	83a2                	mv	t2,s0
    8000236e:	8f8a                	mv	t6,sp
    80002370:	f1f8e7c7          	fmsub.s	fa5,fa7,ft11,ft10,unknown
    80002374:	e5ee941b          	0xe5ee941b
    80002378:	a4586707          	0xa4586707
    8000237c:	0c42                	slli	s8,s8,0x10
    8000237e:	9e49                	0x9e49
    80002380:	7161                	addi	sp,sp,-432
    80002382:	0979                	addi	s2,s2,30
    80002384:	7fb95827          	0x7fb95827
    80002388:	4832                	lw	a6,12(sp)
    8000238a:	23ba                	fld	ft7,392(sp)
    8000238c:	c908                	sw	a0,16(a0)
    8000238e:	5a8d                	li	s5,-29
    80002390:	8e44                	0x8e44
    80002392:	2dba                	fld	fs11,392(sp)
    80002394:	3bf6                	fld	fs7,376(sp)
    80002396:	b522                	fsd	fs0,168(sp)
    80002398:	0154a2cf          	fnmadd.s	ft5,fs1,fs5,ft0,rdn
    8000239c:	4fce                	lw	t6,208(sp)
    8000239e:	c6b0                	sw	a2,72(a3)
    800023a0:	939deb5b          	0x939deb5b
    800023a4:	daa4                	sw	s1,112(a3)
    800023a6:	182d                	addi	a6,a6,-21
    800023a8:	0b90                	addi	a2,sp,464
    800023aa:	eff4                	sd	a3,216(a5)
    800023ac:	d49f 24dc f542      	0xf54224dcd49f
    800023b2:	ad82                	fsd	ft0,216(sp)
    800023b4:	8d9b7ec7          	0x8d9b7ec7
    800023b8:	b82c                	fsd	fa1,112(s0)
    800023ba:	b0ad                	j	80001c24 <fromhost+0xbe4>
    800023bc:	4ac4365b          	0x4ac4365b
    800023c0:	b2d5583f 8e18b9ae 	0x8e18b9aeb2d5583f
    800023c8:	c8d18273          	0xc8d18273
    800023cc:	b195                	j	80002030 <reg_x6_init>
    800023ce:	ed2d                	bnez	a0,80002448 <test_memory+0x248>
    800023d0:	ebef0b73          	0xebef0b73
    800023d4:	aaea                	fsd	fs10,336(sp)
    800023d6:	3b80                	fld	fs0,48(a5)
    800023d8:	88a2                	mv	a7,s0
    800023da:	3990                	fld	fa2,48(a1)
    800023dc:	71365dbb          	0x71365dbb
    800023e0:	5b4c                	lw	a1,52(a4)
    800023e2:	bc10b733          	0xbc10b733
    800023e6:	ec49                	bnez	s0,80002480 <test_memory+0x280>
    800023e8:	fef8                	sd	a4,248(a3)
    800023ea:	21fc                	fld	fa5,192(a1)
    800023ec:	d879                	beqz	s0,800023c2 <test_memory+0x1c2>
    800023ee:	9f28                	0x9f28
    800023f0:	a73d                	j	80002b1e <_end+0x50e>
    800023f2:	d4bca0ab          	0xd4bca0ab
    800023f6:	882c                	0x882c
    800023f8:	0689                	addi	a3,a3,2
    800023fa:	413d                	li	sp,15
    800023fc:	c35e                	sw	s7,132(sp)
    800023fe:	7c99                	lui	s9,0xfffe6
    80002400:	c6b1                	beqz	a3,8000244c <test_memory+0x24c>
    80002402:	64c5                	lui	s1,0x11
    80002404:	4ad9                	li	s5,22
    80002406:	883d                	andi	s0,s0,15
    80002408:	9d51                	0x9d51
    8000240a:	f7bef213          	andi	tp,t4,-133
    8000240e:	493c2f1b          	0x493c2f1b
    80002412:	8c5f 131e c259      	0xc259131e8c5f
    80002418:	3f7ffb8b          	0x3f7ffb8b
    8000241c:	d0a994db          	0xd0a994db
    80002420:	2b480613          	addi	a2,a6,692
    80002424:	404cf5db          	0x404cf5db
    80002428:	7d64f243          	0x7d64f243
    8000242c:	b10d4c3f 8e19aebe 	0x8e19aebeb10d4c3f
    80002434:	cbf4                	sw	a3,84(a5)
    80002436:	2680                	fld	fs0,8(a3)
    80002438:	1f2a                	slli	t5,t5,0x2a
    8000243a:	906a952f          	0x906a952f
    8000243e:	5e69                	li	t3,-6
    80002440:	a7e9590b          	0xa7e9590b
    80002444:	082d                	addi	a6,a6,11
    80002446:	48bc                	lw	a5,80(s1)
    80002448:	09a9                	addi	s3,s3,10
    8000244a:	3e8a                	fld	ft9,160(sp)
    8000244c:	89b5                	andi	a1,a1,13
    8000244e:	a0b1                	j	8000249a <test_memory+0x29a>
    80002450:	3445                	addiw	s0,s0,-15
    80002452:	10a95f33          	0x10a95f33
    80002456:	7d382dd3          	0x7d382dd3
    8000245a:	44a1                	li	s1,8
    8000245c:	f56d                	bnez	a0,80002446 <test_memory+0x246>
    8000245e:	22c1                	addiw	t0,t0,16
    80002460:	dda6                	sw	s1,248(sp)
    80002462:	2cad72af          	0x2cad72af
    80002466:	6112                	ld	sp,256(sp)
    80002468:	f26db4ef          	jal	s1,7ffddb8e <_start-0x22472>
    8000246c:	5340                	lw	s0,36(a4)
    8000246e:	fe06                	sd	ra,312(sp)
    80002470:	0809                	addi	a6,a6,2
    80002472:	45c6                	lw	a1,80(sp)
    80002474:	0aa9                	addi	s5,s5,10
    80002476:	2c5c8243          	0x2c5c8243
    8000247a:	d15e                	sw	s7,160(sp)
    8000247c:	04e2                	slli	s1,s1,0x18
    8000247e:	9579                	srai	a0,a0,0x3e
    80002480:	20426ae3          	bltu	tp,tp,80002e94 <__global_pointer$+0x84>
    80002484:	47762277          	0x47762277
    80002488:	26a02997          	auipc	s3,0x26a02
    8000248c:	43e8                	lw	a0,68(a5)
    8000248e:	2c74d893          	0x2c74d893
    80002492:	77e5292b          	0x77e5292b
    80002496:	d689                	beqz	a3,800023a0 <test_memory+0x1a0>
    80002498:	5494                	lw	a3,40(s1)
    8000249a:	11f3797b          	0x11f3797b
    8000249e:	00ac                	addi	a1,sp,72
    800024a0:	3b38                	fld	fa4,112(a4)
    800024a2:	816ff023          	0x816ff023
    800024a6:	83fa                	mv	t2,t5
    800024a8:	efb8                	sd	a4,88(a5)
    800024aa:	8711ea0f          	0x8711ea0f
    800024ae:	4aa46193          	ori	gp,s0,1194
    800024b2:	b725                	j	800023da <test_memory+0x1da>
    800024b4:	3751                	addiw	a4,a4,-12
    800024b6:	2929                	addiw	s2,s2,10
    800024b8:	85ae                	mv	a1,a1
    800024ba:	22671067          	0x22671067
    800024be:	db2a                	sw	a0,180(sp)
    800024c0:	670e                	ld	a4,192(sp)
    800024c2:	d6a5                	beqz	a3,8000242a <test_memory+0x22a>
    800024c4:	8ebd                	xor	a3,a3,a5
    800024c6:	320e                	fld	ft4,224(sp)
    800024c8:	207a                	fld	ft0,408(sp)
    800024ca:	6982                	ld	s3,0(sp)
    800024cc:	010a                	slli	sp,sp,0x2
    800024ce:	a38a                	fsd	ft2,448(sp)
    800024d0:	54ec                	lw	a1,108(s1)
    800024d2:	e568b3a3          	sd	s6,-441(a7)
    800024d6:	09c8                	addi	a0,sp,212
    800024d8:	5dcd                	li	s11,-13
    800024da:	1f2e4017          	auipc	zero,0x1f2e4
    800024de:	6a52                	ld	s4,272(sp)
    800024e0:	2f40                	fld	fs0,152(a4)
    800024e2:	214c7127          	0x214c7127
    800024e6:	4285                	li	t0,1
    800024e8:	5263f49b          	0x5263f49b
    800024ec:	0782                	c.slli64	a5
    800024ee:	8c02                	jr	s8
    800024f0:	2044f953          	0x2044f953
    800024f4:	88a8                	0x88a8
    800024f6:	7fea5073          	csrwi	0x7fe,20
    800024fa:	dad1                	beqz	a3,8000248e <test_memory+0x28e>
    800024fc:	94d8                	0x94d8
    800024fe:	2256                	fld	ft4,336(sp)
    80002500:	17a0                	addi	s0,sp,1000
    80002502:	9649fa5b          	0x9649fa5b
    80002506:	a2edcce3          	blt	s11,a4,80001f3e <fromhost+0xefe>
    8000250a:	aa0bcfcf          	fnmadd.d	ft11,fs7,ft0,fs5,rmm
    8000250e:	0a7e                	slli	s4,s4,0x1f
    80002510:	a40ae413          	ori	s0,s5,-1472
    80002514:	56924e0f          	0x56924e0f
    80002518:	da51                	beqz	a2,800024ac <test_memory+0x2ac>
    8000251a:	3512                	fld	fa0,288(sp)
    8000251c:	041e                	slli	s0,s0,0x7
    8000251e:	7609                	lui	a2,0xfffe2
    80002520:	83a9d173          	csrrwi	sp,0x83a,19
    80002524:	d5aa                	sw	a0,232(sp)
    80002526:	6aea                	ld	s5,152(sp)
    80002528:	8ed5                	or	a3,a3,a3
    8000252a:	d6de                	sw	s7,108(sp)
    8000252c:	8aa0                	0x8aa0
    8000252e:	a5da                	fsd	fs6,200(sp)
    80002530:	7edcd21b          	0x7edcd21b
    80002534:	55a5                	li	a1,-23
    80002536:	29b1                	addiw	s3,s3,12
    80002538:	3d20                	fld	fs0,120(a0)
    8000253a:	3445                	addiw	s0,s0,-15
    8000253c:	c259                	beqz	a2,800025c2 <test_memory+0x3c2>
    8000253e:	098e                	slli	s3,s3,0x3
    80002540:	f5f0                	sd	a2,232(a1)
    80002542:	8ff6                	mv	t6,t4
    80002544:	66a4                	ld	s1,72(a3)
    80002546:	458c                	lw	a1,8(a1)
    80002548:	c6ce                	sw	s3,76(sp)
    8000254a:	40a2                	lw	ra,8(sp)
    8000254c:	461e                	lw	a2,196(sp)
    8000254e:	0f9a                	slli	t6,t6,0x6
    80002550:	738e                	ld	t2,224(sp)
    80002552:	8ef25fcf          	fnmadd.q	ft11,ft4,fa5,fa7,unknown
    80002556:	6061                	c.lui	zero,0x18
    80002558:	dc4240cb          	0xdc4240cb
    8000255c:	6a05                	lui	s4,0x1
    8000255e:	85a1                	srai	a1,a1,0x8
    80002560:	90c4                	0x90c4
    80002562:	ab52                	fsd	fs4,400(sp)
    80002564:	9434                	0x9434
    80002566:	6ebd                	lui	t4,0xf
    80002568:	d2e4                	sw	s1,100(a3)
    8000256a:	e161                	bnez	a0,8000262a <_end+0x1a>
    8000256c:	6cc1                	lui	s9,0x10
    8000256e:	1e42eaf3          	csrrsi	s5,0x1e4,5
    80002572:	a854                	fsd	fa3,144(s0)
    80002574:	a581                	j	80002bb4 <_end+0x5a4>
    80002576:	31c9                	addiw	gp,gp,-14
    80002578:	aadc7c9b          	0xaadc7c9b
    8000257c:	9b3cdb47          	fmsub.d	fs6,fs9,fs3,fs3,unknown
    80002580:	7a90                	ld	a2,48(a3)
    80002582:	c261                	beqz	a2,80002642 <_end+0x32>
    80002584:	5fdaa197          	auipc	gp,0x5fdaa
    80002588:	d33a                	sw	a4,164(sp)
    8000258a:	65ea                	ld	a1,152(sp)
    8000258c:	0ab2                	slli	s5,s5,0xc
    8000258e:	338a                	fld	ft7,160(sp)
    80002590:	5042                	0x5042
    80002592:	01bc                	addi	a5,sp,200
    80002594:	fd68                	sd	a0,248(a0)
    80002596:	0d2a30b7          	lui	ra,0xd2a3
    8000259a:	fde9                	bnez	a1,80002574 <test_memory+0x374>
    8000259c:	cc65                	beqz	s0,80002694 <_end+0x84>
    8000259e:	21dc                	fld	fa5,128(a1)
    800025a0:	8369                	srli	a4,a4,0x1a
    800025a2:	cb86                	sw	ra,212(sp)
    800025a4:	0ed2                	slli	t4,t4,0x14
    800025a6:	f88c                	sd	a1,48(s1)
    800025a8:	ee84                	sd	s1,24(a3)
    800025aa:	4121                	li	sp,8
    800025ac:	c076                	sw	t4,0(sp)
    800025ae:	6e26                	ld	t3,72(sp)
    800025b0:	024c                	addi	a1,sp,260
    800025b2:	bfb7adbb          	0xbfb7adbb
    800025b6:	6ae89347          	fmsub.d	ft6,fa7,fa4,fa3,rtz
    800025ba:	ea481583          	lh	a1,-348(a6)
    800025be:	6d589cab          	0x6d589cab
    800025c2:	cb16                	sw	t0,148(sp)
    800025c4:	ed2c                	sd	a1,88(a0)
    800025c6:	265f 108d 5d1b      	0x5d1b108d265f
    800025cc:	6b79                	lui	s6,0x1e
    800025ce:	ca5413e7          	0xca5413e7
    800025d2:	a5cd                	j	80002cb4 <_end+0x6a4>
    800025d4:	f70a                	sd	sp,424(sp)
    800025d6:	406a                	0x406a
    800025d8:	9099                	srli	s1,s1,0x26
    800025da:	0185                	addi	gp,gp,1
    800025dc:	88fe                	mv	a7,t6
    800025de:	dd46                	sw	a7,184(sp)
    800025e0:	b6d8                	fsd	fa4,168(a3)
    800025e2:	5b20                	lw	s0,112(a4)
    800025e4:	43b0                	lw	a2,64(a5)
    800025e6:	7189                	lui	gp,0xfffe2
    800025e8:	945df8b3          	0x945df8b3
    800025ec:	76ac5e8b          	0x76ac5e8b
    800025f0:	cdff                	0xcdff
    800025f2:	bbff70b7          	lui	ra,0xbbff7
    800025f6:	71d5f4eb          	0x71d5f4eb
    800025fa:	ee6e                	sd	s11,280(sp)
    800025fc:	e438                	sd	a4,72(s0)
    800025fe:	ecf2                	sd	t3,88(sp)

0000000080002600 <loop_count>:
    80002600:	0040                	addi	s0,sp,4
	...

Disassembly of section .riscv.attributes:

0000000000000000 <.riscv.attributes>:
   0:	1e41                	addi	t3,t3,-16
   2:	0000                	unimp
   4:	7200                	ld	s0,32(a2)
   6:	7369                	lui	t1,0xffffa
   8:	01007663          	bgeu	zero,a6,14 <_start-0x7fffffec>
   c:	0014                	0x14
   e:	0000                	unimp
  10:	7205                	lui	tp,0xfffe1
  12:	3676                	fld	fa2,376(sp)
  14:	6934                	ld	a3,80(a0)
  16:	7032                	0x7032
  18:	5f30                	lw	a2,120(a4)
  1a:	326d                	addiw	tp,tp,-5
  1c:	3070                	fld	fa2,224(s0)
	...
