
build/test100:     file format elf64-littleriscv


Disassembly of section .text.init:

0000000080000000 <_start>:
    80000000:	05c0006f          	j	8000005c <reset_vector>

0000000080000004 <trap_vector>:
    80000004:	34202f73          	csrr	t5,mcause
    80000008:	00800f93          	li	t6,8
    8000000c:	03ff0a63          	beq	t5,t6,80000040 <write_tohost>
    80000010:	00900f93          	li	t6,9
    80000014:	03ff0663          	beq	t5,t6,80000040 <write_tohost>
    80000018:	00b00f93          	li	t6,11
    8000001c:	03ff0263          	beq	t5,t6,80000040 <write_tohost>
    80000020:	80000f17          	auipc	t5,0x80000
    80000024:	fe0f0f13          	addi	t5,t5,-32 # 0 <_start-0x80000000>
    80000028:	000f0463          	beqz	t5,80000030 <trap_vector+0x2c>
    8000002c:	000f0067          	jr	t5
    80000030:	34202f73          	csrr	t5,mcause
    80000034:	000f5463          	bgez	t5,8000003c <handle_exception>
    80000038:	0040006f          	j	8000003c <handle_exception>

000000008000003c <handle_exception>:
    8000003c:	5391e193          	ori	gp,gp,1337

0000000080000040 <write_tohost>:
    80000040:	00001f17          	auipc	t5,0x1
    80000044:	fc3f2023          	sw	gp,-64(t5) # 80001000 <tohost>
    80000048:	000902b7          	lui	t0,0x90
    8000004c:	0012829b          	addiw	t0,t0,1
    80000050:	00c29293          	slli	t0,t0,0xc
    80000054:	0002af83          	lw	t6,0(t0) # 90000 <_start-0x7ff70000>
    80000058:	fe9ff06f          	j	80000040 <write_tohost>

000000008000005c <reset_vector>:
    8000005c:	00000093          	li	ra,0
    80000060:	00000113          	li	sp,0
    80000064:	00000193          	li	gp,0
    80000068:	00000213          	li	tp,0
    8000006c:	00000293          	li	t0,0
    80000070:	00000313          	li	t1,0
    80000074:	00000393          	li	t2,0
    80000078:	00000413          	li	s0,0
    8000007c:	00000493          	li	s1,0
    80000080:	00000513          	li	a0,0
    80000084:	00000593          	li	a1,0
    80000088:	00000613          	li	a2,0
    8000008c:	00000693          	li	a3,0
    80000090:	00000713          	li	a4,0
    80000094:	00000793          	li	a5,0
    80000098:	00000813          	li	a6,0
    8000009c:	00000893          	li	a7,0
    800000a0:	00000913          	li	s2,0
    800000a4:	00000993          	li	s3,0
    800000a8:	00000a13          	li	s4,0
    800000ac:	00000a93          	li	s5,0
    800000b0:	00000b13          	li	s6,0
    800000b4:	00000b93          	li	s7,0
    800000b8:	00000c13          	li	s8,0
    800000bc:	00000c93          	li	s9,0
    800000c0:	00000d13          	li	s10,0
    800000c4:	00000d93          	li	s11,0
    800000c8:	00000e13          	li	t3,0
    800000cc:	00000e93          	li	t4,0
    800000d0:	00000f13          	li	t5,0
    800000d4:	00000f93          	li	t6,0
    800000d8:	f1402573          	csrr	a0,mhartid
    800000dc:	00051063          	bnez	a0,800000dc <reset_vector+0x80>
    800000e0:	00000297          	auipc	t0,0x0
    800000e4:	01028293          	addi	t0,t0,16 # 800000f0 <reset_vector+0x94>
    800000e8:	30529073          	csrw	mtvec,t0
    800000ec:	18005073          	csrwi	satp,0
    800000f0:	00000297          	auipc	t0,0x0
    800000f4:	02428293          	addi	t0,t0,36 # 80000114 <reset_vector+0xb8>
    800000f8:	30529073          	csrw	mtvec,t0
    800000fc:	0010029b          	addiw	t0,zero,1
    80000100:	03529293          	slli	t0,t0,0x35
    80000104:	fff28293          	addi	t0,t0,-1
    80000108:	3b029073          	csrw	pmpaddr0,t0
    8000010c:	01f00293          	li	t0,31
    80000110:	3a029073          	csrw	pmpcfg0,t0
    80000114:	30405073          	csrwi	mie,0
    80000118:	00000297          	auipc	t0,0x0
    8000011c:	01428293          	addi	t0,t0,20 # 8000012c <reset_vector+0xd0>
    80000120:	30529073          	csrw	mtvec,t0
    80000124:	30205073          	csrwi	medeleg,0
    80000128:	30305073          	csrwi	mideleg,0
    8000012c:	00000193          	li	gp,0
    80000130:	00000297          	auipc	t0,0x0
    80000134:	ed428293          	addi	t0,t0,-300 # 80000004 <trap_vector>
    80000138:	30529073          	csrw	mtvec,t0
    8000013c:	00100513          	li	a0,1
    80000140:	01f51513          	slli	a0,a0,0x1f
    80000144:	00055c63          	bgez	a0,8000015c <reset_vector+0x100>
    80000148:	0ff0000f          	fence
    8000014c:	00100193          	li	gp,1
    80000150:	05d00893          	li	a7,93
    80000154:	00000513          	li	a0,0
    80000158:	00000073          	ecall
    8000015c:	80000297          	auipc	t0,0x80000
    80000160:	ea428293          	addi	t0,t0,-348 # 0 <_start-0x80000000>
    80000164:	00028a63          	beqz	t0,80000178 <reset_vector+0x11c>
    80000168:	10529073          	csrw	stvec,t0
    8000016c:	0000b2b7          	lui	t0,0xb
    80000170:	1092829b          	addiw	t0,t0,265
    80000174:	30229073          	csrw	medeleg,t0
    80000178:	30005073          	csrwi	mstatus,0
    8000017c:	00000297          	auipc	t0,0x0
    80000180:	01428293          	addi	t0,t0,20 # 80000190 <reset_vector+0x134>
    80000184:	34129073          	csrw	mepc,t0
    80000188:	f1402573          	csrr	a0,mhartid
    8000018c:	30200073          	mret
    80000190:	0200006f          	j	800001b0 <test_start>

0000000080000194 <crash_backward>:
    80000194:	0ff0000f          	fence
    80000198:	00018063          	beqz	gp,80000198 <crash_backward+0x4>
    8000019c:	00119193          	slli	gp,gp,0x1
    800001a0:	0011e193          	ori	gp,gp,1
    800001a4:	05d00893          	li	a7,93
    800001a8:	00018513          	mv	a0,gp
    800001ac:	00000073          	ecall

00000000800001b0 <test_start>:
    800001b0:	00002f97          	auipc	t6,0x2
    800001b4:	e50f8f93          	addi	t6,t6,-432 # 80002000 <hidden_data>
    800001b8:	000fb003          	ld	zero,0(t6)
    800001bc:	008fb083          	ld	ra,8(t6)
    800001c0:	010fb103          	ld	sp,16(t6)
    800001c4:	018fb183          	ld	gp,24(t6)
    800001c8:	020fb203          	ld	tp,32(t6)
    800001cc:	028fb283          	ld	t0,40(t6)
    800001d0:	030fb303          	ld	t1,48(t6)
    800001d4:	038fb383          	ld	t2,56(t6)
    800001d8:	040fb403          	ld	s0,64(t6)
    800001dc:	048fb483          	ld	s1,72(t6)
    800001e0:	050fb503          	ld	a0,80(t6)
    800001e4:	058fb583          	ld	a1,88(t6)
    800001e8:	060fb603          	ld	a2,96(t6)
    800001ec:	068fb683          	ld	a3,104(t6)
    800001f0:	070fb703          	ld	a4,112(t6)
    800001f4:	078fb783          	ld	a5,120(t6)
    800001f8:	080fb803          	ld	a6,128(t6)
    800001fc:	088fb883          	ld	a7,136(t6)
    80000200:	090fb903          	ld	s2,144(t6)
    80000204:	098fb983          	ld	s3,152(t6)
    80000208:	0a0fba03          	ld	s4,160(t6)
    8000020c:	0a8fba83          	ld	s5,168(t6)
    80000210:	0b0fbb03          	ld	s6,176(t6)
    80000214:	0b8fbb83          	ld	s7,184(t6)
    80000218:	0c0fbc03          	ld	s8,192(t6)
    8000021c:	0c8fbc83          	ld	s9,200(t6)
    80000220:	0d0fbd03          	ld	s10,208(t6)
    80000224:	0d8fbd83          	ld	s11,216(t6)
    80000228:	0e0fbe03          	ld	t3,224(t6)
    8000022c:	0e8fbe83          	ld	t4,232(t6)
    80000230:	0f0fbf03          	ld	t5,240(t6)
    80000234:	0f8fbf83          	ld	t6,248(t6)
    80000238:	0040006f          	j	8000023c <pseg_0>

000000008000023c <pseg_0>:
    8000023c:	00000913          	li	s2,0
    80000240:	d7600513          	li	a0,-650
    80000244:	00b5bb33          	sltu	s6,a1,a1
    80000248:	a4f08b9b          	addiw	s7,ra,-1457
    8000024c:	12500e13          	li	t3,293
    80000250:	03bb62bb          	remw	t0,s6,s11
    80000254:	0339c5b3          	div	a1,s3,s3
    80000258:	00002317          	auipc	t1,0x2
    8000025c:	42b30313          	addi	t1,t1,1067 # 80002683 <_end+0x73>
    80000260:	00000213          	li	tp,0
    80000264:	f7500493          	li	s1,-139
    80000268:	00a55133          	srl	sp,a0,a0
    8000026c:	00002417          	auipc	s0,0x2
    80000270:	4a240413          	addi	s0,s0,1186 # 8000270e <_end+0xfe>
    80000274:	16400393          	li	t2,356
    80000278:	414a5ebb          	sraw	t4,s4,s4
    8000027c:	01ce0733          	add	a4,t3,t3
    80000280:	414ed61b          	sraiw	a2,t4,0x14
    80000284:	50000693          	li	a3,1280
    80000288:	0073a833          	slt	a6,t2,t2
    8000028c:	dba34883          	lbu	a7,-582(t1)
    80000290:	fdd00a13          	li	s4,-35
    80000294:	32e00f93          	li	t6,814
    80000298:	8de00193          	li	gp,-1826
    8000029c:	d4a42123          	sw	a0,-702(s0)
    800002a0:	2ce00093          	li	ra,718
    800002a4:	c3f00313          	li	t1,-961
    800002a8:	9bb00b13          	li	s6,-1605
    800002ac:	52108c13          	addi	s8,ra,1313
    800002b0:	02068793          	addi	a5,a3,32
    800002b4:	01293bb3          	sltu	s7,s2,s2
    800002b8:	6a1c6863          	bltu	s8,ra,80000968 <crash_forward>
    800002bc:	aa200513          	li	a0,-1374
    800002c0:	00002e97          	auipc	t4,0x2
    800002c4:	e48e8e93          	addi	t4,t4,-440 # 80002108 <reg_x1_output>
    800002c8:	f8b00613          	li	a2,-117
    800002cc:	ec4964e3          	bltu	s2,tp,80000194 <crash_backward>
    800002d0:	53500d13          	li	s10,1333
    800002d4:	00a325b3          	slt	a1,t1,a0
    800002d8:	1d2f8a93          	addi	s5,t6,466
    800002dc:	68f68663          	beq	a3,a5,80000968 <crash_forward>
    800002e0:	4f100d93          	li	s11,1265
    800002e4:	403a09b3          	sub	s3,s4,gp
    800002e8:	f185881b          	addiw	a6,a1,-232
    800002ec:	6c300393          	li	t2,1731
    800002f0:	03a4df33          	divu	t5,s1,s10
    800002f4:	03b60433          	mul	s0,a2,s11
    800002f8:	61b0e737          	lui	a4,0x61b0e
    800002fc:	027b7133          	remu	sp,s6,t2
    80000300:	0226dbbb          	divuw	s7,a3,sp
    80000304:	00002c17          	auipc	s8,0x2
    80000308:	039c0c13          	addi	s8,s8,57 # 8000233d <test_memory+0x13d>
    8000030c:	00f79cbb          	sllw	s9,a5,a5
    80000310:	498e8e03          	lb	t3,1176(t4)
    80000314:	123c3083          	ld	ra,291(s8)
    80000318:	56600893          	li	a7,1382
    8000031c:	031882b3          	mul	t0,a7,a7
    80000320:	bb500d93          	li	s11,-1099
    80000324:	01311913          	slli	s2,sp,0x13
    80000328:	09200f93          	li	t6,146
    8000032c:	0221083b          	mulw	a6,sp,sp
    80000330:	96d00593          	li	a1,-1683
    80000334:	014cde3b          	srlw	t3,s9,s4
    80000338:	0073aa33          	slt	s4,t2,t2
    8000033c:	40865b3b          	sraw	s6,a2,s0
    80000340:	f6700513          	li	a0,-153
    80000344:	00002e97          	auipc	t4,0x2
    80000348:	542e8e93          	addi	t4,t4,1346 # 80002886 <_end+0x276>
    8000034c:	03db72b3          	remu	t0,s6,t4
    80000350:	73d4a737          	lui	a4,0x73d4a
    80000354:	aae00813          	li	a6,-1362
    80000358:	00af963b          	sllw	a2,t6,a0
    8000035c:	01f75493          	srli	s1,a4,0x1f
    80000360:	00002c17          	auipc	s8,0x2
    80000364:	e6ac0c13          	addi	s8,s8,-406 # 800021ca <reg_x25_output+0x2>
    80000368:	f111eb13          	ori	s6,gp,-239
    8000036c:	56e00c93          	li	s9,1390
    80000370:	0308023b          	mulw	tp,a6,a6
    80000374:	a678f613          	andi	a2,a7,-1433
    80000378:	6c58e513          	ori	a0,a7,1733
    8000037c:	01885b3b          	srlw	s6,a6,s8
    80000380:	dcc00393          	li	t2,-564
    80000384:	0139c2b3          	xor	t0,s3,s3
    80000388:	03082133          	mulhsu	sp,a6,a6
    8000038c:	e00064e3          	bltu	zero,zero,80000194 <crash_backward>
    80000390:	036b5d3b          	divuw	s10,s6,s6
    80000394:	039ccbbb          	divw	s7,s9,s9
    80000398:	00002f17          	auipc	t5,0x2
    8000039c:	15ff0f13          	addi	t5,t5,351 # 800024f7 <test_memory+0x2f7>
    800003a0:	039cd733          	divu	a4,s9,s9
    800003a4:	a3e00e13          	li	t3,-1474
    800003a8:	c4e58893          	addi	a7,a1,-946
    800003ac:	00ab87b3          	add	a5,s7,a0
    800003b0:	000020b3          	sltz	ra,zero
    800003b4:	00100513          	li	a0,1
    800003b8:	03619693          	slli	a3,gp,0x36
    800003bc:	03f51513          	slli	a0,a0,0x3f
    800003c0:	aad10293          	addi	t0,sp,-1363
    800003c4:	a0600413          	li	s0,-1530
    800003c8:	b4b00693          	li	a3,-1205
    800003cc:	84368d13          	addi	s10,a3,-1981
    800003d0:	d12e9a83          	lh	s5,-750(t4)
    800003d4:	fa000a13          	li	s4,-96
    800003d8:	00000813          	li	a6,0
    800003dc:	5810e663          	bltu	ra,ra,80000968 <crash_forward>
    800003e0:	fff00213          	li	tp,-1
    800003e4:	034e493b          	divw	s2,t3,s4
    800003e8:	14fd6713          	ori	a4,s10,335
    800003ec:	02d6e0b3          	rem	ra,a3,a3
    800003f0:	72e00a93          	li	s5,1838
    800003f4:	f71f6983          	lwu	s3,-143(t5)
    800003f8:	1ffc3b23          	sd	t6,502(s8)
    800003fc:	57300b93          	li	s7,1395
    80000400:	06e00d13          	li	s10,110
    80000404:	65400893          	li	a7,1620
    80000408:	03aac6bb          	divw	a3,s5,s10
    8000040c:	027db1b3          	mulhu	gp,s11,t2
    80000410:	00000293          	li	t0,0
    80000414:	65000793          	li	a5,1616
    80000418:	02840333          	mul	t1,s0,s0
    8000041c:	a3a9f993          	andi	s3,s3,-1478
    80000420:	b4300713          	li	a4,-1213
    80000424:	67500393          	li	t2,1653
    80000428:	86600113          	li	sp,-1946
    8000042c:	00a24233          	xor	tp,tp,a0
    80000430:	e8800a93          	li	s5,-376
    80000434:	b0100093          	li	ra,-1279
    80000438:	f0000e13          	li	t3,-256
    8000043c:	015a8dbb          	addw	s11,s5,s5
    80000440:	02278cb3          	mul	s9,a5,sp
    80000444:	52584263          	blt	a6,t0,80000968 <crash_forward>
    80000448:	02e74a33          	div	s4,a4,a4
    8000044c:	0180dc3b          	srlw	s8,ra,s8
    80000450:	031bbeb3          	mulhu	t4,s7,a7
    80000454:	0073d1b3          	srl	gp,t2,t2
    80000458:	13000f93          	li	t6,304
    8000045c:	41c0893b          	subw	s2,ra,t3
    80000460:	03f505bb          	mulw	a1,a0,t6
    80000464:	0042f633          	and	a2,t0,tp
    80000468:	03fff4bb          	remuw	s1,t6,t6
    8000046c:	82100093          	li	ra,-2015
    80000470:	00a16b33          	or	s6,sp,a0
    80000474:	4ecb5a63          	bge	s6,a2,80000968 <crash_forward>
    80000478:	4197d313          	srai	t1,a5,0x19
    8000047c:	6b800e13          	li	t3,1720
    80000480:	00100b93          	li	s7,1
    80000484:	00002d97          	auipc	s11,0x2
    80000488:	1fdd8d93          	addi	s11,s11,509 # 80002681 <_end+0x71>
    8000048c:	00002497          	auipc	s1,0x2
    80000490:	5a748493          	addi	s1,s1,1447 # 80002a33 <_end+0x423>
    80000494:	00002a97          	auipc	s5,0x2
    80000498:	1b2a8a93          	addi	s5,s5,434 # 80002646 <_end+0x36>
    8000049c:	03fb9b93          	slli	s7,s7,0x3f
    800004a0:	032942bb          	divw	t0,s2,s2
    800004a4:	53400813          	li	a6,1332
    800004a8:	44c00993          	li	s3,1100
    800004ac:	010081bb          	addw	gp,ra,a6
    800004b0:	9e24cc83          	lbu	s9,-1566(s1)
    800004b4:	03ce2933          	mulhsu	s2,t3,t3
    800004b8:	fff00a13          	li	s4,-1
    800004bc:	c6aaa783          	lw	a5,-918(s5)
    800004c0:	98b00293          	li	t0,-1653
    800004c4:	03ae553b          	divuw	a0,t3,s10
    800004c8:	01de31b3          	sltu	gp,t3,t4
    800004cc:	33c00213          	li	tp,828
    800004d0:	57798713          	addi	a4,s3,1399
    800004d4:	017a4a33          	xor	s4,s4,s7
    800004d8:	d5d00413          	li	s0,-675
    800004dc:	ca319ce3          	bne	gp,gp,80000194 <crash_backward>
    800004e0:	03ad6333          	rem	t1,s10,s10
    800004e4:	20c00793          	li	a5,524
    800004e8:	48400913          	li	s2,1156
    800004ec:	028478bb          	remuw	a7,s0,s0
    800004f0:	a4c00b13          	li	s6,-1460
    800004f4:	58c00a93          	li	s5,1420
    800004f8:	78e00693          	li	a3,1934
    800004fc:	035b2833          	mulhsu	a6,s6,s5
    80000500:	0b900313          	li	t1,185
    80000504:	8bf00c93          	li	s9,-1857
    80000508:	0327b633          	mulhu	a2,a5,s2
    8000050c:	4a030193          	addi	gp,t1,1184
    80000510:	76800d13          	li	s10,1896
    80000514:	48c00f93          	li	t6,1164
    80000518:	41a6df33          	sra	t5,a3,s10
    8000051c:	0145f133          	and	sp,a1,s4
    80000520:	004284b3          	add	s1,t0,tp
    80000524:	01716eb3          	or	t4,sp,s7
    80000528:	039cbe33          	mulhu	t3,s9,s9
    8000052c:	02b421b3          	mulhsu	gp,s0,a1
    80000530:	00002897          	auipc	a7,0x2
    80000534:	1ef88893          	addi	a7,a7,495 # 8000271f <_end+0x10f>
    80000538:	03ad07bb          	mulw	a5,s10,s10
    8000053c:	0213f1b3          	remu	gp,t2,ra
    80000540:	02b8c333          	div	t1,a7,a1
    80000544:	ee7db583          	ld	a1,-281(s11)
    80000548:	bdf07613          	andi	a2,zero,-1057
    8000054c:	00100d13          	li	s10,1
    80000550:	00001697          	auipc	a3,0x1
    80000554:	68b68693          	addi	a3,a3,1675 # 80001bdb <fromhost+0xb9b>
    80000558:	f7300393          	li	t2,-141
    8000055c:	41200e3b          	negw	t3,s2
    80000560:	027fac33          	mulhsu	s8,t6,t2
    80000564:	8ce00f13          	li	t5,-1842
    80000568:	722682a3          	sb	sp,1829(a3)
    8000056c:	413a8a3b          	subw	s4,s5,s3
    80000570:	1fe00c13          	li	s8,510
    80000574:	bdd00913          	li	s2,-1059
    80000578:	00002617          	auipc	a2,0x2
    8000057c:	e5860613          	addi	a2,a2,-424 # 800023d0 <test_memory+0x1d0>
    80000580:	40fc8cb3          	sub	s9,s9,a5
    80000584:	7f400113          	li	sp,2036
    80000588:	e2d00b13          	li	s6,-467
    8000058c:	3c800f93          	li	t6,968
    80000590:	94d00d93          	li	s11,-1715
    80000594:	00002717          	auipc	a4,0x2
    80000598:	1c670713          	addi	a4,a4,454 # 8000275a <_end+0x14a>
    8000059c:	416f00bb          	subw	ra,t5,s6
    800005a0:	f4e65583          	lhu	a1,-178(a2)
    800005a4:	bf400193          	li	gp,-1036
    800005a8:	67900513          	li	a0,1657
    800005ac:	002c1ebb          	sllw	t4,s8,sp
    800005b0:	41b2dc9b          	sraiw	s9,t0,0x1b
    800005b4:	adb18793          	addi	a5,gp,-1317 # 800028eb <_end+0x2db>
    800005b8:	00100093          	li	ra,1
    800005bc:	01bfb3b3          	sltu	t2,t6,s11
    800005c0:	b158a403          	lw	s0,-1259(a7)
    800005c4:	03f09093          	slli	ra,ra,0x3f
    800005c8:	bb572f23          	sw	s5,-1090(a4)
    800005cc:	00000e13          	li	t3,0
    800005d0:	93800b13          	li	s6,-1736
    800005d4:	00000b93          	li	s7,0
    800005d8:	03fd1d13          	slli	s10,s10,0x3f
    800005dc:	dbb00993          	li	s3,-581
    800005e0:	3837f463          	bgeu	a5,gp,80000968 <crash_forward>
    800005e4:	028472bb          	remuw	t0,s0,s0
    800005e8:	033b733b          	remuw	t1,s6,s3
    800005ec:	fff00813          	li	a6,-1
    800005f0:	01a84833          	xor	a6,a6,s10
    800005f4:	fff00f13          	li	t5,-1
    800005f8:	001f4f33          	xor	t5,t5,ra
    800005fc:	03deddbb          	divuw	s11,t4,t4
    80000600:	00002997          	auipc	s3,0x2
    80000604:	bb498993          	addi	s3,s3,-1100 # 800021b4 <reg_x22_output+0x4>
    80000608:	00001597          	auipc	a1,0x1
    8000060c:	55158593          	addi	a1,a1,1361 # 80001b59 <fromhost+0xb19>
    80000610:	00001e17          	auipc	t3,0x1
    80000614:	7b8e0e13          	addi	t3,t3,1976 # 80001dc8 <fromhost+0xd88>
    80000618:	ad000193          	li	gp,-1328
    8000061c:	000e0ebb          	addw	t4,t3,zero
    80000620:	00a94ab3          	xor	s5,s2,a0
    80000624:	01ecfa33          	and	s4,s9,t5
    80000628:	6ef5db83          	lhu	s7,1775(a1)
    8000062c:	54ae5c83          	lhu	s9,1354(t3)
    80000630:	dc704713          	xori	a4,zero,-569
    80000634:	010ef4b3          	and	s1,t4,a6
    80000638:	001a66b3          	or	a3,s4,ra
    8000063c:	37a00b13          	li	s6,890
    80000640:	21600c13          	li	s8,534
    80000644:	28fc0313          	addi	t1,s8,655
    80000648:	5f600e93          	li	t4,1526
    8000064c:	a8900913          	li	s2,-1399
    80000650:	00002797          	auipc	a5,0x2
    80000654:	0bf78793          	addi	a5,a5,191 # 8000270f <_end+0xff>
    80000658:	e1e00393          	li	t2,-482
    8000065c:	306c7663          	bgeu	s8,t1,80000968 <crash_forward>
    80000660:	01a4e233          	or	tp,s1,s10
    80000664:	4161d13b          	sraw	sp,gp,s6
    80000668:	b2da06e3          	beq	s4,a3,80000194 <crash_backward>
    8000066c:	0231e2bb          	remw	t0,gp,gp
    80000670:	b29262e3          	bltu	tp,s1,80000194 <crash_backward>
    80000674:	0273f43b          	remuw	s0,t2,t2
    80000678:	0ec9a603          	lw	a2,236(s3)
    8000067c:	d997b883          	ld	a7,-615(a5)
    80000680:	41e30fb3          	sub	t6,t1,t5
    80000684:	012ebdb3          	sltu	s11,t4,s2
    80000688:	00002f17          	auipc	t5,0x2
    8000068c:	f15f0f13          	addi	t5,t5,-235 # 8000259d <test_memory+0x39d>
    80000690:	d3e93db7          	lui	s11,0xd3e93
    80000694:	3d700c13          	li	s8,983
    80000698:	02b5f933          	remu	s2,a1,a1
    8000069c:	03ac3633          	mulhu	a2,s8,s10
    800006a0:	2db00393          	li	t2,731
    800006a4:	00002597          	auipc	a1,0x2
    800006a8:	a9b58593          	addi	a1,a1,-1381 # 8000213f <reg_x7_output+0x7>
    800006ac:	53100793          	li	a5,1329
    800006b0:	2f637993          	andi	s3,t1,758
    800006b4:	40500693          	li	a3,1029
    800006b8:	407382bb          	subw	t0,t2,t2
    800006bc:	00d691b3          	sll	gp,a3,a3
    800006c0:	80476a13          	ori	s4,a4,-2044
    800006c4:	0273fbb3          	remu	s7,t2,t2
    800006c8:	ae600313          	li	t1,-1306
    800006cc:	026c24b3          	mulhsu	s1,s8,t1
    800006d0:	00100093          	li	ra,1
    800006d4:	03f09093          	slli	ra,ra,0x3f
    800006d8:	00002817          	auipc	a6,0x2
    800006dc:	0ce80813          	addi	a6,a6,206 # 800027a6 <_end+0x196>
    800006e0:	4395be83          	ld	t4,1081(a1)
    800006e4:	b6e86d03          	lwu	s10,-1170(a6)
    800006e8:	0dc78713          	addi	a4,a5,220
    800006ec:	3a200c93          	li	s9,930
    800006f0:	fff00a93          	li	s5,-1
    800006f4:	bcd00413          	li	s0,-1075
    800006f8:	028ce8b3          	rem	a7,s9,s0
    800006fc:	dbbf3f83          	ld	t6,-581(t5)
    80000700:	036aeb33          	rem	s6,s5,s6
    80000704:	001acab3          	xor	s5,s5,ra
    80000708:	015af533          	and	a0,s5,s5
    8000070c:	00156e33          	or	t3,a0,ra
    80000710:	25c50c63          	beq	a0,t3,80000968 <crash_forward>
    80000714:	02a55ab3          	divu	s5,a0,a0
    80000718:	0318ce33          	div	t3,a7,a7
    8000071c:	004793b3          	sll	t2,a5,tp
    80000720:	f0000493          	li	s1,-256
    80000724:	c8d00b93          	li	s7,-883
    80000728:	0094c1b3          	xor	gp,s1,s1
    8000072c:	79600d93          	li	s11,1942
    80000730:	00001517          	auipc	a0,0x1
    80000734:	32d50513          	addi	a0,a0,813 # 80001a5d <fromhost+0xa1d>
    80000738:	a6000293          	li	t0,-1440
    8000073c:	cc000f93          	li	t6,-832
    80000740:	7d3531a3          	sd	s3,1987(a0)
    80000744:	00002217          	auipc	tp,0x2
    80000748:	c2320213          	addi	tp,tp,-989 # 80002367 <test_memory+0x167>
    8000074c:	0310e6bb          	remw	a3,ra,a7
    80000750:	64d00913          	li	s2,1613
    80000754:	f4000d13          	li	s10,-192
    80000758:	00001c97          	auipc	s9,0x1
    8000075c:	376c8c93          	addi	s9,s9,886 # 80001ace <fromhost+0xa8e>
    80000760:	0052ea33          	or	s4,t0,t0
    80000764:	b9000993          	li	s3,-1136
    80000768:	00002597          	auipc	a1,0x2
    8000076c:	b1f58593          	addi	a1,a1,-1249 # 80002287 <test_memory+0x87>
    80000770:	0f23061b          	addiw	a2,t1,242
    80000774:	b1cb8793          	addi	a5,s7,-1252
    80000778:	054d8f13          	addi	t5,s11,84 # ffffffffd3e93054 <__global_pointer$+0xffffffff53e90244>
    8000077c:	40d68733          	sub	a4,a3,a3
    80000780:	00002817          	auipc	a6,0x2
    80000784:	acb80813          	addi	a6,a6,-1333 # 8000224b <test_memory+0x4b>
    80000788:	01391c3b          	sllw	s8,s2,s3
    8000078c:	01afb133          	sltu	sp,t6,s10
    80000790:	1dedfc63          	bgeu	s11,t5,80000968 <crash_forward>
    80000794:	034a7e3b          	remuw	t3,s4,s4
    80000798:	7bac8623          	sb	s10,1964(s9)
    8000079c:	dfa00d13          	li	s10,-518
    800007a0:	f1b00f13          	li	t5,-229
    800007a4:	01ad03b3          	add	t2,s10,s10
    800007a8:	23400193          	li	gp,564
    800007ac:	00100913          	li	s2,1
    800007b0:	72a26d93          	ori	s11,tp,1834
    800007b4:	30100a93          	li	s5,769
    800007b8:	015f1c33          	sll	s8,t5,s5
    800007bc:	27a18b93          	addi	s7,gp,634 # 8000308a <__global_pointer$+0x27a>
    800007c0:	03f91913          	slli	s2,s2,0x3f
    800007c4:	78d00493          	li	s1,1933
    800007c8:	ff500a93          	li	s5,-11
    800007cc:	419052b3          	sra	t0,zero,s9
    800007d0:	00100e13          	li	t3,1
    800007d4:	e2e00193          	li	gp,-466
    800007d8:	49400a13          	li	s4,1172
    800007dc:	fff00113          	li	sp,-1
    800007e0:	ff15bb03          	ld	s6,-15(a1)
    800007e4:	0255653b          	remw	a0,a0,t0
    800007e8:	37500993          	li	s3,885
    800007ec:	03780923          	sb	s7,50(a6)
    800007f0:	dd700793          	li	a5,-553
    800007f4:	0331dbb3          	divu	s7,gp,s3
    800007f8:	00f4b433          	sltu	s0,s1,a5
    800007fc:	03fe1e13          	slli	t3,t3,0x3f
    80000800:	001f8533          	add	a0,t6,ra
    80000804:	4031d1b3          	sra	gp,gp,gp
    80000808:	3ea00993          	li	s3,1002
    8000080c:	05000293          	li	t0,80
    80000810:	7d400713          	li	a4,2004
    80000814:	00100b13          	li	s6,1
    80000818:	00080413          	mv	s0,a6
    8000081c:	03ce00b3          	mul	ra,t3,t3
    80000820:	01214133          	xor	sp,sp,s2
    80000824:	00227fb3          	and	t6,tp,sp
    80000828:	00040493          	mv	s1,s0
    8000082c:	005293b3          	sll	t2,t0,t0
    80000830:	f1220303          	lb	t1,-238(tp) # ffffffffffffff12 <__global_pointer$+0xffffffff7fffd102>
    80000834:	00ea06bb          	addw	a3,s4,a4
    80000838:	01d23513          	sltiu	a0,tp,29
    8000083c:	e1b00e93          	li	t4,-485
    80000840:	01de8bbb          	addw	s7,t4,t4
    80000844:	03fb1b13          	slli	s6,s6,0x3f
    80000848:	fff00793          	li	a5,-1
    8000084c:	4becf193          	andi	gp,s9,1214
    80000850:	00b55393          	srli	t2,a0,0xb
    80000854:	012ee633          	or	a2,t4,s2
    80000858:	a8700093          	li	ra,-1401
    8000085c:	0339e83b          	remw	a6,s3,s3
    80000860:	93b08293          	addi	t0,ra,-1733
    80000864:	1050c263          	blt	ra,t0,80000968 <crash_forward>
    80000868:	fff00d93          	li	s11,-1
    8000086c:	415a8d3b          	subw	s10,s5,s5
    80000870:	00100493          	li	s1,1
    80000874:	412953bb          	sraw	t2,s2,s2
    80000878:	01cdcdb3          	xor	s11,s11,t3
    8000087c:	00100813          	li	a6,1
    80000880:	0108533b          	srlw	t1,a6,a6
    80000884:	0f084263          	blt	a6,a6,80000968 <crash_forward>
    80000888:	0207da3b          	divuw	s4,a5,zero
    8000088c:	a8c2e213          	ori	tp,t0,-1396
    80000890:	01b67f33          	and	t5,a2,s11
    80000894:	0167c7b3          	xor	a5,a5,s6
    80000898:	03f81813          	slli	a6,a6,0x3f
    8000089c:	03f49493          	slli	s1,s1,0x3f
    800008a0:	fff00413          	li	s0,-1
    800008a4:	fff00713          	li	a4,-1
    800008a8:	01074733          	xor	a4,a4,a6
    800008ac:	00944433          	xor	s0,s0,s1
    800008b0:	00e1f9b3          	and	s3,gp,a4
    800008b4:	010e6533          	or	a0,t3,a6
    800008b8:	00fcf5b3          	and	a1,s9,a5
    800008bc:	016468b3          	or	a7,s0,s6
    800008c0:	008a76b3          	and	a3,s4,s0
    800008c4:	0096ecb3          	or	s9,a3,s1
    800008c8:	01cf6c33          	or	s8,t5,t3
    800008cc:	0040006f          	j	800008d0 <reg_dump>

00000000800008d0 <reg_dump>:
    800008d0:	00002097          	auipc	ra,0x2
    800008d4:	d3008093          	addi	ra,ra,-720 # 80002600 <loop_count>
    800008d8:	0000a103          	lw	sp,0(ra)
    800008dc:	fff10193          	addi	gp,sp,-1
    800008e0:	0030a023          	sw	gp,0(ra)
    800008e4:	94011ce3          	bnez	sp,8000023c <pseg_0>
    800008e8:	00002097          	auipc	ra,0x2
    800008ec:	81808093          	addi	ra,ra,-2024 # 80002100 <begin_signature>
    800008f0:	0000b023          	sd	zero,0(ra)
    800008f4:	0020b823          	sd	sp,16(ra)
    800008f8:	0030bc23          	sd	gp,24(ra)
    800008fc:	0240b023          	sd	tp,32(ra)
    80000900:	0260b823          	sd	t1,48(ra)
    80000904:	0270bc23          	sd	t2,56(ra)
    80000908:	0480b023          	sd	s0,64(ra)
    8000090c:	0490b423          	sd	s1,72(ra)
    80000910:	04a0b823          	sd	a0,80(ra)
    80000914:	04b0bc23          	sd	a1,88(ra)
    80000918:	06c0b023          	sd	a2,96(ra)
    8000091c:	06d0b423          	sd	a3,104(ra)
    80000920:	06e0b823          	sd	a4,112(ra)
    80000924:	06f0bc23          	sd	a5,120(ra)
    80000928:	0900b023          	sd	a6,128(ra)
    8000092c:	0910b423          	sd	a7,136(ra)
    80000930:	0920b823          	sd	s2,144(ra)
    80000934:	0930bc23          	sd	s3,152(ra)
    80000938:	0b40b023          	sd	s4,160(ra)
    8000093c:	0b50b423          	sd	s5,168(ra)
    80000940:	0b60b823          	sd	s6,176(ra)
    80000944:	0d80b023          	sd	s8,192(ra)
    80000948:	0d90b423          	sd	s9,200(ra)
    8000094c:	0da0b823          	sd	s10,208(ra)
    80000950:	0db0bc23          	sd	s11,216(ra)
    80000954:	0fc0b023          	sd	t3,224(ra)
    80000958:	0fd0b423          	sd	t4,232(ra)
    8000095c:	0fe0b823          	sd	t5,240(ra)
    80000960:	0ff0bc23          	sd	t6,248(ra)
    80000964:	0200006f          	j	80000984 <test_end>

0000000080000968 <crash_forward>:
    80000968:	0ff0000f          	fence
    8000096c:	00018063          	beqz	gp,8000096c <crash_forward+0x4>
    80000970:	00119193          	slli	gp,gp,0x1
    80000974:	0011e193          	ori	gp,gp,1
    80000978:	05d00893          	li	a7,93
    8000097c:	00018513          	mv	a0,gp
    80000980:	00000073          	ecall

0000000080000984 <test_end>:
    80000984:	0ff0000f          	fence
    80000988:	00100193          	li	gp,1
    8000098c:	05d00893          	li	a7,93
    80000990:	00000513          	li	a0,0
    80000994:	00000073          	ecall
    80000998:	c0001073          	unimp
	...

Disassembly of section .tohost:

0000000080001000 <tohost>:
	...

0000000080001040 <fromhost>:
	...

Disassembly of section .data:

0000000080002000 <hidden_data>:
    80002000:	f2de                	sd	s7,352(sp)
    80002002:	26f9                	addiw	a3,a3,30
    80002004:	7cf4                	ld	a3,248(s1)
    80002006:	6b51                	lui	s6,0x14

0000000080002008 <reg_x1_init>:
    80002008:	df42                	sw	a6,188(sp)
    8000200a:	fc81                	bnez	s1,80001f22 <fromhost+0xee2>
    8000200c:	b8c602f7          	0xb8c602f7

0000000080002010 <reg_x2_init>:
    80002010:	02dd61f7          	0x2dd61f7
    80002014:	d9060403          	lb	s0,-624(a2)

0000000080002018 <reg_x3_init>:
    80002018:	0006                	c.slli	zero,0x1
    8000201a:	8000                	0x8000
    8000201c:	ffff                	0xffff
    8000201e:	ffff                	0xffff

0000000080002020 <reg_x4_init>:
    80002020:	0004                	0x4
    80002022:	0000                	unimp
    80002024:	0000                	unimp
    80002026:	0800                	addi	s0,sp,16

0000000080002028 <reg_x5_init>:
    80002028:	31ec4943          	fmadd.s	fs2,fs8,ft10,ft6,rmm
    8000202c:	3a3a                	fld	fs4,424(sp)
    8000202e:	71b6                	ld	gp,360(sp)

0000000080002030 <reg_x6_init>:
    80002030:	8006                	c.mv	zero,ra
    80002032:	ffff                	0xffff
    80002034:	ffff                	0xffff
    80002036:	ffff                	0xffff

0000000080002038 <reg_x7_init>:
    80002038:	8dc2                	mv	s11,a6
    8000203a:	76ee                	ld	a3,248(sp)
    8000203c:	7ca6                	ld	s9,104(sp)
    8000203e:	          	0xffff5177

0000000080002040 <reg_x8_init>:
    80002040:	ffff                	0xffff
    80002042:	ffff                	0xffff
    80002044:	ffff                	0xffff
    80002046:	ffff                	0xffff

0000000080002048 <reg_x9_init>:
    80002048:	0000                	unimp
    8000204a:	8000                	0x8000
    8000204c:	ffff                	0xffff
    8000204e:	ffff                	0xffff

0000000080002050 <reg_x10_init>:
    80002050:	ff86                	sd	ra,504(sp)
    80002052:	ffff                	0xffff
    80002054:	ffff                	0xffff
    80002056:	ffff                	0xffff

0000000080002058 <reg_x11_init>:
    80002058:	2f8a                	fld	ft11,128(sp)
    8000205a:	b367e30f          	0xb367e30f
    8000205e:	54c9                	li	s1,-14

0000000080002060 <reg_x12_init>:
    80002060:	e83a654b          	fnmsub.s	fa0,fs4,ft3,ft9,unknown
    80002064:	83f1                	srli	a5,a5,0x1c
    80002066:	7bfe                	ld	s7,504(sp)

0000000080002068 <reg_x13_init>:
    80002068:	ff88                	sd	a0,56(a5)
    8000206a:	ffff                	0xffff
    8000206c:	ffff                	0xffff
    8000206e:	ffff                	0xffff

0000000080002070 <reg_x14_init>:
    80002070:	c9f6b37b          	0xc9f6b37b
    80002074:	b9e2                	fsd	fs8,240(sp)
    80002076:	498c                	lw	a1,16(a1)

0000000080002078 <reg_x15_init>:
    80002078:	0001                	nop
    8000207a:	8000                	0x8000
    8000207c:	ffff                	0xffff
    8000207e:	ffff                	0xffff

0000000080002080 <reg_x16_init>:
    80002080:	ad99                	j	800026d6 <_end+0xc6>
    80002082:	d339                	beqz	a4,80001fc8 <fromhost+0xf88>
    80002084:	de935693          	0xde935693

0000000080002088 <reg_x17_init>:
    80002088:	0bad92eb          	0xbad92eb
    8000208c:	41e9                	li	gp,26
    8000208e:	          	bgtz	ra,800028aa <_end+0x29a>

0000000080002090 <reg_x18_init>:
    80002090:	0010                	0x10
    80002092:	0000                	unimp
    80002094:	0000                	unimp
	...

0000000080002098 <reg_x19_init>:
	...

00000000800020a0 <reg_x20_init>:
    800020a0:	83a5                	srli	a5,a5,0x9
    800020a2:	a801                	j	800020b2 <reg_x22_init+0x2>
    800020a4:	4b78                	lw	a4,84(a4)
    800020a6:	          	0x9b3e8edb

00000000800020a8 <reg_x21_init>:
    800020a8:	9b3e                	add	s6,s6,a5
    800020aa:	f6da189b          	0xf6da189b
    800020ae:	5ccc                	lw	a1,60(s1)

00000000800020b0 <reg_x22_init>:
    800020b0:	0e3a                	slli	t3,t3,0xe
    800020b2:	3ca6                	fld	fs9,104(sp)
    800020b4:	fbf4                	sd	a3,240(a5)
    800020b6:	          	0xbee7

00000000800020b8 <reg_x23_init>:
	...

00000000800020c0 <reg_x24_init>:
    800020c0:	0006                	c.slli	zero,0x1
    800020c2:	8000                	0x8000
    800020c4:	ffff                	0xffff
    800020c6:	ffff                	0xffff

00000000800020c8 <reg_x25_init>:
    800020c8:	0001                	nop
    800020ca:	0000                	unimp
    800020cc:	0000                	unimp
    800020ce:	0800                	addi	s0,sp,16

00000000800020d0 <reg_x26_init>:
    800020d0:	3bc862cb          	fnmsub.d	ft5,fa6,ft8,ft7,unknown
    800020d4:	825a                	mv	tp,s6
    800020d6:	9cca                	add	s9,s9,s2

00000000800020d8 <reg_x27_init>:
    800020d8:	36d9efe7          	0x36d9efe7
    800020dc:	2aa2                	fld	fs5,8(sp)
    800020de:	97ec                	0x97ec

00000000800020e0 <reg_x28_init>:
    800020e0:	3e48a3e7          	0x3e48a3e7
    800020e4:	a974                	fsd	fa3,208(a0)
    800020e6:	4362                	lw	t1,24(sp)

00000000800020e8 <reg_x29_init>:
    800020e8:	cf105737          	lui	a4,0xcf105
    800020ec:	1ade                	slli	s5,s5,0x37
    800020ee:	ab59                	j	80002684 <_end+0x74>

00000000800020f0 <reg_x30_init>:
    800020f0:	3bf9eafb          	0x3bf9eafb
    800020f4:	02723f17          	auipc	t5,0x2723

00000000800020f8 <reg_x31_init>:
    800020f8:	04875367          	0x4875367
    800020fc:	b3a62bc7          	fmsub.d	fs7,fa2,fs10,fs6,rdn

0000000080002100 <begin_signature>:
    80002100:	6ba744f7          	0x6ba744f7
    80002104:	6b48e5bf  	0x9e44e2ee6b48e5bf

0000000080002108 <reg_x1_output>:
    80002108:	e2ee                	sd	s11,320(sp)
    8000210a:	9e44                	0x9e44
    8000210c:	6e96                	ld	t4,320(sp)
    8000210e:	ffb9                	bnez	a5,8000206c <reg_x13_init+0x4>

0000000080002110 <reg_x2_output>:
    80002110:	d596                	sw	t0,232(sp)
    80002112:	89fe                	mv	s3,t6
    80002114:	ac01                	j	80002324 <test_memory+0x124>
    80002116:	          	0xd5f171af

0000000080002118 <reg_x3_output>:
    80002118:	d5f1                	beqz	a1,800020e4 <reg_x28_init+0x4>
    8000211a:	e9e4d917          	auipc	s2,0xe9e4d
    8000211e:	58d9                	li	a7,-10

0000000080002120 <reg_x4_output>:
    80002120:	45da                	lw	a1,148(sp)
    80002122:	d035                	beqz	s0,80002086 <reg_x16_init+0x6>
    80002124:	8058                	0x8058
    80002126:	3349                	addiw	t1,t1,-14

0000000080002128 <reg_x5_output>:
    80002128:	c63e                	sw	a5,12(sp)
    8000212a:	8ce1                	and	s1,s1,s0
    8000212c:	ffe52bdb          	0xffe52bdb

0000000080002130 <reg_x6_output>:
    80002130:	0a95                	addi	s5,s5,5
    80002132:	6330e8b7          	lui	a7,0x6330e
    80002136:	e5ed                	bnez	a1,80002220 <test_memory+0x20>

0000000080002138 <reg_x7_output>:
    80002138:	5606                	lw	a2,96(sp)
    8000213a:	19e4                	addi	s1,sp,252
    8000213c:	27e9                	addiw	a5,a5,26
    8000213e:	0eaa                	slli	t4,t4,0xa

0000000080002140 <reg_x8_output>:
    80002140:	28da                	fld	fa7,400(sp)
    80002142:	e9dc10b7          	lui	ra,0xe9dc1
    80002146:	55c6                	lw	a1,112(sp)

0000000080002148 <reg_x9_output>:
    80002148:	e92a                	sd	a0,144(sp)
    8000214a:	834c                	0x834c
    8000214c:	c32c                	sw	a1,64(a4)
    8000214e:	33b1                	addiw	t2,t2,-20

0000000080002150 <reg_x10_output>:
    80002150:	4b43cfe7          	0x4b43cfe7
    80002154:	e181                	bnez	a1,80002154 <reg_x10_output+0x4>
    80002156:	a7ae                	fsd	fa1,456(sp)

0000000080002158 <reg_x11_output>:
    80002158:	abb8                	fsd	fa4,80(a5)
    8000215a:	362a                	fld	fa2,168(sp)
    8000215c:	8a773293          	sltiu	t0,a4,-1881

0000000080002160 <reg_x12_output>:
    80002160:	2d3e                	fld	fs10,456(sp)
    80002162:	d9f0                	sw	a2,116(a1)
    80002164:	ad52                	fsd	fs4,152(sp)
    80002166:	9376                	add	t1,t1,t4

0000000080002168 <reg_x13_output>:
    80002168:	fcb5                	bnez	s1,800020e4 <reg_x28_init+0x4>
    8000216a:	06df a625 597f      	0x597fa62506df

0000000080002170 <reg_x14_output>:
    80002170:	df14                	sw	a3,56(a4)
    80002172:	7804                	ld	s1,48(s0)
    80002174:	d405                	beqz	s0,8000209c <reg_x19_init+0x4>
    80002176:	97ce                	add	a5,a5,s3

0000000080002178 <reg_x15_output>:
    80002178:	411c                	lw	a5,0(a0)
    8000217a:	91f9                	srli	a1,a1,0x3e
    8000217c:	d59a                	sw	t1,232(sp)
    8000217e:	f8f0                	sd	a2,240(s1)

0000000080002180 <reg_x16_output>:
    80002180:	685aa8ef          	jal	a7,800ad004 <__global_pointer$+0xaa1f4>
    80002184:	707d                	c.lui	zero,0xfffff
    80002186:	3704                	fld	fs1,40(a4)

0000000080002188 <reg_x17_output>:
    80002188:	6326                	ld	t1,72(sp)
    8000218a:	4234836f          	jal	t1,8004adac <__global_pointer$+0x47f9c>
    8000218e:	          	0x4e8af62b

0000000080002190 <reg_x18_output>:
    80002190:	4e8a                	lw	t4,128(sp)
    80002192:	d219                	beqz	a2,80002098 <reg_x19_init>
    80002194:	79c6                	ld	s3,112(sp)
    80002196:	5758                	lw	a4,44(a4)

0000000080002198 <reg_x19_output>:
    80002198:	81cc                	0x81cc
    8000219a:	7afc                	ld	a5,240(a3)
    8000219c:	41ca                	lw	gp,144(sp)
    8000219e:	8be6                	mv	s7,s9

00000000800021a0 <reg_x20_output>:
    800021a0:	57ceb8fb          	0x57ceb8fb
    800021a4:	164c                	addi	a1,sp,804
    800021a6:	          	jal	a2,7ff9f2ee <_start-0x60d12>

00000000800021a8 <reg_x21_output>:
    800021a8:	9489                	srai	s1,s1,0x22
    800021aa:	298d                	addiw	s3,s3,3
    800021ac:	271f 3799       	0xca173799271f

00000000800021b0 <reg_x22_output>:
    800021b0:	d4f0ca17          	auipc	s4,0xd4f0c
    800021b4:	6e42                	ld	t3,16(sp)
    800021b6:	1c84                	addi	s1,sp,624

00000000800021b8 <reg_x23_output>:
    800021b8:	0764                	addi	s1,sp,908
    800021ba:	b344                	fsd	fs1,160(a4)
    800021bc:	a5de1b7b          	0xa5de1b7b

00000000800021c0 <reg_x24_output>:
    800021c0:	8215                	srli	a2,a2,0x5
    800021c2:	f21e                	sd	t2,288(sp)
    800021c4:	b165                	j	80001e6c <fromhost+0xe2c>
    800021c6:	          	0x932d94f7

00000000800021c8 <reg_x25_output>:
    800021c8:	932d                	srli	a4,a4,0x2b
    800021ca:	7726                	ld	a4,104(sp)
    800021cc:	7d7c                	ld	a5,248(a0)
    800021ce:	4530                	lw	a2,72(a0)

00000000800021d0 <reg_x26_output>:
    800021d0:	5b70                	lw	a2,116(a4)
    800021d2:	43e8de9b          	0x43e8de9b
    800021d6:	ed94                	sd	a3,24(a1)

00000000800021d8 <reg_x27_output>:
    800021d8:	d606                	sw	ra,44(sp)
    800021da:	b9d0                	fsd	fa2,176(a1)
    800021dc:	d924                	sw	s1,112(a0)
    800021de:	8231                	srli	a2,a2,0xc

00000000800021e0 <reg_x28_output>:
    800021e0:	0112                	slli	sp,sp,0x4
    800021e2:	2fca                	fld	ft11,144(sp)
    800021e4:	980c46a7          	fsq	ft0,-1651(s8)

00000000800021e8 <reg_x29_output>:
    800021e8:	7025                	c.lui	zero,0xfffe9
    800021ea:	b765                	j	80002192 <reg_x18_output+0x2>
    800021ec:	cd36                	sw	a3,152(sp)
    800021ee:	4fbd                	li	t6,15

00000000800021f0 <reg_x30_output>:
    800021f0:	c2ae                	sw	a1,68(sp)
    800021f2:	4c19                	li	s8,6
    800021f4:	ee9e                	sd	t2,344(sp)
    800021f6:	7096                	ld	ra,352(sp)

00000000800021f8 <reg_x31_output>:
    800021f8:	bafea8d7          	0xbafea8d7
    800021fc:	08c671c7          	fmsub.s	ft3,fa2,fa2,ft1

0000000080002200 <test_memory>:
    80002200:	6b6d                	lui	s6,0x1b
    80002202:	202c                	fld	fa1,64(s0)
    80002204:	5f9d                	li	t6,-25
    80002206:	84d8                	0x84d8
    80002208:	b315dfc7          	fmsub.d	ft11,fa1,fa7,fs6,unknown
    8000220c:	a778140f          	0xa778140f
    80002210:	5ecc                	lw	a1,60(a3)
    80002212:	5130                	lw	a2,96(a0)
    80002214:	965ffe3b          	0x965ffe3b
    80002218:	4e80                	lw	s0,24(a3)
    8000221a:	831a                	mv	t1,t1
    8000221c:	5b80                	lw	s0,48(a5)
    8000221e:	85bc                	0x85bc
    80002220:	1fc4                	addi	s1,sp,1012
    80002222:	f8c5                	bnez	s1,800021d2 <reg_x26_output+0x2>
    80002224:	6d0a                	ld	s10,128(sp)
    80002226:	2765                	addiw	a4,a4,25
    80002228:	fef3de2f          	0xfef3de2f
    8000222c:	2c1a                	fld	fs8,384(sp)
    8000222e:	7c22                	ld	s8,40(sp)
    80002230:	a62a                	fsd	fa0,264(sp)
    80002232:	e37e                	sd	t6,384(sp)
    80002234:	a90c                	fsd	fa1,16(a0)
    80002236:	15ad263b          	0x15ad263b
    8000223a:	d9fd05b7          	lui	a1,0xd9fd0
    8000223e:	eeb0                	sd	a2,88(a3)
    80002240:	2658                	fld	fa4,136(a2)
    80002242:	9d7e                	add	s10,s10,t6
    80002244:	f965                	bnez	a0,80002234 <test_memory+0x34>
    80002246:	d774                	sw	a3,108(a4)
    80002248:	63bd                	lui	t2,0xf
    8000224a:	823dd19b          	0x823dd19b
    8000224e:	b082                	fsd	ft0,96(sp)
    80002250:	2f0d                	addiw	t5,t5,3
    80002252:	86dd                	srai	a3,a3,0x17
    80002254:	a652                	fsd	fs4,264(sp)
    80002256:	9729                	srai	a4,a4,0x2a
    80002258:	4991                	li	s3,4
    8000225a:	0c95                	addi	s9,s9,5
    8000225c:	9cfd                	0x9cfd
    8000225e:	386a                	fld	fa6,184(sp)
    80002260:	4191                	li	gp,4
    80002262:	0e12                	slli	t3,t3,0x4
    80002264:	ca7eab5b          	0xca7eab5b
    80002268:	0f0a2993          	slti	s3,s4,240
    8000226c:	1cb6                	slli	s9,s9,0x2d
    8000226e:	481c57ab          	0x481c57ab
    80002272:	c744                	sw	s1,12(a4)
    80002274:	b2a8d8c3          	fmadd.d	fa7,fa7,fa0,fs6,unknown
    80002278:	be61                	j	80001e10 <fromhost+0xdd0>
    8000227a:	aed7692b          	0xaed7692b
    8000227e:	8e78010b          	0x8e78010b
    80002282:	c6f4                	sw	a3,76(a3)
    80002284:	1846                	slli	a6,a6,0x31
    80002286:	457c                	lw	a5,76(a0)
    80002288:	7e18                	ld	a4,56(a2)
    8000228a:	43e5                	li	t2,25
    8000228c:	f192                	sd	tp,224(sp)
    8000228e:	20e507cb          	fnmsub.s	fa5,fa0,fa4,ft4,rne
    80002292:	b2bd                	j	80001c00 <fromhost+0xbc0>
    80002294:	c905                	beqz	a0,800022c4 <test_memory+0xc4>
    80002296:	345d                	addiw	s0,s0,-9
    80002298:	6dd4                	ld	a3,152(a1)
    8000229a:	9426                	add	s0,s0,s1
    8000229c:	b2f4                	fsd	fa3,224(a3)
    8000229e:	7c22                	ld	s8,40(sp)
    800022a0:	b53c                	fsd	fa5,104(a0)
    800022a2:	66bcce5b          	0x66bcce5b
    800022a6:	8c6c                	0x8c6c
    800022a8:	9ef62977          	0x9ef62977
    800022ac:	8d36                	mv	s10,a3
    800022ae:	2b89                	addiw	s7,s7,2
    800022b0:	8256                	mv	tp,s5
    800022b2:	b41f f037 f91d      	0xf91df037b41f
    800022b8:	23aa                	fld	ft7,136(sp)
    800022ba:	fe6c                	sd	a1,248(a2)
    800022bc:	7452                	ld	s0,304(sp)
    800022be:	1f35                	addi	t5,t5,-19
    800022c0:	a9ae                	fsd	fa1,208(sp)
    800022c2:	d852                	sw	s4,48(sp)
    800022c4:	80b9c103          	lbu	sp,-2037(s3)
    800022c8:	6221                	lui	tp,0x8
    800022ca:	938c                	0x938c
    800022cc:	08d9                	addi	a7,a7,22
    800022ce:	e012                	sd	tp,0(sp)
    800022d0:	1744                	addi	s1,sp,932
    800022d2:	c59e                	sw	t2,200(sp)
    800022d4:	d268                	sw	a0,100(a2)
    800022d6:	5729                	li	a4,-22
    800022d8:	3a22                	fld	fs4,40(sp)
    800022da:	777d                	lui	a4,0xfffff
    800022dc:	c405                	beqz	s0,80002304 <test_memory+0x104>
    800022de:	069e                	slli	a3,a3,0x7
    800022e0:	fbc4                	sd	s1,176(a5)
    800022e2:	a6f0                	fsd	fa2,200(a3)
    800022e4:	9796                	add	a5,a5,t0
    800022e6:	1aea                	slli	s5,s5,0x3a
    800022e8:	b3bdd147          	fmsub.d	ft2,fs11,fs11,fs6,unknown
    800022ec:	5108                	lw	a0,32(a0)
    800022ee:	bb6a                	fsd	fs10,432(sp)
    800022f0:	106344e7          	0x106344e7
    800022f4:	e91e                	sd	t2,144(sp)
    800022f6:	e89f 6681 f53d      	0xf53d6681e89f
    800022fc:	a7ae                	fsd	fa1,456(sp)
    800022fe:	6bd9                	lui	s7,0x16
    80002300:	b819                	j	80001b16 <fromhost+0xad6>
    80002302:	8e1c                	0x8e1c
    80002304:	b3a2                	fsd	fs0,480(sp)
    80002306:	4f48                	lw	a0,28(a4)
    80002308:	a760                	fsd	fs0,200(a4)
    8000230a:	bc237daf          	0xbc237daf
    8000230e:	0bad                	addi	s7,s7,11
    80002310:	935c                	0x935c
    80002312:	b4c0                	fsd	fs0,168(s1)
    80002314:	68725dcf          	fnmadd.s	fs11,ft4,ft7,fa3,unknown
    80002318:	9592                	add	a1,a1,tp
    8000231a:	b97a                	fsd	ft10,176(sp)
    8000231c:	d80a                	sw	sp,48(sp)
    8000231e:	d86bcf93          	xori	t6,s7,-634
    80002322:	198bcc77          	0x198bcc77
    80002326:	7868                	ld	a0,240(s0)
    80002328:	c0a9                	beqz	s1,8000236a <test_memory+0x16a>
    8000232a:	4b5e                	lw	s6,212(sp)
    8000232c:	bd39f0db          	0xbd39f0db
    80002330:	a622                	fsd	fs0,264(sp)
    80002332:	a4b2                	fsd	fa2,72(sp)
    80002334:	4169946b          	0x4169946b
    80002338:	d821                	beqz	s0,80002288 <test_memory+0x88>
    8000233a:	49c2                	lw	s3,16(sp)
    8000233c:	ab218f67          	jalr	t5,-1358(gp) # 80002e10 <__global_pointer$>
    80002340:	441c                	lw	a5,8(s0)
    80002342:	bb683d5b          	0xbb683d5b
    80002346:	d9a015b7          	lui	a1,0xd9a01
    8000234a:	1cb95097          	auipc	ra,0x1cb95
    8000234e:	1b01                	addi	s6,s6,-32
    80002350:	c49d                	beqz	s1,8000237e <test_memory+0x17e>
    80002352:	85d130bb          	0x85d130bb
    80002356:	15fd                	addi	a1,a1,-1
    80002358:	5f7f                	0x5f7f
    8000235a:	a823ee5b          	0xa823ee5b
    8000235e:	962c                	0x962c
    80002360:	60b2                	ld	ra,264(sp)
    80002362:	c201                	beqz	a2,80002362 <test_memory+0x162>
    80002364:	fb81                	bnez	a5,80002274 <test_memory+0x74>
    80002366:	8785                	srai	a5,a5,0x1
    80002368:	d389                	beqz	a5,8000226a <test_memory+0x6a>
    8000236a:	9711                	srai	a4,a4,0x24
    8000236c:	7a98                	ld	a4,48(a3)
    8000236e:	097c                	addi	a5,sp,156
    80002370:	2556f297          	auipc	t0,0x2556f
    80002374:	ea55                	bnez	a2,80002428 <test_memory+0x228>
    80002376:	8a01d70f          	0x8a01d70f
    8000237a:	756a                	ld	a0,184(sp)
    8000237c:	0b38                	addi	a4,sp,408
    8000237e:	ceb9                	beqz	a3,800023dc <test_memory+0x1dc>
    80002380:	3258                	fld	fa4,160(a2)
    80002382:	a242                	fsd	fa6,256(sp)
    80002384:	fed8                	sd	a4,184(a3)
    80002386:	7522                	ld	a0,40(sp)
    80002388:	08e9                	addi	a7,a7,26
    8000238a:	34dc                	fld	fa5,168(s1)
    8000238c:	2929                	addiw	s2,s2,10
    8000238e:	31f9                	addiw	gp,gp,-2
    80002390:	98ba                	add	a7,a7,a4
    80002392:	1d85                	addi	s11,s11,-31
    80002394:	3441                	addiw	s0,s0,-16
    80002396:	f6d1                	bnez	a3,80002322 <test_memory+0x122>
    80002398:	ff81                	bnez	a5,800022b0 <test_memory+0xb0>
    8000239a:	c7a6                	sw	s1,204(sp)
    8000239c:	6eac                	ld	a1,88(a3)
    8000239e:	fad8                	sd	a4,176(a3)
    800023a0:	0f830c5b          	0xf830c5b
    800023a4:	cf9e                	sw	t2,220(sp)
    800023a6:	b50a                	fsd	ft2,168(sp)
    800023a8:	b20d                	j	80001cca <fromhost+0xc8a>
    800023aa:	8d92                	mv	s11,tp
    800023ac:	516e                	lw	sp,248(sp)
    800023ae:	d139                	beqz	a0,800022f4 <test_memory+0xf4>
    800023b0:	fd39bd17          	auipc	s10,0xfd39b
    800023b4:	e45a5a4f          	0xe45a5a4f
    800023b8:	741ddddb          	0x741ddddb
    800023bc:	6420                	ld	s0,72(s0)
    800023be:	d1adcca7          	fsq	fs10,-743(s11)
    800023c2:	4fb9e6bb          	0x4fb9e6bb
    800023c6:	e241                	bnez	a2,80002446 <test_memory+0x246>
    800023c8:	5984                	lw	s1,48(a1)
    800023ca:	9d424b0b          	0x9d424b0b
    800023ce:	cba281a3          	sb	s10,-861(t0) # a5571013 <__global_pointer$+0x2556e203>
    800023d2:	5c9e                	lw	s9,228(sp)
    800023d4:	7234                	ld	a3,96(a2)
    800023d6:	43c5                	li	t2,17
    800023d8:	f571                	bnez	a0,800023a4 <test_memory+0x1a4>
    800023da:	b8e1                	j	80001cb2 <fromhost+0xc72>
    800023dc:	b741                	j	8000235c <test_memory+0x15c>
    800023de:	ea6d                	bnez	a2,800024d0 <test_memory+0x2d0>
    800023e0:	c564                	sw	s1,76(a0)
    800023e2:	fb44c8b3          	0xfb44c8b3
    800023e6:	4549                	li	a0,18
    800023e8:	60a1                	lui	ra,0x8
    800023ea:	fdcbde6b          	0xfdcbde6b
    800023ee:	667a                	ld	a2,408(sp)
    800023f0:	0b82eeb3          	0xb82eeb3
    800023f4:	1b11                	addi	s6,s6,-28
    800023f6:	15a845cf          	0x15a845cf
    800023fa:	b6b6                	fsd	fa3,360(sp)
    800023fc:	1c5a                	slli	s8,s8,0x36
    800023fe:	1dfc                	addi	a5,sp,764
    80002400:	eb3c                	sd	a5,80(a4)
    80002402:	7b0fa1d7          	0x7b0fa1d7
    80002406:	5a65                	li	s4,-7
    80002408:	93fa                	add	t2,t2,t5
    8000240a:	c6da                	sw	s6,76(sp)
    8000240c:	c20d                	beqz	a2,8000242e <test_memory+0x22e>
    8000240e:	92d8                	0x92d8
    80002410:	f786                	sd	ra,488(sp)
    80002412:	ba62                	fsd	fs8,304(sp)
    80002414:	b7ff                	0xb7ff
    80002416:	194a                	slli	s2,s2,0x32
    80002418:	6969                	lui	s2,0x1a
    8000241a:	6e04                	ld	s1,24(a2)
    8000241c:	2ec2                	fld	ft9,16(sp)
    8000241e:	57a1                	li	a5,-24
    80002420:	f811                	bnez	s0,80002334 <test_memory+0x134>
    80002422:	c54c                	sw	a1,12(a0)
    80002424:	09ff071b          	addiw	a4,t5,159
    80002428:	cfec                	sw	a1,92(a5)
    8000242a:	fd5b8f43          	0xfd5b8f43
    8000242e:	6462                	ld	s0,24(sp)
    80002430:	d6bc                	sw	a5,104(a3)
    80002432:	44da                	lw	s1,148(sp)
    80002434:	7a8e                	ld	s5,224(sp)
    80002436:	e3a1aff3          	csrrs	t6,0xe3a,gp
    8000243a:	dbb4                	sw	a3,112(a5)
    8000243c:	bf65                	j	800023f4 <test_memory+0x1f4>
    8000243e:	d267824f          	fnmadd.d	ft4,fa5,ft6,fs10,rne
    80002442:	d11e                	sw	t2,160(sp)
    80002444:	9920                	0x9920
    80002446:	b5149b73          	csrrw	s6,0xb51,s1
    8000244a:	70d5                	lui	ra,0xffff5
    8000244c:	3ddd                	addiw	s11,s11,-9
    8000244e:	cef9                	beqz	a3,8000252c <test_memory+0x32c>
    80002450:	a4d8                	fsd	fa4,136(s1)
    80002452:	0f7c                	addi	a5,sp,924
    80002454:	3d3a                	fld	fs10,424(sp)
    80002456:	f764                	sd	s1,232(a4)
    80002458:	bbc1                	j	80002228 <test_memory+0x28>
    8000245a:	0cb4                	addi	a3,sp,600
    8000245c:	7348                	ld	a0,160(a4)
    8000245e:	7fd0                	ld	a2,184(a5)
    80002460:	a2e2                	fsd	fs8,320(sp)
    80002462:	ef07abaf          	0xef07abaf
    80002466:	859c                	0x859c
    80002468:	cc356cd7          	0xcc356cd7
    8000246c:	43d1930b          	0x43d1930b
    80002470:	69503ac3          	fmadd.s	fs5,ft0,fs5,fa3,rup
    80002474:	2dfa                	fld	fs11,408(sp)
    80002476:	3640                	fld	fs0,168(a2)
    80002478:	fa3e                	sd	a5,304(sp)
    8000247a:	4740                	lw	s0,12(a4)
    8000247c:	b1fe                	fsd	ft11,224(sp)
    8000247e:	e518                	sd	a4,8(a0)
    80002480:	74ce                	ld	s1,240(sp)
    80002482:	0cc8                	addi	a0,sp,596
    80002484:	5d71                	li	s10,-4
    80002486:	83ca                	mv	t2,s2
    80002488:	37957ddb          	0x37957ddb
    8000248c:	e43a                	sd	a4,8(sp)
    8000248e:	5a49f3bf 48b5e77d 	0x48b5e77d5a49f3bf
    80002496:	74d6                	ld	s1,368(sp)
    80002498:	1512                	slli	a0,a0,0x24
    8000249a:	7946                	ld	s2,112(sp)
    8000249c:	e432                	sd	a2,8(sp)
    8000249e:	3820                	fld	fs0,112(s0)
    800024a0:	6698                	ld	a4,8(a3)
    800024a2:	2eed                	addiw	t4,t4,27
    800024a4:	722e                	ld	tp,232(sp)
    800024a6:	c111                	beqz	a0,800024aa <test_memory+0x2aa>
    800024a8:	b08c                	fsd	fa1,32(s1)
    800024aa:	b422                	fsd	fs0,40(sp)
    800024ac:	9708                	0x9708
    800024ae:	a9a1                	j	80002906 <_end+0x2f6>
    800024b0:	669a                	ld	a3,384(sp)
    800024b2:	3fe2                	fld	ft11,56(sp)
    800024b4:	a1cc                	fsd	fa1,128(a1)
    800024b6:	b7c9                	j	80002478 <test_memory+0x278>
    800024b8:	9c39                	addw	s0,s0,a4
    800024ba:	f366                	sd	s9,416(sp)
    800024bc:	0220                	addi	s0,sp,264
    800024be:	81d4                	0x81d4
    800024c0:	6a52                	ld	s4,272(sp)
    800024c2:	66c677d7          	0x66c677d7
    800024c6:	7f20                	ld	s0,120(a4)
    800024c8:	0398                	addi	a4,sp,448
    800024ca:	b979                	j	80002168 <reg_x13_output>
    800024cc:	85f1                	srai	a1,a1,0x1c
    800024ce:	acca5f27          	0xacca5f27
    800024d2:	3d99                	addiw	s11,s11,-26
    800024d4:	5a88808b          	0x5a88808b
    800024d8:	f635                	bnez	a2,80002444 <test_memory+0x244>
    800024da:	187a                	slli	a6,a6,0x3e
    800024dc:	721d                	lui	tp,0xfffe7
    800024de:	fff2                	sd	t3,504(sp)
    800024e0:	21359633          	0x21359633
    800024e4:	58fc62f3          	csrrsi	t0,0x58f,24
    800024e8:	2a12b073          	csrc	0x2a1,t0
    800024ec:	46c0                	lw	s0,12(a3)
    800024ee:	fb78                	sd	a4,240(a4)
    800024f0:	3c50                	fld	fa2,184(s0)
    800024f2:	49b808af          	0x49b808af
    800024f6:	069c                	addi	a5,sp,832
    800024f8:	119c2c8b          	0x119c2c8b
    800024fc:	370c                	fld	fa1,40(a4)
    800024fe:	a402                	fsd	ft0,8(sp)
    80002500:	0515                	addi	a0,a0,5
    80002502:	2d18                	fld	fa4,24(a0)
    80002504:	8f24                	0x8f24
    80002506:	2555                	addiw	a0,a0,21
    80002508:	3fd4                	fld	fa3,184(a5)
    8000250a:	c112efe3          	bltu	t0,a7,80002128 <reg_x5_output>
    8000250e:	6064                	ld	s1,192(s0)
    80002510:	20894f8b          	0x20894f8b
    80002514:	3a0c                	fld	fa1,48(a2)
    80002516:	9c1c                	0x9c1c
    80002518:	c844                	sw	s1,20(s0)
    8000251a:	6ee5c70b          	0x6ee5c70b
    8000251e:	d5a6                	sw	s1,232(sp)
    80002520:	46f6                	lw	a3,92(sp)
    80002522:	3ba6                	fld	fs7,104(sp)
    80002524:	f6fc                	sd	a5,232(a3)
    80002526:	875a                	mv	a4,s6
    80002528:	ae36                	fsd	fa3,280(sp)
    8000252a:	f490                	sd	a2,40(s1)
    8000252c:	14de                	slli	s1,s1,0x37
    8000252e:	0829                	addi	a6,a6,10
    80002530:	4438                	lw	a4,72(s0)
    80002532:	16c5                	addi	a3,a3,-15
    80002534:	deccf0b3          	0xdeccf0b3
    80002538:	be6d                	j	800020f2 <reg_x30_init+0x2>
    8000253a:	568a                	lw	a3,160(sp)
    8000253c:	213a                	fld	ft2,392(sp)
    8000253e:	9ff8                	0x9ff8
    80002540:	2a036177          	0x2a036177
    80002544:	3bd1                	addiw	s7,s7,-12
    80002546:	7038                	ld	a4,96(s0)
    80002548:	a058                	fsd	fa4,128(s0)
    8000254a:	64fc                	ld	a5,200(s1)
    8000254c:	d0ea                	sw	s10,96(sp)
    8000254e:	23fdfaf3          	csrrci	s5,0x23f,27
    80002552:	c9ce4e8b          	0xc9ce4e8b
    80002556:	e2b6                	sd	a3,320(sp)
    80002558:	fff16c97          	auipc	s9,0xfff16
    8000255c:	5da9                	li	s11,-22
    8000255e:	0aba                	slli	s5,s5,0xe
    80002560:	6060                	ld	s0,192(s0)
    80002562:	bc81                	j	80001fb2 <fromhost+0xf72>
    80002564:	172d                	addi	a4,a4,-21
    80002566:	a7bd2ea7          	fsw	fs11,-1411(s10) # 7d39ce2d <_start-0x2c631d3>
    8000256a:	7950b40f          	0x7950b40f
    8000256e:	d0ad                	beqz	s1,800024d0 <test_memory+0x2d0>
    80002570:	bce2                	fsd	fs8,120(sp)
    80002572:	c299                	beqz	a3,80002578 <test_memory+0x378>
    80002574:	08f1                	addi	a7,a7,28
    80002576:	023d                	addi	tp,tp,15
    80002578:	091aa557          	0x91aa557
    8000257c:	aa6a                	fsd	fs10,272(sp)
    8000257e:	761ae183          	lwu	gp,1889(s5)
    80002582:	f886                	sd	ra,112(sp)
    80002584:	ad50                	fsd	fa2,152(a0)
    80002586:	2d3e                	fld	fs10,456(sp)
    80002588:	972d                	srai	a4,a4,0x2b
    8000258a:	9cf8                	0x9cf8
    8000258c:	5e02                	lw	t3,32(sp)
    8000258e:	c8ba                	sw	a4,80(sp)
    80002590:	1a8d49d3          	fdiv.d	fs3,fs10,fs0,rmm
    80002594:	9effd3a7          	0x9effd3a7
    80002598:	6a73ccc7          	fmsub.d	fs9,ft7,ft7,fa3,rmm
    8000259c:	c2c5                	beqz	a3,8000263c <_end+0x2c>
    8000259e:	9436                	add	s0,s0,a3
    800025a0:	3cc5ac33          	0x3cc5ac33
    800025a4:	afae                	fsd	fa1,472(sp)
    800025a6:	2b6a                	fld	fs6,152(sp)
    800025a8:	e732                	sd	a2,392(sp)
    800025aa:	7951                	lui	s2,0xffff4
    800025ac:	c144                	sw	s1,4(a0)
    800025ae:	beb0                	fsd	fa2,120(a3)
    800025b0:	ab1f 2622 fbeb      	0xfbeb2622ab1f
    800025b6:	0e12                	slli	t3,t3,0x4
    800025b8:	0504                	addi	s1,sp,640
    800025ba:	2dc4                	fld	fs1,152(a1)
    800025bc:	a598                	fsd	fa4,8(a1)
    800025be:	2d64                	fld	fs1,216(a0)
    800025c0:	23de                	fld	ft7,464(sp)
    800025c2:	98ad                	andi	s1,s1,-21
    800025c4:	4f69                	li	t5,26
    800025c6:	9034                	0x9034
    800025c8:	2a9c                	fld	fa5,16(a3)
    800025ca:	9bdf 4e2b e83d      	0xe83d4e2b9bdf
    800025d0:	2efc                	fld	fa5,216(a3)
    800025d2:	2b79                	addiw	s6,s6,30
    800025d4:	9aac                	0x9aac
    800025d6:	6aaed753          	0x6aaed753
    800025da:	48fc                	lw	a5,84(s1)
    800025dc:	f3d5                	bnez	a5,80002580 <test_memory+0x380>
    800025de:	9471                	srai	s0,s0,0x3c
    800025e0:	e670                	sd	a2,200(a2)
    800025e2:	ffe05e2b          	0xffe05e2b
    800025e6:	7146                	ld	sp,112(sp)
    800025e8:	92fe                	add	t0,t0,t6
    800025ea:	04d4                	addi	a3,sp,580
    800025ec:	df26                	sw	s1,188(sp)
    800025ee:	ea00d5af          	0xea00d5af
    800025f2:	5394                	lw	a3,32(a5)
    800025f4:	7a51                	lui	s4,0xffff4
    800025f6:	dee6                	sw	s9,124(sp)
    800025f8:	6723616b          	0x6723616b
    800025fc:	9f02                	jalr	t5
    800025fe:	7299                	lui	t0,0xfffe6

0000000080002600 <loop_count>:
    80002600:	0040                	addi	s0,sp,4
	...

Disassembly of section .riscv.attributes:

0000000000000000 <.riscv.attributes>:
   0:	1e41                	addi	t3,t3,-16
   2:	0000                	unimp
   4:	7200                	ld	s0,32(a2)
   6:	7369                	lui	t1,0xffffa
   8:	01007663          	bgeu	zero,a6,14 <_start-0x7fffffec>
   c:	0014                	0x14
   e:	0000                	unimp
  10:	7205                	lui	tp,0xfffe1
  12:	3676                	fld	fa2,376(sp)
  14:	6934                	ld	a3,80(a0)
  16:	7032                	0x7032
  18:	5f30                	lw	a2,120(a4)
  1a:	326d                	addiw	tp,tp,-5
  1c:	3070                	fld	fa2,224(s0)
	...
