
build/test58:     file format elf64-littleriscv


Disassembly of section .text.init:

0000000080000000 <_start>:
    80000000:	05c0006f          	j	8000005c <reset_vector>

0000000080000004 <trap_vector>:
    80000004:	34202f73          	csrr	t5,mcause
    80000008:	00800f93          	li	t6,8
    8000000c:	03ff0a63          	beq	t5,t6,80000040 <write_tohost>
    80000010:	00900f93          	li	t6,9
    80000014:	03ff0663          	beq	t5,t6,80000040 <write_tohost>
    80000018:	00b00f93          	li	t6,11
    8000001c:	03ff0263          	beq	t5,t6,80000040 <write_tohost>
    80000020:	80000f17          	auipc	t5,0x80000
    80000024:	fe0f0f13          	addi	t5,t5,-32 # 0 <_start-0x80000000>
    80000028:	000f0463          	beqz	t5,80000030 <trap_vector+0x2c>
    8000002c:	000f0067          	jr	t5
    80000030:	34202f73          	csrr	t5,mcause
    80000034:	000f5463          	bgez	t5,8000003c <handle_exception>
    80000038:	0040006f          	j	8000003c <handle_exception>

000000008000003c <handle_exception>:
    8000003c:	5391e193          	ori	gp,gp,1337

0000000080000040 <write_tohost>:
    80000040:	00001f17          	auipc	t5,0x1
    80000044:	fc3f2023          	sw	gp,-64(t5) # 80001000 <tohost>
    80000048:	000902b7          	lui	t0,0x90
    8000004c:	0012829b          	addiw	t0,t0,1
    80000050:	00c29293          	slli	t0,t0,0xc
    80000054:	0002af83          	lw	t6,0(t0) # 90000 <_start-0x7ff70000>
    80000058:	fe9ff06f          	j	80000040 <write_tohost>

000000008000005c <reset_vector>:
    8000005c:	00000093          	li	ra,0
    80000060:	00000113          	li	sp,0
    80000064:	00000193          	li	gp,0
    80000068:	00000213          	li	tp,0
    8000006c:	00000293          	li	t0,0
    80000070:	00000313          	li	t1,0
    80000074:	00000393          	li	t2,0
    80000078:	00000413          	li	s0,0
    8000007c:	00000493          	li	s1,0
    80000080:	00000513          	li	a0,0
    80000084:	00000593          	li	a1,0
    80000088:	00000613          	li	a2,0
    8000008c:	00000693          	li	a3,0
    80000090:	00000713          	li	a4,0
    80000094:	00000793          	li	a5,0
    80000098:	00000813          	li	a6,0
    8000009c:	00000893          	li	a7,0
    800000a0:	00000913          	li	s2,0
    800000a4:	00000993          	li	s3,0
    800000a8:	00000a13          	li	s4,0
    800000ac:	00000a93          	li	s5,0
    800000b0:	00000b13          	li	s6,0
    800000b4:	00000b93          	li	s7,0
    800000b8:	00000c13          	li	s8,0
    800000bc:	00000c93          	li	s9,0
    800000c0:	00000d13          	li	s10,0
    800000c4:	00000d93          	li	s11,0
    800000c8:	00000e13          	li	t3,0
    800000cc:	00000e93          	li	t4,0
    800000d0:	00000f13          	li	t5,0
    800000d4:	00000f93          	li	t6,0
    800000d8:	f1402573          	csrr	a0,mhartid
    800000dc:	00051063          	bnez	a0,800000dc <reset_vector+0x80>
    800000e0:	00000297          	auipc	t0,0x0
    800000e4:	01028293          	addi	t0,t0,16 # 800000f0 <reset_vector+0x94>
    800000e8:	30529073          	csrw	mtvec,t0
    800000ec:	18005073          	csrwi	satp,0
    800000f0:	00000297          	auipc	t0,0x0
    800000f4:	02428293          	addi	t0,t0,36 # 80000114 <reset_vector+0xb8>
    800000f8:	30529073          	csrw	mtvec,t0
    800000fc:	0010029b          	addiw	t0,zero,1
    80000100:	03529293          	slli	t0,t0,0x35
    80000104:	fff28293          	addi	t0,t0,-1
    80000108:	3b029073          	csrw	pmpaddr0,t0
    8000010c:	01f00293          	li	t0,31
    80000110:	3a029073          	csrw	pmpcfg0,t0
    80000114:	30405073          	csrwi	mie,0
    80000118:	00000297          	auipc	t0,0x0
    8000011c:	01428293          	addi	t0,t0,20 # 8000012c <reset_vector+0xd0>
    80000120:	30529073          	csrw	mtvec,t0
    80000124:	30205073          	csrwi	medeleg,0
    80000128:	30305073          	csrwi	mideleg,0
    8000012c:	00000193          	li	gp,0
    80000130:	00000297          	auipc	t0,0x0
    80000134:	ed428293          	addi	t0,t0,-300 # 80000004 <trap_vector>
    80000138:	30529073          	csrw	mtvec,t0
    8000013c:	00100513          	li	a0,1
    80000140:	01f51513          	slli	a0,a0,0x1f
    80000144:	00055c63          	bgez	a0,8000015c <reset_vector+0x100>
    80000148:	0ff0000f          	fence
    8000014c:	00100193          	li	gp,1
    80000150:	05d00893          	li	a7,93
    80000154:	00000513          	li	a0,0
    80000158:	00000073          	ecall
    8000015c:	80000297          	auipc	t0,0x80000
    80000160:	ea428293          	addi	t0,t0,-348 # 0 <_start-0x80000000>
    80000164:	00028a63          	beqz	t0,80000178 <reset_vector+0x11c>
    80000168:	10529073          	csrw	stvec,t0
    8000016c:	0000b2b7          	lui	t0,0xb
    80000170:	1092829b          	addiw	t0,t0,265
    80000174:	30229073          	csrw	medeleg,t0
    80000178:	30005073          	csrwi	mstatus,0
    8000017c:	00000297          	auipc	t0,0x0
    80000180:	01428293          	addi	t0,t0,20 # 80000190 <reset_vector+0x134>
    80000184:	34129073          	csrw	mepc,t0
    80000188:	f1402573          	csrr	a0,mhartid
    8000018c:	30200073          	mret
    80000190:	0200006f          	j	800001b0 <test_start>

0000000080000194 <crash_backward>:
    80000194:	0ff0000f          	fence
    80000198:	00018063          	beqz	gp,80000198 <crash_backward+0x4>
    8000019c:	00119193          	slli	gp,gp,0x1
    800001a0:	0011e193          	ori	gp,gp,1
    800001a4:	05d00893          	li	a7,93
    800001a8:	00018513          	mv	a0,gp
    800001ac:	00000073          	ecall

00000000800001b0 <test_start>:
    800001b0:	00002f97          	auipc	t6,0x2
    800001b4:	e50f8f93          	addi	t6,t6,-432 # 80002000 <hidden_data>
    800001b8:	000fb003          	ld	zero,0(t6)
    800001bc:	008fb083          	ld	ra,8(t6)
    800001c0:	010fb103          	ld	sp,16(t6)
    800001c4:	018fb183          	ld	gp,24(t6)
    800001c8:	020fb203          	ld	tp,32(t6)
    800001cc:	028fb283          	ld	t0,40(t6)
    800001d0:	030fb303          	ld	t1,48(t6)
    800001d4:	038fb383          	ld	t2,56(t6)
    800001d8:	040fb403          	ld	s0,64(t6)
    800001dc:	048fb483          	ld	s1,72(t6)
    800001e0:	050fb503          	ld	a0,80(t6)
    800001e4:	058fb583          	ld	a1,88(t6)
    800001e8:	060fb603          	ld	a2,96(t6)
    800001ec:	068fb683          	ld	a3,104(t6)
    800001f0:	070fb703          	ld	a4,112(t6)
    800001f4:	078fb783          	ld	a5,120(t6)
    800001f8:	080fb803          	ld	a6,128(t6)
    800001fc:	088fb883          	ld	a7,136(t6)
    80000200:	090fb903          	ld	s2,144(t6)
    80000204:	098fb983          	ld	s3,152(t6)
    80000208:	0a0fba03          	ld	s4,160(t6)
    8000020c:	0a8fba83          	ld	s5,168(t6)
    80000210:	0b0fbb03          	ld	s6,176(t6)
    80000214:	0b8fbb83          	ld	s7,184(t6)
    80000218:	0c0fbc03          	ld	s8,192(t6)
    8000021c:	0c8fbc83          	ld	s9,200(t6)
    80000220:	0d0fbd03          	ld	s10,208(t6)
    80000224:	0d8fbd83          	ld	s11,216(t6)
    80000228:	0e0fbe03          	ld	t3,224(t6)
    8000022c:	0e8fbe83          	ld	t4,232(t6)
    80000230:	0f0fbf03          	ld	t5,240(t6)
    80000234:	0f8fbf83          	ld	t6,248(t6)
    80000238:	0040006f          	j	8000023c <pseg_0>

000000008000023c <pseg_0>:
    8000023c:	69b10313          	addi	t1,sp,1691
    80000240:	038c2a33          	mulhsu	s4,s8,s8
    80000244:	40770b3b          	subw	s6,a4,t2
    80000248:	00002c97          	auipc	s9,0x2
    8000024c:	f96c8c93          	addi	s9,s9,-106 # 800021de <reg_x27_output+0x6>
    80000250:	00002f97          	auipc	t6,0x2
    80000254:	0fff8f93          	addi	t6,t6,255 # 8000234f <test_memory+0x14f>
    80000258:	4b600c13          	li	s8,1206
    8000025c:	74f00413          	li	s0,1871
    80000260:	00000893          	li	a7,0
    80000264:	0178121b          	slliw	tp,a6,0x17
    80000268:	00100b93          	li	s7,1
    8000026c:	00100d13          	li	s10,1
    80000270:	0284753b          	remuw	a0,s0,s0
    80000274:	19eca983          	lw	s3,414(s9)
    80000278:	ead00593          	li	a1,-339
    8000027c:	00000913          	li	s2,0
    80000280:	03afb4a3          	sd	s10,41(t6)
    80000284:	5a200413          	li	s0,1442
    80000288:	40b58733          	sub	a4,a1,a1
    8000028c:	011892bb          	sllw	t0,a7,a7
    80000290:	b07b0793          	addi	a5,s6,-1273
    80000294:	52b00813          	li	a6,1323
    80000298:	41a50b33          	sub	s6,a0,s10
    8000029c:	03fb9b93          	slli	s7,s7,0x3f
    800002a0:	1ae00993          	li	s3,430
    800002a4:	418c5e33          	sra	t3,s8,s8
    800002a8:	de100593          	li	a1,-543
    800002ac:	fff00113          	li	sp,-1
    800002b0:	018b97bb          	sllw	a5,s7,s8
    800002b4:	034a4f33          	div	t5,s4,s4
    800002b8:	8d500193          	li	gp,-1835
    800002bc:	a2800f93          	li	t6,-1496
    800002c0:	01714133          	xor	sp,sp,s7
    800002c4:	00a2db33          	srl	s6,t0,a0
    800002c8:	03fd1d13          	slli	s10,s10,0x3f
    800002cc:	0029fdb3          	and	s11,s3,sp
    800002d0:	432bd213          	srai	tp,s7,0x32
    800002d4:	6d289663          	bne	a7,s2,800009a0 <crash_forward>
    800002d8:	00843533          	sltu	a0,s0,s0
    800002dc:	0139e333          	or	t1,s3,s3
    800002e0:	415adcb3          	sra	s9,s5,s5
    800002e4:	3be00a93          	li	s5,958
    800002e8:	017de6b3          	or	a3,s11,s7
    800002ec:	fff00e93          	li	t4,-1
    800002f0:	003803bb          	addw	t2,a6,gp
    800002f4:	eaddf0e3          	bgeu	s11,a3,80000194 <crash_backward>
    800002f8:	415ad4b3          	sra	s1,s5,s5
    800002fc:	01aeceb3          	xor	t4,t4,s10
    80000300:	8f158713          	addi	a4,a1,-1807
    80000304:	68e5ce63          	blt	a1,a4,800009a0 <crash_forward>
    80000308:	03ff9a33          	mulh	s4,t6,t6
    8000030c:	2e800413          	li	s0,744
    80000310:	00100813          	li	a6,1
    80000314:	00002d97          	auipc	s11,0x2
    80000318:	675d8d93          	addi	s11,s11,1653 # 80002989 <_end+0x379>
    8000031c:	00a562b3          	or	t0,a0,a0
    80000320:	00100b93          	li	s7,1
    80000324:	00002c17          	auipc	s8,0x2
    80000328:	db2c0c13          	addi	s8,s8,-590 # 800020d6 <reg_x26_init+0x6>
    8000032c:	b6600293          	li	t0,-1178
    80000330:	26c00793          	li	a5,620
    80000334:	03f81813          	slli	a6,a6,0x3f
    80000338:	fff00513          	li	a0,-1
    8000033c:	02867a33          	remu	s4,a2,s0
    80000340:	00002997          	auipc	s3,0x2
    80000344:	7a398993          	addi	s3,s3,1955 # 80002ae3 <_end+0x4d3>
    80000348:	376c6f03          	lwu	t5,886(s8)
    8000034c:	03fb9b93          	slli	s7,s7,0x3f
    80000350:	950aea13          	ori	s4,s5,-1712
    80000354:	fff00213          	li	tp,-1
    80000358:	02f7cabb          	divw	s5,a5,a5
    8000035c:	010104b3          	add	s1,sp,a6
    80000360:	32700e13          	li	t3,807
    80000364:	028455bb          	divuw	a1,s0,s0
    80000368:	01d3f633          	and	a2,t2,t4
    8000036c:	6252ea63          	bltu	t0,t0,800009a0 <crash_forward>
    80000370:	b2bda683          	lw	a3,-1237(s11)
    80000374:	01724233          	xor	tp,tp,s7
    80000378:	01a660b3          	or	ra,a2,s10
    8000037c:	0047f133          	and	sp,a5,tp
    80000380:	40a55733          	sra	a4,a0,a0
    80000384:	01054533          	xor	a0,a0,a6
    80000388:	007505b3          	add	a1,a0,t2
    8000038c:	038c67bb          	remw	a5,s8,s8
    80000390:	00843cb3          	sltu	s9,s0,s0
    80000394:	01796933          	or	s2,s2,s7
    80000398:	00002497          	auipc	s1,0x2
    8000039c:	c5b48493          	addi	s1,s1,-933 # 80001ff3 <fromhost+0xfb3>
    800003a0:	03327c3b          	remuw	s8,tp,s3
    800003a4:	45748123          	sb	s7,1090(s1)
    800003a8:	21a00393          	li	t2,538
    800003ac:	007e68b3          	or	a7,t3,t2
    800003b0:	5f217863          	bgeu	sp,s2,800009a0 <crash_forward>
    800003b4:	4052dfbb          	sraw	t6,t0,t0
    800003b8:	6f800a93          	li	s5,1784
    800003bc:	00abf1b3          	and	gp,s7,a0
    800003c0:	010f6b33          	or	s6,t5,a6
    800003c4:	dd6188e3          	beq	gp,s6,80000194 <crash_backward>
    800003c8:	a7b9d303          	lhu	t1,-1413(s3)
    800003cc:	dc1644e3          	blt	a2,ra,80000194 <crash_backward>
    800003d0:	3c000893          	li	a7,960
    800003d4:	62900b13          	li	s6,1577
    800003d8:	028dfcbb          	remuw	s9,s11,s0
    800003dc:	00100093          	li	ra,1
    800003e0:	00100c13          	li	s8,1
    800003e4:	fff00793          	li	a5,-1
    800003e8:	aa100593          	li	a1,-1375
    800003ec:	036b7333          	remu	t1,s6,s6
    800003f0:	00100613          	li	a2,1
    800003f4:	00b5dfbb          	srlw	t6,a1,a1
    800003f8:	02f88dbb          	mulw	s11,a7,a5
    800003fc:	03f09093          	slli	ra,ra,0x3f
    80000400:	b4800713          	li	a4,-1208
    80000404:	d3a00a13          	li	s4,-710
    80000408:	4073deb3          	sra	t4,t2,t2
    8000040c:	e0b00b93          	li	s7,-501
    80000410:	03f61613          	slli	a2,a2,0x3f
    80000414:	03fc1c13          	slli	s8,s8,0x3f
    80000418:	fff00693          	li	a3,-1
    8000041c:	fff00e13          	li	t3,-1
    80000420:	00c6c6b3          	xor	a3,a3,a2
    80000424:	00df7133          	and	sp,t5,a3
    80000428:	8f500393          	li	t2,-1803
    8000042c:	4d100413          	li	s0,1233
    80000430:	00c161b3          	or	gp,sp,a2
    80000434:	fff00513          	li	a0,-1
    80000438:	79a40d13          	addi	s10,s0,1946
    8000043c:	41035d9b          	sraiw	s11,t1,0x10
    80000440:	034aaf33          	mulhsu	t5,s5,s4
    80000444:	017712b3          	sll	t0,a4,s7
    80000448:	44200a93          	li	s5,1090
    8000044c:	010878b3          	and	a7,a6,a6
    80000450:	00002117          	auipc	sp,0x2
    80000454:	83610113          	addi	sp,sp,-1994 # 80001c86 <fromhost+0xc46>
    80000458:	548d4463          	blt	s10,s0,800009a0 <crash_forward>
    8000045c:	001e4e33          	xor	t3,t3,ra
    80000460:	58200313          	li	t1,1410
    80000464:	b6900713          	li	a4,-1175
    80000468:	92c00b13          	li	s6,-1748
    8000046c:	78313523          	sd	gp,1930(sp)
    80000470:	22c00f13          	li	t5,556
    80000474:	d9d00293          	li	t0,-611
    80000478:	32a00193          	li	gp,810
    8000047c:	01c6f9b3          	and	s3,a3,t3
    80000480:	03eafdbb          	remuw	s11,s5,t5
    80000484:	00319bbb          	sllw	s7,gp,gp
    80000488:	00196833          	or	a6,s2,ra
    8000048c:	01630cbb          	addw	s9,t1,s6
    80000490:	03daf63b          	remuw	a2,s5,t4
    80000494:	5109f663          	bgeu	s3,a6,800009a0 <crash_forward>
    80000498:	019c8cbb          	addw	s9,s9,s9
    8000049c:	85d00693          	li	a3,-1955
    800004a0:	00100d93          	li	s11,1
    800004a4:	be100f93          	li	t6,-1055
    800004a8:	31300093          	li	ra,787
    800004ac:	02e768bb          	remw	a7,a4,a4
    800004b0:	00058413          	mv	s0,a1
    800004b4:	03fd9d93          	slli	s11,s11,0x3f
    800004b8:	00040113          	mv	sp,s0
    800004bc:	fdb00193          	li	gp,-37
    800004c0:	76d00613          	li	a2,1901
    800004c4:	40c08f3b          	subw	t5,ra,a2
    800004c8:	0275f233          	remu	tp,a1,t2
    800004cc:	92100a93          	li	s5,-1759
    800004d0:	46000e93          	li	t4,1120
    800004d4:	00d2ea33          	or	s4,t0,a3
    800004d8:	aa700313          	li	t1,-1369
    800004dc:	03dfb7b3          	mulhu	a5,t6,t4
    800004e0:	0188fa33          	and	s4,a7,s8
    800004e4:	ab000393          	li	t2,-1360
    800004e8:	29900413          	li	s0,665
    800004ec:	fff00b93          	li	s7,-1
    800004f0:	40e5d59b          	sraiw	a1,a1,0xe
    800004f4:	02838f3b          	mulw	t5,t2,s0
    800004f8:	8ba00113          	li	sp,-1862
    800004fc:	00618833          	add	a6,gp,t1
    80000500:	a9a00213          	li	tp,-1382
    80000504:	00c63633          	sltu	a2,a2,a2
    80000508:	00ca9cb3          	sll	s9,s5,a2
    8000050c:	88020f93          	addi	t6,tp,-1920 # fffffffffffff880 <__global_pointer$+0xffffffff7fffca70>
    80000510:	a7800093          	li	ra,-1416
    80000514:	484fd663          	bge	t6,tp,800009a0 <crash_forward>
    80000518:	022118b3          	mulh	a7,sp,sp
    8000051c:	2b000293          	li	t0,688
    80000520:	01b9debb          	srlw	t4,s3,s11
    80000524:	4010d6b3          	sra	a3,ra,ra
    80000528:	415a8e3b          	subw	t3,s5,s5
    8000052c:	01bbcbb3          	xor	s7,s7,s11
    80000530:	0175fb33          	and	s6,a1,s7
    80000534:	01ba6d33          	or	s10,s4,s11
    80000538:	eb300993          	li	s3,-333
    8000053c:	47ab4263          	blt	s6,s10,800009a0 <crash_forward>
    80000540:	4132873b          	subw	a4,t0,s3
    80000544:	01854533          	xor	a0,a0,s8
    80000548:	00a77933          	and	s2,a4,a0
    8000054c:	018964b3          	or	s1,s2,s8
    80000550:	403dd5b3          	sra	a1,s11,gp
    80000554:	39a28a1b          	addiw	s4,t0,922
    80000558:	00000213          	li	tp,0
    8000055c:	10906193          	ori	gp,zero,265
    80000560:	00100893          	li	a7,1
    80000564:	0118f6b3          	and	a3,a7,a7
    80000568:	0d900f93          	li	t6,217
    8000056c:	00002c17          	auipc	s8,0x2
    80000570:	536c0c13          	addi	s8,s8,1334 # 80002aa2 <_end+0x492>
    80000574:	00100f13          	li	t5,1
    80000578:	417bd1b3          	sra	gp,s7,s7
    8000057c:	f0a00413          	li	s0,-246
    80000580:	f5d00a93          	li	s5,-163
    80000584:	03ad5733          	divu	a4,s10,s10
    80000588:	035a9333          	mulh	t1,s5,s5
    8000058c:	03ff1f13          	slli	t5,t5,0x3f
    80000590:	00002297          	auipc	t0,0x2
    80000594:	26b28293          	addi	t0,t0,619 # 800027fb <_end+0x1eb>
    80000598:	0294de33          	divu	t3,s1,s1
    8000059c:	0118d533          	srl	a0,a7,a7
    800005a0:	3e800913          	li	s2,1000
    800005a4:	02846cb3          	rem	s9,s0,s0
    800005a8:	be0016e3          	bnez	zero,80000194 <crash_backward>
    800005ac:	5a300113          	li	sp,1443
    800005b0:	02e6a4b3          	mulhsu	s1,a3,a4
    800005b4:	0361e53b          	remw	a0,gp,s6
    800005b8:	71300713          	li	a4,1811
    800005bc:	a6bc0803          	lb	a6,-1429(s8)
    800005c0:	2a000a93          	li	s5,672
    800005c4:	03f89893          	slli	a7,a7,0x3f
    800005c8:	cfe28b83          	lb	s7,-770(t0)
    800005cc:	00020d13          	mv	s10,tp
    800005d0:	01ce3433          	sltu	s0,t3,t3
    800005d4:	fff00613          	li	a2,-1
    800005d8:	75b00b13          	li	s6,1883
    800005dc:	015711b3          	sll	gp,a4,s5
    800005e0:	036b29b3          	mulhsu	s3,s6,s6
    800005e4:	02217ebb          	remuw	t4,sp,sp
    800005e8:	00423cb3          	sltu	s9,tp,tp
    800005ec:	b32f6c13          	ori	s8,t5,-1230
    800005f0:	00002d17          	auipc	s10,0x2
    800005f4:	13fd0d13          	addi	s10,s10,319 # 8000272f <_end+0x11f>
    800005f8:	032fedb3          	rem	s11,t6,s2
    800005fc:	cf500693          	li	a3,-779
    80000600:	0252ae33          	mulhsu	t3,t0,t0
    80000604:	40d6d33b          	sraw	t1,a3,a3
    80000608:	f7d00813          	li	a6,-131
    8000060c:	fff00093          	li	ra,-1
    80000610:	cd0d15a3          	sh	a6,-821(s10)
    80000614:	8de00293          	li	t0,-1826
    80000618:	d7d00213          	li	tp,-643
    8000061c:	0242c4b3          	div	s1,t0,tp
    80000620:	0110c0b3          	xor	ra,ra,a7
    80000624:	0013f3b3          	and	t2,t2,ra
    80000628:	01e64633          	xor	a2,a2,t5
    8000062c:	00cdfa33          	and	s4,s11,a2
    80000630:	01ea65b3          	or	a1,s4,t5
    80000634:	417b8bb3          	sub	s7,s7,s7
    80000638:	36ba7463          	bgeu	s4,a1,800009a0 <crash_forward>
    8000063c:	011667b3          	or	a5,a2,a7
    80000640:	3677e063          	bltu	a5,t2,800009a0 <crash_forward>
    80000644:	03083533          	mulhu	a0,a6,a6
    80000648:	40e7573b          	sraw	a4,a4,a4
    8000064c:	fce00613          	li	a2,-50
    80000650:	00e7ddbb          	srlw	s11,a5,a4
    80000654:	00100213          	li	tp,1
    80000658:	13100813          	li	a6,305
    8000065c:	017b8a33          	add	s4,s7,s7
    80000660:	ae500293          	li	t0,-1307
    80000664:	02c618b3          	mulh	a7,a2,a2
    80000668:	02200b13          	li	s6,34
    8000066c:	425e5593          	srai	a1,t3,0x25
    80000670:	19400413          	li	s0,404
    80000674:	e2000f13          	li	t5,-480
    80000678:	03cdadb3          	mulhsu	s11,s11,t3
    8000067c:	41ef0bb3          	sub	s7,t5,t5
    80000680:	00a507b3          	add	a5,a0,a0
    80000684:	12140193          	addi	gp,s0,289
    80000688:	41ef513b          	sraw	sp,t5,t5
    8000068c:	00100713          	li	a4,1
    80000690:	eae00d13          	li	s10,-338
    80000694:	03f21213          	slli	tp,tp,0x3f
    80000698:	76900c93          	li	s9,1897
    8000069c:	f9700b93          	li	s7,-105
    800006a0:	019b44b3          	xor	s1,s6,s9
    800006a4:	03b315b3          	mulh	a1,t1,s11
    800006a8:	01b95db3          	srl	s11,s2,s11
    800006ac:	2e81ca63          	blt	gp,s0,800009a0 <crash_forward>
    800006b0:	03a853b3          	divu	t2,a6,s10
    800006b4:	bd400e13          	li	t3,-1068
    800006b8:	db900813          	li	a6,-583
    800006bc:	00100193          	li	gp,1
    800006c0:	00002a97          	auipc	s5,0x2
    800006c4:	349a8a93          	addi	s5,s5,841 # 80002a09 <_end+0x3f9>
    800006c8:	5c000d93          	li	s11,1472
    800006cc:	61200b13          	li	s6,1554
    800006d0:	973aa983          	lw	s3,-1677(s5)
    800006d4:	0284753b          	remuw	a0,s0,s0
    800006d8:	41c2dc33          	sra	s8,t0,t3
    800006dc:	84100313          	li	t1,-1983
    800006e0:	bf100393          	li	t2,-1039
    800006e4:	0361e4b3          	rem	s1,gp,s6
    800006e8:	00002e17          	auipc	t3,0x2
    800006ec:	8a5e0e13          	addi	t3,t3,-1883 # 80001f8d <fromhost+0xf4d>
    800006f0:	4027d79b          	sraiw	a5,a5,0x2
    800006f4:	00002c17          	auipc	s8,0x2
    800006f8:	13ac0c13          	addi	s8,s8,314 # 8000282e <_end+0x21e>
    800006fc:	0273dd33          	divu	s10,t2,t2
    80000700:	4094df33          	sra	t5,s1,s1
    80000704:	5f7e1483          	lh	s1,1527(t3)
    80000708:	037b8133          	mul	sp,s7,s7
    8000070c:	ef300993          	li	s3,-269
    80000710:	c8b00f13          	li	t5,-885
    80000714:	2c200493          	li	s1,706
    80000718:	65d48e13          	addi	t3,s1,1629
    8000071c:	03e9dd3b          	divuw	s10,s3,t5
    80000720:	03f71713          	slli	a4,a4,0x3f
    80000724:	0273a5b3          	mulhsu	a1,t2,t2
    80000728:	00ca0ab3          	add	s5,s4,a2
    8000072c:	0010d1bb          	srlw	gp,ra,ra
    80000730:	2b4bb393          	sltiu	t2,s7,692
    80000734:	a0200a93          	li	s5,-1534
    80000738:	dde10c9b          	addiw	s9,sp,-546
    8000073c:	fff00f93          	li	t6,-1
    80000740:	e7c7cb93          	xori	s7,a5,-388
    80000744:	fff00613          	li	a2,-1
    80000748:	004fcfb3          	xor	t6,t6,tp
    8000074c:	03b8443b          	divw	s0,a6,s11
    80000750:	02c671bb          	remuw	gp,a2,a2
    80000754:	9eac6b03          	lwu	s6,-1558(s8)
    80000758:	00e64633          	xor	a2,a2,a4
    8000075c:	00100f13          	li	t5,1
    80000760:	cb600293          	li	t0,-842
    80000764:	01f176b3          	and	a3,sp,t6
    80000768:	03ff1f13          	slli	t5,t5,0x3f
    8000076c:	015aa5b3          	slt	a1,s5,s5
    80000770:	00c1fa33          	and	s4,gp,a2
    80000774:	0047e0b3          	or	ra,a5,tp
    80000778:	fff00993          	li	s3,-1
    8000077c:	01e9c9b3          	xor	s3,s3,t5
    80000780:	00841eb3          	sll	t4,s0,s0
    80000784:	dec28513          	addi	a0,t0,-532
    80000788:	db630913          	addi	s2,t1,-586
    8000078c:	21c4da63          	bge	s1,t3,800009a0 <crash_forward>
    80000790:	0133f3b3          	and	t2,t2,s3
    80000794:	01e56d33          	or	s10,a0,t5
    80000798:	00ea68b3          	or	a7,s4,a4
    8000079c:	211a0263          	beq	s4,a7,800009a0 <crash_forward>
    800007a0:	0b400b93          	li	s7,180
    800007a4:	00100613          	li	a2,1
    800007a8:	0108fa33          	and	s4,a7,a6
    800007ac:	24900493          	li	s1,585
    800007b0:	80000593          	li	a1,-2048
    800007b4:	1d600c13          	li	s8,470
    800007b8:	57f00e93          	li	t4,1407
    800007bc:	4084073b          	subw	a4,s0,s0
    800007c0:	41add193          	srai	gp,s11,0x1a
    800007c4:	03f61613          	slli	a2,a2,0x3f
    800007c8:	fff00b13          	li	s6,-1
    800007cc:	017b9fb3          	sll	t6,s7,s7
    800007d0:	9d2362e3          	bltu	t1,s2,80000194 <crash_backward>
    800007d4:	027887bb          	mulw	a5,a7,t2
    800007d8:	006ba533          	slt	a0,s7,t1
    800007dc:	00cb4b33          	xor	s6,s6,a2
    800007e0:	01de923b          	sllw	tp,t4,t4
    800007e4:	faa00d93          	li	s11,-86
    800007e8:	027800bb          	mulw	ra,a6,t2
    800007ec:	03bbfcb3          	remu	s9,s7,s11
    800007f0:	00100a13          	li	s4,1
    800007f4:	00002817          	auipc	a6,0x2
    800007f8:	13c80813          	addi	a6,a6,316 # 80002930 <_end+0x320>
    800007fc:	b9580683          	lb	a3,-1131(a6)
    80000800:	01849e33          	sll	t3,s1,s8
    80000804:	8b200793          	li	a5,-1870
    80000808:	016778b3          	and	a7,a4,s6
    8000080c:	00f4121b          	slliw	tp,s0,0xf
    80000810:	03fa1a13          	slli	s4,s4,0x3f
    80000814:	03b5d433          	divu	s0,a1,s11
    80000818:	00cce133          	or	sp,s9,a2
    8000081c:	035aefb3          	rem	t6,s5,s5
    80000820:	ec100193          	li	gp,-319
    80000824:	00100393          	li	t2,1
    80000828:	41dedf33          	sra	t5,t4,t4
    8000082c:	c2e00c13          	li	s8,-978
    80000830:	fff00293          	li	t0,-1
    80000834:	7ea00d13          	li	s10,2026
    80000838:	00001a97          	auipc	s5,0x1
    8000083c:	51ba8a93          	addi	s5,s5,1307 # 80001d53 <fromhost+0xd13>
    80000840:	6adaa903          	lw	s2,1709(s5)
    80000844:	01da09b3          	add	s3,s4,t4
    80000848:	00fd8e3b          	addw	t3,s11,a5
    8000084c:	afa00093          	li	ra,-1286
    80000850:	021c16b3          	mulh	a3,s8,ra
    80000854:	03f39393          	slli	t2,t2,0x3f
    80000858:	9228cee3          	blt	a7,sp,80000194 <crash_backward>
    8000085c:	4037833b          	subw	t1,a5,gp
    80000860:	fff00493          	li	s1,-1
    80000864:	0074c4b3          	xor	s1,s1,t2
    80000868:	0095fcb3          	and	s9,a1,s1
    8000086c:	007ce833          	or	a6,s9,t2
    80000870:	03ad053b          	mulw	a0,s10,s10
    80000874:	0142c2b3          	xor	t0,t0,s4
    80000878:	005a7bb3          	and	s7,s4,t0
    8000087c:	014be733          	or	a4,s7,s4
    80000880:	91776ae3          	bltu	a4,s7,80000194 <crash_backward>
    80000884:	18c00113          	li	sp,396
    80000888:	5c600693          	li	a3,1478
    8000088c:	85700393          	li	t2,-1961
    80000890:	0010ec33          	or	s8,ra,ra
    80000894:	43900293          	li	t0,1081
    80000898:	00fdce33          	xor	t3,s11,a5
    8000089c:	08b00093          	li	ra,139
    800008a0:	028c8ab3          	mul	s5,s9,s0
    800008a4:	2a400193          	li	gp,676
    800008a8:	27500b13          	li	s6,629
    800008ac:	fef00513          	li	a0,-17
    800008b0:	89400e93          	li	t4,-1900
    800008b4:	40210fb3          	sub	t6,sp,sp
    800008b8:	00070913          	mv	s2,a4
    800008bc:	00002597          	auipc	a1,0x2
    800008c0:	9c958593          	addi	a1,a1,-1591 # 80002285 <test_memory+0x85>
    800008c4:	226a2313          	slti	t1,s4,550
    800008c8:	00aa9f33          	sll	t5,s5,a0
    800008cc:	36a00893          	li	a7,874
    800008d0:	0053a833          	slt	a6,t2,t0
    800008d4:	0231e73b          	remw	a4,gp,gp
    800008d8:	00090493          	mv	s1,s2
    800008dc:	03d50d3b          	mulw	s10,a0,t4
    800008e0:	00109cb3          	sll	s9,ra,ra
    800008e4:	df300a13          	li	s4,-525
    800008e8:	f8158783          	lb	a5,-127(a1)
    800008ec:	c5300d93          	li	s11,-941
    800008f0:	213e841b          	addiw	s0,t4,531
    800008f4:	02d6d9bb          	divuw	s3,a3,a3
    800008f8:	03bb5633          	divu	a2,s6,s11
    800008fc:	0148d23b          	srlw	tp,a7,s4
    80000900:	0040006f          	j	80000904 <reg_dump>

0000000080000904 <reg_dump>:
    80000904:	00002097          	auipc	ra,0x2
    80000908:	cfc08093          	addi	ra,ra,-772 # 80002600 <loop_count>
    8000090c:	0000a103          	lw	sp,0(ra)
    80000910:	fff10193          	addi	gp,sp,-1
    80000914:	0030a023          	sw	gp,0(ra)
    80000918:	920112e3          	bnez	sp,8000023c <pseg_0>
    8000091c:	00001097          	auipc	ra,0x1
    80000920:	7e408093          	addi	ra,ra,2020 # 80002100 <begin_signature>
    80000924:	0000b023          	sd	zero,0(ra)
    80000928:	0020b823          	sd	sp,16(ra)
    8000092c:	0030bc23          	sd	gp,24(ra)
    80000930:	0240b023          	sd	tp,32(ra)
    80000934:	0250b423          	sd	t0,40(ra)
    80000938:	0260b823          	sd	t1,48(ra)
    8000093c:	0270bc23          	sd	t2,56(ra)
    80000940:	0480b023          	sd	s0,64(ra)
    80000944:	0490b423          	sd	s1,72(ra)
    80000948:	04a0b823          	sd	a0,80(ra)
    8000094c:	06c0b023          	sd	a2,96(ra)
    80000950:	06d0b423          	sd	a3,104(ra)
    80000954:	06e0b823          	sd	a4,112(ra)
    80000958:	06f0bc23          	sd	a5,120(ra)
    8000095c:	0900b023          	sd	a6,128(ra)
    80000960:	0910b423          	sd	a7,136(ra)
    80000964:	0920b823          	sd	s2,144(ra)
    80000968:	0930bc23          	sd	s3,152(ra)
    8000096c:	0b40b023          	sd	s4,160(ra)
    80000970:	0b50b423          	sd	s5,168(ra)
    80000974:	0b60b823          	sd	s6,176(ra)
    80000978:	0b70bc23          	sd	s7,184(ra)
    8000097c:	0d80b023          	sd	s8,192(ra)
    80000980:	0d90b423          	sd	s9,200(ra)
    80000984:	0da0b823          	sd	s10,208(ra)
    80000988:	0db0bc23          	sd	s11,216(ra)
    8000098c:	0fc0b023          	sd	t3,224(ra)
    80000990:	0fd0b423          	sd	t4,232(ra)
    80000994:	0fe0b823          	sd	t5,240(ra)
    80000998:	0ff0bc23          	sd	t6,248(ra)
    8000099c:	0200006f          	j	800009bc <test_end>

00000000800009a0 <crash_forward>:
    800009a0:	0ff0000f          	fence
    800009a4:	00018063          	beqz	gp,800009a4 <crash_forward+0x4>
    800009a8:	00119193          	slli	gp,gp,0x1
    800009ac:	0011e193          	ori	gp,gp,1
    800009b0:	05d00893          	li	a7,93
    800009b4:	00018513          	mv	a0,gp
    800009b8:	00000073          	ecall

00000000800009bc <test_end>:
    800009bc:	0ff0000f          	fence
    800009c0:	00100193          	li	gp,1
    800009c4:	05d00893          	li	a7,93
    800009c8:	00000513          	li	a0,0
    800009cc:	00000073          	ecall
    800009d0:	c0001073          	unimp
	...

Disassembly of section .tohost:

0000000080001000 <tohost>:
	...

0000000080001040 <fromhost>:
	...

Disassembly of section .data:

0000000080002000 <hidden_data>:
    80002000:	ffff                	0xffff
    80002002:	ffff                	0xffff
    80002004:	ffff                	0xffff
    80002006:	ffff                	0xffff

0000000080002008 <reg_x1_init>:
    80002008:	ffff                	0xffff
    8000200a:	ffff                	0xffff
    8000200c:	ffff                	0xffff
    8000200e:	ffff                	0xffff

0000000080002010 <reg_x2_init>:
    80002010:	91d6                	add	gp,gp,s5
    80002012:	fcf13563          	0xfcf13563
    80002016:	0070                	addi	a2,sp,12

0000000080002018 <reg_x3_init>:
	...

0000000080002020 <reg_x4_init>:
    80002020:	caea                	sw	s10,84(sp)
    80002022:	131f 74b4 064a      	0x64a74b4131f

0000000080002028 <reg_x5_init>:
    80002028:	0006                	c.slli	zero,0x1
    8000202a:	0000                	unimp
    8000202c:	0000                	unimp
	...

0000000080002030 <reg_x6_init>:
    80002030:	d6a8                	sw	a0,104(a3)
    80002032:	2ebc0e37          	lui	t3,0x2ebc0
    80002036:	175d                	addi	a4,a4,-9

0000000080002038 <reg_x7_init>:
    80002038:	5bf4d1fb          	0x5bf4d1fb
    8000203c:	6fa1                	lui	t6,0x8
    8000203e:	          	bnez	ra,8000204a <reg_x9_init+0x2>

0000000080002040 <reg_x8_init>:
	...

0000000080002048 <reg_x9_init>:
    80002048:	ffff8003          	lb	zero,-1(t6) # 7fff <_start-0x7fff8001>
    8000204c:	ffff                	0xffff
    8000204e:	ffff                	0xffff

0000000080002050 <reg_x10_init>:
    80002050:	ff86                	sd	ra,504(sp)
    80002052:	ffff                	0xffff
    80002054:	ffff                	0xffff
    80002056:	ffff                	0xffff

0000000080002058 <reg_x11_init>:
    80002058:	3ec0                	fld	fs0,184(a3)
    8000205a:	3bc1                	addiw	s7,s7,-16
    8000205c:	20e2                	fld	ft1,24(sp)
    8000205e:	053e                	slli	a0,a0,0xf

0000000080002060 <reg_x12_init>:
    80002060:	32da                	fld	ft5,432(sp)
    80002062:	7609                	lui	a2,0xfffe2
    80002064:	8cf4                	0x8cf4
    80002066:	ea64                	sd	s1,208(a2)

0000000080002068 <reg_x13_init>:
    80002068:	af06                	fsd	ft1,408(sp)
    8000206a:	add4                	fsd	fa3,152(a1)
    8000206c:	9767f3af          	0x9767f3af

0000000080002070 <reg_x14_init>:
    80002070:	8002                	0x8002
    80002072:	ffff                	0xffff
    80002074:	ffff                	0xffff
    80002076:	ffff                	0xffff

0000000080002078 <reg_x15_init>:
    80002078:	0004                	0x4
    8000207a:	0000                	unimp
    8000207c:	0000                	unimp
	...

0000000080002080 <reg_x16_init>:
	...

0000000080002088 <reg_x17_init>:
    80002088:	128d1e77          	0x128d1e77
    8000208c:	ac91                	j	800022e0 <test_memory+0xe0>
    8000208e:	          	0xfcd57143

0000000080002090 <reg_x18_init>:
    80002090:	fcd5                	bnez	s1,8000204c <reg_x9_init+0x4>
    80002092:	ccb6                	sw	a3,88(sp)
    80002094:	6095                	lui	ra,0x5
    80002096:	87de                	mv	a5,s7

0000000080002098 <reg_x19_init>:
    80002098:	dba0                	sw	s0,112(a5)
    8000209a:	b778                	fsd	fa4,232(a4)
    8000209c:	7d56                	ld	s10,368(sp)
    8000209e:	40ec                	lw	a1,68(s1)

00000000800020a0 <reg_x20_init>:
    800020a0:	1155                	addi	sp,sp,-11
    800020a2:	fcdd                	bnez	s1,80002060 <reg_x12_init>
    800020a4:	b9e4                	fsd	fs1,240(a1)
    800020a6:	          	jal	t6,7ff728aa <_start-0x8d756>

00000000800020a8 <reg_x21_init>:
    800020a8:	37258057          	0x37258057
    800020ac:	e7ce                	sd	s3,456(sp)
    800020ae:	5c7d                	li	s8,-1

00000000800020b0 <reg_x22_init>:
	...

00000000800020b8 <reg_x23_init>:
    800020b8:	f24ebaab          	0xf24ebaab
    800020bc:	9110                	0x9110
    800020be:	1f28                	addi	a0,sp,952

00000000800020c0 <reg_x24_init>:
    800020c0:	0001                	nop
    800020c2:	0000                	unimp
    800020c4:	0000                	unimp
    800020c6:	0800                	addi	s0,sp,16

00000000800020c8 <reg_x25_init>:
    800020c8:	d8c1                	beqz	s1,80002058 <reg_x11_init>
    800020ca:	9739                	srai	a4,a4,0x2e
    800020cc:	9a30                	0x9a30
    800020ce:	95de                	add	a1,a1,s7

00000000800020d0 <reg_x26_init>:
	...

00000000800020d8 <reg_x27_init>:
    800020d8:	0004                	0x4
    800020da:	0000                	unimp
    800020dc:	0000                	unimp
	...

00000000800020e0 <reg_x28_init>:
	...

00000000800020e8 <reg_x29_init>:
    800020e8:	7170                	ld	a2,224(a0)
    800020ea:	542c                	lw	a1,104(s0)
    800020ec:	e836                	sd	a3,16(sp)
    800020ee:	7199                	lui	gp,0xfffe6

00000000800020f0 <reg_x30_init>:
	...

00000000800020f8 <reg_x31_init>:
    800020f8:	8da4                	0x8da4
    800020fa:	fdf83493          	sltiu	s1,a6,-33
    800020fe:	beff                	0xbeff

0000000080002100 <begin_signature>:
    80002100:	97a6                	add	a5,a5,s1
    80002102:	5cac                	lw	a1,120(s1)
    80002104:	0762                	slli	a4,a4,0x18
    80002106:	344e                	fld	fs0,240(sp)

0000000080002108 <reg_x1_output>:
    80002108:	2abd                	addiw	s5,s5,15
    8000210a:	94fe9cbb          	0x94fe9cbb
    8000210e:	          	0xf2ced493

0000000080002110 <reg_x2_output>:
    80002110:	f2ce                	sd	s3,352(sp)
    80002112:	8b5f 8798 9a05      	0x9a0587988b5f

0000000080002118 <reg_x3_output>:
    80002118:	032d                	addi	t1,t1,11
    8000211a:	becdff4b          	fnmsub.q	ft10,fs11,fa2,fs7
    8000211e:	          	0xb356edfb

0000000080002120 <reg_x4_output>:
    80002120:	b356                	fsd	fs5,416(sp)
    80002122:	d4ee                	sw	s11,104(sp)
    80002124:	0e32                	slli	t3,t3,0xc
    80002126:	339d                	addiw	t2,t2,-25

0000000080002128 <reg_x5_output>:
    80002128:	6e4d                	lui	t3,0x13
    8000212a:	1130                	addi	a2,sp,168
    8000212c:	d7d37d3b          	0xd7d37d3b

0000000080002130 <reg_x6_output>:
    80002130:	77e5                	lui	a5,0xffff9
    80002132:	8978aa33          	0x8978aa33
    80002136:	3a55                	addiw	s4,s4,-11

0000000080002138 <reg_x7_output>:
    80002138:	7eec                	ld	a1,248(a3)
    8000213a:	ae44                	fsd	fs1,152(a2)
    8000213c:	d95d                	beqz	a0,800020f2 <reg_x30_init+0x2>
    8000213e:	e7c4                	sd	s1,136(a5)

0000000080002140 <reg_x8_output>:
    80002140:	7e95                	lui	t4,0xfffe5
    80002142:	cb1a                	sw	t1,148(sp)
    80002144:	d05d1de7          	0xd05d1de7

0000000080002148 <reg_x9_output>:
    80002148:	2e9a                	fld	ft9,384(sp)
    8000214a:	a50d                	j	8000276c <_end+0x15c>
    8000214c:	4bdd                	li	s7,23
    8000214e:	          	0x60e622fb

0000000080002150 <reg_x10_output>:
    80002150:	60e6                	ld	ra,88(sp)
    80002152:	7c76                	ld	s8,376(sp)
    80002154:	697f                	0x697f
    80002156:	ce2c                	sw	a1,88(a2)

0000000080002158 <reg_x11_output>:
    80002158:	fcc6                	sd	a7,120(sp)
    8000215a:	25d5                	addiw	a1,a1,21
    8000215c:	fbde                	sd	s7,496(sp)
    8000215e:	2784                	fld	fs1,8(a5)

0000000080002160 <reg_x12_output>:
    80002160:	1af6                	slli	s5,s5,0x3d
    80002162:	c6d0                	sw	a2,12(a3)
    80002164:	3739                	addiw	a4,a4,-18
    80002166:	2d5e                	fld	fs10,464(sp)

0000000080002168 <reg_x13_output>:
    80002168:	e9caeb07          	0xe9caeb07
    8000216c:	8814                	0x8814
    8000216e:	8d4e                	mv	s10,s3

0000000080002170 <reg_x14_output>:
    80002170:	d1ee                	sw	s11,224(sp)
    80002172:	66d93dd3          	0x66d93dd3
    80002176:	6350                	ld	a2,128(a4)

0000000080002178 <reg_x15_output>:
    80002178:	6ab9                	lui	s5,0xe
    8000217a:	39d6                	fld	fs3,368(sp)
    8000217c:	be3e                	fsd	fa5,312(sp)
    8000217e:	          	0xdbf14af

0000000080002180 <reg_x16_output>:
    80002180:	a41f0dbf 0d850ce4 	0xd850ce4a41f0dbf

0000000080002188 <reg_x17_output>:
    80002188:	0fcc                	addi	a1,sp,980
    8000218a:	5ff8                	lw	a4,124(a5)
    8000218c:	f701e4b3          	0xf701e4b3

0000000080002190 <reg_x18_output>:
    80002190:	5a0e                	lw	s4,224(sp)
    80002192:	ea4c                	sd	a1,144(a2)
    80002194:	cba70ef3          	0xcba70ef3

0000000080002198 <reg_x19_output>:
    80002198:	1cd8                	addi	a4,sp,628
    8000219a:	7a53a2d3          	0x7a53a2d3
    8000219e:	ea1e                	sd	t2,272(sp)

00000000800021a0 <reg_x20_output>:
    800021a0:	826c                	0x826c
    800021a2:	c02a8563          	beq	s5,sp,800015ac <fromhost+0x56c>
    800021a6:	e785                	bnez	a5,800021ce <reg_x25_output+0x6>

00000000800021a8 <reg_x21_output>:
    800021a8:	3f913c73          	csrrc	s8,0x3f9,sp
    800021ac:	90ad                	srli	s1,s1,0x2b
    800021ae:	          	0xddca5c2f

00000000800021b0 <reg_x22_output>:
    800021b0:	ddca                	sw	s2,248(sp)
    800021b2:	5794                	lw	a3,40(a5)
    800021b4:	4204                	lw	s1,0(a2)
    800021b6:	          	0xfbc61e8f

00000000800021b8 <reg_x23_output>:
    800021b8:	fbc6                	sd	a7,496(sp)
    800021ba:	0b26                	slli	s6,s6,0x9
    800021bc:	f8292457          	0xf8292457

00000000800021c0 <reg_x24_output>:
    800021c0:	89995d2b          	0x89995d2b
    800021c4:	2a89ad4f          	fnmadd.d	fs10,fs3,fs0,ft5,rdn

00000000800021c8 <reg_x25_output>:
    800021c8:	da5e                	sw	s7,52(sp)
    800021ca:	6ecc                	ld	a1,152(a3)
    800021cc:	179e                	slli	a5,a5,0x27
    800021ce:	26d5                	addiw	a3,a3,21

00000000800021d0 <reg_x26_output>:
    800021d0:	d278519b          	0xd278519b
    800021d4:	477e                	lw	a4,220(sp)
    800021d6:	          	fmsub.d	fs1,ft10,fs3,ft0

00000000800021d8 <reg_x27_output>:
    800021d8:	5d59033f 62d1b364 	0x62d1b3645d59033f

00000000800021e0 <reg_x28_output>:
    800021e0:	1d5f 120f 481f      	0x481f120f1d5f
    800021e6:	2012                	fld	ft0,256(sp)

00000000800021e8 <reg_x29_output>:
    800021e8:	0553033f 617cd244 	0x617cd2440553033f

00000000800021f0 <reg_x30_output>:
    800021f0:	446d                	li	s0,27
    800021f2:	8fc6                	mv	t6,a7
    800021f4:	f2a1                	bnez	a3,80002134 <reg_x6_output+0x4>
    800021f6:	7e50                	ld	a2,184(a2)

00000000800021f8 <reg_x31_output>:
    800021f8:	1090                	addi	a2,sp,96
    800021fa:	575c                	lw	a5,44(a4)
    800021fc:	19fa                	slli	s3,s3,0x3e
    800021fe:	35c4                	fld	fs1,168(a1)

0000000080002200 <test_memory>:
    80002200:	901e                	c.add	zero,t2
    80002202:	15a2                	slli	a1,a1,0x28
    80002204:	4fab0863          	beq	s6,s10,800026f4 <_end+0xe4>
    80002208:	b79d                	j	8000216e <reg_x13_output+0x6>
    8000220a:	e700bf1b          	0xe700bf1b
    8000220e:	3e74                	fld	fa3,248(a2)
    80002210:	3a21                	addiw	s4,s4,-24
    80002212:	e798                	sd	a4,8(a5)
    80002214:	d6ea                	sw	s10,108(sp)
    80002216:	4e05                	li	t3,1
    80002218:	011a                	slli	sp,sp,0x6
    8000221a:	7f8a                	ld	t6,160(sp)
    8000221c:	ce7d                	beqz	a2,8000231a <test_memory+0x11a>
    8000221e:	5e2c                	lw	a1,120(a2)
    80002220:	daf152b3          	0xdaf152b3
    80002224:	666e                	ld	a2,216(sp)
    80002226:	893c                	0x893c
    80002228:	6556                	ld	a0,336(sp)
    8000222a:	2f6d                	addiw	t5,t5,27
    8000222c:	41b5da5b          	0x41b5da5b
    80002230:	d60c                	sw	a1,40(a2)
    80002232:	8c9ca0f7          	0x8c9ca0f7
    80002236:	bacd                	j	80001c28 <fromhost+0xbe8>
    80002238:	997420d3          	0x997420d3
    8000223c:	e3b5                	bnez	a5,800022a0 <test_memory+0xa0>
    8000223e:	251c58a7          	0x251c58a7
    80002242:	e7977627          	0xe7977627
    80002246:	c311                	beqz	a4,8000224a <test_memory+0x4a>
    80002248:	59b5be17          	auipc	t3,0x59b5b
    8000224c:	af7c                	fsd	fa5,216(a4)
    8000224e:	3dda                	fld	fs11,432(sp)
    80002250:	8b2fd577          	0x8b2fd577
    80002254:	053e                	slli	a0,a0,0xf
    80002256:	02a8                	addi	a0,sp,328
    80002258:	e8c4                	sd	s1,144(s1)
    8000225a:	a1e2                	fsd	fs8,192(sp)
    8000225c:	b150                	fsd	fa2,160(a0)
    8000225e:	27ca                	fld	fa5,144(sp)
    80002260:	0c8c                	addi	a1,sp,592
    80002262:	9254                	0x9254
    80002264:	3ab4                	fld	fa3,112(a3)
    80002266:	c8e5                	beqz	s1,80002356 <test_memory+0x156>
    80002268:	dde6                	sw	s9,248(sp)
    8000226a:	9336                	add	t1,t1,a3
    8000226c:	98b1                	andi	s1,s1,-20
    8000226e:	3ecc                	fld	fa1,184(a3)
    80002270:	da1d                	beqz	a2,800021a6 <reg_x20_output+0x6>
    80002272:	4151                	li	sp,20
    80002274:	f01d                	bnez	s0,8000219a <reg_x19_output+0x2>
    80002276:	effd                	bnez	a5,80002374 <test_memory+0x174>
    80002278:	0d8c                	addi	a1,sp,720
    8000227a:	2a9f 0c5d 760a      	0x760a0c5d2a9f
    80002280:	617445eb          	0x617445eb
    80002284:	64a5                	lui	s1,0x9
    80002286:	5180                	lw	s0,32(a1)
    80002288:	c199                	beqz	a1,8000228e <test_memory+0x8e>
    8000228a:	35c2                	fld	fa1,48(sp)
    8000228c:	37f0                	fld	fa2,232(a5)
    8000228e:	6f04                	ld	s1,24(a4)
    80002290:	04b0                	addi	a2,sp,584
    80002292:	2ec53bbb          	0x2ec53bbb
    80002296:	9de9                	0x9de9
    80002298:	a7dddddb          	0xa7dddddb
    8000229c:	9bff0fcf          	fnmadd.d	ft11,ft10,ft11,fs3,rne
    800022a0:	0851                	addi	a6,a6,20
    800022a2:	0994                	addi	a3,sp,208
    800022a4:	fcc9                	bnez	s1,8000223e <test_memory+0x3e>
    800022a6:	70c8                	ld	a0,160(s1)
    800022a8:	0d5c                	addi	a5,sp,660
    800022aa:	b8ff                	0xb8ff
    800022ac:	fe826f4b          	fnmsub.q	ft10,ft4,fs0,ft11,unknown
    800022b0:	42a15f53          	0x42a15f53
    800022b4:	598c                	lw	a1,48(a1)
    800022b6:	f0f81c67          	0xf0f81c67
    800022ba:	e26a                	sd	s10,256(sp)
    800022bc:	7500                	ld	s0,40(a0)
    800022be:	a24c                	fsd	fa1,128(a2)
    800022c0:	178e                	slli	a5,a5,0x23
    800022c2:	88b9                	andi	s1,s1,14
    800022c4:	7984                	ld	s1,48(a1)
    800022c6:	8446                	mv	s0,a7
    800022c8:	3ceb232f          	0x3ceb232f
    800022cc:	c17f                	0xc17f
    800022ce:	14e2                	slli	s1,s1,0x38
    800022d0:	1821                	addi	a6,a6,-24
    800022d2:	ebf4                	sd	a3,208(a5)
    800022d4:	5406                	lw	s0,96(sp)
    800022d6:	a1a8                	fsd	fa0,64(a1)
    800022d8:	253c                	fld	fa5,72(a0)
    800022da:	4ae9                	li	s5,26
    800022dc:	7c2c                	ld	a1,120(s0)
    800022de:	3ca6                	fld	fs9,104(sp)
    800022e0:	26a6                	fld	fa3,72(sp)
    800022e2:	d47c                	sw	a5,108(s0)
    800022e4:	a8758cc3          	fmadd.s	fs9,fa1,ft7,fs5,rne
    800022e8:	8966                	mv	s2,s9
    800022ea:	6da2                	ld	s11,8(sp)
    800022ec:	4268                	lw	a0,68(a2)
    800022ee:	e229                	bnez	a2,80002330 <test_memory+0x130>
    800022f0:	8ba5                	andi	a5,a5,9
    800022f2:	0e18                	addi	a4,sp,784
    800022f4:	f192                	sd	tp,224(sp)
    800022f6:	a9ea                	fsd	fs10,208(sp)
    800022f8:	ee95                	bnez	a3,80002334 <test_memory+0x134>
    800022fa:	5bc4                	lw	s1,52(a5)
    800022fc:	64f2                	ld	s1,280(sp)
    800022fe:	0a4d29bf 9070ed7c 	0x9070ed7c0a4d29bf
    80002306:	7d7a                	ld	s10,440(sp)
    80002308:	ed95a127          	fsw	fs9,-318(a1)
    8000230c:	1788                	addi	a0,sp,992
    8000230e:	f42e                	sd	a1,40(sp)
    80002310:	1f60                	addi	s0,sp,956
    80002312:	f84e                	sd	s3,48(sp)
    80002314:	6399a9cb          	fnmsub.d	fs3,fs3,fs9,fa2,rdn
    80002318:	f504                	sd	s1,40(a0)
    8000231a:	90b1                	srli	s1,s1,0x2c
    8000231c:	76d5                	lui	a3,0xffff5
    8000231e:	5a1a                	lw	s4,164(sp)
    80002320:	ba14bb6f          	jal	s6,7ff4dec0 <_start-0xb2140>
    80002324:	02fe                	slli	t0,t0,0x1f
    80002326:	8205                	srli	a2,a2,0x1
    80002328:	20b2acef          	jal	s9,8002cd32 <__global_pointer$+0x29f22>
    8000232c:	8888                	0x8888
    8000232e:	10c8                	addi	a0,sp,100
    80002330:	d0c2ec47          	fmsub.s	fs8,ft5,fa2,fs10,unknown
    80002334:	5d18                	lw	a4,56(a0)
    80002336:	0999                	addi	s3,s3,6
    80002338:	031f bbce 99bf      	0x99bfbbce031f
    8000233e:	29abbe07          	fld	ft8,666(s7)
    80002342:	bf04                	fsd	fs1,56(a4)
    80002344:	13e1                	addi	t2,t2,-8
    80002346:	9376                	add	t1,t1,t4
    80002348:	270e                	fld	fa4,192(sp)
    8000234a:	4839                	li	a6,14
    8000234c:	9fb0                	0x9fb0
    8000234e:	3942f71b          	0x3942f71b
    80002352:	291eafa3          	sw	a7,671(t4) # fffffffffffe529f <__global_pointer$+0xffffffff7ffe248f>
    80002356:	59fc                	lw	a5,116(a1)
    80002358:	4490                	lw	a2,8(s1)
    8000235a:	7e7da9c3          	fmadd.q	fs3,fs11,ft7,fa5,rdn
    8000235e:	a149                	j	800027e0 <_end+0x1d0>
    80002360:	ddd2                	sw	s4,248(sp)
    80002362:	37e6                	fld	fa5,120(sp)
    80002364:	4014                	lw	a3,0(s0)
    80002366:	329c                	fld	fa5,32(a3)
    80002368:	6826                	ld	a6,72(sp)
    8000236a:	5c31                	li	s8,-20
    8000236c:	5a6d                	li	s4,-5
    8000236e:	94a6                	add	s1,s1,s1
    80002370:	c5ae                	sw	a1,200(sp)
    80002372:	edad                	bnez	a1,800023ec <test_memory+0x1ec>
    80002374:	4d48                	lw	a0,28(a0)
    80002376:	2b8a                	fld	fs7,128(sp)
    80002378:	1783d493          	0x1783d493
    8000237c:	573e                	lw	a4,236(sp)
    8000237e:	0928                	addi	a0,sp,152
    80002380:	6c6d                	lui	s8,0x1b
    80002382:	a4b6                	fsd	fa3,72(sp)
    80002384:	fe90                	sd	a2,56(a3)
    80002386:	0495                	addi	s1,s1,5
    80002388:	9db0                	0x9db0
    8000238a:	f4c2                	sd	a6,104(sp)
    8000238c:	6cf969d3          	0x6cf969d3
    80002390:	e3dc                	sd	a5,128(a5)
    80002392:	a416                	fsd	ft5,8(sp)
    80002394:	1f46                	slli	t5,t5,0x31
    80002396:	9c7c40d3          	0x9c7c40d3
    8000239a:	f578                	sd	a4,232(a0)
    8000239c:	2015                	0x2015
    8000239e:	b8359ff3          	csrrw	t6,mhpmcounter3h,a1
    800023a2:	7cda9cb3          	0x7cda9cb3
    800023a6:	a7ad                	j	80002b10 <_end+0x500>
    800023a8:	e2e11077          	0xe2e11077
    800023ac:	2d348317          	auipc	t1,0x2d348
    800023b0:	6390                	ld	a2,0(a5)
    800023b2:	8ac4                	0x8ac4
    800023b4:	dbb80f8b          	0xdbb80f8b
    800023b8:	d53d822f          	0xd53d822f
    800023bc:	777c                	ld	a5,232(a4)
    800023be:	5731                	li	a4,-20
    800023c0:	0499                	addi	s1,s1,6
    800023c2:	6b759a67          	0x6b759a67
    800023c6:	bb1a5c3f 4015cd0e 	0x4015cd0ebb1a5c3f
    800023ce:	a6ad                	j	80002738 <_end+0x128>
    800023d0:	4c82                	lw	s9,0(sp)
    800023d2:	392c                	fld	fa1,112(a0)
    800023d4:	40a3bdcf          	fnmadd.s	fs11,ft7,fa0,fs0,rup
    800023d8:	e6a6                	sd	s1,328(sp)
    800023da:	2844                	fld	fs1,144(s0)
    800023dc:	100806cf          	fnmadd.s	fa3,fa6,ft0,ft2,rne
    800023e0:	7f9fd83b          	0x7f9fd83b
    800023e4:	da6d                	beqz	a2,800023d6 <test_memory+0x1d6>
    800023e6:	31fe                	fld	ft3,504(sp)
    800023e8:	308e                	fld	ft1,224(sp)
    800023ea:	4228                	lw	a0,64(a2)
    800023ec:	8fca                	mv	t6,s2
    800023ee:	b661                	j	80001f76 <fromhost+0xf36>
    800023f0:	68e0                	ld	s0,208(s1)
    800023f2:	4d60                	lw	s0,92(a0)
    800023f4:	4cdf1d8b          	0x4cdf1d8b
    800023f8:	a6fc746f          	jal	s0,7ffc9e66 <_start-0x3619a>
    800023fc:	47917acb          	fnmsub.q	fs5,ft2,fs9,fs0
    80002400:	c39eaf73          	csrrs	t5,0xc39,t4
    80002404:	25ca                	fld	fa1,144(sp)
    80002406:	6228                	ld	a0,64(a2)
    80002408:	d29a                	sw	t1,100(sp)
    8000240a:	b6d83977          	0xb6d83977
    8000240e:	9fcbf117          	auipc	sp,0x9fcbf
    80002412:	2410                	fld	fa2,8(s0)
    80002414:	aa7e                	fsd	ft11,272(sp)
    80002416:	7fb6                	ld	t6,360(sp)
    80002418:	d14d3e2b          	0xd14d3e2b
    8000241c:	0c18                	addi	a4,sp,528
    8000241e:	fb2e                	sd	a1,432(sp)
    80002420:	98d27ecb          	fnmsub.s	ft9,ft4,fa3,fs3
    80002424:	f222                	sd	s0,288(sp)
    80002426:	3f74                	fld	fa3,248(a4)
    80002428:	585a                	lw	a6,180(sp)
    8000242a:	e489                	bnez	s1,80002434 <test_memory+0x234>
    8000242c:	464de003          	lwu	zero,1124(s11)
    80002430:	1fd5                	addi	t6,t6,-11
    80002432:	9b8e                	add	s7,s7,gp
    80002434:	ad2c                	fsd	fa1,88(a0)
    80002436:	5a61                	li	s4,-8
    80002438:	2d11                	addiw	s10,s10,4
    8000243a:	fa91                	bnez	a3,8000234e <test_memory+0x14e>
    8000243c:	97bc                	0x97bc
    8000243e:	0581b70b          	0x581b70b
    80002442:	dad4                	sw	a3,52(a3)
    80002444:	3908                	fld	fa0,48(a0)
    80002446:	a4bdace3          	0xa4bdace3
    8000244a:	3cba0c77          	0x3cba0c77
    8000244e:	59892e5b          	0x59892e5b
    80002452:	d319                	beqz	a4,80002358 <test_memory+0x158>
    80002454:	8f5e                	mv	t5,s7
    80002456:	c6dd                	beqz	a3,80002504 <test_memory+0x304>
    80002458:	bf68                	fsd	fa0,248(a4)
    8000245a:	47a5bc57          	0x47a5bc57
    8000245e:	0768                	addi	a0,sp,908
    80002460:	f008                	sd	a0,32(s0)
    80002462:	4088                	lw	a0,0(s1)
    80002464:	5ca16597          	auipc	a1,0x5ca16
    80002468:	f1aeed07          	0xf1aeed07
    8000246c:	b586                	fsd	ft1,232(sp)
    8000246e:	6264                	ld	s1,192(a2)
    80002470:	f704c9e3          	blt	s1,a6,800023e2 <test_memory+0x1e2>
    80002474:	409d                	li	ra,7
    80002476:	17104a2f          	0x17104a2f
    8000247a:	fc94                	sd	a3,56(s1)
    8000247c:	cb21                	beqz	a4,800024cc <test_memory+0x2cc>
    8000247e:	5351                	li	t1,-12
    80002480:	2198ca87          	flq	fs5,537(a7)
    80002484:	80e9                	srli	s1,s1,0x1a
    80002486:	30b1                	addiw	ra,ra,-20
    80002488:	2f50                	fld	fa2,152(a4)
    8000248a:	ca5d                	beqz	a2,80002540 <test_memory+0x340>
    8000248c:	2a9c                	fld	fa5,16(a3)
    8000248e:	94d48f07          	0x94d48f07
    80002492:	f176                	sd	t4,160(sp)
    80002494:	aab8                	fsd	fa4,80(a3)
    80002496:	22bc                	fld	fa5,64(a3)
    80002498:	57fa                	lw	a5,188(sp)
    8000249a:	ed0e                	sd	gp,152(sp)
    8000249c:	1f65                	addi	t5,t5,-7
    8000249e:	c3587de3          	bgeu	a6,s5,800020d8 <reg_x27_init>
    800024a2:	199d                	addi	s3,s3,-25
    800024a4:	6ea1                	lui	t4,0x8
    800024a6:	f715                	bnez	a4,800023d2 <test_memory+0x1d2>
    800024a8:	f902                	sd	zero,176(sp)
    800024aa:	890a                	mv	s2,sp
    800024ac:	4452                	lw	s0,20(sp)
    800024ae:	ecd9                	bnez	s1,8000254c <test_memory+0x34c>
    800024b0:	efc0                	sd	s0,152(a5)
    800024b2:	46d2                	lw	a3,20(sp)
    800024b4:	3645                	addiw	a2,a2,-15
    800024b6:	17b0                	addi	a2,sp,1000
    800024b8:	8b3256ab          	0x8b3256ab
    800024bc:	e80a                	sd	sp,16(sp)
    800024be:	8942                	mv	s2,a6
    800024c0:	3d8a                	fld	fs11,160(sp)
    800024c2:	3962f6bb          	0x3962f6bb
    800024c6:	6396                	ld	t2,320(sp)
    800024c8:	7d5e                	ld	s10,496(sp)
    800024ca:	8a16                	mv	s4,t0
    800024cc:	d3a2                	sw	s0,228(sp)
    800024ce:	2c26                	fld	fs8,72(sp)
    800024d0:	5bff                	0x5bff
    800024d2:	7c19                	lui	s8,0xfffe6
    800024d4:	aa985f17          	auipc	t5,0xaa985
    800024d8:	96be                	add	a3,a3,a5
    800024da:	3095                	addiw	ra,ra,-27
    800024dc:	dce4578b          	0xdce4578b
    800024e0:	3360                	fld	fs0,224(a4)
    800024e2:	ac84                	fsd	fs1,24(s1)
    800024e4:	6f59                	lui	t5,0x16
    800024e6:	9978                	0x9978
    800024e8:	fbf8                	sd	a4,240(a5)
    800024ea:	240a                	fld	fs0,128(sp)
    800024ec:	ab87c2ab          	0xab87c2ab
    800024f0:	b15f 24be 58cb      	0x58cb24beb15f
    800024f6:	90b5                	srli	s1,s1,0x2d
    800024f8:	995f b5ce a7c7      	0xa7c7b5ce995f
    800024fe:	becc                	fsd	fa1,184(a3)
    80002500:	68d0                	ld	a2,144(s1)
    80002502:	8eb2775b          	0x8eb2775b
    80002506:	7737cfaf          	0x7737cfaf
    8000250a:	dc0e                	sw	gp,56(sp)
    8000250c:	952c                	0x952c
    8000250e:	8334                	0x8334
    80002510:	f8a0                	sd	s0,112(s1)
    80002512:	1ccd                	addi	s9,s9,-13
    80002514:	c341                	beqz	a4,80002594 <test_memory+0x394>
    80002516:	d5a6                	sw	s1,232(sp)
    80002518:	7bd0                	ld	a2,176(a5)
    8000251a:	22858277          	0x22858277
    8000251e:	05df 6e05 f7b7      	0xf7b76e0505df
    80002524:	9a62821b          	addiw	tp,t0,-1626
    80002528:	bad6                	fsd	fs5,368(sp)
    8000252a:	2cdf 790e 893a      	0x893a790e2cdf
    80002530:	835a15f7          	0x835a15f7
    80002534:	6f19                	lui	t5,0x6
    80002536:	e5e7cd6b          	0xe5e7cd6b
    8000253a:	a675                	j	800028e6 <_end+0x2d6>
    8000253c:	0971b9eb          	0x971b9eb
    80002540:	71de                	ld	gp,496(sp)
    80002542:	cff4                	sw	a3,92(a5)
    80002544:	2d4c                	fld	fa1,152(a0)
    80002546:	b2662cd3          	0xb2662cd3
    8000254a:	641e                	ld	s0,448(sp)
    8000254c:	e6da                	sd	s6,328(sp)
    8000254e:	14f0                	addi	a2,sp,620
    80002550:	438c                	lw	a1,0(a5)
    80002552:	c08a                	sw	sp,64(sp)
    80002554:	323e                	fld	ft4,488(sp)
    80002556:	07e5                	addi	a5,a5,25
    80002558:	488e                	lw	a7,192(sp)
    8000255a:	c1e2                	sw	s8,192(sp)
    8000255c:	58ac3107          	fld	ft2,1418(s8) # fffffffffffe658a <__global_pointer$+0xffffffff7ffe377a>
    80002560:	e46c                	sd	a1,200(s0)
    80002562:	3a9d                	addiw	s5,s5,-25
    80002564:	097e                	slli	s2,s2,0x1f
    80002566:	0fca76fb          	0xfca76fb
    8000256a:	16d9                	addi	a3,a3,-10
    8000256c:	f252d23f 41cb5bfb 	0x41cb5bfbf252d23f
    80002574:	cc52cc5b          	0xcc52cc5b
    80002578:	6c42                	ld	s8,16(sp)
    8000257a:	1228                	addi	a0,sp,296
    8000257c:	d448                	sw	a0,44(s0)
    8000257e:	e978d273          	csrrwi	tp,0xe97,17
    80002582:	2259                	addiw	tp,tp,22
    80002584:	d1ee                	sw	s11,224(sp)
    80002586:	5a6e                	lw	s4,248(sp)
    80002588:	41b9                	li	gp,14
    8000258a:	1395                	addi	t2,t2,-27
    8000258c:	6a8d                	lui	s5,0x3
    8000258e:	a81d                	j	800025c4 <test_memory+0x3c4>
    80002590:	9deff4d7          	0x9deff4d7
    80002594:	3f71db5b          	0x3f71db5b
    80002598:	4f95                	li	t6,5
    8000259a:	c201743b          	0xc201743b
    8000259e:	4ce5                	li	s9,25
    800025a0:	9afa                	add	s5,s5,t5
    800025a2:	7fe0                	ld	s0,248(a5)
    800025a4:	525b405b          	0x525b405b
    800025a8:	8555ba3f edd66b3c 	0xedd66b3c8555ba3f
    800025b0:	82494923          	0x82494923
    800025b4:	dff5                	beqz	a5,800025b0 <test_memory+0x3b0>
    800025b6:	3b3a                	fld	fs6,424(sp)
    800025b8:	55ad                	li	a1,-21
    800025ba:	8cf6                	mv	s9,t4
    800025bc:	c2ea                	sw	s10,68(sp)
    800025be:	19a1                	addi	s3,s3,-24
    800025c0:	25a91ba3          	sh	s10,599(s2)
    800025c4:	d98d                	beqz	a1,800024f6 <test_memory+0x2f6>
    800025c6:	d2ac                	sw	a1,96(a3)
    800025c8:	853c                	0x853c
    800025ca:	304e                	fld	ft0,240(sp)
    800025cc:	f11bfc67          	0xf11bfc67
    800025d0:	2102f3d7          	0x2102f3d7
    800025d4:	5220                	lw	s0,96(a2)
    800025d6:	0b69                	addi	s6,s6,26
    800025d8:	c4c2                	sw	a6,72(sp)
    800025da:	9205                	srli	a2,a2,0x21
    800025dc:	b2a1                	j	80001f24 <fromhost+0xee4>
    800025de:	79545a67          	0x79545a67
    800025e2:	ac36                	fsd	fa3,24(sp)
    800025e4:	52b4c9cb          	fnmsub.d	fs3,fs1,fa1,fa0,rmm
    800025e8:	4e472ee3          	0x4e472ee3
    800025ec:	234a                	fld	ft6,144(sp)
    800025ee:	d3e0                	sw	s0,100(a5)
    800025f0:	7a61                	lui	s4,0xffff8
    800025f2:	c593d84b          	0xc593d84b
    800025f6:	b641                	j	80002176 <reg_x14_output+0x6>
    800025f8:	5ef094a3          	sh	a5,1513(ra) # 55e9 <_start-0x7fffaa17>
    800025fc:	47c97827          	0x47c97827

0000000080002600 <loop_count>:
    80002600:	0040                	addi	s0,sp,4
	...

Disassembly of section .riscv.attributes:

0000000000000000 <.riscv.attributes>:
   0:	1e41                	addi	t3,t3,-16
   2:	0000                	unimp
   4:	7200                	ld	s0,32(a2)
   6:	7369                	lui	t1,0xffffa
   8:	01007663          	bgeu	zero,a6,14 <_start-0x7fffffec>
   c:	0014                	0x14
   e:	0000                	unimp
  10:	7205                	lui	tp,0xfffe1
  12:	3676                	fld	fa2,376(sp)
  14:	6934                	ld	a3,80(a0)
  16:	7032                	0x7032
  18:	5f30                	lw	a2,120(a4)
  1a:	326d                	addiw	tp,tp,-5
  1c:	3070                	fld	fa2,224(s0)
	...
