
build/test38:     file format elf64-littleriscv


Disassembly of section .text.init:

0000000080000000 <_start>:
    80000000:	05c0006f          	j	8000005c <reset_vector>

0000000080000004 <trap_vector>:
    80000004:	34202f73          	csrr	t5,mcause
    80000008:	00800f93          	li	t6,8
    8000000c:	03ff0a63          	beq	t5,t6,80000040 <write_tohost>
    80000010:	00900f93          	li	t6,9
    80000014:	03ff0663          	beq	t5,t6,80000040 <write_tohost>
    80000018:	00b00f93          	li	t6,11
    8000001c:	03ff0263          	beq	t5,t6,80000040 <write_tohost>
    80000020:	80000f17          	auipc	t5,0x80000
    80000024:	fe0f0f13          	addi	t5,t5,-32 # 0 <_start-0x80000000>
    80000028:	000f0463          	beqz	t5,80000030 <trap_vector+0x2c>
    8000002c:	000f0067          	jr	t5
    80000030:	34202f73          	csrr	t5,mcause
    80000034:	000f5463          	bgez	t5,8000003c <handle_exception>
    80000038:	0040006f          	j	8000003c <handle_exception>

000000008000003c <handle_exception>:
    8000003c:	5391e193          	ori	gp,gp,1337

0000000080000040 <write_tohost>:
    80000040:	00001f17          	auipc	t5,0x1
    80000044:	fc3f2023          	sw	gp,-64(t5) # 80001000 <tohost>
    80000048:	000902b7          	lui	t0,0x90
    8000004c:	0012829b          	addiw	t0,t0,1
    80000050:	00c29293          	slli	t0,t0,0xc
    80000054:	0002af83          	lw	t6,0(t0) # 90000 <_start-0x7ff70000>
    80000058:	fe9ff06f          	j	80000040 <write_tohost>

000000008000005c <reset_vector>:
    8000005c:	00000093          	li	ra,0
    80000060:	00000113          	li	sp,0
    80000064:	00000193          	li	gp,0
    80000068:	00000213          	li	tp,0
    8000006c:	00000293          	li	t0,0
    80000070:	00000313          	li	t1,0
    80000074:	00000393          	li	t2,0
    80000078:	00000413          	li	s0,0
    8000007c:	00000493          	li	s1,0
    80000080:	00000513          	li	a0,0
    80000084:	00000593          	li	a1,0
    80000088:	00000613          	li	a2,0
    8000008c:	00000693          	li	a3,0
    80000090:	00000713          	li	a4,0
    80000094:	00000793          	li	a5,0
    80000098:	00000813          	li	a6,0
    8000009c:	00000893          	li	a7,0
    800000a0:	00000913          	li	s2,0
    800000a4:	00000993          	li	s3,0
    800000a8:	00000a13          	li	s4,0
    800000ac:	00000a93          	li	s5,0
    800000b0:	00000b13          	li	s6,0
    800000b4:	00000b93          	li	s7,0
    800000b8:	00000c13          	li	s8,0
    800000bc:	00000c93          	li	s9,0
    800000c0:	00000d13          	li	s10,0
    800000c4:	00000d93          	li	s11,0
    800000c8:	00000e13          	li	t3,0
    800000cc:	00000e93          	li	t4,0
    800000d0:	00000f13          	li	t5,0
    800000d4:	00000f93          	li	t6,0
    800000d8:	f1402573          	csrr	a0,mhartid
    800000dc:	00051063          	bnez	a0,800000dc <reset_vector+0x80>
    800000e0:	00000297          	auipc	t0,0x0
    800000e4:	01028293          	addi	t0,t0,16 # 800000f0 <reset_vector+0x94>
    800000e8:	30529073          	csrw	mtvec,t0
    800000ec:	18005073          	csrwi	satp,0
    800000f0:	00000297          	auipc	t0,0x0
    800000f4:	02428293          	addi	t0,t0,36 # 80000114 <reset_vector+0xb8>
    800000f8:	30529073          	csrw	mtvec,t0
    800000fc:	0010029b          	addiw	t0,zero,1
    80000100:	03529293          	slli	t0,t0,0x35
    80000104:	fff28293          	addi	t0,t0,-1
    80000108:	3b029073          	csrw	pmpaddr0,t0
    8000010c:	01f00293          	li	t0,31
    80000110:	3a029073          	csrw	pmpcfg0,t0
    80000114:	30405073          	csrwi	mie,0
    80000118:	00000297          	auipc	t0,0x0
    8000011c:	01428293          	addi	t0,t0,20 # 8000012c <reset_vector+0xd0>
    80000120:	30529073          	csrw	mtvec,t0
    80000124:	30205073          	csrwi	medeleg,0
    80000128:	30305073          	csrwi	mideleg,0
    8000012c:	00000193          	li	gp,0
    80000130:	00000297          	auipc	t0,0x0
    80000134:	ed428293          	addi	t0,t0,-300 # 80000004 <trap_vector>
    80000138:	30529073          	csrw	mtvec,t0
    8000013c:	00100513          	li	a0,1
    80000140:	01f51513          	slli	a0,a0,0x1f
    80000144:	00055c63          	bgez	a0,8000015c <reset_vector+0x100>
    80000148:	0ff0000f          	fence
    8000014c:	00100193          	li	gp,1
    80000150:	05d00893          	li	a7,93
    80000154:	00000513          	li	a0,0
    80000158:	00000073          	ecall
    8000015c:	80000297          	auipc	t0,0x80000
    80000160:	ea428293          	addi	t0,t0,-348 # 0 <_start-0x80000000>
    80000164:	00028a63          	beqz	t0,80000178 <reset_vector+0x11c>
    80000168:	10529073          	csrw	stvec,t0
    8000016c:	0000b2b7          	lui	t0,0xb
    80000170:	1092829b          	addiw	t0,t0,265
    80000174:	30229073          	csrw	medeleg,t0
    80000178:	30005073          	csrwi	mstatus,0
    8000017c:	00000297          	auipc	t0,0x0
    80000180:	01428293          	addi	t0,t0,20 # 80000190 <reset_vector+0x134>
    80000184:	34129073          	csrw	mepc,t0
    80000188:	f1402573          	csrr	a0,mhartid
    8000018c:	30200073          	mret
    80000190:	0200006f          	j	800001b0 <test_start>

0000000080000194 <crash_backward>:
    80000194:	0ff0000f          	fence
    80000198:	00018063          	beqz	gp,80000198 <crash_backward+0x4>
    8000019c:	00119193          	slli	gp,gp,0x1
    800001a0:	0011e193          	ori	gp,gp,1
    800001a4:	05d00893          	li	a7,93
    800001a8:	00018513          	mv	a0,gp
    800001ac:	00000073          	ecall

00000000800001b0 <test_start>:
    800001b0:	00002f97          	auipc	t6,0x2
    800001b4:	e50f8f93          	addi	t6,t6,-432 # 80002000 <hidden_data>
    800001b8:	000fb003          	ld	zero,0(t6)
    800001bc:	008fb083          	ld	ra,8(t6)
    800001c0:	010fb103          	ld	sp,16(t6)
    800001c4:	018fb183          	ld	gp,24(t6)
    800001c8:	020fb203          	ld	tp,32(t6)
    800001cc:	028fb283          	ld	t0,40(t6)
    800001d0:	030fb303          	ld	t1,48(t6)
    800001d4:	038fb383          	ld	t2,56(t6)
    800001d8:	040fb403          	ld	s0,64(t6)
    800001dc:	048fb483          	ld	s1,72(t6)
    800001e0:	050fb503          	ld	a0,80(t6)
    800001e4:	058fb583          	ld	a1,88(t6)
    800001e8:	060fb603          	ld	a2,96(t6)
    800001ec:	068fb683          	ld	a3,104(t6)
    800001f0:	070fb703          	ld	a4,112(t6)
    800001f4:	078fb783          	ld	a5,120(t6)
    800001f8:	080fb803          	ld	a6,128(t6)
    800001fc:	088fb883          	ld	a7,136(t6)
    80000200:	090fb903          	ld	s2,144(t6)
    80000204:	098fb983          	ld	s3,152(t6)
    80000208:	0a0fba03          	ld	s4,160(t6)
    8000020c:	0a8fba83          	ld	s5,168(t6)
    80000210:	0b0fbb03          	ld	s6,176(t6)
    80000214:	0b8fbb83          	ld	s7,184(t6)
    80000218:	0c0fbc03          	ld	s8,192(t6)
    8000021c:	0c8fbc83          	ld	s9,200(t6)
    80000220:	0d0fbd03          	ld	s10,208(t6)
    80000224:	0d8fbd83          	ld	s11,216(t6)
    80000228:	0e0fbe03          	ld	t3,224(t6)
    8000022c:	0e8fbe83          	ld	t4,232(t6)
    80000230:	0f0fbf03          	ld	t5,240(t6)
    80000234:	0f8fbf83          	ld	t6,248(t6)
    80000238:	0040006f          	j	8000023c <pseg_0>

000000008000023c <pseg_0>:
    8000023c:	7b100913          	li	s2,1969
    80000240:	b6200413          	li	s0,-1182
    80000244:	02715a3b          	divuw	s4,sp,t2
    80000248:	00058393          	mv	t2,a1
    8000024c:	00002d97          	auipc	s11,0x2
    80000250:	767d8d93          	addi	s11,s11,1895 # 800029b3 <_end+0x3a3>
    80000254:	00002e97          	auipc	t4,0x2
    80000258:	6cae8e93          	addi	t4,t4,1738 # 8000291e <_end+0x30e>
    8000025c:	00002b17          	auipc	s6,0x2
    80000260:	a36b0b13          	addi	s6,s6,-1482 # 80001c92 <fromhost+0xc52>
    80000264:	411b80b3          	sub	ra,s7,a7
    80000268:	00038e13          	mv	t3,t2
    8000026c:	4db00193          	li	gp,1243
    80000270:	6e8b2523          	sw	s0,1770(s6)
    80000274:	00000593          	li	a1,0
    80000278:	a69da603          	lw	a2,-1431(s11)
    8000027c:	39390493          	addi	s1,s2,915
    80000280:	c9aea203          	lw	tp,-870(t4)
    80000284:	0390d83b          	divuw	a6,ra,s9
    80000288:	72000713          	li	a4,1824
    8000028c:	00000c13          	li	s8,0
    80000290:	c7900293          	li	t0,-903
    80000294:	02574fbb          	divw	t6,a4,t0
    80000298:	ef859ee3          	bne	a1,s8,80000194 <crash_backward>
    8000029c:	0231fd33          	remu	s10,gp,gp
    800002a0:	417b813b          	subw	sp,s7,s7
    800002a4:	fc440993          	addi	s3,s0,-60
    800002a8:	e1c00893          	li	a7,-484
    800002ac:	45cdea93          	ori	s5,s11,1116
    800002b0:	04200513          	li	a0,66
    800002b4:	00100693          	li	a3,1
    800002b8:	00100293          	li	t0,1
    800002bc:	f2f00e93          	li	t4,-209
    800002c0:	02a88cb3          	mul	s9,a7,a0
    800002c4:	77400e13          	li	t3,1908
    800002c8:	e6900493          	li	s1,-407
    800002cc:	40000f93          	li	t6,1024
    800002d0:	03f69693          	slli	a3,a3,0x3f
    800002d4:	00003917          	auipc	s2,0x3
    800002d8:	a1190913          	addi	s2,s2,-1519 # 80002ce5 <_end+0x6d5>
    800002dc:	15a00813          	li	a6,346
    800002e0:	dca00f13          	li	t5,-566
    800002e4:	41eedd33          	sra	s10,t4,t5
    800002e8:	26100213          	li	tp,609
    800002ec:	00000d93          	li	s11,0
    800002f0:	46be0a93          	addi	s5,t3,1131
    800002f4:	00000413          	li	s0,0
    800002f8:	03f29293          	slli	t0,t0,0x3f
    800002fc:	e88dece3          	bltu	s11,s0,80000194 <crash_backward>
    80000300:	fff00793          	li	a5,-1
    80000304:	01ffd13b          	srlw	sp,t6,t6
    80000308:	5ba00113          	li	sp,1466
    8000030c:	fff00593          	li	a1,-1
    80000310:	415fde3b          	sraw	t3,t6,s5
    80000314:	8e100e93          	li	t4,-1823
    80000318:	6b600d13          	li	s10,1718
    8000031c:	43a00893          	li	a7,1082
    80000320:	5c800193          	li	gp,1480
    80000324:	91700a13          	li	s4,-1769
    80000328:	6fb88a93          	addi	s5,a7,1787
    8000032c:	e60064e3          	bltu	zero,zero,80000194 <crash_backward>
    80000330:	ffc00993          	li	s3,-4
    80000334:	a2d48713          	addi	a4,s1,-1491
    80000338:	62e48463          	beq	s1,a4,80000960 <crash_forward>
    8000033c:	01a10433          	add	s0,sp,s10
    80000340:	1df00513          	li	a0,479
    80000344:	034843b3          	div	t2,a6,s4
    80000348:	0e518613          	addi	a2,gp,229 # 80002ef5 <__global_pointer$+0xe5>
    8000034c:	611aea63          	bltu	s5,a7,80000960 <crash_forward>
    80000350:	0055c5b3          	xor	a1,a1,t0
    80000354:	87b91083          	lh	ra,-1925(s2)
    80000358:	00b67b33          	and	s6,a2,a1
    8000035c:	00a25cb3          	srl	s9,tp,a0
    80000360:	00d7c7b3          	xor	a5,a5,a3
    80000364:	005dec33          	or	s8,s11,t0
    80000368:	00f57333          	and	t1,a0,a5
    8000036c:	033ecf33          	div	t5,t4,s3
    80000370:	00d36bb3          	or	s7,t1,a3
    80000374:	5ec1d663          	bge	gp,a2,80000960 <crash_forward>
    80000378:	40b9d1bb          	sraw	gp,s3,a1
    8000037c:	03ac8bb3          	mul	s7,s9,s10
    80000380:	41295d3b          	sraw	s10,s2,s2
    80000384:	00002917          	auipc	s2,0x2
    80000388:	41790913          	addi	s2,s2,1047 # 8000279b <_end+0x18b>
    8000038c:	00100313          	li	t1,1
    80000390:	027860b3          	rem	ra,a6,t2
    80000394:	60d00d93          	li	s11,1549
    80000398:	03f31313          	slli	t1,t1,0x3f
    8000039c:	bfe00793          	li	a5,-1026
    800003a0:	00000893          	li	a7,0
    800003a4:	0361ac33          	mulhsu	s8,gp,s6
    800003a8:	02d682b3          	mul	t0,a3,a3
    800003ac:	30000713          	li	a4,768
    800003b0:	00000413          	li	s0,0
    800003b4:	00002817          	auipc	a6,0x2
    800003b8:	8a980813          	addi	a6,a6,-1879 # 80001c5d <fromhost+0xc1d>
    800003bc:	60f82583          	lw	a1,1551(a6)
    800003c0:	00e704bb          	addw	s1,a4,a4
    800003c4:	fff00993          	li	s3,-1
    800003c8:	039d06b3          	mul	a3,s10,s9
    800003cc:	0069c9b3          	xor	s3,s3,t1
    800003d0:	00100b13          	li	s6,1
    800003d4:	00edfab3          	and	s5,s11,a4
    800003d8:	02f79e33          	mulh	t3,a5,a5
    800003dc:	036b6633          	rem	a2,s6,s6
    800003e0:	013dfa33          	and	s4,s11,s3
    800003e4:	03fb1b13          	slli	s6,s6,0x3f
    800003e8:	e4192383          	lw	t2,-447(s2)
    800003ec:	fff00113          	li	sp,-1
    800003f0:	4a300f93          	li	t6,1187
    800003f4:	006a6233          	or	tp,s4,t1
    800003f8:	91100b93          	li	s7,-1775
    800003fc:	01614133          	xor	sp,sp,s6
    80000400:	37600193          	li	gp,886
    80000404:	00267f33          	and	t5,a2,sp
    80000408:	37800d13          	li	s10,888
    8000040c:	0318f3b3          	remu	t2,a7,a7
    80000410:	ac300413          	li	s0,-1341
    80000414:	016c6533          	or	a0,s8,s6
    80000418:	54af7463          	bgeu	t5,a0,80000960 <crash_forward>
    8000041c:	03891693          	slli	a3,s2,0x38
    80000420:	03ad3633          	mulhu	a2,s10,s10
    80000424:	024a4133          	div	sp,s4,tp
    80000428:	75f00493          	li	s1,1887
    8000042c:	00002817          	auipc	a6,0x2
    80000430:	d1480813          	addi	a6,a6,-748 # 80002140 <reg_x8_output>
    80000434:	03deedb3          	rem	s11,t4,t4
    80000438:	20c00593          	li	a1,524
    8000043c:	75500093          	li	ra,1877
    80000440:	dc300d13          	li	s10,-573
    80000444:	44885883          	lhu	a7,1096(a6)
    80000448:	02b49333          	mulh	t1,s1,a1
    8000044c:	02847233          	remu	tp,s0,s0
    80000450:	023bfebb          	remuw	t4,s7,gp
    80000454:	d7f00513          	li	a0,-641
    80000458:	01ad3f33          	sltu	t5,s10,s10
    8000045c:	00100693          	li	a3,1
    80000460:	28600c13          	li	s8,646
    80000464:	01ff9cbb          	sllw	s9,t6,t6
    80000468:	03087733          	remu	a4,a6,a6
    8000046c:	03f69693          	slli	a3,a3,0x3f
    80000470:	fff00b13          	li	s6,-1
    80000474:	0210e2bb          	remw	t0,ra,ra
    80000478:	01078dbb          	addw	s11,a5,a6
    8000047c:	eddd7813          	andi	a6,s10,-291
    80000480:	2b000e93          	li	t4,688
    80000484:	00db4b33          	xor	s6,s6,a3
    80000488:	0182973b          	sllw	a4,t0,s8
    8000048c:	00001097          	auipc	ra,0x1
    80000490:	7be08093          	addi	ra,ra,1982 # 80001c4a <fromhost+0xc0a>
    80000494:	6880b323          	sd	s0,1670(ra)
    80000498:	0073ebb3          	or	s7,t2,t2
    8000049c:	00a50633          	add	a2,a0,a0
    800004a0:	00a51933          	sll	s2,a0,a0
    800004a4:	03deed33          	rem	s10,t4,t4
    800004a8:	026349bb          	divw	s3,t1,t1
    800004ac:	02528433          	mul	s0,t0,t0
    800004b0:	00002c97          	auipc	s9,0x2
    800004b4:	f08c8c93          	addi	s9,s9,-248 # 800023b8 <test_memory+0x1b8>
    800004b8:	0161f7b3          	and	a5,gp,s6
    800004bc:	97b00193          	li	gp,-1669
    800004c0:	89b00813          	li	a6,-1893
    800004c4:	039ca2b3          	mulhsu	t0,s9,s9
    800004c8:	00a00a13          	li	s4,10
    800004cc:	417bde3b          	sraw	t3,s7,s7
    800004d0:	00002497          	auipc	s1,0x2
    800004d4:	1d048493          	addi	s1,s1,464 # 800026a0 <_end+0x90>
    800004d8:	bfb18313          	addi	t1,gp,-1029 # 80002a0b <_end+0x3fb>
    800004dc:	0108173b          	sllw	a4,a6,a6
    800004e0:	732b1bb7          	lui	s7,0x732b1
    800004e4:	ca6188e3          	beq	gp,t1,80000194 <crash_backward>
    800004e8:	b9900f93          	li	t6,-1127
    800004ec:	6b200993          	li	s3,1714
    800004f0:	b1b00e93          	li	t4,-1253
    800004f4:	18300d13          	li	s10,387
    800004f8:	03ff88b3          	mul	a7,t6,t6
    800004fc:	00d663b3          	or	t2,a2,a3
    80000500:	014c0abb          	addw	s5,s8,s4
    80000504:	2cf00613          	li	a2,719
    80000508:	00002597          	auipc	a1,0x2
    8000050c:	d5658593          	addi	a1,a1,-682 # 8000225e <test_memory+0x5e>
    80000510:	02c9a433          	mulhsu	s0,s3,a2
    80000514:	44f3e663          	bltu	t2,a5,80000960 <crash_forward>
    80000518:	00002117          	auipc	sp,0x2
    8000051c:	10810113          	addi	sp,sp,264 # 80002620 <_end+0x10>
    80000520:	5d300093          	li	ra,1491
    80000524:	e80cb203          	ld	tp,-384(s9)
    80000528:	03daedbb          	remw	s11,s5,t4
    8000052c:	03aef53b          	remuw	a0,t4,s10
    80000530:	d4049f03          	lh	t5,-704(s1)
    80000534:	dde13023          	sd	t5,-576(sp)
    80000538:	fdd5ad23          	sw	t4,-38(a1)
    8000053c:	32f08913          	addi	s2,ra,815
    80000540:	00002b17          	auipc	s6,0x2
    80000544:	f1db0b13          	addi	s6,s6,-227 # 8000245d <test_memory+0x25d>
    80000548:	00000193          	li	gp,0
    8000054c:	00002c97          	auipc	s9,0x2
    80000550:	825c8c93          	addi	s9,s9,-2011 # 80001d71 <fromhost+0xd31>
    80000554:	8ba00613          	li	a2,-1862
    80000558:	00002a17          	auipc	s4,0x2
    8000055c:	9a6a0a13          	addi	s4,s4,-1626 # 80001efe <fromhost+0xebe>
    80000560:	00000293          	li	t0,0
    80000564:	e79b4e83          	lbu	t4,-391(s6)
    80000568:	026448bb          	divw	a7,s0,t1
    8000056c:	00001e17          	auipc	t3,0x1
    80000570:	544e0e13          	addi	t3,t3,1348 # 80001ab0 <fromhost+0xa70>
    80000574:	032945b3          	div	a1,s2,s2
    80000578:	82500e93          	li	t4,-2011
    8000057c:	569cd303          	lhu	t1,1385(s9)
    80000580:	94500693          	li	a3,-1723
    80000584:	33c00493          	li	s1,828
    80000588:	4ada2123          	sw	a3,1186(s4)
    8000058c:	807e8b13          	addi	s6,t4,-2041
    80000590:	037bfbbb          	remuw	s7,s7,s7
    80000594:	774e0d83          	lb	s11,1908(t3)
    80000598:	ab9bb893          	sltiu	a7,s7,-1351
    8000059c:	00100313          	li	t1,1
    800005a0:	00008f13          	mv	t5,ra
    800005a4:	01ce2c33          	slt	s8,t3,t3
    800005a8:	03f31313          	slli	t1,t1,0x3f
    800005ac:	00100393          	li	t2,1
    800005b0:	000f0513          	mv	a0,t5
    800005b4:	61a00813          	li	a6,1562
    800005b8:	037bde3b          	divuw	t3,s7,s7
    800005bc:	40e705bb          	subw	a1,a4,a4
    800005c0:	9d300c13          	li	s8,-1581
    800005c4:	01bdd7b3          	srl	a5,s11,s11
    800005c8:	038c4dbb          	divw	s11,s8,s8
    800005cc:	0296dd3b          	divuw	s10,a3,s1
    800005d0:	03083fb3          	mulhu	t6,a6,a6
    800005d4:	8c100693          	li	a3,-1855
    800005d8:	c7f44b13          	xori	s6,s0,-897
    800005dc:	03f39393          	slli	t2,t2,0x3f
    800005e0:	fff00413          	li	s0,-1
    800005e4:	00100c13          	li	s8,1
    800005e8:	fff00c93          	li	s9,-1
    800005ec:	78f00993          	li	s3,1935
    800005f0:	00744433          	xor	s0,s0,t2
    800005f4:	006cccb3          	xor	s9,s9,t1
    800005f8:	40c7d8bb          	sraw	a7,a5,a2
    800005fc:	00100493          	li	s1,1
    80000600:	00e76533          	or	a0,a4,a4
    80000604:	03fc1c13          	slli	s8,s8,0x3f
    80000608:	0073a5b3          	slt	a1,t2,t2
    8000060c:	0194fa33          	and	s4,s1,s9
    80000610:	03f49493          	slli	s1,s1,0x3f
    80000614:	fff00793          	li	a5,-1
    80000618:	0187c7b3          	xor	a5,a5,s8
    8000061c:	03b5de33          	divu	t3,a1,s11
    80000620:	00f37f33          	and	t5,t1,a5
    80000624:	03363733          	mulhu	a4,a2,s3
    80000628:	fff00813          	li	a6,-1
    8000062c:	026b6b33          	rem	s6,s6,t1
    80000630:	018f6eb3          	or	t4,t5,s8
    80000634:	03ca3533          	mulhu	a0,s4,t3
    80000638:	00000193          	li	gp,0
    8000063c:	00088e13          	mv	t3,a7
    80000640:	c5e68f93          	addi	t6,a3,-930
    80000644:	000e0293          	mv	t0,t3
    80000648:	31f6ec63          	bltu	a3,t6,80000960 <crash_forward>
    8000064c:	038700bb          	mulw	ra,a4,s8
    80000650:	00887233          	and	tp,a6,s0
    80000654:	03dec133          	div	sp,t4,t4
    80000658:	02c65eb3          	divu	t4,a2,a2
    8000065c:	00028893          	mv	a7,t0
    80000660:	00000593          	li	a1,0
    80000664:	00984833          	xor	a6,a6,s1
    80000668:	006a6bb3          	or	s7,s4,t1
    8000066c:	6ab00693          	li	a3,1707
    80000670:	010efd33          	and	s10,t4,a6
    80000674:	00716ab3          	or	s5,sp,t2
    80000678:	32a00b13          	li	s6,810
    8000067c:	00088f93          	mv	t6,a7
    80000680:	00100613          	li	a2,1
    80000684:	009d6db3          	or	s11,s10,s1
    80000688:	c8600c13          	li	s8,-890
    8000068c:	b1d00113          	li	sp,-1251
    80000690:	2dadd863          	bge	s11,s10,80000960 <crash_forward>
    80000694:	03f61613          	slli	a2,a2,0x3f
    80000698:	00002b97          	auipc	s7,0x2
    8000069c:	e5db8b93          	addi	s7,s7,-419 # 800024f5 <test_memory+0x2f5>
    800006a0:	00002597          	auipc	a1,0x2
    800006a4:	85958593          	addi	a1,a1,-1959 # 80001ef9 <fromhost+0xeb9>
    800006a8:	fff00513          	li	a0,-1
    800006ac:	53600d93          	li	s11,1334
    800006b0:	00100d13          	li	s10,1
    800006b4:	38b5a883          	lw	a7,907(a1)
    800006b8:	c2400193          	li	gp,-988
    800006bc:	00c54533          	xor	a0,a0,a2
    800006c0:	41d00a13          	li	s4,1053
    800006c4:	2a200393          	li	t2,674
    800006c8:	1d92ae93          	slti	t4,t0,473
    800006cc:	af800493          	li	s1,-1288
    800006d0:	60d00913          	li	s2,1549
    800006d4:	62d00413          	li	s0,1581
    800006d8:	029a5fb3          	divu	t6,s4,s1
    800006dc:	038c2f33          	mulhsu	t5,s8,s8
    800006e0:	002b70b3          	and	ra,s6,sp
    800006e4:	03fd1d13          	slli	s10,s10,0x3f
    800006e8:	06dbdc83          	lhu	s9,109(s7)
    800006ec:	73f00a13          	li	s4,1855
    800006f0:	1b700593          	li	a1,439
    800006f4:	a1a00113          	li	sp,-1510
    800006f8:	008e0fb3          	add	t6,t3,s0
    800006fc:	87200b13          	li	s6,-1934
    80000700:	023dc33b          	divw	t1,s11,gp
    80000704:	fff00813          	li	a6,-1
    80000708:	014a2eb3          	slt	t4,s4,s4
    8000070c:	00211c3b          	sllw	s8,sp,sp
    80000710:	036b4f3b          	divw	t5,s6,s6
    80000714:	54544f93          	xori	t6,s0,1349
    80000718:	03058f33          	mul	t5,a1,a6
    8000071c:	00000193          	li	gp,0
    80000720:	01269733          	sll	a4,a3,s2
    80000724:	40b388b3          	sub	a7,t2,a1
    80000728:	0229c0bb          	divw	ra,s3,sp
    8000072c:	21b00a93          	li	s5,539
    80000730:	d3400b93          	li	s7,-716
    80000734:	03546233          	rem	tp,s0,s5
    80000738:	52f00b13          	li	s6,1327
    8000073c:	00844733          	xor	a4,s0,s0
    80000740:	01a84833          	xor	a6,a6,s10
    80000744:	02d388bb          	mulw	a7,t2,a3
    80000748:	0294d6b3          	divu	a3,s1,s1
    8000074c:	9fa00e93          	li	t4,-1542
    80000750:	79c00113          	li	sp,1948
    80000754:	036b2333          	mulhsu	t1,s6,s6
    80000758:	00000c93          	li	s9,0
    8000075c:	bd600213          	li	tp,-1066
    80000760:	ed748f9b          	addiw	t6,s1,-297
    80000764:	03ded433          	divu	s0,t4,t4
    80000768:	17900d93          	li	s11,377
    8000076c:	7410dab7          	lui	s5,0x7410d
    80000770:	00a077b3          	and	a5,zero,a0
    80000774:	01bbf4b3          	and	s1,s7,s11
    80000778:	00001f97          	auipc	t6,0x1
    8000077c:	3c7f8f93          	addi	t6,t6,967 # 80001b3f <fromhost+0xaff>
    80000780:	8f200f13          	li	t5,-1806
    80000784:	034a58b3          	divu	a7,s4,s4
    80000788:	010e7e33          	and	t3,t3,a6
    8000078c:	00c603b3          	add	t2,a2,a2
    80000790:	01ae62b3          	or	t0,t3,s10
    80000794:	ffa0eb93          	ori	s7,ra,-6
    80000798:	00002897          	auipc	a7,0x2
    8000079c:	e3a88893          	addi	a7,a7,-454 # 800025d2 <test_memory+0x3d2>
    800007a0:	41e200b3          	sub	ra,tp,t5
    800007a4:	00c4e9b3          	or	s3,s1,a2
    800007a8:	21d10c13          	addi	s8,sp,541
    800007ac:	1b37ca63          	blt	a5,s3,80000960 <crash_forward>
    800007b0:	8c5f7d93          	andi	s11,t5,-1851
    800007b4:	1b91e663          	bltu	gp,s9,80000960 <crash_forward>
    800007b8:	67600a93          	li	s5,1654
    800007bc:	01deda33          	srl	s4,t4,t4
    800007c0:	28900313          	li	t1,649
    800007c4:	27aa8413          	addi	s0,s5,634 # 7410d27a <_start-0xbef2d86>
    800007c8:	fcd88483          	lb	s1,-51(a7)
    800007cc:	19810a63          	beq	sp,s8,80000960 <crash_forward>
    800007d0:	7d6f8703          	lb	a4,2006(t6)
    800007d4:	a3f00913          	li	s2,-1473
    800007d8:	37e00b13          	li	s6,894
    800007dc:	017bc3b3          	xor	t2,s7,s7
    800007e0:	036376bb          	remuw	a3,t1,s6
    800007e4:	032905bb          	mulw	a1,s2,s2
    800007e8:	d0900713          	li	a4,-759
    800007ec:	8bd00d93          	li	s11,-1859
    800007f0:	d3a00793          	li	a5,-710
    800007f4:	56600393          	li	t2,1382
    800007f8:	00002097          	auipc	ra,0x2
    800007fc:	a8908093          	addi	ra,ra,-1399 # 80002281 <test_memory+0x81>
    80000800:	900cb293          	sltiu	t0,s9,-1792
    80000804:	02fd8833          	mul	a6,s11,a5
    80000808:	d5e70b93          	addi	s7,a4,-674
    8000080c:	01ced1bb          	srlw	gp,t4,t3
    80000810:	00f7a633          	slt	a2,a5,a5
    80000814:	00e7d433          	srl	s0,a5,a4
    80000818:	00b2d99b          	srliw	s3,t0,0xb
    8000081c:	00002117          	auipc	sp,0x2
    80000820:	8b210113          	addi	sp,sp,-1870 # 800020ce <reg_x25_init+0x6>
    80000824:	00001597          	auipc	a1,0x1
    80000828:	73b58593          	addi	a1,a1,1851 # 80001f5f <fromhost+0xf1f>
    8000082c:	960014e3          	bnez	zero,80000194 <crash_backward>
    80000830:	039db933          	mulhu	s2,s11,s9
    80000834:	0318d8bb          	divuw	a7,a7,a7
    80000838:	2d45ce03          	lbu	t3,724(a1)
    8000083c:	00002697          	auipc	a3,0x2
    80000840:	fb568693          	addi	a3,a3,-75 # 800027f1 <_end+0x1e1>
    80000844:	00424333          	xor	t1,tp,tp
    80000848:	ae76ec03          	lwu	s8,-1305(a3)
    8000084c:	dcc00b13          	li	s6,-564
    80000850:	84f00513          	li	a0,-1969
    80000854:	16e13923          	sd	a4,370(sp)
    80000858:	039b0eb3          	mul	t4,s6,s9
    8000085c:	036b42b3          	div	t0,s6,s6
    80000860:	03bded33          	rem	s10,s11,s11
    80000864:	00002f97          	auipc	t6,0x2
    80000868:	aedf8f93          	addi	t6,t6,-1299 # 80002351 <test_memory+0x151>
    8000086c:	4195db3b          	sraw	s6,a1,s9
    80000870:	02a3f23b          	remuw	tp,t2,a0
    80000874:	414509b3          	sub	s3,a0,s4
    80000878:	033e8733          	mul	a4,t4,s3
    8000087c:	03365813          	srli	a6,a2,0x33
    80000880:	c5300e13          	li	t3,-941
    80000884:	41ef55bb          	sraw	a1,t5,t5
    80000888:	03400a13          	li	s4,52
    8000088c:	034a5ebb          	divuw	t4,s4,s4
    80000890:	67400493          	li	s1,1652
    80000894:	00633cb3          	sltu	s9,t1,t1
    80000898:	00002697          	auipc	a3,0x2
    8000089c:	98e68693          	addi	a3,a3,-1650 # 80002226 <test_memory+0x26>
    800008a0:	2766e403          	lwu	s0,630(a3)
    800008a4:	00002797          	auipc	a5,0x2
    800008a8:	0c278793          	addi	a5,a5,194 # 80002966 <_end+0x356>
    800008ac:	029a6abb          	remw	s5,s4,s1
    800008b0:	14efb7a3          	sd	a4,335(t6)
    800008b4:	22508f03          	lb	t5,549(ra)
    800008b8:	ea700293          	li	t0,-345
    800008bc:	025e6333          	rem	t1,t3,t0
    800008c0:	56900193          	li	gp,1385
    800008c4:	a567a883          	lw	a7,-1450(a5)
    800008c8:	4031ddbb          	sraw	s11,gp,gp
    800008cc:	0040006f          	j	800008d0 <reg_dump>

00000000800008d0 <reg_dump>:
    800008d0:	00002097          	auipc	ra,0x2
    800008d4:	d3008093          	addi	ra,ra,-720 # 80002600 <loop_count>
    800008d8:	0000a103          	lw	sp,0(ra)
    800008dc:	fff10193          	addi	gp,sp,-1
    800008e0:	0030a023          	sw	gp,0(ra)
    800008e4:	94011ce3          	bnez	sp,8000023c <pseg_0>
    800008e8:	00002097          	auipc	ra,0x2
    800008ec:	81808093          	addi	ra,ra,-2024 # 80002100 <begin_signature>
    800008f0:	0000b023          	sd	zero,0(ra)
    800008f4:	0030bc23          	sd	gp,24(ra)
    800008f8:	0240b023          	sd	tp,32(ra)
    800008fc:	0250b423          	sd	t0,40(ra)
    80000900:	0260b823          	sd	t1,48(ra)
    80000904:	0270bc23          	sd	t2,56(ra)
    80000908:	0480b023          	sd	s0,64(ra)
    8000090c:	0490b423          	sd	s1,72(ra)
    80000910:	04a0b823          	sd	a0,80(ra)
    80000914:	04b0bc23          	sd	a1,88(ra)
    80000918:	06c0b023          	sd	a2,96(ra)
    8000091c:	06e0b823          	sd	a4,112(ra)
    80000920:	0900b023          	sd	a6,128(ra)
    80000924:	0910b423          	sd	a7,136(ra)
    80000928:	0920b823          	sd	s2,144(ra)
    8000092c:	0930bc23          	sd	s3,152(ra)
    80000930:	0b40b023          	sd	s4,160(ra)
    80000934:	0b50b423          	sd	s5,168(ra)
    80000938:	0b60b823          	sd	s6,176(ra)
    8000093c:	0b70bc23          	sd	s7,184(ra)
    80000940:	0d80b023          	sd	s8,192(ra)
    80000944:	0d90b423          	sd	s9,200(ra)
    80000948:	0da0b823          	sd	s10,208(ra)
    8000094c:	0db0bc23          	sd	s11,216(ra)
    80000950:	0fc0b023          	sd	t3,224(ra)
    80000954:	0fd0b423          	sd	t4,232(ra)
    80000958:	0fe0b823          	sd	t5,240(ra)
    8000095c:	0200006f          	j	8000097c <test_end>

0000000080000960 <crash_forward>:
    80000960:	0ff0000f          	fence
    80000964:	00018063          	beqz	gp,80000964 <crash_forward+0x4>
    80000968:	00119193          	slli	gp,gp,0x1
    8000096c:	0011e193          	ori	gp,gp,1
    80000970:	05d00893          	li	a7,93
    80000974:	00018513          	mv	a0,gp
    80000978:	00000073          	ecall

000000008000097c <test_end>:
    8000097c:	0ff0000f          	fence
    80000980:	00100193          	li	gp,1
    80000984:	05d00893          	li	a7,93
    80000988:	00000513          	li	a0,0
    8000098c:	00000073          	ecall
    80000990:	c0001073          	unimp
	...

Disassembly of section .tohost:

0000000080001000 <tohost>:
	...

0000000080001040 <fromhost>:
	...

Disassembly of section .data:

0000000080002000 <hidden_data>:
    80002000:	ff81                	bnez	a5,80001f18 <fromhost+0xed8>
    80002002:	ffff                	0xffff
    80002004:	ffff                	0xffff
    80002006:	ffff                	0xffff

0000000080002008 <reg_x1_init>:
    80002008:	0001                	nop
    8000200a:	0000                	unimp
    8000200c:	0000                	unimp
	...

0000000080002010 <reg_x2_init>:
    80002010:	00c4                	addi	s1,sp,68
    80002012:	c269                	beqz	a2,800020d4 <reg_x26_init+0x4>
    80002014:	ac61                	j	800022ac <test_memory+0xac>
    80002016:	fac6                	sd	a7,368(sp)

0000000080002018 <reg_x3_init>:
    80002018:	0009                	c.nop	2
    8000201a:	0000                	unimp
    8000201c:	0000                	unimp
    8000201e:	0800                	addi	s0,sp,16

0000000080002020 <reg_x4_init>:
    80002020:	d951                	beqz	a0,80001fb4 <fromhost+0xf74>
    80002022:	0863977b          	0x863977b
    80002026:	2ffa                	fld	ft11,408(sp)

0000000080002028 <reg_x5_init>:
	...

0000000080002030 <reg_x6_init>:
    80002030:	0006                	c.slli	zero,0x1
    80002032:	0000                	unimp
    80002034:	0000                	unimp
    80002036:	0800                	addi	s0,sp,16

0000000080002038 <reg_x7_init>:
    80002038:	d0dc                	sw	a5,36(s1)
    8000203a:	3362                	fld	ft6,56(sp)
    8000203c:	b481                	j	80001a7c <fromhost+0xa3c>
    8000203e:	b386                	fsd	ft1,480(sp)

0000000080002040 <reg_x8_init>:
    80002040:	ffff                	0xffff
    80002042:	ffff                	0xffff
    80002044:	ffff                	0xffff
    80002046:	ffff                	0xffff

0000000080002048 <reg_x9_init>:
    80002048:	0005                	c.nop	1
    8000204a:	0000                	unimp
    8000204c:	0000                	unimp
	...

0000000080002050 <reg_x10_init>:
    80002050:	0004                	0x4
    80002052:	8000                	0x8000
    80002054:	ffff                	0xffff
    80002056:	ffff                	0xffff

0000000080002058 <reg_x11_init>:
    80002058:	8d66                	mv	s10,s9
    8000205a:	4e06                	lw	t3,64(sp)
    8000205c:	efda                	sd	s6,472(sp)
    8000205e:	e73a                	sd	a4,392(sp)

0000000080002060 <reg_x12_init>:
    80002060:	6942                	ld	s2,16(sp)
    80002062:	51e4                	lw	s1,100(a1)
    80002064:	daf8                	sw	a4,116(a3)
    80002066:	30df        	0xb47b3b130df

0000000080002068 <reg_x13_init>:
    80002068:	b3b1                	j	80001db4 <fromhost+0xd74>
    8000206a:	45950b47          	0x45950b47
    8000206e:	ad18                	fsd	fa4,24(a0)

0000000080002070 <reg_x14_init>:
    80002070:	34b5                	addiw	s1,s1,-19
    80002072:	68b7e1b3          	0x68b7e1b3
    80002076:	7dc8                	ld	a0,184(a1)

0000000080002078 <reg_x15_init>:
    80002078:	dd80                	sw	s0,56(a1)
    8000207a:	4a0a                	lw	s4,128(sp)
    8000207c:	a9670c2b          	0xa9670c2b

0000000080002080 <reg_x16_init>:
    80002080:	0009                	c.nop	2
    80002082:	0000                	unimp
    80002084:	0000                	unimp
	...

0000000080002088 <reg_x17_init>:
    80002088:	0001                	nop
    8000208a:	8000                	0x8000
    8000208c:	ffff                	0xffff
    8000208e:	ffff                	0xffff

0000000080002090 <reg_x18_init>:
	...

0000000080002098 <reg_x19_init>:
    80002098:	bb86                	fsd	ft1,496(sp)
    8000209a:	befc                	fsd	fa5,248(a3)
    8000209c:	6015                	c.lui	zero,0x5
    8000209e:	789d                	lui	a7,0xfffe7

00000000800020a0 <reg_x20_init>:
    800020a0:	ffff                	0xffff
    800020a2:	ffff                	0xffff
    800020a4:	ffff                	0xffff
    800020a6:	ffff                	0xffff

00000000800020a8 <reg_x21_init>:
    800020a8:	ffff                	0xffff
    800020aa:	ffff                	0xffff
    800020ac:	ffff                	0xffff
    800020ae:	ffff                	0xffff

00000000800020b0 <reg_x22_init>:
    800020b0:	ffff                	0xffff
    800020b2:	ffff                	0xffff
    800020b4:	ffff                	0xffff
    800020b6:	ffff                	0xffff

00000000800020b8 <reg_x23_init>:
    800020b8:	0001                	nop
    800020ba:	0000                	unimp
    800020bc:	0000                	unimp
    800020be:	0800                	addi	s0,sp,16

00000000800020c0 <reg_x24_init>:
    800020c0:	820e                	mv	tp,gp
    800020c2:	47ac                	lw	a1,72(a5)
    800020c4:	6dc942ab          	0x6dc942ab

00000000800020c8 <reg_x25_init>:
    800020c8:	85f9                	srai	a1,a1,0x1e
    800020ca:	c0330d63          	beq	t1,gp,800014e4 <fromhost+0x4a4>
    800020ce:	          	fsub.d	fa7,fs1,fs3

00000000800020d0 <reg_x26_init>:
    800020d0:	0b34                	addi	a3,sp,408
    800020d2:	7cd8                	ld	a4,184(s1)
    800020d4:	7697d2d7          	0x7697d2d7

00000000800020d8 <reg_x27_init>:
    800020d8:	8008                	0x8008
    800020da:	ffff                	0xffff
    800020dc:	ffff                	0xffff
    800020de:	ffff                	0xffff

00000000800020e0 <reg_x28_init>:
    800020e0:	ffff8003          	lb	zero,-1(t6)
    800020e4:	ffff                	0xffff
    800020e6:	ffff                	0xffff

00000000800020e8 <reg_x29_init>:
    800020e8:	045d298b          	0x45d298b
    800020ec:	1ac45e23          	0x1ac45e23

00000000800020f0 <reg_x30_init>:
    800020f0:	96e1                	srai	a3,a3,0x38
    800020f2:	f7ed754b          	fnmsub.q	fa0,fs10,ft10,ft10
    800020f6:	4ab1                	li	s5,12

00000000800020f8 <reg_x31_init>:
    800020f8:	d2c8                	sw	a0,36(a3)
    800020fa:	a428                	fsd	fa0,72(s0)
    800020fc:	428e                	lw	t0,192(sp)
    800020fe:	3afc                	fld	fa5,240(a3)

0000000080002100 <begin_signature>:
    80002100:	439d496b          	0x439d496b
    80002104:	da058c97          	auipc	s9,0xda058

0000000080002108 <reg_x1_output>:
    80002108:	28b5                	addiw	a7,a7,13
    8000210a:	6b21                	lui	s6,0x8
    8000210c:	1a0c                	addi	a1,sp,304
    8000210e:	8add                	andi	a3,a3,23

0000000080002110 <reg_x2_output>:
    80002110:	b4017223          	0xb4017223
    80002114:	d880                	sw	s0,48(s1)
    80002116:	3a7a                	fld	fs4,440(sp)

0000000080002118 <reg_x3_output>:
    80002118:	a13d                	j	80002546 <test_memory+0x346>
    8000211a:	0714                	addi	a3,sp,896
    8000211c:	a4e4                	fsd	fs1,200(s1)
    8000211e:	1bed                	addi	s7,s7,-5

0000000080002120 <reg_x4_output>:
    80002120:	578a                	lw	a5,160(sp)
    80002122:	c155a7db          	0xc155a7db
    80002126:	9f48                	0x9f48

0000000080002128 <reg_x5_output>:
    80002128:	5298                	lw	a4,32(a3)
    8000212a:	9330d763          	bge	ra,s3,80001258 <fromhost+0x218>
    8000212e:	1a16                	slli	s4,s4,0x25

0000000080002130 <reg_x6_output>:
    80002130:	a9067ce7          	0xa9067ce7
    80002134:	9785                	srai	a5,a5,0x21
    80002136:	0a90                	addi	a2,sp,336

0000000080002138 <reg_x7_output>:
    80002138:	a05e4c17          	auipc	s8,0xa05e4
    8000213c:	bc89                	j	80001b8e <fromhost+0xb4e>
    8000213e:	          	0xdbc4ae3b

0000000080002140 <reg_x8_output>:
    80002140:	dbc4                	sw	s1,52(a5)
    80002142:	188e                	slli	a7,a7,0x23
    80002144:	3891                	addiw	a7,a7,-28
    80002146:	          	lwu	s0,-705(t1)

0000000080002148 <reg_x9_output>:
    80002148:	58cdd3f3          	csrrwi	t2,0x58c,27
    8000214c:	807c8b83          	lb	s7,-2041(s9) # 5a05990b <_start-0x25fa66f5>

0000000080002150 <reg_x10_output>:
    80002150:	fb05                	bnez	a4,80002080 <reg_x16_init>
    80002152:	e242                	sd	a6,256(sp)
    80002154:	a5f0                	fsd	fa2,200(a1)
    80002156:	9216                	add	tp,tp,t0

0000000080002158 <reg_x11_output>:
    80002158:	a680                	fsd	fs0,8(a3)
    8000215a:	c9323d43          	fmadd.s	fs10,ft4,fs3,fs9,rup
    8000215e:	          	addi	s9,s6,-461 # 7e33 <_start-0x7fff81cd>

0000000080002160 <reg_x12_output>:
    80002160:	e367e33b          	0xe367e33b
    80002164:	a635                	j	80002490 <test_memory+0x290>
    80002166:	          	0x74a3f4c3

0000000080002168 <reg_x13_output>:
    80002168:	a6f574a3          	0xa6f574a3
    8000216c:	1ced                	addi	s9,s9,-5
    8000216e:	1f6a                	slli	t5,t5,0x3a

0000000080002170 <reg_x14_output>:
    80002170:	843a                	mv	s0,a4
    80002172:	d4728ec7          	0xd4728ec7
    80002176:	5919                	li	s2,-26

0000000080002178 <reg_x15_output>:
    80002178:	5581                	li	a1,-32
    8000217a:	0d1c                	addi	a5,sp,656
    8000217c:	445a                	lw	s0,148(sp)
    8000217e:	9cea                	add	s9,s9,s10

0000000080002180 <reg_x16_output>:
    80002180:	5fe8                	lw	a0,124(a5)
    80002182:	c1d86ac7          	fmsub.s	fs5,fa6,ft9,fs8,unknown
    80002186:	38fa                	fld	fa7,440(sp)

0000000080002188 <reg_x17_output>:
    80002188:	1f79                	addi	t5,t5,-2
    8000218a:	be6d                	j	80001d44 <fromhost+0xd04>
    8000218c:	47a0                	lw	s0,72(a5)
    8000218e:	e092                	sd	tp,64(sp)

0000000080002190 <reg_x18_output>:
    80002190:	c2be8e57          	0xc2be8e57
    80002194:	0d9f 6c33       	0xdc536c330d9f

0000000080002198 <reg_x19_output>:
    80002198:	9108dc53          	0x9108dc53
    8000219c:	2e01                	sext.w	t3,t3
    8000219e:	a12d                	j	800025c8 <test_memory+0x3c8>

00000000800021a0 <reg_x20_output>:
    800021a0:	6f16                	ld	t5,320(sp)
    800021a2:	589f 972d 5232      	0x5232972d589f

00000000800021a8 <reg_x21_output>:
    800021a8:	ccb9                	beqz	s1,80002206 <test_memory+0x6>
    800021aa:	f68df183          	0xf68df183
    800021ae:	5cd4                	lw	a3,60(s1)

00000000800021b0 <reg_x22_output>:
    800021b0:	9bc4                	0x9bc4
    800021b2:	b07a                	fsd	ft10,32(sp)
    800021b4:	4c132e6f          	jal	t3,80034e74 <__global_pointer$+0x32064>

00000000800021b8 <reg_x23_output>:
    800021b8:	aee5                	j	800025b0 <test_memory+0x3b0>
    800021ba:	0094                	addi	a3,sp,64
    800021bc:	d930                	sw	a2,112(a0)
    800021be:	1e14                	addi	a3,sp,816

00000000800021c0 <reg_x24_output>:
    800021c0:	efe5                	bnez	a5,800022b8 <test_memory+0xb8>
    800021c2:	29a5                	addiw	s3,s3,9
    800021c4:	668e                	ld	a3,192(sp)
    800021c6:	          	0x3c9b1faf

00000000800021c8 <reg_x25_output>:
    800021c8:	69e53c9b          	0x69e53c9b
    800021cc:	13ee                	slli	t2,t2,0x3b
    800021ce:	5200                	lw	s0,32(a2)

00000000800021d0 <reg_x26_output>:
    800021d0:	b9f8                	fsd	fa4,240(a1)
    800021d2:	6ec00aab          	0x6ec00aab
    800021d6:	7481                	lui	s1,0xfffe0

00000000800021d8 <reg_x27_output>:
    800021d8:	145a                	slli	s0,s0,0x36
    800021da:	1898                	addi	a4,sp,112
    800021dc:	c86d                	beqz	s0,800022ce <test_memory+0xce>
    800021de:	5991                	li	s3,-28

00000000800021e0 <reg_x28_output>:
    800021e0:	69c8                	ld	a0,144(a1)
    800021e2:	1579cad3          	0x1579cad3
    800021e6:	141c                	addi	a5,sp,544

00000000800021e8 <reg_x29_output>:
    800021e8:	81ce                	mv	gp,s3
    800021ea:	adba26a7          	fsw	fs11,-1331(s4)
    800021ee:	32ee                	fld	ft5,248(sp)

00000000800021f0 <reg_x30_output>:
    800021f0:	5002                	0x5002
    800021f2:	af56                	fsd	fs5,408(sp)
    800021f4:	59ce                	lw	s3,240(sp)
    800021f6:	608e                	ld	ra,192(sp)

00000000800021f8 <reg_x31_output>:
    800021f8:	d988                	sw	a0,48(a1)
    800021fa:	9a474e83          	lbu	t4,-1628(a4)
    800021fe:	c169                	beqz	a0,800022c0 <test_memory+0xc0>

0000000080002200 <test_memory>:
    80002200:	88684307          	flq	ft6,-1914(a6)
    80002204:	2f12                	fld	ft10,256(sp)
    80002206:	9d24                	0x9d24
    80002208:	5bf0                	lw	a2,116(a5)
    8000220a:	2a32a98f          	0x2a32a98f
    8000220e:	d9b8                	sw	a4,112(a1)
    80002210:	54653d03          	ld	s10,1350(a0)
    80002214:	56c1                	li	a3,-16
    80002216:	27fd                	addiw	a5,a5,31
    80002218:	d379                	beqz	a4,800021de <reg_x27_output+0x6>
    8000221a:	bd80                	fsd	fs0,56(a1)
    8000221c:	05cc                	addi	a1,sp,708
    8000221e:	cad5                	beqz	a3,800022d2 <test_memory+0xd2>
    80002220:	473e                	lw	a4,204(sp)
    80002222:	7af2                	ld	s5,312(sp)
    80002224:	749f b71d 6217      	0x6217b71d749f
    8000222a:	5595                	li	a1,-27
    8000222c:	8c5a                	mv	s8,s6
    8000222e:	e7e1                	bnez	a5,800022f6 <test_memory+0xf6>
    80002230:	46b1                	li	a3,12
    80002232:	6ff1                	lui	t6,0x1c
    80002234:	c11f 9026 31ed      	0x31ed9026c11f
    8000223a:	a60d                	j	8000255c <test_memory+0x35c>
    8000223c:	e715                	bnez	a4,80002268 <test_memory+0x68>
    8000223e:	e430                	sd	a2,72(s0)
    80002240:	7ddc                	ld	a5,184(a1)
    80002242:	f40c                	sd	a1,40(s0)
    80002244:	a922fe07          	0xa922fe07
    80002248:	f7f5fd4b          	fnmsub.q	fs10,fa1,ft11,ft10
    8000224c:	2cc2c877          	0x2cc2c877
    80002250:	d7d6                	sw	s5,236(sp)
    80002252:	9154ff97          	auipc	t6,0x9154f
    80002256:	b0d4                	fsd	fa3,160(s1)
    80002258:	0401a1d7          	0x401a1d7
    8000225c:	5bba                	lw	s7,172(sp)
    8000225e:	e214                	sd	a3,0(a2)
    80002260:	50a5                	li	ra,-23
    80002262:	ea5d29d3          	0xea5d29d3
    80002266:	33095043          	fmadd.d	ft0,fs2,fa6,ft6,unknown
    8000226a:	1456                	slli	s0,s0,0x35
    8000226c:	2898                	fld	fa4,16(s1)
    8000226e:	7e92                	ld	t4,288(sp)
    80002270:	237b0ecf          	fnmadd.d	ft9,fs6,fs7,ft4,rne
    80002274:	1bdb9533          	0x1bdb9533
    80002278:	3fdc                	fld	fa5,184(a5)
    8000227a:	9228                	0x9228
    8000227c:	ef56                	sd	s5,408(sp)
    8000227e:	695d                	lui	s2,0x17
    80002280:	0231                	addi	tp,tp,12
    80002282:	a04e8547          	fmsub.s	fa0,ft9,ft4,fs4,rne
    80002286:	3fc2d2a7          	0x3fc2d2a7
    8000228a:	c10853c7          	fmsub.s	ft7,fa6,fa6,fs8,unknown
    8000228e:	1c0ecec7          	0x1c0ecec7
    80002292:	bac5                	j	80001c82 <fromhost+0xc42>
    80002294:	386c                	fld	fa1,240(s0)
    80002296:	5ad7cc73          	0x5ad7cc73
    8000229a:	d80c8dcf          	fnmadd.s	fs11,fs9,ft0,fs11,rne
    8000229e:	b809                	j	80001ab0 <fromhost+0xa70>
    800022a0:	746a                	ld	s0,184(sp)
    800022a2:	8516                	mv	a0,t0
    800022a4:	9eb4                	0x9eb4
    800022a6:	0dc9                	addi	s11,s11,18
    800022a8:	0159                	addi	sp,sp,22
    800022aa:	f4dbe5b3          	0xf4dbe5b3
    800022ae:	e6ca                	sd	s2,328(sp)
    800022b0:	f099                	bnez	s1,800021b6 <reg_x22_output+0x6>
    800022b2:	50c8                	lw	a0,36(s1)
    800022b4:	018ddd1b          	srliw	s10,s11,0x18
    800022b8:	0658                	addi	a4,sp,772
    800022ba:	b002                	fsd	ft0,32(sp)
    800022bc:	4302                	lw	t1,0(sp)
    800022be:	3f12d6e3          	bge	t0,a7,80002eaa <__global_pointer$+0x9a>
    800022c2:	1b8c                	addi	a1,sp,496
    800022c4:	dd08                	sw	a0,56(a0)
    800022c6:	952e                	add	a0,a0,a1
    800022c8:	31a9                	addiw	gp,gp,-22
    800022ca:	0a6ab8fb          	0xa6ab8fb
    800022ce:	261c                	fld	fa5,8(a2)
    800022d0:	3c88                	fld	fa0,56(s1)
    800022d2:	b31a                	fsd	ft6,416(sp)
    800022d4:	c439                	beqz	s0,80002322 <test_memory+0x122>
    800022d6:	7d208cb3          	0x7d208cb3
    800022da:	1d50                	addi	a2,sp,692
    800022dc:	b0e0                	fsd	fs0,224(s1)
    800022de:	ae62                	fsd	fs8,280(sp)
    800022e0:	cb98163b          	0xcb98163b
    800022e4:	bbe6                	fsd	fs9,496(sp)
    800022e6:	a136                	fsd	fa3,128(sp)
    800022e8:	70fd                	lui	ra,0xfffff
    800022ea:	32d5                	addiw	t0,t0,-11
    800022ec:	cfd0                	sw	a2,28(a5)
    800022ee:	bd8acf6b          	0xbd8acf6b
    800022f2:	7a36                	ld	s4,360(sp)
    800022f4:	8628                	0x8628
    800022f6:	0d22                	slli	s10,s10,0x8
    800022f8:	53a6                	lw	t2,104(sp)
    800022fa:	8052                	c.mv	zero,s4
    800022fc:	6251                	lui	tp,0x14
    800022fe:	80cdb14b          	fnmsub.s	ft2,fs11,fa2,fa6,rup
    80002302:	8e2e                	mv	t3,a1
    80002304:	8594                	0x8594
    80002306:	dfe9                	beqz	a5,800022e0 <test_memory+0xe0>
    80002308:	2096                	fld	ft1,320(sp)
    8000230a:	702e                	0x702e
    8000230c:	4f6a                	lw	t5,152(sp)
    8000230e:	dd61ee53          	0xdd61ee53
    80002312:	a79a                	fsd	ft6,456(sp)
    80002314:	05331b2b          	0x5331b2b
    80002318:	7a95                	lui	s5,0xfffe5
    8000231a:	1e4c                	addi	a1,sp,820
    8000231c:	cfd9d48b          	0xcfd9d48b
    80002320:	b678df03          	lhu	t5,-1177(a7) # fffffffffffe6b67 <__global_pointer$+0xffffffff7ffe3d57>
    80002324:	7e75                	lui	t3,0xffffd
    80002326:	b3e6                	fsd	fs9,480(sp)
    80002328:	0d29                	addi	s10,s10,10
    8000232a:	2d9c                	fld	fa5,24(a1)
    8000232c:	945c                	0x945c
    8000232e:	a39d                	j	80002894 <_end+0x284>
    80002330:	a061                	j	800023b8 <test_memory+0x1b8>
    80002332:	73ec3d5b          	0x73ec3d5b
    80002336:	b648                	fsd	fa0,168(a2)
    80002338:	114c                	addi	a1,sp,164
    8000233a:	78a5                	lui	a7,0xfffe9
    8000233c:	4dbe                	lw	s11,204(sp)
    8000233e:	2e95                	addiw	t4,t4,5
    80002340:	c0ee                	sw	s11,64(sp)
    80002342:	8595a08f          	0x8595a08f
    80002346:	e95e0fd3          	0xe95e0fd3
    8000234a:	292e                	fld	fs2,200(sp)
    8000234c:	7f0e                	ld	t5,224(sp)
    8000234e:	b255                	j	80001cf2 <fromhost+0xcb2>
    80002350:	e3f5                	bnez	a5,80002434 <test_memory+0x234>
    80002352:	5c9f a1f4 35c8      	0x35c8a1f45c9f
    80002358:	085c                	addi	a5,sp,20
    8000235a:	79a6f90f          	0x79a6f90f
    8000235e:	ac16                	fsd	ft5,24(sp)
    80002360:	8cf1                	and	s1,s1,a2
    80002362:	f3b9                	bnez	a5,800022a8 <test_memory+0xa8>
    80002364:	4521                	li	a0,8
    80002366:	c6f0                	sw	a2,76(a3)
    80002368:	9852                	add	a6,a6,s4
    8000236a:	30a2                	fld	ft1,40(sp)
    8000236c:	a9aa                	fsd	fa0,208(sp)
    8000236e:	7c09                	lui	s8,0xfffe2
    80002370:	0992ed1b          	0x992ed1b
    80002374:	9036                	c.add	zero,a3
    80002376:	3be2                	fld	fs7,56(sp)
    80002378:	940e                	add	s0,s0,gp
    8000237a:	16003997          	auipc	s3,0x16003
    8000237e:	9955                	andi	a0,a0,-11
    80002380:	a6677643          	fmadd.q	fa2,fa4,ft6,fs4
    80002384:	ddaef2eb          	0xddaef2eb
    80002388:	4816                	lw	a6,68(sp)
    8000238a:	15c1                	addi	a1,a1,-16
    8000238c:	5ca0                	lw	s0,120(s1)
    8000238e:	36f8                	fld	fa4,232(a3)
    80002390:	2caa46e3          	blt	s4,a0,80002e5c <__global_pointer$+0x4c>
    80002394:	4b85                	li	s7,1
    80002396:	c322                	sw	s0,132(sp)
    80002398:	b4ff6edb          	0xb4ff6edb
    8000239c:	af0c                	fsd	fa1,24(a4)
    8000239e:	284e                	fld	fa6,208(sp)
    800023a0:	c370                	sw	a2,68(a4)
    800023a2:	bf6a                	fsd	fs10,440(sp)
    800023a4:	a0ea                	fsd	fs10,64(sp)
    800023a6:	1f74                	addi	a3,sp,956
    800023a8:	5c2d                	li	s8,-21
    800023aa:	71fe                	ld	gp,504(sp)
    800023ac:	9322                	add	t1,t1,s0
    800023ae:	0d15                	addi	s10,s10,5
    800023b0:	ca58f0f3          	csrrci	ra,0xca5,17
    800023b4:	ae15db17          	auipc	s6,0xae15d
    800023b8:	ebf1                	bnez	a5,8000248c <test_memory+0x28c>
    800023ba:	0f09                	addi	t5,t5,2
    800023bc:	6c11                	lui	s8,0x4
    800023be:	fd18                	sd	a4,56(a0)
    800023c0:	64d8                	ld	a4,136(s1)
    800023c2:	051c                	addi	a5,sp,640
    800023c4:	1db9                	addi	s11,s11,-18
    800023c6:	281200e3          	beq	tp,ra,80002e46 <__global_pointer$+0x36>
    800023ca:	7994                	ld	a3,48(a1)
    800023cc:	0fa8                	addi	a0,sp,984
    800023ce:	ff1d                	bnez	a4,8000230c <test_memory+0x10c>
    800023d0:	de06                	sw	ra,60(sp)
    800023d2:	b389                	j	80002114 <reg_x2_output+0x4>
    800023d4:	a90d                	j	80002806 <_end+0x1f6>
    800023d6:	4e84                	lw	s1,24(a3)
    800023d8:	d9b5                	beqz	a1,8000234c <test_memory+0x14c>
    800023da:	ebd5afab          	0xebd5afab
    800023de:	fdad                	bnez	a1,80002358 <test_memory+0x158>
    800023e0:	6870db2f          	0x6870db2f
    800023e4:	a04e6513          	ori	a0,t3,-1532
    800023e8:	79b0                	ld	a2,112(a1)
    800023ea:	1dae                	slli	s11,s11,0x2b
    800023ec:	806e                	c.mv	zero,s11
    800023ee:	db22                	sw	s0,180(sp)
    800023f0:	c268                	sw	a0,68(a2)
    800023f2:	7ae4227b          	0x7ae4227b
    800023f6:	343bd7fb          	0x343bd7fb
    800023fa:	1f44                	addi	s1,sp,948
    800023fc:	312a                	fld	ft2,168(sp)
    800023fe:	6dfbf50f          	0x6dfbf50f
    80002402:	ff32                	sd	a2,440(sp)
    80002404:	a05c                	fsd	fa5,128(s0)
    80002406:	f3e8883f b3f1646b 	0xb3f1646bf3e8883f
    8000240e:	5251                	li	tp,-12
    80002410:	327c                	fld	fa5,224(a2)
    80002412:	d0d8                	sw	a4,36(s1)
    80002414:	f9ff                	0xf9ff
    80002416:	7dae                	ld	s11,232(sp)
    80002418:	a7d0                	fsd	fa2,136(a5)
    8000241a:	6d48                	ld	a0,152(a0)
    8000241c:	9f5c                	0x9f5c
    8000241e:	de7f                	0xde7f
    80002420:	b21a                	fsd	ft6,288(sp)
    80002422:	b71acddb          	0xb71acddb
    80002426:	390eb227          	fsd	fa6,900(t4)
    8000242a:	2cc0                	fld	fs0,152(s1)
    8000242c:	dd76                	sw	t4,184(sp)
    8000242e:	3dd0                	fld	fa2,184(a1)
    80002430:	1136                	slli	sp,sp,0x2d
    80002432:	1520                	addi	s0,sp,680
    80002434:	cc2a                	sw	a0,24(sp)
    80002436:	39f6                	fld	fs3,376(sp)
    80002438:	e371                	bnez	a4,800024fc <test_memory+0x2fc>
    8000243a:	06c2ee0f          	0x6c2ee0f
    8000243e:	b5f8                	fsd	fa4,232(a1)
    80002440:	6039                	c.lui	zero,0xe
    80002442:	76cc                	ld	a1,168(a3)
    80002444:	6f79                	lui	t5,0x1e
    80002446:	e56c29a3          	sw	s6,-429(s8) # 3e53 <_start-0x7fffc1ad>
    8000244a:	8b80                	0x8b80
    8000244c:	e982                	sd	zero,208(sp)
    8000244e:	6ef6                	ld	t4,344(sp)
    80002450:	4ea2                	lw	t4,8(sp)
    80002452:	3c0d7ec7          	0x3c0d7ec7
    80002456:	bb5103e3          	beq	sp,s5,80001ffc <fromhost+0xfbc>
    8000245a:	c136c7a3          	0xc136c7a3
    8000245e:	7b1d                	lui	s6,0xfffe7
    80002460:	7b5d                	lui	s6,0xffff7
    80002462:	21d2                	fld	ft3,272(sp)
    80002464:	1ec4                	addi	s1,sp,884
    80002466:	59be9af3          	csrrw	s5,0x59b,t4
    8000246a:	e2638e27          	0xe2638e27
    8000246e:	f65bfb47          	fmsub.q	fs6,fs7,ft5,ft10
    80002472:	3999                	addiw	s3,s3,-26
    80002474:	85af71bb          	0x85af71bb
    80002478:	18c51b57          	0x18c51b57
    8000247c:	de96                	sw	t0,124(sp)
    8000247e:	ac50                	fsd	fa2,152(s0)
    80002480:	c75e                	sw	s7,140(sp)
    80002482:	9441                	srai	s0,s0,0x30
    80002484:	e9ee                	sd	s11,208(sp)
    80002486:	55b50987          	0x55b50987
    8000248a:	7711                	lui	a4,0xfffe4
    8000248c:	d0e964a7          	0xd0e964a7
    80002490:	8e14                	0x8e14
    80002492:	3a44                	fld	fs1,176(a2)
    80002494:	3b26                	fld	fs6,104(sp)
    80002496:	3d12                	fld	fs10,288(sp)
    80002498:	c99d                	beqz	a1,800024ce <test_memory+0x2ce>
    8000249a:	6141008b          	0x6141008b
    8000249e:	8f67dfa3          	0x8f67dfa3
    800024a2:	960f7f13          	andi	t5,t5,-1696
    800024a6:	e5c8                	sd	a0,136(a1)
    800024a8:	6274                	ld	a3,192(a2)
    800024aa:	764a                	ld	a2,176(sp)
    800024ac:	23a0                	fld	fs0,64(a5)
    800024ae:	8481                	c.srai64	s1
    800024b0:	d719c413          	xori	s0,s3,-655
    800024b4:	4caf64a7          	0x4caf64a7
    800024b8:	f8f2                	sd	t3,112(sp)
    800024ba:	8a9c704b          	fnmsub.d	ft0,fs8,fs1,fa7
    800024be:	bc7847cb          	0xbc7847cb
    800024c2:	7dc8                	ld	a0,184(a1)
    800024c4:	e8df bb6f 0d16      	0xd16bb6fe8df
    800024ca:	7928                	ld	a0,112(a0)
    800024cc:	7de6                	ld	s11,120(sp)
    800024ce:	6db1b5af          	0x6db1b5af
    800024d2:	a17bf96f          	jal	s2,7ffc1ee8 <_start-0x3e118>
    800024d6:	ab592c2b          	0xab592c2b
    800024da:	37917cab          	0x37917cab
    800024de:	3be4e363          	bltu	s1,t5,80002884 <_end+0x274>
    800024e2:	1e08                	addi	a0,sp,816
    800024e4:	993d                	andi	a0,a0,-17
    800024e6:	bc26                	fsd	fs1,56(sp)
    800024e8:	f126                	sd	s1,160(sp)
    800024ea:	ea42                	sd	a6,272(sp)
    800024ec:	1b9821d3          	fdiv.d	ft3,fa6,fs9,rdn
    800024f0:	852cd5db          	0x852cd5db
    800024f4:	0441                	addi	s0,s0,16
    800024f6:	d2a5                	beqz	a3,80002456 <test_memory+0x256>
    800024f8:	e488                	sd	a0,8(s1)
    800024fa:	d611                	beqz	a2,80002406 <test_memory+0x206>
    800024fc:	4d0d                	li	s10,3
    800024fe:	cd06                	sw	ra,152(sp)
    80002500:	8d33b5d3          	0x8d33b5d3
    80002504:	cfaa                	sw	a0,220(sp)
    80002506:	7c3a                	ld	s8,424(sp)
    80002508:	9325                	srli	a4,a4,0x29
    8000250a:	2296                	fld	ft5,320(sp)
    8000250c:	c209                	beqz	a2,8000250e <test_memory+0x30e>
    8000250e:	472a                	lw	a4,136(sp)
    80002510:	5b94                	lw	a3,48(a5)
    80002512:	ed64                	sd	s1,216(a0)
    80002514:	077e                	slli	a4,a4,0x1f
    80002516:	ed92                	sd	tp,216(sp)
    80002518:	ac6a                	fsd	fs10,24(sp)
    8000251a:	2bd9                	addiw	s7,s7,22
    8000251c:	3482                	fld	fs1,32(sp)
    8000251e:	a322                	fsd	fs0,384(sp)
    80002520:	93c1                	srli	a5,a5,0x30
    80002522:	366c                	fld	fa1,232(a2)
    80002524:	519736cf          	fnmadd.s	fa3,fa4,fs9,fa0,rup
    80002528:	dbd20b07          	0xdbd20b07
    8000252c:	6d1dd9e7          	0x6d1dd9e7
    80002530:	6071                	c.lui	zero,0x1c
    80002532:	2e12                	fld	ft8,256(sp)
    80002534:	261a                	fld	fa2,384(sp)
    80002536:	3449                	addiw	s0,s0,-14
    80002538:	e19e                	sd	t2,192(sp)
    8000253a:	80f2                	mv	ra,t3
    8000253c:	46886863          	bltu	a6,s0,800029ac <_end+0x39c>
    80002540:	56fd                	li	a3,-1
    80002542:	9bf2b0c3          	fmadd.d	ft1,ft5,ft11,fs3,rup
    80002546:	7eb6e75b          	0x7eb6e75b
    8000254a:	82192b23          	sw	ra,-1994(s2) # 16836 <_start-0x7ffe97ca>
    8000254e:	15cd                	addi	a1,a1,-13
    80002550:	8c5b871b          	addiw	a4,s7,-1851
    80002554:	03e0                	addi	s0,sp,460
    80002556:	dbf5eeb3          	0xdbf5eeb3
    8000255a:	e3da                	sd	s6,448(sp)
    8000255c:	3f1610ab          	0x3f1610ab
    80002560:	da8b3f2b          	0xda8b3f2b
    80002564:	1f85                	addi	t6,t6,-31
    80002566:	c2b9                	beqz	a3,800025ac <test_memory+0x3ac>
    80002568:	6c8e                	ld	s9,192(sp)
    8000256a:	6b08                	ld	a0,16(a4)
    8000256c:	5506                	lw	a0,96(sp)
    8000256e:	6570                	ld	a2,200(a0)
    80002570:	41d1                	li	gp,20
    80002572:	8fe4                	0x8fe4
    80002574:	2601                	sext.w	a2,a2
    80002576:	53e9                	li	t2,-6
    80002578:	8f16def7          	0x8f16def7
    8000257c:	ee02af57          	0xee02af57
    80002580:	e40c40c3          	0xe40c40c3
    80002584:	f598                	sd	a4,40(a1)
    80002586:	c5dfa7f3          	csrrs	a5,0xc5d,t6
    8000258a:	01ec                	addi	a1,sp,204
    8000258c:	635f cb54 b0e3      	0xb0e3cb54635f
    80002592:	3b91a11b          	0x3b91a11b
    80002596:	5c5f7bc3          	0x5c5f7bc3
    8000259a:	329a                	fld	ft5,416(sp)
    8000259c:	dce9                	beqz	s1,80002576 <test_memory+0x376>
    8000259e:	4b8f55a7          	0x4b8f55a7
    800025a2:	590d                	li	s2,-29
    800025a4:	b662                	fsd	fs8,296(sp)
    800025a6:	08ac                	addi	a1,sp,88
    800025a8:	22a2d96f          	jal	s2,8002f7d2 <__global_pointer$+0x2c9c2>
    800025ac:	4b163897          	auipc	a7,0x4b163
    800025b0:	d138                	sw	a4,96(a0)
    800025b2:	f6099993          	0xf6099993
    800025b6:	3c94                	fld	fa3,56(s1)
    800025b8:	09c3069b          	addiw	a3,t1,156
    800025bc:	a6d414e3          	bne	s0,a3,80002024 <reg_x4_init+0x4>
    800025c0:	e131                	bnez	a0,80002604 <loop_count+0x4>
    800025c2:	edf0                	sd	a2,216(a1)
    800025c4:	e6d33ebb          	0xe6d33ebb
    800025c8:	0df5                	addi	s11,s11,29
    800025ca:	7afe                	ld	s5,504(sp)
    800025cc:	ef64                	sd	s1,216(a4)
    800025ce:	fac93f03          	ld	t5,-84(s2)
    800025d2:	5cc0                	lw	s0,60(s1)
    800025d4:	71c4                	ld	s1,160(a1)
    800025d6:	749e                	ld	s1,480(sp)
    800025d8:	b34d                	j	8000237a <test_memory+0x17a>
    800025da:	6cd4                	ld	a3,152(s1)
    800025dc:	9250                	0x9250
    800025de:	f3fa                	sd	t5,480(sp)
    800025e0:	f25dfb9b          	0xf25dfb9b
    800025e4:	20a4                	fld	fs1,64(s1)
    800025e6:	e1e5                	bnez	a1,800026c6 <_end+0xb6>
    800025e8:	6c9f 441a 5643      	0x5643441a6c9f
    800025ee:	671e                	ld	a4,448(sp)
    800025f0:	40baaf23          	sw	a1,1054(s5) # fffffffffffe541e <__global_pointer$+0xffffffff7ffe260e>
    800025f4:	2e82                	fld	ft9,0(sp)
    800025f6:	ecf1                	bnez	s1,800026d2 <_end+0xc2>
    800025f8:	0dcc                	addi	a1,sp,724
    800025fa:	c01f 3c3d 62d2      	0x62d23c3dc01f

0000000080002600 <loop_count>:
    80002600:	0040                	addi	s0,sp,4
	...

Disassembly of section .riscv.attributes:

0000000000000000 <.riscv.attributes>:
   0:	1e41                	addi	t3,t3,-16
   2:	0000                	unimp
   4:	7200                	ld	s0,32(a2)
   6:	7369                	lui	t1,0xffffa
   8:	01007663          	bgeu	zero,a6,14 <_start-0x7fffffec>
   c:	0014                	0x14
   e:	0000                	unimp
  10:	7205                	lui	tp,0xfffe1
  12:	3676                	fld	fa2,376(sp)
  14:	6934                	ld	a3,80(a0)
  16:	7032                	0x7032
  18:	5f30                	lw	a2,120(a4)
  1a:	326d                	addiw	tp,tp,-5
  1c:	3070                	fld	fa2,224(s0)
	...
