
build/test33:     file format elf64-littleriscv


Disassembly of section .text.init:

0000000080000000 <_start>:
    80000000:	05c0006f          	j	8000005c <reset_vector>

0000000080000004 <trap_vector>:
    80000004:	34202f73          	csrr	t5,mcause
    80000008:	00800f93          	li	t6,8
    8000000c:	03ff0a63          	beq	t5,t6,80000040 <write_tohost>
    80000010:	00900f93          	li	t6,9
    80000014:	03ff0663          	beq	t5,t6,80000040 <write_tohost>
    80000018:	00b00f93          	li	t6,11
    8000001c:	03ff0263          	beq	t5,t6,80000040 <write_tohost>
    80000020:	80000f17          	auipc	t5,0x80000
    80000024:	fe0f0f13          	addi	t5,t5,-32 # 0 <_start-0x80000000>
    80000028:	000f0463          	beqz	t5,80000030 <trap_vector+0x2c>
    8000002c:	000f0067          	jr	t5
    80000030:	34202f73          	csrr	t5,mcause
    80000034:	000f5463          	bgez	t5,8000003c <handle_exception>
    80000038:	0040006f          	j	8000003c <handle_exception>

000000008000003c <handle_exception>:
    8000003c:	5391e193          	ori	gp,gp,1337

0000000080000040 <write_tohost>:
    80000040:	00001f17          	auipc	t5,0x1
    80000044:	fc3f2023          	sw	gp,-64(t5) # 80001000 <tohost>
    80000048:	000902b7          	lui	t0,0x90
    8000004c:	0012829b          	addiw	t0,t0,1
    80000050:	00c29293          	slli	t0,t0,0xc
    80000054:	0002af83          	lw	t6,0(t0) # 90000 <_start-0x7ff70000>
    80000058:	fe9ff06f          	j	80000040 <write_tohost>

000000008000005c <reset_vector>:
    8000005c:	00000093          	li	ra,0
    80000060:	00000113          	li	sp,0
    80000064:	00000193          	li	gp,0
    80000068:	00000213          	li	tp,0
    8000006c:	00000293          	li	t0,0
    80000070:	00000313          	li	t1,0
    80000074:	00000393          	li	t2,0
    80000078:	00000413          	li	s0,0
    8000007c:	00000493          	li	s1,0
    80000080:	00000513          	li	a0,0
    80000084:	00000593          	li	a1,0
    80000088:	00000613          	li	a2,0
    8000008c:	00000693          	li	a3,0
    80000090:	00000713          	li	a4,0
    80000094:	00000793          	li	a5,0
    80000098:	00000813          	li	a6,0
    8000009c:	00000893          	li	a7,0
    800000a0:	00000913          	li	s2,0
    800000a4:	00000993          	li	s3,0
    800000a8:	00000a13          	li	s4,0
    800000ac:	00000a93          	li	s5,0
    800000b0:	00000b13          	li	s6,0
    800000b4:	00000b93          	li	s7,0
    800000b8:	00000c13          	li	s8,0
    800000bc:	00000c93          	li	s9,0
    800000c0:	00000d13          	li	s10,0
    800000c4:	00000d93          	li	s11,0
    800000c8:	00000e13          	li	t3,0
    800000cc:	00000e93          	li	t4,0
    800000d0:	00000f13          	li	t5,0
    800000d4:	00000f93          	li	t6,0
    800000d8:	f1402573          	csrr	a0,mhartid
    800000dc:	00051063          	bnez	a0,800000dc <reset_vector+0x80>
    800000e0:	00000297          	auipc	t0,0x0
    800000e4:	01028293          	addi	t0,t0,16 # 800000f0 <reset_vector+0x94>
    800000e8:	30529073          	csrw	mtvec,t0
    800000ec:	18005073          	csrwi	satp,0
    800000f0:	00000297          	auipc	t0,0x0
    800000f4:	02428293          	addi	t0,t0,36 # 80000114 <reset_vector+0xb8>
    800000f8:	30529073          	csrw	mtvec,t0
    800000fc:	0010029b          	addiw	t0,zero,1
    80000100:	03529293          	slli	t0,t0,0x35
    80000104:	fff28293          	addi	t0,t0,-1
    80000108:	3b029073          	csrw	pmpaddr0,t0
    8000010c:	01f00293          	li	t0,31
    80000110:	3a029073          	csrw	pmpcfg0,t0
    80000114:	30405073          	csrwi	mie,0
    80000118:	00000297          	auipc	t0,0x0
    8000011c:	01428293          	addi	t0,t0,20 # 8000012c <reset_vector+0xd0>
    80000120:	30529073          	csrw	mtvec,t0
    80000124:	30205073          	csrwi	medeleg,0
    80000128:	30305073          	csrwi	mideleg,0
    8000012c:	00000193          	li	gp,0
    80000130:	00000297          	auipc	t0,0x0
    80000134:	ed428293          	addi	t0,t0,-300 # 80000004 <trap_vector>
    80000138:	30529073          	csrw	mtvec,t0
    8000013c:	00100513          	li	a0,1
    80000140:	01f51513          	slli	a0,a0,0x1f
    80000144:	00055c63          	bgez	a0,8000015c <reset_vector+0x100>
    80000148:	0ff0000f          	fence
    8000014c:	00100193          	li	gp,1
    80000150:	05d00893          	li	a7,93
    80000154:	00000513          	li	a0,0
    80000158:	00000073          	ecall
    8000015c:	80000297          	auipc	t0,0x80000
    80000160:	ea428293          	addi	t0,t0,-348 # 0 <_start-0x80000000>
    80000164:	00028a63          	beqz	t0,80000178 <reset_vector+0x11c>
    80000168:	10529073          	csrw	stvec,t0
    8000016c:	0000b2b7          	lui	t0,0xb
    80000170:	1092829b          	addiw	t0,t0,265
    80000174:	30229073          	csrw	medeleg,t0
    80000178:	30005073          	csrwi	mstatus,0
    8000017c:	00000297          	auipc	t0,0x0
    80000180:	01428293          	addi	t0,t0,20 # 80000190 <reset_vector+0x134>
    80000184:	34129073          	csrw	mepc,t0
    80000188:	f1402573          	csrr	a0,mhartid
    8000018c:	30200073          	mret
    80000190:	0200006f          	j	800001b0 <test_start>

0000000080000194 <crash_backward>:
    80000194:	0ff0000f          	fence
    80000198:	00018063          	beqz	gp,80000198 <crash_backward+0x4>
    8000019c:	00119193          	slli	gp,gp,0x1
    800001a0:	0011e193          	ori	gp,gp,1
    800001a4:	05d00893          	li	a7,93
    800001a8:	00018513          	mv	a0,gp
    800001ac:	00000073          	ecall

00000000800001b0 <test_start>:
    800001b0:	00002f97          	auipc	t6,0x2
    800001b4:	e50f8f93          	addi	t6,t6,-432 # 80002000 <hidden_data>
    800001b8:	000fb003          	ld	zero,0(t6)
    800001bc:	008fb083          	ld	ra,8(t6)
    800001c0:	010fb103          	ld	sp,16(t6)
    800001c4:	018fb183          	ld	gp,24(t6)
    800001c8:	020fb203          	ld	tp,32(t6)
    800001cc:	028fb283          	ld	t0,40(t6)
    800001d0:	030fb303          	ld	t1,48(t6)
    800001d4:	038fb383          	ld	t2,56(t6)
    800001d8:	040fb403          	ld	s0,64(t6)
    800001dc:	048fb483          	ld	s1,72(t6)
    800001e0:	050fb503          	ld	a0,80(t6)
    800001e4:	058fb583          	ld	a1,88(t6)
    800001e8:	060fb603          	ld	a2,96(t6)
    800001ec:	068fb683          	ld	a3,104(t6)
    800001f0:	070fb703          	ld	a4,112(t6)
    800001f4:	078fb783          	ld	a5,120(t6)
    800001f8:	080fb803          	ld	a6,128(t6)
    800001fc:	088fb883          	ld	a7,136(t6)
    80000200:	090fb903          	ld	s2,144(t6)
    80000204:	098fb983          	ld	s3,152(t6)
    80000208:	0a0fba03          	ld	s4,160(t6)
    8000020c:	0a8fba83          	ld	s5,168(t6)
    80000210:	0b0fbb03          	ld	s6,176(t6)
    80000214:	0b8fbb83          	ld	s7,184(t6)
    80000218:	0c0fbc03          	ld	s8,192(t6)
    8000021c:	0c8fbc83          	ld	s9,200(t6)
    80000220:	0d0fbd03          	ld	s10,208(t6)
    80000224:	0d8fbd83          	ld	s11,216(t6)
    80000228:	0e0fbe03          	ld	t3,224(t6)
    8000022c:	0e8fbe83          	ld	t4,232(t6)
    80000230:	0f0fbf03          	ld	t5,240(t6)
    80000234:	0f8fbf83          	ld	t6,248(t6)
    80000238:	0040006f          	j	8000023c <pseg_0>

000000008000023c <pseg_0>:
    8000023c:	45c1ee93          	ori	t4,gp,1116
    80000240:	02f79433          	mulh	s0,a5,a5
    80000244:	0123e933          	or	s2,t2,s2
    80000248:	40e75d33          	sra	s10,a4,a4
    8000024c:	71ad6c63          	bltu	s10,s10,80000964 <crash_forward>
    80000250:	017b8533          	add	a0,s7,s7
    80000254:	00002717          	auipc	a4,0x2
    80000258:	94970713          	addi	a4,a4,-1719 # 80001b9d <fromhost+0xb5d>
    8000025c:	dfd00093          	li	ra,-515
    80000260:	00002617          	auipc	a2,0x2
    80000264:	97360613          	addi	a2,a2,-1677 # 80001bd3 <fromhost+0xb93>
    80000268:	8be00213          	li	tp,-1858
    8000026c:	00002517          	auipc	a0,0x2
    80000270:	bb350513          	addi	a0,a0,-1101 # 80001e1f <fromhost+0xddf>
    80000274:	5f800193          	li	gp,1528
    80000278:	12000a93          	li	s5,288
    8000027c:	00002e97          	auipc	t4,0x2
    80000280:	529e8e93          	addi	t4,t4,1321 # 800027a5 <_end+0x195>
    80000284:	12800d93          	li	s11,296
    80000288:	f08416e3          	bne	s0,s0,80000194 <crash_backward>
    8000028c:	03bd8f33          	mul	t5,s11,s11
    80000290:	58500e13          	li	t3,1413
    80000294:	035af3b3          	remu	t2,s5,s5
    80000298:	94208b13          	addi	s6,ra,-1726
    8000029c:	42550403          	lb	s0,1061(a0)
    800002a0:	03caa5b3          	mulhsu	a1,s5,t3
    800002a4:	7db56093          	ori	ra,a0,2011
    800002a8:	014bdfb3          	srl	t6,s7,s4
    800002ac:	7c1622a3          	sw	ra,1989(a2)
    800002b0:	3bf00313          	li	t1,959
    800002b4:	03ce783b          	remuw	a6,t3,t3
    800002b8:	78370b83          	lb	s7,1923(a4)
    800002bc:	30d00f13          	li	t5,781
    800002c0:	74900d13          	li	s10,1865
    800002c4:	8c800893          	li	a7,-1848
    800002c8:	406204b3          	sub	s1,tp,t1
    800002cc:	0148ccb3          	xor	s9,a7,s4
    800002d0:	4070de1b          	sraiw	t3,ra,0x7
    800002d4:	03188133          	mul	sp,a7,a7
    800002d8:	42600993          	li	s3,1062
    800002dc:	000c8813          	mv	a6,s9
    800002e0:	01d00693          	li	a3,29
    800002e4:	03318c3b          	mulw	s8,gp,s3
    800002e8:	74100f93          	li	t6,1857
    800002ec:	03af093b          	mulw	s2,t5,s10
    800002f0:	ab2e90a3          	sh	s2,-1375(t4)
    800002f4:	03baf133          	remu	sp,s5,s11
    800002f8:	026c74bb          	remuw	s1,s8,t1
    800002fc:	46500593          	li	a1,1125
    80000300:	00100313          	li	t1,1
    80000304:	00080b93          	mv	s7,a6
    80000308:	03f31313          	slli	t1,t1,0x3f
    8000030c:	e80044e3          	bltz	zero,80000194 <crash_backward>
    80000310:	02d6a7b3          	mulhsu	a5,a3,a3
    80000314:	036c00bb          	mulw	ra,s8,s6
    80000318:	f1e00293          	li	t0,-226
    8000031c:	f1700a93          	li	s5,-233
    80000320:	65784263          	blt	a6,s7,80000964 <crash_forward>
    80000324:	02529a33          	mulh	s4,t0,t0
    80000328:	019cdcbb          	srlw	s9,s9,s9
    8000032c:	01bca0b3          	slt	ra,s9,s11
    80000330:	9f300993          	li	s3,-1549
    80000334:	b4c00f13          	li	t5,-1204
    80000338:	00100c13          	li	s8,1
    8000033c:	03ef4a33          	div	s4,t5,t5
    80000340:	00100413          	li	s0,1
    80000344:	03fc1c13          	slli	s8,s8,0x3f
    80000348:	01ff91bb          	sllw	gp,t6,t6
    8000034c:	5f900d93          	li	s11,1529
    80000350:	03f41413          	slli	s0,s0,0x3f
    80000354:	e1944e13          	xori	t3,s0,-487
    80000358:	fff00893          	li	a7,-1
    8000035c:	fff00693          	li	a3,-1
    80000360:	0086c6b3          	xor	a3,a3,s0
    80000364:	02bfab33          	mulhsu	s6,t6,a1
    80000368:	416b5a3b          	sraw	s4,s6,s6
    8000036c:	02108bb3          	mul	s7,ra,ra
    80000370:	00df77b3          	and	a5,t5,a3
    80000374:	cd400e93          	li	t4,-812
    80000378:	fff00613          	li	a2,-1
    8000037c:	016d8f3b          	addw	t5,s11,s6
    80000380:	41ded533          	sra	a0,t4,t4
    80000384:	0087ecb3          	or	s9,a5,s0
    80000388:	85a00e13          	li	t3,-1958
    8000038c:	0188c8b3          	xor	a7,a7,s8
    80000390:	000b8f93          	mv	t6,s7
    80000394:	000f8a13          	mv	s4,t6
    80000398:	40488f33          	sub	t5,a7,tp
    8000039c:	00000593          	li	a1,0
    800003a0:	00002517          	auipc	a0,0x2
    800003a4:	c2450513          	addi	a0,a0,-988 # 80001fc4 <fromhost+0xf84>
    800003a8:	24100e93          	li	t4,577
    800003ac:	03ce21b3          	mulhsu	gp,t3,t3
    800003b0:	00000693          	li	a3,0
    800003b4:	00002117          	auipc	sp,0x2
    800003b8:	8a010113          	addi	sp,sp,-1888 # 80001c54 <fromhost+0xc14>
    800003bc:	02acaf33          	mulhsu	t5,s9,a0
    800003c0:	00002917          	auipc	s2,0x2
    800003c4:	52d90913          	addi	s2,s2,1325 # 800028ed <_end+0x2dd>
    800003c8:	00664633          	xor	a2,a2,t1
    800003cc:	9e891ba3          	sh	s0,-1545(s2)
    800003d0:	70b00093          	li	ra,1803
    800003d4:	03dec433          	div	s0,t4,t4
    800003d8:	68d10283          	lb	t0,1677(sp)
    800003dc:	00000793          	li	a5,0
    800003e0:	01399d3b          	sllw	s10,s3,s3
    800003e4:	00000b93          	li	s7,0
    800003e8:	0010bb33          	sltu	s6,ra,ra
    800003ec:	4da50c83          	lb	s9,1242(a0)
    800003f0:	56f6ea63          	bltu	a3,a5,80000964 <crash_forward>
    800003f4:	01baa3b3          	slt	t2,s5,s11
    800003f8:	d975cee3          	blt	a1,s7,80000194 <crash_backward>
    800003fc:	011b74b3          	and	s1,s6,a7
    80000400:	018c6833          	or	a6,s8,s8
    80000404:	00cef233          	and	tp,t4,a2
    80000408:	00626733          	or	a4,tp,t1
    8000040c:	036b3f33          	mulhu	t5,s6,s6
    80000410:	00100093          	li	ra,1
    80000414:	89500593          	li	a1,-1899
    80000418:	03f09093          	slli	ra,ra,0x3f
    8000041c:	fff00793          	li	a5,-1
    80000420:	02b58933          	mul	s2,a1,a1
    80000424:	e2000e13          	li	t3,-480
    80000428:	9c700693          	li	a3,-1593
    8000042c:	02928bb3          	mul	s7,t0,s1
    80000430:	02b589bb          	mulw	s3,a1,a1
    80000434:	7fc00193          	li	gp,2044
    80000438:	00100393          	li	t2,1
    8000043c:	0017c7b3          	xor	a5,a5,ra
    80000440:	02de2db3          	mulhsu	s11,t3,a3
    80000444:	00f6f533          	and	a0,a3,a5
    80000448:	13206a13          	ori	s4,zero,306
    8000044c:	17b00113          	li	sp,379
    80000450:	cd900f13          	li	t5,-807
    80000454:	d0300993          	li	s3,-765
    80000458:	b7b00d93          	li	s11,-1157
    8000045c:	4ec00893          	li	a7,1260
    80000460:	59b00713          	li	a4,1435
    80000464:	89e00a93          	li	s5,-1890
    80000468:	031132b3          	mulhu	t0,sp,a7
    8000046c:	03f39393          	slli	t2,t2,0x3f
    80000470:	62518413          	addi	s0,gp,1573 # 80003435 <__global_pointer$+0x625>
    80000474:	fff00c93          	li	s9,-1
    80000478:	007cccb3          	xor	s9,s9,t2
    8000047c:	a3f00b93          	li	s7,-1473
    80000480:	00156d33          	or	s10,a0,ra
    80000484:	d1a508e3          	beq	a0,s10,80000194 <crash_backward>
    80000488:	d081f6e3          	bgeu	gp,s0,80000194 <crash_backward>
    8000048c:	008416b3          	sll	a3,s0,s0
    80000490:	0137be33          	sltu	t3,a5,s3
    80000494:	01bf1a33          	sll	s4,t5,s11
    80000498:	3a500813          	li	a6,933
    8000049c:	01084eb3          	xor	t4,a6,a6
    800004a0:	015adc3b          	srlw	s8,s5,s5
    800004a4:	00e9b4b3          	sltu	s1,s3,a4
    800004a8:	87c00213          	li	tp,-1924
    800004ac:	019c7fb3          	and	t6,s8,s9
    800004b0:	0072eb33          	or	s6,t0,t2
    800004b4:	01353833          	sltu	a6,a0,s3
    800004b8:	0042163b          	sllw	a2,tp,tp
    800004bc:	d7400e13          	li	t3,-652
    800004c0:	03ff873b          	mulw	a4,t6,t6
    800004c4:	53f00e93          	li	t4,1343
    800004c8:	59800593          	li	a1,1432
    800004cc:	415984bb          	subw	s1,s3,s5
    800004d0:	60500793          	li	a5,1541
    800004d4:	1e100513          	li	a0,481
    800004d8:	f74e0a93          	addi	s5,t3,-140
    800004dc:	00002417          	auipc	s0,0x2
    800004e0:	25540413          	addi	s0,s0,597 # 80002731 <_end+0x121>
    800004e4:	02f7f333          	remu	t1,a5,a5
    800004e8:	03c0b0b3          	mulhu	ra,ra,t3
    800004ec:	38a00813          	li	a6,906
    800004f0:	cb5e02e3          	beq	t3,s5,80000194 <crash_backward>
    800004f4:	34a00c93          	li	s9,842
    800004f8:	40455893          	srai	a7,a0,0x4
    800004fc:	933b8193          	addi	gp,s7,-1741
    80000500:	03982fb3          	mulhsu	t6,a6,s9
    80000504:	55b00a13          	li	s4,1371
    80000508:	00002d17          	auipc	s10,0x2
    8000050c:	405d0d13          	addi	s10,s10,1029 # 8000290d <_end+0x2fd>
    80000510:	028a5493          	srli	s1,s4,0x28
    80000514:	00bbb933          	sltu	s2,s7,a1
    80000518:	00a55133          	srl	sp,a0,a0
    8000051c:	c3bd3683          	ld	a3,-965(s10)
    80000520:	8e700c13          	li	s8,-1817
    80000524:	03def2bb          	remuw	t0,t4,t4
    80000528:	3e5a0b13          	addi	s6,s4,997
    8000052c:	51f00f13          	li	t5,1311
    80000530:	7a900393          	li	t2,1961
    80000534:	c74b40e3          	blt	s6,s4,80000194 <crash_backward>
    80000538:	00002797          	auipc	a5,0x2
    8000053c:	10678793          	addi	a5,a5,262 # 8000263e <_end+0x2e>
    80000540:	16a38713          	addi	a4,t2,362
    80000544:	c47748e3          	blt	a4,t2,80000194 <crash_backward>
    80000548:	12800093          	li	ra,296
    8000054c:	c0742d83          	lw	s11,-1017(s0)
    80000550:	01ec49b3          	xor	s3,s8,t5
    80000554:	f0b786a3          	sb	a1,-243(a5)
    80000558:	10808313          	addi	t1,ra,264
    8000055c:	4060f463          	bgeu	ra,t1,80000964 <crash_forward>
    80000560:	4b900493          	li	s1,1209
    80000564:	0094e3b3          	or	t2,s1,s1
    80000568:	c3700713          	li	a4,-969
    8000056c:	e8f00d93          	li	s11,-369
    80000570:	a0a00a93          	li	s5,-1526
    80000574:	02f02833          	mulhsu	a6,zero,a5
    80000578:	407252bb          	sraw	t0,tp,t2
    8000057c:	015ae933          	or	s2,s5,s5
    80000580:	023182bb          	mulw	t0,gp,gp
    80000584:	9ae00393          	li	t2,-1618
    80000588:	a0b00593          	li	a1,-1525
    8000058c:	e8200693          	li	a3,-382
    80000590:	00bdd1b3          	srl	gp,s11,a1
    80000594:	16500c93          	li	s9,357
    80000598:	0049543b          	srlw	s0,s2,tp
    8000059c:	b9400093          	li	ra,-1132
    800005a0:	9e908513          	addi	a0,ra,-1559
    800005a4:	03188eb3          	mul	t4,a7,a7
    800005a8:	00100e13          	li	t3,1
    800005ac:	412b5b1b          	sraiw	s6,s6,0x12
    800005b0:	c8b00493          	li	s1,-885
    800005b4:	31700f93          	li	t6,791
    800005b8:	03fe1e13          	slli	t3,t3,0x3f
    800005bc:	034a38b3          	mulhu	a7,s4,s4
    800005c0:	7a100793          	li	a5,1953
    800005c4:	b4f00113          	li	sp,-1201
    800005c8:	fff00d13          	li	s10,-1
    800005cc:	38a08c63          	beq	ra,a0,80000964 <crash_forward>
    800005d0:	80900313          	li	t1,-2039
    800005d4:	0293883b          	mulw	a6,t2,s1
    800005d8:	01cd4d33          	xor	s10,s10,t3
    800005dc:	03974a33          	div	s4,a4,s9
    800005e0:	01a9f633          	and	a2,s3,s10
    800005e4:	02f79233          	mulh	tp,a5,a5
    800005e8:	0266bc33          	mulhu	s8,a3,t1
    800005ec:	002159b3          	srl	s3,sp,sp
    800005f0:	01ff8bb3          	add	s7,t6,t6
    800005f4:	01c0ef33          	or	t5,ra,t3
    800005f8:	02847fb3          	remu	t6,s0,s0
    800005fc:	00002197          	auipc	gp,0x2
    80000600:	56f18193          	addi	gp,gp,1391 # 80002b6b <_end+0x55b>
    80000604:	8251a283          	lw	t0,-2011(gp) # 80002635 <_end+0x25>
    80000608:	59f00313          	li	t1,1439
    8000060c:	95000493          	li	s1,-1712
    80000610:	007c2ab3          	slt	s5,s8,t2
    80000614:	00100213          	li	tp,1
    80000618:	31400f13          	li	t5,788
    8000061c:	1fc00b13          	li	s6,508
    80000620:	03ce0833          	mul	a6,t3,t3
    80000624:	00f00693          	li	a3,15
    80000628:	03f21213          	slli	tp,tp,0x3f
    8000062c:	ba100793          	li	a5,-1119
    80000630:	4094d43b          	sraw	s0,s1,s1
    80000634:	40d68a33          	sub	s4,a3,a3
    80000638:	03e58bb3          	mul	s7,a1,t5
    8000063c:	ba000513          	li	a0,-1120
    80000640:	400d8bb3          	sub	s7,s11,zero
    80000644:	fff00993          	li	s3,-1
    80000648:	30006e63          	bltu	zero,zero,80000964 <crash_forward>
    8000064c:	0164b0b3          	sltu	ra,s1,s6
    80000650:	00100d93          	li	s11,1
    80000654:	00000a93          	li	s5,0
    80000658:	03999133          	mulh	sp,s3,s9
    8000065c:	00002597          	auipc	a1,0x2
    80000660:	53458593          	addi	a1,a1,1332 # 80002b90 <_end+0x580>
    80000664:	a5600413          	li	s0,-1450
    80000668:	8255b023          	sd	t0,-2016(a1)
    8000066c:	45500e13          	li	t3,1109
    80000670:	a4e00193          	li	gp,-1458
    80000674:	0b400713          	li	a4,180
    80000678:	0031fa33          	and	s4,gp,gp
    8000067c:	ebb00693          	li	a3,-325
    80000680:	41cf5c3b          	sraw	s8,t5,t3
    80000684:	0049c9b3          	xor	s3,s3,tp
    80000688:	0138f8b3          	and	a7,a7,s3
    8000068c:	40d6dfbb          	sraw	t6,a3,a3
    80000690:	02e7ed3b          	remw	s10,a5,a4
    80000694:	00847833          	and	a6,s0,s0
    80000698:	00002e17          	auipc	t3,0x2
    8000069c:	122e0e13          	addi	t3,t3,290 # 800027ba <_end+0x1aa>
    800006a0:	4066083b          	subw	a6,a2,t1
    800006a4:	56400b13          	li	s6,1380
    800006a8:	37700b93          	li	s7,887
    800006ac:	3de00f13          	li	t5,990
    800006b0:	036b34b3          	mulhu	s1,s6,s6
    800006b4:	00109433          	sll	s0,ra,ra
    800006b8:	01ef513b          	srlw	sp,t5,t5
    800006bc:	00300d13          	li	s10,3
    800006c0:	0048e633          	or	a2,a7,tp
    800006c4:	01ffe5b3          	or	a1,t6,t6
    800006c8:	4f3d0a13          	addi	s4,s10,1267
    800006cc:	ee400b13          	li	s6,-284
    800006d0:	c5ae6183          	lwu	gp,-934(t3)
    800006d4:	eb800c13          	li	s8,-328
    800006d8:	03de94b3          	mulh	s1,t4,t4
    800006dc:	4139d133          	sra	sp,s3,s3
    800006e0:	40a35ebb          	sraw	t4,t1,a0
    800006e4:	8f400693          	li	a3,-1804
    800006e8:	00000293          	li	t0,0
    800006ec:	409dd7bb          	sraw	a5,s11,s1
    800006f0:	00f7d5bb          	srlw	a1,a5,a5
    800006f4:	00100193          	li	gp,1
    800006f8:	00100e13          	li	t3,1
    800006fc:	02d6afb3          	mulhsu	t6,a3,a3
    80000700:	03fe1e13          	slli	t3,t3,0x3f
    80000704:	418bd73b          	sraw	a4,s7,s8
    80000708:	fff00513          	li	a0,-1
    8000070c:	00001317          	auipc	t1,0x1
    80000710:	5d030313          	addi	t1,t1,1488 # 80001cdc <fromhost+0xc9c>
    80000714:	03fd9d93          	slli	s11,s11,0x3f
    80000718:	79e00c13          	li	s8,1950
    8000071c:	0318c0b3          	div	ra,a7,a7
    80000720:	24c8c263          	blt	a7,a2,80000964 <crash_forward>
    80000724:	eb200f13          	li	t5,-334
    80000728:	013396bb          	sllw	a3,t2,s3
    8000072c:	01ef0433          	add	s0,t5,t5
    80000730:	0ac00b93          	li	s7,172
    80000734:	6c831323          	sh	s0,1734(t1)
    80000738:	417306bb          	subw	a3,t1,s7
    8000073c:	036b083b          	mulw	a6,s6,s6
    80000740:	03f19193          	slli	gp,gp,0x3f
    80000744:	01c54533          	xor	a0,a0,t3
    80000748:	00a6feb3          	and	t4,a3,a0
    8000074c:	037ba5b3          	mulhsu	a1,s7,s7
    80000750:	038c4a33          	div	s4,s8,s8
    80000754:	00002317          	auipc	t1,0x2
    80000758:	00d30313          	addi	t1,t1,13 # 80002761 <_end+0x151>
    8000075c:	2f600893          	li	a7,758
    80000760:	8b900713          	li	a4,-1863
    80000764:	01cee4b3          	or	s1,t4,t3
    80000768:	b9b36203          	lwu	tp,-1125(t1)
    8000076c:	4118d63b          	sraw	a2,a7,a7
    80000770:	0010f133          	and	sp,ra,ra
    80000774:	00002f97          	auipc	t6,0x2
    80000778:	c50f8f93          	addi	t6,t6,-944 # 800023c4 <test_memory+0x1c4>
    8000077c:	56d00093          	li	ra,1389
    80000780:	fbe00413          	li	s0,-66
    80000784:	068fdd03          	lhu	s10,104(t6)
    80000788:	fff00c93          	li	s9,-1
    8000078c:	01bcccb3          	xor	s9,s9,s11
    80000790:	001769b3          	or	s3,a4,ra
    80000794:	ba740f13          	addi	t5,s0,-1113
    80000798:	0193f3b3          	and	t2,t2,s9
    8000079c:	9e8f7ce3          	bgeu	t5,s0,80000194 <crash_backward>
    800007a0:	01b3e933          	or	s2,t2,s11
    800007a4:	d3b00a13          	li	s4,-709
    800007a8:	00b5833b          	addw	t1,a1,a1
    800007ac:	6dc00493          	li	s1,1756
    800007b0:	fff00a93          	li	s5,-1
    800007b4:	d9847b13          	andi	s6,s0,-616
    800007b8:	e4f00e93          	li	t4,-433
    800007bc:	00002f17          	auipc	t5,0x2
    800007c0:	fe1f0f13          	addi	t5,t5,-31 # 8000279d <_end+0x18d>
    800007c4:	5b200513          	li	a0,1458
    800007c8:	409a043b          	subw	s0,s4,s1
    800007cc:	0210c633          	div	a2,ra,ra
    800007d0:	03c47fb3          	remu	t6,s0,t3
    800007d4:	c1500d13          	li	s10,-1003
    800007d8:	01dedc33          	srl	s8,t4,t4
    800007dc:	2f100993          	li	s3,753
    800007e0:	0a700693          	li	a3,167
    800007e4:	00d6c133          	xor	sp,a3,a3
    800007e8:	d5d00f93          	li	t6,-675
    800007ec:	01ff84b3          	add	s1,t6,t6
    800007f0:	f8e00b93          	li	s7,-114
    800007f4:	406ade1b          	sraiw	t3,s5,0x6
    800007f8:	02a558b3          	divu	a7,a0,a0
    800007fc:	ca000093          	li	ra,-864
    80000800:	4179823b          	subw	tp,s3,s7
    80000804:	16004063          	bltz	zero,80000964 <crash_forward>
    80000808:	d7bf6803          	lwu	a6,-645(t5)
    8000080c:	5268841b          	addiw	s0,a7,1318
    80000810:	29600b13          	li	s6,662
    80000814:	7deb0313          	addi	t1,s6,2014
    80000818:	0210f5bb          	remuw	a1,ra,ra
    8000081c:	02d689b3          	mul	s3,a3,a3
    80000820:	03ad6733          	rem	a4,s10,s10
    80000824:	03f2e6bb          	remw	a3,t0,t6
    80000828:	003acab3          	xor	s5,s5,gp
    8000082c:	03ad76b3          	remu	a3,s10,s10
    80000830:	03000513          	li	a0,48
    80000834:	77c00113          	li	sp,1916
    80000838:	65000713          	li	a4,1616
    8000083c:	6ae00993          	li	s3,1710
    80000840:	08b00f13          	li	t5,139
    80000844:	1c9f0093          	addi	ra,t5,457
    80000848:	48200b93          	li	s7,1154
    8000084c:	00b00e13          	li	t3,11
    80000850:	19100d13          	li	s10,401
    80000854:	41c108b3          	sub	a7,sp,t3
    80000858:	b8400e93          	li	t4,-1148
    8000085c:	015377b3          	and	a5,t1,s5
    80000860:	2b998493          	addi	s1,s3,697
    80000864:	3a0b8213          	addi	tp,s7,928
    80000868:	66600f93          	li	t6,1638
    8000086c:	5c200b13          	li	s6,1474
    80000870:	73000413          	li	s0,1840
    80000874:	008d45b3          	xor	a1,s10,s0
    80000878:	03f56a33          	rem	s4,a0,t6
    8000087c:	901f7ce3          	bgeu	t5,ra,80000194 <crash_backward>
    80000880:	0f724263          	blt	tp,s7,80000964 <crash_forward>
    80000884:	27400813          	li	a6,628
    80000888:	65500913          	li	s2,1621
    8000088c:	032723b3          	mulhsu	t2,a4,s2
    80000890:	003662b3          	or	t0,a2,gp
    80000894:	eec00e13          	li	t3,-276
    80000898:	036b08b3          	mul	a7,s6,s6
    8000089c:	c1e00d93          	li	s11,-994
    800008a0:	bdf00613          	li	a2,-1057
    800008a4:	bf800313          	li	t1,-1032
    800008a8:	92a00a13          	li	s4,-1750
    800008ac:	00cefc33          	and	s8,t4,a2
    800008b0:	026e4133          	div	sp,t3,t1
    800008b4:	76300593          	li	a1,1891
    800008b8:	01b876b3          	and	a3,a6,s11
    800008bc:	40ba543b          	sraw	s0,s4,a1
    800008c0:	0040006f          	j	800008c4 <reg_dump>

00000000800008c4 <reg_dump>:
    800008c4:	00002097          	auipc	ra,0x2
    800008c8:	d3c08093          	addi	ra,ra,-708 # 80002600 <loop_count>
    800008cc:	0000a103          	lw	sp,0(ra)
    800008d0:	fff10193          	addi	gp,sp,-1
    800008d4:	0030a023          	sw	gp,0(ra)
    800008d8:	960112e3          	bnez	sp,8000023c <pseg_0>
    800008dc:	00002097          	auipc	ra,0x2
    800008e0:	82408093          	addi	ra,ra,-2012 # 80002100 <begin_signature>
    800008e4:	0000b023          	sd	zero,0(ra)
    800008e8:	0020b823          	sd	sp,16(ra)
    800008ec:	0030bc23          	sd	gp,24(ra)
    800008f0:	0240b023          	sd	tp,32(ra)
    800008f4:	0250b423          	sd	t0,40(ra)
    800008f8:	0260b823          	sd	t1,48(ra)
    800008fc:	0270bc23          	sd	t2,56(ra)
    80000900:	0480b023          	sd	s0,64(ra)
    80000904:	0490b423          	sd	s1,72(ra)
    80000908:	04a0b823          	sd	a0,80(ra)
    8000090c:	04b0bc23          	sd	a1,88(ra)
    80000910:	06c0b023          	sd	a2,96(ra)
    80000914:	06d0b423          	sd	a3,104(ra)
    80000918:	06e0b823          	sd	a4,112(ra)
    8000091c:	06f0bc23          	sd	a5,120(ra)
    80000920:	0900b023          	sd	a6,128(ra)
    80000924:	0910b423          	sd	a7,136(ra)
    80000928:	0920b823          	sd	s2,144(ra)
    8000092c:	0930bc23          	sd	s3,152(ra)
    80000930:	0b40b023          	sd	s4,160(ra)
    80000934:	0b50b423          	sd	s5,168(ra)
    80000938:	0b60b823          	sd	s6,176(ra)
    8000093c:	0b70bc23          	sd	s7,184(ra)
    80000940:	0d80b023          	sd	s8,192(ra)
    80000944:	0d90b423          	sd	s9,200(ra)
    80000948:	0da0b823          	sd	s10,208(ra)
    8000094c:	0db0bc23          	sd	s11,216(ra)
    80000950:	0fc0b023          	sd	t3,224(ra)
    80000954:	0fd0b423          	sd	t4,232(ra)
    80000958:	0fe0b823          	sd	t5,240(ra)
    8000095c:	0ff0bc23          	sd	t6,248(ra)
    80000960:	0200006f          	j	80000980 <test_end>

0000000080000964 <crash_forward>:
    80000964:	0ff0000f          	fence
    80000968:	00018063          	beqz	gp,80000968 <crash_forward+0x4>
    8000096c:	00119193          	slli	gp,gp,0x1
    80000970:	0011e193          	ori	gp,gp,1
    80000974:	05d00893          	li	a7,93
    80000978:	00018513          	mv	a0,gp
    8000097c:	00000073          	ecall

0000000080000980 <test_end>:
    80000980:	0ff0000f          	fence
    80000984:	00100193          	li	gp,1
    80000988:	05d00893          	li	a7,93
    8000098c:	00000513          	li	a0,0
    80000990:	00000073          	ecall
    80000994:	c0001073          	unimp
	...

Disassembly of section .tohost:

0000000080001000 <tohost>:
	...

0000000080001040 <fromhost>:
	...

Disassembly of section .data:

0000000080002000 <hidden_data>:
    80002000:	ffff                	0xffff
    80002002:	ffff                	0xffff
    80002004:	ffff                	0xffff
    80002006:	ffff                	0xffff

0000000080002008 <reg_x1_init>:
    80002008:	9e2e2cd3          	0x9e2e2cd3
    8000200c:	89ae                	mv	s3,a1
    8000200e:	70d9                	lui	ra,0xffff6

0000000080002010 <reg_x2_init>:
    80002010:	ac66                	fsd	fs9,24(sp)
    80002012:	94fc                	0x94fc
    80002014:	041f 2218       	0xffff2218041f

0000000080002018 <reg_x3_init>:
    80002018:	ffff                	0xffff
    8000201a:	ffff                	0xffff
    8000201c:	ffff                	0xffff
    8000201e:	ffff                	0xffff

0000000080002020 <reg_x4_init>:
    80002020:	4b5f 3404 45ca      	0x45ca34044b5f
    80002026:	2339                	addiw	t1,t1,14

0000000080002028 <reg_x5_init>:
    80002028:	4c5f5f6f          	jal	t5,800f7cec <__global_pointer$+0xf4edc>
    8000202c:	c0e1                	beqz	s1,800020ec <reg_x29_init+0x4>
    8000202e:	  	0x1cf1f15ff19ac93f

0000000080002030 <reg_x6_init>:
    80002030:	f19a                	sd	t1,224(sp)
    80002032:	f15f 1cf1 9819      	0x98191cf1f15f

0000000080002038 <reg_x7_init>:
    80002038:	0005                	c.nop	1
    8000203a:	0000                	unimp
    8000203c:	0000                	unimp
	...

0000000080002040 <reg_x8_init>:
    80002040:	9051                	srli	s0,s0,0x34
    80002042:	d995                	beqz	a1,80001f76 <fromhost+0xf36>
    80002044:	73f96c03          	lwu	s8,1855(s2)

0000000080002048 <reg_x9_init>:
	...

0000000080002050 <reg_x10_init>:
    80002050:	047cf607          	0x47cf607
    80002054:	5948                	lw	a0,52(a0)
    80002056:	          	0xff7c6aa7

0000000080002058 <reg_x11_init>:
    80002058:	ff7c                	sd	a5,248(a4)
    8000205a:	7b9e                	ld	s7,480(sp)
    8000205c:	4e88                	lw	a0,24(a3)
    8000205e:	73de                	ld	t2,496(sp)

0000000080002060 <reg_x12_init>:
	...

0000000080002068 <reg_x13_init>:
    80002068:	a361                	j	800025f0 <test_memory+0x3f0>
    8000206a:	01d5                	addi	gp,gp,21
    8000206c:	f7d1                	bnez	a5,80001ff8 <fromhost+0xfb8>
    8000206e:	fe15                	bnez	a2,80001faa <fromhost+0xf6a>

0000000080002070 <reg_x14_init>:
    80002070:	0001                	nop
    80002072:	0000                	unimp
    80002074:	0000                	unimp
    80002076:	0800                	addi	s0,sp,16

0000000080002078 <reg_x15_init>:
    80002078:	1cff                	0x1cff
    8000207a:	ea93814f          	fnmadd.d	ft2,ft7,fs1,ft9,rne
    8000207e:	          	0xb16b

0000000080002080 <reg_x16_init>:
	...

0000000080002088 <reg_x17_init>:
    80002088:	1325                	addi	t1,t1,-23
    8000208a:	7260                	ld	s0,224(a2)
    8000208c:	925a7dbf  	0x46b05a57925a7dbf

0000000080002090 <reg_x18_init>:
    80002090:	46b05a57          	0x46b05a57
    80002094:	51c2                	lw	gp,48(sp)
    80002096:	b76a                	fsd	fs10,424(sp)

0000000080002098 <reg_x19_init>:
    80002098:	ad96                	fsd	ft5,216(sp)
    8000209a:	7979                	lui	s2,0xffffe
    8000209c:	fbafe32f          	0xfbafe32f

00000000800020a0 <reg_x20_init>:
    800020a0:	8001                	c.srli64	s0
    800020a2:	ffff                	0xffff
    800020a4:	ffff                	0xffff
    800020a6:	ffff                	0xffff

00000000800020a8 <reg_x21_init>:
    800020a8:	0008                	0x8
    800020aa:	0000                	unimp
    800020ac:	0000                	unimp
	...

00000000800020b0 <reg_x22_init>:
    800020b0:	0cf0                	addi	a2,sp,604
    800020b2:	d6c4faf3          	csrrci	s5,0xd6c,9
    800020b6:	          	0xff8967e7

00000000800020b8 <reg_x23_init>:
    800020b8:	ff89                	bnez	a5,80001fd2 <fromhost+0xf92>
    800020ba:	ffff                	0xffff
    800020bc:	ffff                	0xffff
    800020be:	ffff                	0xffff

00000000800020c0 <reg_x24_init>:
    800020c0:	ffff                	0xffff
    800020c2:	ffff                	0xffff
    800020c4:	ffff                	0xffff
    800020c6:	ffff                	0xffff

00000000800020c8 <reg_x25_init>:
    800020c8:	d50a67d7          	0xd50a67d7
    800020cc:	3f93c1b3          	0x3f93c1b3

00000000800020d0 <reg_x26_init>:
    800020d0:	0009                	c.nop	2
    800020d2:	8000                	0x8000
    800020d4:	ffff                	0xffff
    800020d6:	ffff                	0xffff

00000000800020d8 <reg_x27_init>:
    800020d8:	e9716f33          	0xe9716f33
    800020dc:	615c                	ld	a5,128(a0)
    800020de:	3072                	fld	ft0,312(sp)

00000000800020e0 <reg_x28_init>:
    800020e0:	ffff                	0xffff
    800020e2:	ffff                	0xffff
    800020e4:	ffff                	0xffff
    800020e6:	ffff                	0xffff

00000000800020e8 <reg_x29_init>:
    800020e8:	ffff                	0xffff
    800020ea:	ffff                	0xffff
    800020ec:	ffff                	0xffff
    800020ee:	ffff                	0xffff

00000000800020f0 <reg_x30_init>:
    800020f0:	855e                	mv	a0,s7
    800020f2:	4348                	lw	a0,4(a4)
    800020f4:	5f6a                	lw	t5,184(sp)
    800020f6:	24bd                	addiw	s1,s1,15

00000000800020f8 <reg_x31_init>:
    800020f8:	0004                	0x4
    800020fa:	0000                	unimp
    800020fc:	0000                	unimp
	...

0000000080002100 <begin_signature>:
    80002100:	27a4                	fld	fs1,72(a5)
    80002102:	587c                	lw	a5,116(s0)
    80002104:	572c                	lw	a1,104(a4)
    80002106:	85b5                	srai	a1,a1,0xd

0000000080002108 <reg_x1_output>:
    80002108:	4331c7fb          	0x4331c7fb
    8000210c:	28e0                	fld	fs0,208(s1)
    8000210e:	6a0a                	ld	s4,128(sp)

0000000080002110 <reg_x2_output>:
    80002110:	1ab5                	addi	s5,s5,-19
    80002112:	e2e2                	sd	s8,320(sp)
    80002114:	5345                	li	t1,-15
    80002116:	          	flw	fa0,1160(a3)

0000000080002118 <reg_x3_output>:
    80002118:	4886                	lw	a7,64(sp)
    8000211a:	2e96                	fld	ft9,320(sp)
    8000211c:	46c5                	li	a3,17
    8000211e:	7cd6                	ld	s9,368(sp)

0000000080002120 <reg_x4_output>:
    80002120:	0091                	addi	ra,ra,4
    80002122:	d41a                	sw	t1,40(sp)
    80002124:	d378                	sw	a4,100(a4)
    80002126:	f702                	sd	zero,424(sp)

0000000080002128 <reg_x5_output>:
    80002128:	e140                	sd	s0,128(a0)
    8000212a:	8deb5453          	0x8deb5453
    8000212e:	1796                	slli	a5,a5,0x25

0000000080002130 <reg_x6_output>:
    80002130:	6dbcf9c7          	0x6dbcf9c7
    80002134:	797f                	0x797f
    80002136:	e250                	sd	a2,128(a2)

0000000080002138 <reg_x7_output>:
    80002138:	02f8                	addi	a4,sp,332
    8000213a:	dbf0                	sw	a2,116(a5)
    8000213c:	08cd                	addi	a7,a7,19
    8000213e:	d90e                	sw	gp,176(sp)

0000000080002140 <reg_x8_output>:
    80002140:	f251                	bnez	a2,800020c4 <reg_x24_init+0x4>
    80002142:	f1849d7b          	0xf1849d7b
    80002146:	          	0xc86740ab

0000000080002148 <reg_x9_output>:
    80002148:	d63cc867          	0xd63cc867
    8000214c:	a081                	j	8000218c <reg_x17_output+0x4>
    8000214e:	          	amomin.w.aq	t3,ra,(s11)

0000000080002150 <reg_x10_output>:
    80002150:	841d                	srai	s0,s0,0x7
    80002152:	9b74                	0x9b74
    80002154:	1c42                	slli	s8,s8,0x30
    80002156:	addd                	j	8000284c <_end+0x23c>

0000000080002158 <reg_x11_output>:
    80002158:	064d                	addi	a2,a2,19
    8000215a:	26e64083          	lbu	ra,622(a2)
    8000215e:	c975                	beqz	a0,80002252 <test_memory+0x52>

0000000080002160 <reg_x12_output>:
    80002160:	fdc8                	sd	a0,184(a1)
    80002162:	3892                	fld	fa7,288(sp)
    80002164:	464c                	lw	a1,12(a2)
    80002166:	c451                	beqz	s0,800021f2 <reg_x30_output+0x2>

0000000080002168 <reg_x13_output>:
    80002168:	b9d9                	j	80001e3e <fromhost+0xdfe>
    8000216a:	587a                	lw	a6,188(sp)
    8000216c:	5019                	c.li	zero,-26
    8000216e:	4960                	lw	s0,84(a0)

0000000080002170 <reg_x14_output>:
    80002170:	91ac                	0x91ac
    80002172:	00a5b947          	fmsub.s	fs2,fa1,fa0,ft0,rup
    80002176:	8d40                	0x8d40

0000000080002178 <reg_x15_output>:
    80002178:	794d                	lui	s2,0xffff3
    8000217a:	d5f1                	beqz	a1,80002146 <reg_x8_output+0x6>
    8000217c:	4f2a                	lw	t5,136(sp)
    8000217e:	ef8d                	bnez	a5,800021b8 <reg_x23_output>

0000000080002180 <reg_x16_output>:
    80002180:	f11c                	sd	a5,32(a0)
    80002182:	88b0                	0x88b0
    80002184:	6e9c                	ld	a5,24(a3)
    80002186:	a4ec                	fsd	fa1,200(s1)

0000000080002188 <reg_x17_output>:
    80002188:	cae2                	sw	s8,84(sp)
    8000218a:	1ad4                	addi	a3,sp,372
    8000218c:	cc060a17          	auipc	s4,0xcc060

0000000080002190 <reg_x18_output>:
    80002190:	d7ee                	sw	s11,236(sp)
    80002192:	39be                	fld	fs3,488(sp)
    80002194:	cb4d1cd3          	0xcb4d1cd3

0000000080002198 <reg_x19_output>:
    80002198:	85e8                	0x85e8
    8000219a:	2550                	fld	fa2,136(a0)
    8000219c:	18f1                	addi	a7,a7,-4
    8000219e:	d800                	sw	s0,48(s0)

00000000800021a0 <reg_x20_output>:
    800021a0:	4c39                	li	s8,14
    800021a2:	b59bc2f3          	0xb59bc2f3
    800021a6:	0b71                	addi	s6,s6,28

00000000800021a8 <reg_x21_output>:
    800021a8:	a231                	j	800022b4 <test_memory+0xb4>
    800021aa:	045b580f          	0x45b580f
    800021ae:	c71f        	0x3e91965fc71f

00000000800021b0 <reg_x22_output>:
    800021b0:	965f 3e91 2688      	0x26883e91965f
    800021b6:	219f        	0xf4b019af219f

00000000800021b8 <reg_x23_output>:
    800021b8:	f4b019af          	0xf4b019af
    800021bc:	773c                	ld	a5,104(a4)
    800021be:	          	0x354d29f7

00000000800021c0 <reg_x24_output>:
    800021c0:	354d                	addiw	a0,a0,-13
    800021c2:	9876                	add	a6,a6,t4
    800021c4:	f6900b3f  	0x4260c05cf6900b3f

00000000800021c8 <reg_x25_output>:
    800021c8:	c05c                	sw	a5,4(s0)
    800021ca:	4260                	lw	s0,68(a2)
    800021cc:	57b4                	lw	a3,104(a5)
    800021ce:	          	0x53019f27

00000000800021d0 <reg_x26_output>:
    800021d0:	5301                	li	t1,-32
    800021d2:	7194d4c3          	fmadd.s	fs1,fs1,fs9,fa4,unknown
    800021d6:	9ed0                	0x9ed0

00000000800021d8 <reg_x27_output>:
    800021d8:	3659                	addiw	a2,a2,-10
    800021da:	c8aa                	sw	a0,80(sp)
    800021dc:	fb49                	bnez	a4,8000216e <reg_x13_output+0x6>
    800021de:	bd21                	j	80001ff6 <fromhost+0xfb6>

00000000800021e0 <reg_x28_output>:
    800021e0:	7d4c                	ld	a1,184(a0)
    800021e2:	2341                	addiw	t1,t1,16
    800021e4:	4ad6                	lw	s5,84(sp)
    800021e6:	5d09                	li	s10,-30

00000000800021e8 <reg_x29_output>:
    800021e8:	585a                	lw	a6,180(sp)
    800021ea:	22d2                	fld	ft5,272(sp)
    800021ec:	ea68                	sd	a0,208(a2)
    800021ee:	850e                	mv	a0,gp

00000000800021f0 <reg_x30_output>:
    800021f0:	a6d8                	fsd	fa4,136(a3)
    800021f2:	eb0c                	sd	a1,16(a4)
    800021f4:	1e60                	addi	s0,sp,828
    800021f6:	4e81                	li	t4,0

00000000800021f8 <reg_x31_output>:
    800021f8:	d240                	sw	s0,36(a2)
    800021fa:	e707bd5b          	0xe707bd5b
    800021fe:	320c                	fld	fa1,32(a2)

0000000080002200 <test_memory>:
    80002200:	b46d                	j	80001caa <fromhost+0xc6a>
    80002202:	cd21                	beqz	a0,8000225a <test_memory+0x5a>
    80002204:	1f5cd17b          	0x1f5cd17b
    80002208:	3319b807          	fld	fa6,817(s3)
    8000220c:	2aae                	fld	fs5,200(sp)
    8000220e:	af12                	fsd	ft4,408(sp)
    80002210:	3ae11a6f          	jal	s4,800135be <__global_pointer$+0x107ae>
    80002214:	9865                	andi	s0,s0,-7
    80002216:	f184                	sd	s1,32(a1)
    80002218:	48e1                	li	a7,24
    8000221a:	0469                	addi	s0,s0,26
    8000221c:	0f98                	addi	a4,sp,976
    8000221e:	b3be                	fsd	fa5,480(sp)
    80002220:	5bdf4eab          	0x5bdf4eab
    80002224:	62be64a7          	0x62be64a7
    80002228:	77a240a3          	0x77a240a3
    8000222c:	9934                	0x9934
    8000222e:	bcff                	0xbcff
    80002230:	1252                	slli	tp,tp,0x34
    80002232:	54a4                	lw	s1,104(s1)
    80002234:	64ae                	ld	s1,200(sp)
    80002236:	c5d0                	sw	a2,12(a1)
    80002238:	5b60                	lw	s0,116(a4)
    8000223a:	a7f0                	fsd	fa2,200(a5)
    8000223c:	8fd0                	0x8fd0
    8000223e:	d844bcb7          	lui	s9,0xd844b
    80002242:	8a85                	andi	a3,a3,1
    80002244:	689c                	ld	a5,16(s1)
    80002246:	ef537493          	andi	s1,t1,-267
    8000224a:	15ce                	slli	a1,a1,0x33
    8000224c:	2399                	addiw	t2,t2,6
    8000224e:	5ab4                	lw	a3,112(a3)
    80002250:	cb92                	sw	tp,212(sp)
    80002252:	bfde                	fsd	fs7,504(sp)
    80002254:	405e                	0x405e
    80002256:	f706                	sd	ra,424(sp)
    80002258:	c101                	beqz	a0,80002258 <test_memory+0x58>
    8000225a:	8c89                	sub	s1,s1,a0
    8000225c:	4abd                	li	s5,15
    8000225e:	3a3e14cf          	fnmadd.d	fs1,ft8,ft3,ft7,rtz
    80002262:	1bad                	addi	s7,s7,-21
    80002264:	66fc                	ld	a5,200(a3)
    80002266:	42f0                	lw	a2,68(a3)
    80002268:	759f 60b4 4ef4      	0x4ef460b4759f
    8000226e:	02d8                	addi	a4,sp,324
    80002270:	6844                	ld	s1,144(s0)
    80002272:	a889                	j	800022c4 <test_memory+0xc4>
    80002274:	8f2c                	0x8f2c
    80002276:	47b0d1b3          	0x47b0d1b3
    8000227a:	0ebc                	addi	a5,sp,856
    8000227c:	3e1e                	fld	ft8,480(sp)
    8000227e:	c084                	sw	s1,0(s1)
    80002280:	0edd                	addi	t4,t4,23
    80002282:	e5311cf7          	0xe5311cf7
    80002286:	cbd0                	sw	a2,20(a5)
    80002288:	e1f2                	sd	t3,192(sp)
    8000228a:	1ccd                	addi	s9,s9,-13
    8000228c:	3b28324b          	fnmsub.d	ft4,fa6,fs2,ft7,rup
    80002290:	0c02                	c.slli64	s8
    80002292:	e2b9                	bnez	a3,800022d8 <test_memory+0xd8>
    80002294:	19e0                	addi	s0,sp,252
    80002296:	3ca0                	fld	fs0,120(s1)
    80002298:	847a                	mv	s0,t5
    8000229a:	a4e30283          	lb	t0,-1458(t1)
    8000229e:	062e45bb          	0x62e45bb
    800022a2:	2832                	fld	fa6,264(sp)
    800022a4:	8b02                	jr	s6
    800022a6:	d81ea203          	lw	tp,-639(t4)
    800022aa:	496d                	li	s2,27
    800022ac:	411d                	li	sp,7
    800022ae:	c2d0                	sw	a2,4(a3)
    800022b0:	0868                	addi	a0,sp,28
    800022b2:	2645                	addiw	a2,a2,17
    800022b4:	1cda                	slli	s9,s9,0x36
    800022b6:	4cc6                	lw	s9,80(sp)
    800022b8:	1412                	slli	s0,s0,0x24
    800022ba:	4dcc                	lw	a1,28(a1)
    800022bc:	e9b4                	sd	a3,80(a1)
    800022be:	5a807d0f          	0x5a807d0f
    800022c2:	cad5                	beqz	a3,80002376 <test_memory+0x176>
    800022c4:	9904                	0x9904
    800022c6:	cc04                	sw	s1,24(s0)
    800022c8:	59d5                	li	s3,-11
    800022ca:	14ee                	slli	s1,s1,0x3b
    800022cc:	e5d9                	bnez	a1,8000235a <test_memory+0x15a>
    800022ce:	f2a8                	sd	a0,96(a3)
    800022d0:	1998                	addi	a4,sp,240
    800022d2:	4435                	li	s0,13
    800022d4:	a688                	fsd	fa0,8(a3)
    800022d6:	01cd                	addi	gp,gp,19
    800022d8:	6b4d                	lui	s6,0x13
    800022da:	6969d107          	0x6969d107
    800022de:	54e6221b          	0x54e6221b
    800022e2:	e0c6                	sd	a7,64(sp)
    800022e4:	af25                	j	80002a1c <_end+0x40c>
    800022e6:	ce40                	sw	s0,28(a2)
    800022e8:	1f30                	addi	a2,sp,952
    800022ea:	7ee1                	lui	t4,0xffff8
    800022ec:	ec64                	sd	s1,216(s0)
    800022ee:	fe5a                	sd	s6,312(sp)
    800022f0:	c00ab2b7          	lui	t0,0xc00ab
    800022f4:	45f1                	li	a1,28
    800022f6:	5a25                	li	s4,-23
    800022f8:	37a6                	fld	fa5,104(sp)
    800022fa:	d339                	beqz	a4,80002240 <test_memory+0x40>
    800022fc:	0595                	addi	a1,a1,5
    800022fe:	7869                	lui	a6,0xffffa
    80002300:	e1b6                	sd	a3,192(sp)
    80002302:	9b99                	andi	a5,a5,-26
    80002304:	e324                	sd	s1,64(a4)
    80002306:	a779                	j	80002a94 <_end+0x484>
    80002308:	7f2c                	ld	a1,120(a4)
    8000230a:	91c2                	add	gp,gp,a6
    8000230c:	bc96                	fsd	ft5,120(sp)
    8000230e:	dcb6                	sw	a3,120(sp)
    80002310:	5a6d                	li	s4,-5
    80002312:	0930a737          	lui	a4,0x930a
    80002316:	f712                	sd	tp,424(sp)
    80002318:	b1204fbb          	0xb1204fbb
    8000231c:	86f9                	srai	a3,a3,0x1e
    8000231e:	a5f4                	fsd	fa3,200(a1)
    80002320:	350c                	fld	fa1,40(a0)
    80002322:	23c4                	fld	fs1,128(a5)
    80002324:	2715                	addiw	a4,a4,5
    80002326:	e349                	bnez	a4,800023a8 <test_memory+0x1a8>
    80002328:	e829                	bnez	s0,8000237a <test_memory+0x17a>
    8000232a:	0bf0                	addi	a2,sp,476
    8000232c:	5cc864bf b9521769 	0xb95217695cc864bf
    80002334:	cbf2                	sw	t3,212(sp)
    80002336:	7a50                	ld	a2,176(a2)
    80002338:	33ce                	fld	ft7,240(sp)
    8000233a:	215d                	addiw	sp,sp,23
    8000233c:	d00c                	sw	a1,32(s0)
    8000233e:	d764                	sw	s1,108(a4)
    80002340:	7f48                	ld	a0,184(a4)
    80002342:	3d68                	fld	fa0,248(a0)
    80002344:	ffdf abf5 e869      	0xe869abf5ffdf
    8000234a:	c5ea                	sw	s10,200(sp)
    8000234c:	5472741b          	0x5472741b
    80002350:	f3ddecdb          	0xf3ddecdb
    80002354:	d5f8                	sw	a4,108(a1)
    80002356:	a022                	fsd	fs0,0(sp)
    80002358:	1e45                	addi	t3,t3,-15
    8000235a:	f9b8                	sd	a4,112(a1)
    8000235c:	df75                	beqz	a4,80002358 <test_memory+0x158>
    8000235e:	dd69                	beqz	a0,80002338 <test_memory+0x138>
    80002360:	1ebab18b          	0x1ebab18b
    80002364:	8bbd                	andi	a5,a5,15
    80002366:	f21e                	sd	t2,288(sp)
    80002368:	2215c697          	auipc	a3,0x2215c
    8000236c:	a562                	fsd	fs8,136(sp)
    8000236e:	e499                	bnez	s1,8000237c <test_memory+0x17c>
    80002370:	66f9                	lui	a3,0x1e
    80002372:	c9995cb3          	0xc9995cb3
    80002376:	d9df a42a 03e8      	0x3e8a42ad9df
    8000237c:	a298                	fsd	fa4,0(a3)
    8000237e:	b5e8                	fsd	fa0,232(a1)
    80002380:	b225523f 55e9d8be 	0x55e9d8beb225523f
    80002388:	aa3d                	j	800024c6 <test_memory+0x2c6>
    8000238a:	588e                	lw	a7,224(sp)
    8000238c:	593a                	lw	s2,172(sp)
    8000238e:	377a862b          	0x377a862b
    80002392:	765f e23c d666      	0xd666e23c765f
    80002398:	1a80e5ab          	0x1a80e5ab
    8000239c:	9805                	andi	s0,s0,-31
    8000239e:	5ede                	lw	t4,244(sp)
    800023a0:	618c                	ld	a1,0(a1)
    800023a2:	d2a5                	beqz	a3,80002302 <test_memory+0x102>
    800023a4:	8b48                	0x8b48
    800023a6:	7abe                	ld	s5,488(sp)
    800023a8:	544c                	lw	a1,44(s0)
    800023aa:	7fc8                	ld	a0,184(a5)
    800023ac:	e0c2                	sd	a6,64(sp)
    800023ae:	f288                	sd	a0,32(a3)
    800023b0:	e21e                	sd	t2,256(sp)
    800023b2:	82e12207          	flw	ft4,-2002(sp)
    800023b6:	f709                	bnez	a4,800022c0 <test_memory+0xc0>
    800023b8:	78de4e9b          	0x78de4e9b
    800023bc:	4201                	li	tp,0
    800023be:	4de36427          	0x4de36427
    800023c2:	ad0e                	fsd	ft3,152(sp)
    800023c4:	d492                	sw	tp,104(sp)
    800023c6:	6798d3b7          	lui	t2,0x6798d
    800023ca:	9808c8f7          	0x9808c8f7
    800023ce:	0121                	addi	sp,sp,8
    800023d0:	7924                	ld	s1,112(a0)
    800023d2:	d2ac                	sw	a1,96(a3)
    800023d4:	1498                	addi	a4,sp,608
    800023d6:	28c9                	addiw	a7,a7,18
    800023d8:	e341e6ef          	jal	a3,7ff20a0c <_start-0xdf5f4>
    800023dc:	6909                	lui	s2,0x2
    800023de:	d48d                	beqz	s1,80002308 <test_memory+0x108>
    800023e0:	5527f877          	0x5527f877
    800023e4:	b928                	fsd	fa0,112(a0)
    800023e6:	c452                	sw	s4,8(sp)
    800023e8:	415a                	lw	sp,148(sp)
    800023ea:	d093858f          	0xd093858f
    800023ee:	4345                	li	t1,17
    800023f0:	69d1                	lui	s3,0x14
    800023f2:	ddce                	sw	s3,248(sp)
    800023f4:	3508                	fld	fa0,40(a0)
    800023f6:	fb02                	sd	zero,432(sp)
    800023f8:	0e723343          	fmadd.q	ft6,ft4,ft7,ft1,rup
    800023fc:	2e4c                	fld	fa1,152(a2)
    800023fe:	add2                	fsd	fs4,216(sp)
    80002400:	c9d8c9bf 260da766 	0x260da766c9d8c9bf
    80002408:	61ac                	ld	a1,64(a1)
    8000240a:	3151                	addiw	sp,sp,-12
    8000240c:	8bdc                	0x8bdc
    8000240e:	7e7c                	ld	a5,248(a2)
    80002410:	58f0                	lw	a2,116(s1)
    80002412:	65d8                	ld	a4,136(a1)
    80002414:	15df34eb          	0x15df34eb
    80002418:	7888a553          	0x7888a553
    8000241c:	5a93ee2b          	0x5a93ee2b
    80002420:	d5f6                	sw	t4,232(sp)
    80002422:	17cd                	addi	a5,a5,-13
    80002424:	5e05                	li	t3,-31
    80002426:	e0f4                	sd	a3,192(s1)
    80002428:	6410                	ld	a2,8(s0)
    8000242a:	eab1                	bnez	a3,8000247e <test_memory+0x27e>
    8000242c:	05cd                	addi	a1,a1,19
    8000242e:	24e6                	fld	fs1,88(sp)
    80002430:	0f4d                	addi	t5,t5,19
    80002432:	d2d4                	sw	a3,36(a3)
    80002434:	642be68b          	0x642be68b
    80002438:	9c82                	jalr	s9
    8000243a:	b6cc                	fsd	fa1,168(a3)
    8000243c:	f2bc                	sd	a5,96(a3)
    8000243e:	903e                	c.add	zero,a5
    80002440:	0653119b          	0x653119b
    80002444:	228a                	fld	ft5,128(sp)
    80002446:	4a52                	lw	s4,20(sp)
    80002448:	87ea                	mv	a5,s10
    8000244a:	0f49798f          	0xf49798f
    8000244e:	9275                	srli	a2,a2,0x3d
    80002450:	7639                	lui	a2,0xfffee
    80002452:	0e41                	addi	t3,t3,16
    80002454:	bc50                	fsd	fa2,184(s0)
    80002456:	5d64                	lw	s1,124(a0)
    80002458:	f656                	sd	s5,296(sp)
    8000245a:	16bd                	addi	a3,a3,-17
    8000245c:	f64d                	bnez	a2,80002406 <test_memory+0x206>
    8000245e:	b671                	j	80001fea <fromhost+0xfaa>
    80002460:	95f2                	add	a1,a1,t3
    80002462:	be4d                	j	80002014 <reg_x2_init+0x4>
    80002464:	47ce                	lw	a5,208(sp)
    80002466:	6a04                	ld	s1,16(a2)
    80002468:	c901                	beqz	a0,80002478 <test_memory+0x278>
    8000246a:	38a3428b          	0x38a3428b
    8000246e:	2509                	addiw	a0,a0,2
    80002470:	a409                	j	80002672 <_end+0x62>
    80002472:	bf20                	fsd	fs0,120(a4)
    80002474:	3729                	addiw	a4,a4,-22
    80002476:	2ef9de1b          	0x2ef9de1b
    8000247a:	52b1                	li	t0,-20
    8000247c:	75da                	ld	a1,432(sp)
    8000247e:	0480                	addi	s0,sp,576
    80002480:	f580                	sd	s0,40(a1)
    80002482:	2789                	addiw	a5,a5,2
    80002484:	0486                	slli	s1,s1,0x1
    80002486:	88021c27          	0x88021c27
    8000248a:	cc254b73          	0xcc254b73
    8000248e:	f8973cb3          	0xf8973cb3
    80002492:	9380                	0x9380
    80002494:	e609a523          	sw	zero,-406(s3) # 13e6a <_start-0x7ffec196>
    80002498:	11ba                	slli	gp,gp,0x2e
    8000249a:	049f d395 acfc      	0xacfcd395049f
    800024a0:	a092                	fsd	ft4,64(sp)
    800024a2:	4cd0                	lw	a2,28(s1)
    800024a4:	99b2                	add	s3,s3,a2
    800024a6:	4216                	lw	tp,68(sp)
    800024a8:	c2fd                	beqz	a3,8000258e <test_memory+0x38e>
    800024aa:	9889c38b          	0x9889c38b
    800024ae:	d0b1                	beqz	s1,800023f2 <test_memory+0x1f2>
    800024b0:	3d2749bf 64702fdd 	0x64702fdd3d2749bf
    800024b8:	f98a                	sd	sp,240(sp)
    800024ba:	7409                	lui	s0,0xfffe2
    800024bc:	c2744967          	0xc2744967
    800024c0:	f37259b7          	lui	s3,0xf3725
    800024c4:	c929                	beqz	a0,80002516 <test_memory+0x316>
    800024c6:	dafe                	sw	t6,116(sp)
    800024c8:	dde6                	sw	s9,248(sp)
    800024ca:	58b9                	li	a7,-18
    800024cc:	8b84                	0x8b84
    800024ce:	1fe38ce3          	beq	t2,t5,80002ec6 <__global_pointer$+0xb6>
    800024d2:	271d                	addiw	a4,a4,7
    800024d4:	3b06                	fld	fs6,96(sp)
    800024d6:	f495                	bnez	s1,80002402 <test_memory+0x202>
    800024d8:	a180                	fsd	fs0,0(a1)
    800024da:	561a                	lw	a2,164(sp)
    800024dc:	ab68                	fsd	fa0,208(a4)
    800024de:	fbc6                	sd	a7,496(sp)
    800024e0:	ba42                	fsd	fa6,304(sp)
    800024e2:	b73e                	fsd	fa5,424(sp)
    800024e4:	9c1a                	add	s8,s8,t1
    800024e6:	e972                	sd	t3,144(sp)
    800024e8:	fb15                	bnez	a4,8000241c <test_memory+0x21c>
    800024ea:	00cc                	addi	a1,sp,68
    800024ec:	5ad01c37          	lui	s8,0x5ad01
    800024f0:	0268                	addi	a0,sp,268
    800024f2:	12e4123b          	0x12e4123b
    800024f6:	85550d83          	lb	s11,-1963(a0)
    800024fa:	1956                	slli	s2,s2,0x35
    800024fc:	fa69                	bnez	a2,800024ce <test_memory+0x2ce>
    800024fe:	c6c921c3          	fmadd.q	ft3,fs2,fa2,fs8,rdn
    80002502:	6816                	ld	a6,320(sp)
    80002504:	80c67983          	0x80c67983
    80002508:	c469e3c7          	0xc469e3c7
    8000250c:	d07785bb          	0xd07785bb
    80002510:	b6ffd437          	lui	s0,0xb6ffd
    80002514:	ead1                	bnez	a3,800025a8 <test_memory+0x3a8>
    80002516:	b15c                	fsd	fa5,160(a0)
    80002518:	d1e9                	beqz	a1,800024da <test_memory+0x2da>
    8000251a:	6091                	lui	ra,0x4
    8000251c:	baf9c66b          	0xbaf9c66b
    80002520:	93a9                	srli	a5,a5,0x2a
    80002522:	1a8d                	addi	s5,s5,-29
    80002524:	32268cb7          	lui	s9,0x32268
    80002528:	809a                	mv	ra,t1
    8000252a:	d19f875b          	0xd19f875b
    8000252e:	3e84                	fld	fs1,56(a3)
    80002530:	403d                	c.li	zero,15
    80002532:	2bbb4347          	fmsub.d	ft6,fs6,fs11,ft5,rmm
    80002536:	19e5                	addi	s3,s3,-7
    80002538:	e5bc                	sd	a5,72(a1)
    8000253a:	62fe                	ld	t0,472(sp)
    8000253c:	6126                	ld	sp,72(sp)
    8000253e:	7dda                	ld	s11,432(sp)
    80002540:	f97f                	0xf97f
    80002542:	5948                	lw	a0,52(a0)
    80002544:	7bdd                	lui	s7,0xffff7
    80002546:	e21556a3          	0xe21556a3
    8000254a:	c049                	beqz	s0,800025cc <test_memory+0x3cc>
    8000254c:	b261                	j	80001ed4 <fromhost+0xe94>
    8000254e:	fea5                	bnez	a3,800024c6 <test_memory+0x2c6>
    80002550:	0ab135eb          	0xab135eb
    80002554:	12a4                	addi	s1,sp,360
    80002556:	6175390f          	0x6175390f
    8000255a:	017d                	addi	sp,sp,31
    8000255c:	2ca7e083          	lwu	ra,714(a5)
    80002560:	59b0                	lw	a2,112(a1)
    80002562:	2914                	fld	fa3,16(a0)
    80002564:	60af6e73          	csrrsi	t3,0x60a,30
    80002568:	d91e                	sw	t2,176(sp)
    8000256a:	9019                	srli	s0,s0,0x26
    8000256c:	32132df7          	0x32132df7
    80002570:	75b6                	ld	a1,360(sp)
    80002572:	08cc                	addi	a1,sp,84
    80002574:	9f20                	0x9f20
    80002576:	25b5                	addiw	a1,a1,13
    80002578:	c85f 838a f121      	0xf121838ac85f
    8000257e:	c1cc                	sw	a1,4(a1)
    80002580:	72e2                	ld	t0,56(sp)
    80002582:	63c61dd7          	0x63c61dd7
    80002586:	74c5                	lui	s1,0xffff1
    80002588:	1f82                	slli	t6,t6,0x20
    8000258a:	184aaf77          	0x184aaf77
    8000258e:	5795                	li	a5,-27
    80002590:	2d98                	fld	fa4,24(a1)
    80002592:	e456                	sd	s5,8(sp)
    80002594:	d1d9                	beqz	a1,8000251a <test_memory+0x31a>
    80002596:	b5d1                	j	8000245a <test_memory+0x25a>
    80002598:	1876b0e7          	0x1876b0e7
    8000259c:	78d5                	lui	a7,0xffff5
    8000259e:	3e8d                	addiw	t4,t4,-29
    800025a0:	4581                	li	a1,0
    800025a2:	d97b92e3          	bne	s7,s7,80002326 <test_memory+0x126>
    800025a6:	0634                	addi	a3,sp,776
    800025a8:	1070                	addi	a2,sp,44
    800025aa:	5db6374b          	0x5db6374b
    800025ae:	ff8a                	sd	sp,504(sp)
    800025b0:	a58d                	j	80002c12 <_end+0x602>
    800025b2:	fb20                	sd	s0,112(a4)
    800025b4:	3b0e                	fld	fs6,224(sp)
    800025b6:	98ca                	add	a7,a7,s2
    800025b8:	8520                	0x8520
    800025ba:	6bbc                	ld	a5,80(a5)
    800025bc:	01390923          	sb	s3,18(s2) # 2012 <_start-0x7fffdfee>
    800025c0:	3547083b          	0x3547083b
    800025c4:	1a4bc20b          	0x1a4bc20b
    800025c8:	f0fe                	sd	t6,96(sp)
    800025ca:	5f21                	li	t5,-24
    800025cc:	6bc01d8b          	0x6bc01d8b
    800025d0:	9e72fc17          	auipc	s8,0x9e72f
    800025d4:	d910                	sw	a2,48(a0)
    800025d6:	3db5                	addiw	s11,s11,-19
    800025d8:	d5a4d33f 434921c5 	0x434921c5d5a4d33f
    800025e0:	2c84                	fld	fs1,24(s1)
    800025e2:	731f cb3f 2158      	0x2158cb3f731f
    800025e8:	eac0c8a3          	0xeac0c8a3
    800025ec:	948d                	srai	s1,s1,0x23
    800025ee:	1821                	addi	a6,a6,-24
    800025f0:	0ff3f2bb          	0xff3f2bb
    800025f4:	46c5                	li	a3,17
    800025f6:	b2ac                	fsd	fa1,96(a3)
    800025f8:	2e1e                	fld	ft8,448(sp)
    800025fa:	f390                	sd	a2,32(a5)
    800025fc:	432c                	lw	a1,64(a4)
    800025fe:	4315                	li	t1,5

0000000080002600 <loop_count>:
    80002600:	0040                	addi	s0,sp,4
	...

Disassembly of section .riscv.attributes:

0000000000000000 <.riscv.attributes>:
   0:	1e41                	addi	t3,t3,-16
   2:	0000                	unimp
   4:	7200                	ld	s0,32(a2)
   6:	7369                	lui	t1,0xffffa
   8:	01007663          	bgeu	zero,a6,14 <_start-0x7fffffec>
   c:	0014                	0x14
   e:	0000                	unimp
  10:	7205                	lui	tp,0xfffe1
  12:	3676                	fld	fa2,376(sp)
  14:	6934                	ld	a3,80(a0)
  16:	7032                	0x7032
  18:	5f30                	lw	a2,120(a4)
  1a:	326d                	addiw	tp,tp,-5
  1c:	3070                	fld	fa2,224(s0)
	...
