
build/test99:     file format elf64-littleriscv


Disassembly of section .text.init:

0000000080000000 <_start>:
    80000000:	05c0006f          	j	8000005c <reset_vector>

0000000080000004 <trap_vector>:
    80000004:	34202f73          	csrr	t5,mcause
    80000008:	00800f93          	li	t6,8
    8000000c:	03ff0a63          	beq	t5,t6,80000040 <write_tohost>
    80000010:	00900f93          	li	t6,9
    80000014:	03ff0663          	beq	t5,t6,80000040 <write_tohost>
    80000018:	00b00f93          	li	t6,11
    8000001c:	03ff0263          	beq	t5,t6,80000040 <write_tohost>
    80000020:	80000f17          	auipc	t5,0x80000
    80000024:	fe0f0f13          	addi	t5,t5,-32 # 0 <_start-0x80000000>
    80000028:	000f0463          	beqz	t5,80000030 <trap_vector+0x2c>
    8000002c:	000f0067          	jr	t5
    80000030:	34202f73          	csrr	t5,mcause
    80000034:	000f5463          	bgez	t5,8000003c <handle_exception>
    80000038:	0040006f          	j	8000003c <handle_exception>

000000008000003c <handle_exception>:
    8000003c:	5391e193          	ori	gp,gp,1337

0000000080000040 <write_tohost>:
    80000040:	00001f17          	auipc	t5,0x1
    80000044:	fc3f2023          	sw	gp,-64(t5) # 80001000 <tohost>
    80000048:	000902b7          	lui	t0,0x90
    8000004c:	0012829b          	addiw	t0,t0,1
    80000050:	00c29293          	slli	t0,t0,0xc
    80000054:	0002af83          	lw	t6,0(t0) # 90000 <_start-0x7ff70000>
    80000058:	fe9ff06f          	j	80000040 <write_tohost>

000000008000005c <reset_vector>:
    8000005c:	00000093          	li	ra,0
    80000060:	00000113          	li	sp,0
    80000064:	00000193          	li	gp,0
    80000068:	00000213          	li	tp,0
    8000006c:	00000293          	li	t0,0
    80000070:	00000313          	li	t1,0
    80000074:	00000393          	li	t2,0
    80000078:	00000413          	li	s0,0
    8000007c:	00000493          	li	s1,0
    80000080:	00000513          	li	a0,0
    80000084:	00000593          	li	a1,0
    80000088:	00000613          	li	a2,0
    8000008c:	00000693          	li	a3,0
    80000090:	00000713          	li	a4,0
    80000094:	00000793          	li	a5,0
    80000098:	00000813          	li	a6,0
    8000009c:	00000893          	li	a7,0
    800000a0:	00000913          	li	s2,0
    800000a4:	00000993          	li	s3,0
    800000a8:	00000a13          	li	s4,0
    800000ac:	00000a93          	li	s5,0
    800000b0:	00000b13          	li	s6,0
    800000b4:	00000b93          	li	s7,0
    800000b8:	00000c13          	li	s8,0
    800000bc:	00000c93          	li	s9,0
    800000c0:	00000d13          	li	s10,0
    800000c4:	00000d93          	li	s11,0
    800000c8:	00000e13          	li	t3,0
    800000cc:	00000e93          	li	t4,0
    800000d0:	00000f13          	li	t5,0
    800000d4:	00000f93          	li	t6,0
    800000d8:	f1402573          	csrr	a0,mhartid
    800000dc:	00051063          	bnez	a0,800000dc <reset_vector+0x80>
    800000e0:	00000297          	auipc	t0,0x0
    800000e4:	01028293          	addi	t0,t0,16 # 800000f0 <reset_vector+0x94>
    800000e8:	30529073          	csrw	mtvec,t0
    800000ec:	18005073          	csrwi	satp,0
    800000f0:	00000297          	auipc	t0,0x0
    800000f4:	02428293          	addi	t0,t0,36 # 80000114 <reset_vector+0xb8>
    800000f8:	30529073          	csrw	mtvec,t0
    800000fc:	0010029b          	addiw	t0,zero,1
    80000100:	03529293          	slli	t0,t0,0x35
    80000104:	fff28293          	addi	t0,t0,-1
    80000108:	3b029073          	csrw	pmpaddr0,t0
    8000010c:	01f00293          	li	t0,31
    80000110:	3a029073          	csrw	pmpcfg0,t0
    80000114:	30405073          	csrwi	mie,0
    80000118:	00000297          	auipc	t0,0x0
    8000011c:	01428293          	addi	t0,t0,20 # 8000012c <reset_vector+0xd0>
    80000120:	30529073          	csrw	mtvec,t0
    80000124:	30205073          	csrwi	medeleg,0
    80000128:	30305073          	csrwi	mideleg,0
    8000012c:	00000193          	li	gp,0
    80000130:	00000297          	auipc	t0,0x0
    80000134:	ed428293          	addi	t0,t0,-300 # 80000004 <trap_vector>
    80000138:	30529073          	csrw	mtvec,t0
    8000013c:	00100513          	li	a0,1
    80000140:	01f51513          	slli	a0,a0,0x1f
    80000144:	00055c63          	bgez	a0,8000015c <reset_vector+0x100>
    80000148:	0ff0000f          	fence
    8000014c:	00100193          	li	gp,1
    80000150:	05d00893          	li	a7,93
    80000154:	00000513          	li	a0,0
    80000158:	00000073          	ecall
    8000015c:	80000297          	auipc	t0,0x80000
    80000160:	ea428293          	addi	t0,t0,-348 # 0 <_start-0x80000000>
    80000164:	00028a63          	beqz	t0,80000178 <reset_vector+0x11c>
    80000168:	10529073          	csrw	stvec,t0
    8000016c:	0000b2b7          	lui	t0,0xb
    80000170:	1092829b          	addiw	t0,t0,265
    80000174:	30229073          	csrw	medeleg,t0
    80000178:	30005073          	csrwi	mstatus,0
    8000017c:	00000297          	auipc	t0,0x0
    80000180:	01428293          	addi	t0,t0,20 # 80000190 <reset_vector+0x134>
    80000184:	34129073          	csrw	mepc,t0
    80000188:	f1402573          	csrr	a0,mhartid
    8000018c:	30200073          	mret
    80000190:	0200006f          	j	800001b0 <test_start>

0000000080000194 <crash_backward>:
    80000194:	0ff0000f          	fence
    80000198:	00018063          	beqz	gp,80000198 <crash_backward+0x4>
    8000019c:	00119193          	slli	gp,gp,0x1
    800001a0:	0011e193          	ori	gp,gp,1
    800001a4:	05d00893          	li	a7,93
    800001a8:	00018513          	mv	a0,gp
    800001ac:	00000073          	ecall

00000000800001b0 <test_start>:
    800001b0:	00002f97          	auipc	t6,0x2
    800001b4:	e50f8f93          	addi	t6,t6,-432 # 80002000 <hidden_data>
    800001b8:	000fb003          	ld	zero,0(t6)
    800001bc:	008fb083          	ld	ra,8(t6)
    800001c0:	010fb103          	ld	sp,16(t6)
    800001c4:	018fb183          	ld	gp,24(t6)
    800001c8:	020fb203          	ld	tp,32(t6)
    800001cc:	028fb283          	ld	t0,40(t6)
    800001d0:	030fb303          	ld	t1,48(t6)
    800001d4:	038fb383          	ld	t2,56(t6)
    800001d8:	040fb403          	ld	s0,64(t6)
    800001dc:	048fb483          	ld	s1,72(t6)
    800001e0:	050fb503          	ld	a0,80(t6)
    800001e4:	058fb583          	ld	a1,88(t6)
    800001e8:	060fb603          	ld	a2,96(t6)
    800001ec:	068fb683          	ld	a3,104(t6)
    800001f0:	070fb703          	ld	a4,112(t6)
    800001f4:	078fb783          	ld	a5,120(t6)
    800001f8:	080fb803          	ld	a6,128(t6)
    800001fc:	088fb883          	ld	a7,136(t6)
    80000200:	090fb903          	ld	s2,144(t6)
    80000204:	098fb983          	ld	s3,152(t6)
    80000208:	0a0fba03          	ld	s4,160(t6)
    8000020c:	0a8fba83          	ld	s5,168(t6)
    80000210:	0b0fbb03          	ld	s6,176(t6)
    80000214:	0b8fbb83          	ld	s7,184(t6)
    80000218:	0c0fbc03          	ld	s8,192(t6)
    8000021c:	0c8fbc83          	ld	s9,200(t6)
    80000220:	0d0fbd03          	ld	s10,208(t6)
    80000224:	0d8fbd83          	ld	s11,216(t6)
    80000228:	0e0fbe03          	ld	t3,224(t6)
    8000022c:	0e8fbe83          	ld	t4,232(t6)
    80000230:	0f0fbf03          	ld	t5,240(t6)
    80000234:	0f8fbf83          	ld	t6,248(t6)
    80000238:	0040006f          	j	8000023c <pseg_0>

000000008000023c <pseg_0>:
    8000023c:	00002717          	auipc	a4,0x2
    80000240:	4cc70713          	addi	a4,a4,1228 # 80002708 <_end+0xf8>
    80000244:	e4770c23          	sb	t2,-424(a4)
    80000248:	00100293          	li	t0,1
    8000024c:	4d816e13          	ori	t3,sp,1240
    80000250:	00002b17          	auipc	s6,0x2
    80000254:	f90b0b13          	addi	s6,s6,-112 # 800021e0 <reg_x28_output>
    80000258:	00069d1b          	slliw	s10,a3,0x0
    8000025c:	00002c17          	auipc	s8,0x2
    80000260:	f14c0c13          	addi	s8,s8,-236 # 80002170 <reg_x14_output>
    80000264:	6ee00b93          	li	s7,1774
    80000268:	190c2583          	lw	a1,400(s8)
    8000026c:	00100693          	li	a3,1
    80000270:	000000bb          	addw	ra,zero,zero
    80000274:	037bf1b3          	remu	gp,s7,s7
    80000278:	00739dbb          	sllw	s11,t2,t2
    8000027c:	74500793          	li	a5,1861
    80000280:	41a1559b          	sraiw	a1,sp,0x1a
    80000284:	55b00f13          	li	t5,1371
    80000288:	02f7bab3          	mulhu	s5,a5,a5
    8000028c:	114b0383          	lb	t2,276(s6)
    80000290:	0263043b          	mulw	s0,t1,t1
    80000294:	afb00813          	li	a6,-1285
    80000298:	00000713          	li	a4,0
    8000029c:	03f69693          	slli	a3,a3,0x3f
    800002a0:	03ce7e33          	remu	t3,t3,t3
    800002a4:	4e100e93          	li	t4,1249
    800002a8:	004889bb          	addw	s3,a7,tp
    800002ac:	0382753b          	remuw	a0,tp,s8
    800002b0:	00000d13          	li	s10,0
    800002b4:	fb500613          	li	a2,-75
    800002b8:	010f133b          	sllw	t1,t5,a6
    800002bc:	03f29293          	slli	t0,t0,0x3f
    800002c0:	028414b3          	mulh	s1,s0,s0
    800002c4:	00ce913b          	sllw	sp,t4,a2
    800002c8:	00100393          	li	t2,1
    800002cc:	00100a93          	li	s5,1
    800002d0:	eda712e3          	bne	a4,s10,80000194 <crash_backward>
    800002d4:	0073eb33          	or	s6,t2,t2
    800002d8:	03ce543b          	divuw	s0,t3,t3
    800002dc:	03fa9a93          	slli	s5,s5,0x3f
    800002e0:	00002d97          	auipc	s11,0x2
    800002e4:	f46d8d93          	addi	s11,s11,-186 # 80002226 <test_memory+0x26>
    800002e8:	fff00c93          	li	s9,-1
    800002ec:	ef400713          	li	a4,-268
    800002f0:	0070d61b          	srliw	a2,ra,0x7
    800002f4:	0294b0b3          	mulhu	ra,s1,s1
    800002f8:	fff00e13          	li	t3,-1
    800002fc:	03f39393          	slli	t2,t2,0x3f
    80000300:	b8800413          	li	s0,-1144
    80000304:	034a41bb          	divw	gp,s4,s4
    80000308:	00870b3b          	addw	s6,a4,s0
    8000030c:	00002817          	auipc	a6,0x2
    80000310:	4c480813          	addi	a6,a6,1220 # 800027d0 <_end+0x1c0>
    80000314:	00000313          	li	t1,0
    80000318:	00000793          	li	a5,0
    8000031c:	fff00213          	li	tp,-1
    80000320:	00524233          	xor	tp,tp,t0
    80000324:	19900413          	li	s0,409
    80000328:	015e4e33          	xor	t3,t3,s5
    8000032c:	26c00d13          	li	s10,620
    80000330:	00dcccb3          	xor	s9,s9,a3
    80000334:	fff00593          	li	a1,-1
    80000338:	e4f31ee3          	bne	t1,a5,80000194 <crash_backward>
    8000033c:	272de503          	lwu	a0,626(s11)
    80000340:	01cf79b3          	and	s3,t5,t3
    80000344:	617d0e93          	addi	t4,s10,1559
    80000348:	0075c5b3          	xor	a1,a1,t2
    8000034c:	031d81bb          	mulw	gp,s11,a7
    80000350:	0159ef33          	or	t5,s3,s5
    80000354:	cda804a3          	sb	s10,-823(a6)
    80000358:	c0600493          	li	s1,-1018
    8000035c:	00447933          	and	s2,s0,tp
    80000360:	00949133          	sll	sp,s1,s1
    80000364:	0337e0b3          	rem	ra,a5,s3
    80000368:	5a900313          	li	t1,1449
    8000036c:	6de98463          	beq	s3,t5,80000a34 <crash_forward>
    80000370:	fb800b13          	li	s6,-72
    80000374:	d8b00613          	li	a2,-629
    80000378:	01997fb3          	and	t6,s2,s9
    8000037c:	02c377b3          	remu	a5,t1,a2
    80000380:	00002997          	auipc	s3,0x2
    80000384:	d4198993          	addi	s3,s3,-703 # 800020c1 <reg_x24_init+0x1>
    80000388:	42f00313          	li	t1,1071
    8000038c:	16d99483          	lh	s1,365(s3)
    80000390:	53100113          	li	sp,1329
    80000394:	00d068b3          	or	a7,zero,a3
    80000398:	a6700f13          	li	t5,-1433
    8000039c:	01ef5e3b          	srlw	t3,t5,t5
    800003a0:	037960b3          	rem	ra,s2,s7
    800003a4:	00b97bb3          	and	s7,s2,a1
    800003a8:	4164573b          	sraw	a4,s0,s6
    800003ac:	0078ec33          	or	s8,a7,t2
    800003b0:	02ea6ebb          	remw	t4,s4,a4
    800003b4:	0057ea33          	or	s4,a5,t0
    800003b8:	0c900613          	li	a2,201
    800003bc:	006a8db3          	add	s11,s5,t1
    800003c0:	00001d17          	auipc	s10,0x1
    800003c4:	6bbd0d13          	addi	s10,s10,1723 # 80001a7b <fromhost+0xa3b>
    800003c8:	02c107bb          	mulw	a5,sp,a2
    800003cc:	787d26a3          	sw	t2,1933(s10)
    800003d0:	00100613          	li	a2,1
    800003d4:	00949a3b          	sllw	s4,s1,s1
    800003d8:	03f61613          	slli	a2,a2,0x3f
    800003dc:	7aa00713          	li	a4,1962
    800003e0:	00100c13          	li	s8,1
    800003e4:	6f600793          	li	a5,1782
    800003e8:	00e91e9b          	slliw	t4,s2,0xe
    800003ec:	70d00393          	li	t2,1805
    800003f0:	0277ebb3          	rem	s7,a5,t2
    800003f4:	03fc1c13          	slli	s8,s8,0x3f
    800003f8:	fff00693          	li	a3,-1
    800003fc:	8d200a93          	li	s5,-1838
    80000400:	035361bb          	remw	gp,t1,s5
    80000404:	021098b3          	mulh	a7,ra,ra
    80000408:	fff00213          	li	tp,-1
    8000040c:	01824233          	xor	tp,tp,s8
    80000410:	5d100f93          	li	t6,1489
    80000414:	a2800a93          	li	s5,-1496
    80000418:	00c6c6b3          	xor	a3,a3,a2
    8000041c:	00427933          	and	s2,tp,tp
    80000420:	019c8533          	add	a0,s9,s9
    80000424:	00002a17          	auipc	s4,0x2
    80000428:	97da0a13          	addi	s4,s4,-1667 # 80001da1 <fromhost+0xd61>
    8000042c:	00002317          	auipc	t1,0x2
    80000430:	35030313          	addi	t1,t1,848 # 8000277c <_end+0x16c>
    80000434:	4eea4183          	lbu	gp,1262(s4)
    80000438:	00dd7133          	and	sp,s10,a3
    8000043c:	b5d00893          	li	a7,-1187
    80000440:	00100493          	li	s1,1
    80000444:	03e4d533          	divu	a0,s1,t5
    80000448:	03f49493          	slli	s1,s1,0x3f
    8000044c:	00bed7bb          	srlw	a5,t4,a1
    80000450:	fff00993          	li	s3,-1
    80000454:	0099c9b3          	xor	s3,s3,s1
    80000458:	018465b3          	or	a1,s0,s8
    8000045c:	00002b97          	auipc	s7,0x2
    80000460:	e61b8b93          	addi	s7,s7,-415 # 800022bd <test_memory+0xbd>
    80000464:	b1c31823          	sh	t3,-1264(t1)
    80000468:	00002a17          	auipc	s4,0x2
    8000046c:	669a0a13          	addi	s4,s4,1641 # 80002ad1 <_end+0x4c1>
    80000470:	00e732b3          	sltu	t0,a4,a4
    80000474:	01dec933          	xor	s2,t4,t4
    80000478:	20fbde83          	lhu	t4,527(s7)
    8000047c:	05500f13          	li	t5,85
    80000480:	21f00e13          	li	t3,543
    80000484:	e2600513          	li	a0,-474
    80000488:	031ad3b3          	divu	t2,s5,a7
    8000048c:	01377833          	and	a6,a4,s3
    80000490:	02e75dbb          	divuw	s11,a4,a4
    80000494:	00c9ecb3          	or	s9,s3,a2
    80000498:	026323b3          	mulhsu	t2,t1,t1
    8000049c:	0210eab3          	rem	s5,ra,ra
    800004a0:	83800593          	li	a1,-1992
    800004a4:	00002297          	auipc	t0,0x2
    800004a8:	8ba28293          	addi	t0,t0,-1862 # 80001d5e <fromhost+0xd1e>
    800004ac:	01ff8d3b          	addw	s10,t6,t6
    800004b0:	a6fa6783          	lwu	a5,-1425(s4)
    800004b4:	02e75b3b          	divuw	s6,a4,a4
    800004b8:	00986433          	or	s0,a6,s1
    800004bc:	5d229823          	sh	s2,1488(t0)
    800004c0:	cd914ae3          	blt	sp,s9,80000194 <crash_backward>
    800004c4:	02a5633b          	remw	t1,a0,a0
    800004c8:	00100d93          	li	s11,1
    800004cc:	03fd9d93          	slli	s11,s11,0x3f
    800004d0:	7f43ee93          	ori	t4,t2,2036
    800004d4:	00002c17          	auipc	s8,0x2
    800004d8:	863c0c13          	addi	s8,s8,-1949 # 80001d37 <fromhost+0xcf7>
    800004dc:	01cf60b3          	or	ra,t5,t3
    800004e0:	00b5f1b3          	and	gp,a1,a1
    800004e4:	fff00893          	li	a7,-1
    800004e8:	53dc2203          	lw	tp,1341(s8)
    800004ec:	01b8c8b3          	xor	a7,a7,s11
    800004f0:	0119fbb3          	and	s7,s3,a7
    800004f4:	01bbe933          	or	s2,s7,s11
    800004f8:	532bce63          	blt	s7,s2,80000a34 <crash_forward>
    800004fc:	00100113          	li	sp,1
    80000500:	02007633          	remu	a2,zero,zero
    80000504:	00100993          	li	s3,1
    80000508:	00100093          	li	ra,1
    8000050c:	25c00793          	li	a5,604
    80000510:	c5400b13          	li	s6,-940
    80000514:	00000293          	li	t0,0
    80000518:	30600313          	li	t1,774
    8000051c:	39000f93          	li	t6,912
    80000520:	be800d13          	li	s10,-1048
    80000524:	00002817          	auipc	a6,0x2
    80000528:	41380813          	addi	a6,a6,1043 # 80002937 <_end+0x327>
    8000052c:	03f11113          	slli	sp,sp,0x3f
    80000530:	0080eab3          	or	s5,ra,s0
    80000534:	00000893          	li	a7,0
    80000538:	00002c17          	auipc	s8,0x2
    8000053c:	2a9c0c13          	addi	s8,s8,681 # 800027e1 <_end+0x1d1>
    80000540:	01ab15b3          	sll	a1,s6,s10
    80000544:	fff00d93          	li	s11,-1
    80000548:	4063543b          	sraw	s0,t1,t1
    8000054c:	01ffb1b3          	sltu	gp,t6,t6
    80000550:	c40042e3          	bltz	zero,80000194 <crash_backward>
    80000554:	12a78613          	addi	a2,a5,298
    80000558:	00d99e33          	sll	t3,s3,a3
    8000055c:	4d129c63          	bne	t0,a7,80000a34 <crash_forward>
    80000560:	00002517          	auipc	a0,0x2
    80000564:	dc150513          	addi	a0,a0,-575 # 80002321 <test_memory+0x121>
    80000568:	f6e50e83          	lb	t4,-146(a0)
    8000056c:	e07c1a03          	lh	s4,-505(s8)
    80000570:	03f09093          	slli	ra,ra,0x3f
    80000574:	ae185c83          	lhu	s9,-1311(a6)
    80000578:	fff00213          	li	tp,-1
    8000057c:	002dcdb3          	xor	s11,s11,sp
    80000580:	03f99993          	slli	s3,s3,0x3f
    80000584:	035acd33          	div	s10,s5,s5
    80000588:	1eb00f93          	li	t6,491
    8000058c:	e3e00513          	li	a0,-450
    80000590:	038c3cb3          	mulhu	s9,s8,s8
    80000594:	ab600e13          	li	t3,-1354
    80000598:	fff00693          	li	a3,-1
    8000059c:	01c54eb3          	xor	t4,a0,t3
    800005a0:	0ac00193          	li	gp,172
    800005a4:	7cf00813          	li	a6,1999
    800005a8:	fbf00593          	li	a1,-65
    800005ac:	03ff88b3          	mul	a7,t6,t6
    800005b0:	59900b13          	li	s6,1433
    800005b4:	1cc00793          	li	a5,460
    800005b8:	40fb0a33          	sub	s4,s6,a5
    800005bc:	010872b3          	and	t0,a6,a6
    800005c0:	8e100c13          	li	s8,-1823
    800005c4:	01bd7f33          	and	t5,s10,s11
    800005c8:	00124233          	xor	tp,tp,ra
    800005cc:	0385f33b          	remuw	t1,a1,s8
    800005d0:	0136c6b3          	xor	a3,a3,s3
    800005d4:	0048f4b3          	and	s1,a7,tp
    800005d8:	00d5f3b3          	and	t2,a1,a3
    800005dc:	00008e93          	mv	t4,ra
    800005e0:	3f800a93          	li	s5,1016
    800005e4:	00002c17          	auipc	s8,0x2
    800005e8:	b2fc0c13          	addi	s8,s8,-1233 # 80002113 <reg_x2_output+0x3>
    800005ec:	000e8e13          	mv	t3,t4
    800005f0:	016b65b3          	or	a1,s6,s6
    800005f4:	40d40a33          	sub	s4,s0,a3
    800005f8:	000d8813          	mv	a6,s11
    800005fc:	013f6733          	or	a4,t5,s3
    80000600:	00080c93          	mv	s9,a6
    80000604:	002f6bb3          	or	s7,t5,sp
    80000608:	0014e933          	or	s2,s1,ra
    8000060c:	016b6a33          	or	s4,s6,s6
    80000610:	1e900513          	li	a0,489
    80000614:	00100093          	li	ra,1
    80000618:	58d00713          	li	a4,1421
    8000061c:	00001217          	auipc	tp,0x1
    80000620:	76b20213          	addi	tp,tp,1899 # 80001d87 <fromhost+0xd47>
    80000624:	2eb00793          	li	a5,747
    80000628:	0351f43b          	remuw	s0,gp,s5
    8000062c:	76f50d13          	addi	s10,a0,1903
    80000630:	f6b00f13          	li	t5,-149
    80000634:	73200893          	li	a7,1842
    80000638:	199d891b          	addiw	s2,s11,409
    8000063c:	4ac24983          	lbu	s3,1196(tp) # 4ac <_start-0x7ffffb54>
    80000640:	00e756bb          	srlw	a3,a4,a4
    80000644:	00a71393          	slli	t2,a4,0xa
    80000648:	416b0abb          	subw	s5,s6,s6
    8000064c:	efd00113          	li	sp,-259
    80000650:	03a6e3bb          	remw	t2,a3,s10
    80000654:	0f900693          	li	a3,249
    80000658:	02842db3          	mulhsu	s11,s0,s0
    8000065c:	8ef00613          	li	a2,-1809
    80000660:	3da57a63          	bgeu	a0,s10,80000a34 <crash_forward>
    80000664:	03f09093          	slli	ra,ra,0x3f
    80000668:	30ec1aa3          	sh	a4,789(s8)
    8000066c:	00002b17          	auipc	s6,0x2
    80000670:	be4b0b13          	addi	s6,s6,-1052 # 80002250 <test_memory+0x50>
    80000674:	0317efb3          	rem	t6,a5,a7
    80000678:	ddf00313          	li	t1,-545
    8000067c:	02b5d3bb          	divuw	t2,a1,a1
    80000680:	02216cbb          	remw	s9,sp,sp
    80000684:	19f00213          	li	tp,415
    80000688:	bcb00993          	li	s3,-1077
    8000068c:	ece00813          	li	a6,-306
    80000690:	fff00593          	li	a1,-1
    80000694:	57100793          	li	a5,1393
    80000698:	ab500d93          	li	s11,-1355
    8000069c:	0015c5b3          	xor	a1,a1,ra
    800006a0:	00010393          	mv	t2,sp
    800006a4:	50e00413          	li	s0,1294
    800006a8:	49a00713          	li	a4,1178
    800006ac:	026642bb          	divw	t0,a2,t1
    800006b0:	00bbf4b3          	and	s1,s7,a1
    800006b4:	388b2623          	sw	s0,908(s6)
    800006b8:	00100d13          	li	s10,1
    800006bc:	00038893          	mv	a7,t2
    800006c0:	01ef5bbb          	srlw	s7,t5,t5
    800006c4:	67b00293          	li	t0,1659
    800006c8:	0166a533          	slt	a0,a3,s6
    800006cc:	3fd00f93          	li	t6,1021
    800006d0:	01ffacb3          	slt	s9,t6,t6
    800006d4:	02e441bb          	divw	gp,s0,a4
    800006d8:	01321ab3          	sll	s5,tp,s3
    800006dc:	0306f933          	remu	s2,a3,a6
    800006e0:	38c00613          	li	a2,908
    800006e4:	23100f93          	li	t6,561
    800006e8:	e4900b13          	li	s6,-439
    800006ec:	00c2a333          	slt	t1,t0,a2
    800006f0:	00100813          	li	a6,1
    800006f4:	41cb8f33          	sub	t5,s7,t3
    800006f8:	01ffe9b3          	or	s3,t6,t6
    800006fc:	036b753b          	remuw	a0,s6,s6
    80000700:	0215e6b3          	rem	a3,a1,ra
    80000704:	c9900913          	li	s2,-871
    80000708:	a80016e3          	bnez	zero,80000194 <crash_backward>
    8000070c:	03f81813          	slli	a6,a6,0x3f
    80000710:	03fd1d13          	slli	s10,s10,0x3f
    80000714:	0014ea33          	or	s4,s1,ra
    80000718:	8cf90213          	addi	tp,s2,-1841
    8000071c:	b4cca193          	slti	gp,s9,-1204
    80000720:	fff00c13          	li	s8,-1
    80000724:	01ac4c33          	xor	s8,s8,s10
    80000728:	fff00413          	li	s0,-1
    8000072c:	1d800713          	li	a4,472
    80000730:	a6b5e2e3          	bltu	a1,a1,80000194 <crash_backward>
    80000734:	00002517          	auipc	a0,0x2
    80000738:	39d50513          	addi	a0,a0,925 # 80002ad1 <_end+0x4c1>
    8000073c:	01807eb3          	and	t4,zero,s8
    80000740:	00a519b3          	sll	s3,a0,a0
    80000744:	00100193          	li	gp,1
    80000748:	03b7fe3b          	remuw	t3,a5,s11
    8000074c:	a1f51083          	lh	ra,-1505(a0)
    80000750:	77400293          	li	t0,1908
    80000754:	00002b17          	auipc	s6,0x2
    80000758:	159b0b13          	addi	s6,s6,345 # 800028ad <_end+0x29d>
    8000075c:	00002a17          	auipc	s4,0x2
    80000760:	12da0a13          	addi	s4,s4,301 # 80002889 <_end+0x279>
    80000764:	f5000693          	li	a3,-176
    80000768:	f8c00993          	li	s3,-116
    8000076c:	a4398d93          	addi	s11,s3,-1469
    80000770:	fcc68f93          	addi	t6,a3,-52
    80000774:	9f5a5383          	lhu	t2,-1547(s4)
    80000778:	00e75cb3          	srl	s9,a4,a4
    8000077c:	00b5fe33          	and	t3,a1,a1
    80000780:	8f800793          	li	a5,-1800
    80000784:	52f00093          	li	ra,1327
    80000788:	c9db13a3          	sh	t4,-889(s6)
    8000078c:	03f19193          	slli	gp,gp,0x3f
    80000790:	00000493          	li	s1,0
    80000794:	01ace133          	or	sp,s9,s10
    80000798:	fff00313          	li	t1,-1
    8000079c:	29d16c63          	bltu	sp,t4,80000a34 <crash_forward>
    800007a0:	00000f13          	li	t5,0
    800007a4:	01044433          	xor	s0,s0,a6
    800007a8:	00334333          	xor	t1,t1,gp
    800007ac:	0217d53b          	divuw	a0,a5,ra
    800007b0:	005288bb          	addw	a7,t0,t0
    800007b4:	008dfbb3          	and	s7,s11,s0
    800007b8:	010beab3          	or	s5,s7,a6
    800007bc:	00100d13          	li	s10,1
    800007c0:	03fd1d13          	slli	s10,s10,0x3f
    800007c4:	27e4c863          	blt	s1,t5,80000a34 <crash_forward>
    800007c8:	0067f5b3          	and	a1,a5,t1
    800007cc:	0035e633          	or	a2,a1,gp
    800007d0:	fff00693          	li	a3,-1
    800007d4:	01a6c6b3          	xor	a3,a3,s10
    800007d8:	00d1f733          	and	a4,gp,a3
    800007dc:	01ad6b33          	or	s6,s10,s10
    800007e0:	00002297          	auipc	t0,0x2
    800007e4:	d5728293          	addi	t0,t0,-681 # 80002537 <test_memory+0x337>
    800007e8:	71413313          	sltiu	t1,sp,1812
    800007ec:	a3d00193          	li	gp,-1475
    800007f0:	039cdf33          	divu	t5,s9,s9
    800007f4:	d592b483          	ld	s1,-679(t0)
    800007f8:	df400e93          	li	t4,-524
    800007fc:	0186c4b3          	xor	s1,a3,s8
    80000800:	00002997          	auipc	s3,0x2
    80000804:	36f98993          	addi	s3,s3,879 # 80002b6f <_end+0x55f>
    80000808:	039ccf3b          	divw	t5,s9,s9
    8000080c:	000f8d93          	mv	s11,t6
    80000810:	9a100793          	li	a5,-1631
    80000814:	00002517          	auipc	a0,0x2
    80000818:	e5050513          	addi	a0,a0,-432 # 80002664 <_end+0x54>
    8000081c:	03ff80bb          	mulw	ra,t6,t6
    80000820:	000d8893          	mv	a7,s11
    80000824:	24c00e13          	li	t3,588
    80000828:	b9700313          	li	t1,-1129
    8000082c:	006354b3          	srl	s1,t1,t1
    80000830:	0231f633          	remu	a2,gp,gp
    80000834:	0155b2b3          	sltu	t0,a1,s5
    80000838:	022108bb          	mulw	a7,sp,sp
    8000083c:	96f78393          	addi	t2,a5,-1681
    80000840:	03082fb3          	mulhsu	t6,a6,a6
    80000844:	01ad0133          	add	sp,s10,s10
    80000848:	940016e3          	bnez	zero,80000194 <crash_backward>
    8000084c:	39c00213          	li	tp,924
    80000850:	df054c83          	lbu	s9,-528(a0)
    80000854:	00100293          	li	t0,1
    80000858:	41db0f33          	sub	t5,s6,t4
    8000085c:	0019d0bb          	srlw	ra,s3,ra
    80000860:	9b398c03          	lb	s8,-1613(s3)
    80000864:	54800493          	li	s1,1352
    80000868:	936706e3          	beq	a4,s6,80000194 <crash_backward>
    8000086c:	004eba33          	sltu	s4,t4,tp
    80000870:	51c00593          	li	a1,1308
    80000874:	39d00993          	li	s3,925
    80000878:	917aeee3          	bltu	s5,s7,80000194 <crash_backward>
    8000087c:	034a5c33          	divu	s8,s4,s4
    80000880:	46d48313          	addi	t1,s1,1133
    80000884:	40be593b          	sraw	s2,t3,a1
    80000888:	00002797          	auipc	a5,0x2
    8000088c:	eb578793          	addi	a5,a5,-331 # 8000273d <_end+0x12d>
    80000890:	4190dd9b          	sraiw	s11,ra,0x19
    80000894:	031a4cbb          	divw	s9,s4,a7
    80000898:	53000c13          	li	s8,1328
    8000089c:	034a6bbb          	remw	s7,s4,s4
    800008a0:	015aeab3          	or	s5,s5,s5
    800008a4:	00002217          	auipc	tp,0x2
    800008a8:	98320213          	addi	tp,tp,-1661 # 80002227 <test_memory+0x27>
    800008ac:	8e900913          	li	s2,-1815
    800008b0:	015a93b3          	sll	t2,s5,s5
    800008b4:	03f29293          	slli	t0,t0,0x3f
    800008b8:	243234a3          	sd	gp,585(tp) # 249 <_start-0x7ffffdb7>
    800008bc:	54100f93          	li	t6,1345
    800008c0:	00100493          	li	s1,1
    800008c4:	018c13b3          	sll	t2,s8,s8
    800008c8:	0273ccbb          	divw	s9,t2,t2
    800008cc:	012935b3          	sltu	a1,s2,s2
    800008d0:	d7879fa3          	sh	s8,-641(a5)
    800008d4:	03f9b133          	mulhu	sp,s3,t6
    800008d8:	39e00513          	li	a0,926
    800008dc:	ca300713          	li	a4,-861
    800008e0:	03f49493          	slli	s1,s1,0x3f
    800008e4:	88500813          	li	a6,-1915
    800008e8:	fff00893          	li	a7,-1
    800008ec:	fff00e13          	li	t3,-1
    800008f0:	2f600f13          	li	t5,758
    800008f4:	02ec0db3          	mul	s11,s8,a4
    800008f8:	40948ab3          	sub	s5,s1,s1
    800008fc:	03e560b3          	rem	ra,a0,t5
    80000900:	00002417          	auipc	s0,0x2
    80000904:	fde40413          	addi	s0,s0,-34 # 800028de <_end+0x2ce>
    80000908:	009e4e33          	xor	t3,t3,s1
    8000090c:	01c87333          	and	t1,a6,t3
    80000910:	00001b17          	auipc	s6,0x1
    80000914:	4d5b0b13          	addi	s6,s6,1237 # 80001de5 <fromhost+0xda5>
    80000918:	00976eb3          	or	t4,a4,s1
    8000091c:	0058c8b3          	xor	a7,a7,t0
    80000920:	c3140d03          	lb	s10,-975(s0)
    80000924:	03084a3b          	divw	s4,a6,a6
    80000928:	106ed663          	bge	t4,t1,80000a34 <crash_forward>
    8000092c:	493b1683          	lh	a3,1171(s6)
    80000930:	00002597          	auipc	a1,0x2
    80000934:	0cf58593          	addi	a1,a1,207 # 800029ff <_end+0x3ef>
    80000938:	03ee713b          	remuw	sp,t3,t5
    8000093c:	00100813          	li	a6,1
    80000940:	00100e93          	li	t4,1
    80000944:	0173bcb3          	sltu	s9,t2,s7
    80000948:	03fe9e93          	slli	t4,t4,0x3f
    8000094c:	03f81813          	slli	a6,a6,0x3f
    80000950:	51d00213          	li	tp,1309
    80000954:	0119f1b3          	and	gp,s3,a7
    80000958:	0051e633          	or	a2,gp,t0
    8000095c:	bd35a8a3          	sw	s3,-1071(a1)
    80000960:	fff00313          	li	t1,-1
    80000964:	fff00093          	li	ra,-1
    80000968:	01785abb          	srlw	s5,a6,s7
    8000096c:	01d34333          	xor	t1,t1,t4
    80000970:	0100c0b3          	xor	ra,ra,a6
    80000974:	0014fc33          	and	s8,s1,ra
    80000978:	006e7d33          	and	s10,t3,t1
    8000097c:	01dd6e33          	or	t3,s10,t4
    80000980:	3f100d93          	li	s11,1009
    80000984:	96e00413          	li	s0,-1682
    80000988:	4f500913          	li	s2,1269
    8000098c:	010c6533          	or	a0,s8,a6
    80000990:	012d83bb          	addw	t2,s11,s2
    80000994:	0bcd0063          	beq	s10,t3,80000a34 <crash_forward>
    80000998:	02825bb3          	divu	s7,tp,s0
    8000099c:	0040006f          	j	800009a0 <reg_dump>

00000000800009a0 <reg_dump>:
    800009a0:	00002097          	auipc	ra,0x2
    800009a4:	c6008093          	addi	ra,ra,-928 # 80002600 <loop_count>
    800009a8:	0000a103          	lw	sp,0(ra)
    800009ac:	fff10193          	addi	gp,sp,-1
    800009b0:	0030a023          	sw	gp,0(ra)
    800009b4:	880114e3          	bnez	sp,8000023c <pseg_0>
    800009b8:	00001097          	auipc	ra,0x1
    800009bc:	74808093          	addi	ra,ra,1864 # 80002100 <begin_signature>
    800009c0:	0000b023          	sd	zero,0(ra)
    800009c4:	0020b823          	sd	sp,16(ra)
    800009c8:	0030bc23          	sd	gp,24(ra)
    800009cc:	0240b023          	sd	tp,32(ra)
    800009d0:	0250b423          	sd	t0,40(ra)
    800009d4:	0260b823          	sd	t1,48(ra)
    800009d8:	0270bc23          	sd	t2,56(ra)
    800009dc:	0480b023          	sd	s0,64(ra)
    800009e0:	0490b423          	sd	s1,72(ra)
    800009e4:	04a0b823          	sd	a0,80(ra)
    800009e8:	06c0b023          	sd	a2,96(ra)
    800009ec:	06d0b423          	sd	a3,104(ra)
    800009f0:	06e0b823          	sd	a4,112(ra)
    800009f4:	0900b023          	sd	a6,128(ra)
    800009f8:	0910b423          	sd	a7,136(ra)
    800009fc:	0920b823          	sd	s2,144(ra)
    80000a00:	0930bc23          	sd	s3,152(ra)
    80000a04:	0b40b023          	sd	s4,160(ra)
    80000a08:	0b50b423          	sd	s5,168(ra)
    80000a0c:	0b70bc23          	sd	s7,184(ra)
    80000a10:	0d80b023          	sd	s8,192(ra)
    80000a14:	0d90b423          	sd	s9,200(ra)
    80000a18:	0da0b823          	sd	s10,208(ra)
    80000a1c:	0db0bc23          	sd	s11,216(ra)
    80000a20:	0fc0b023          	sd	t3,224(ra)
    80000a24:	0fd0b423          	sd	t4,232(ra)
    80000a28:	0fe0b823          	sd	t5,240(ra)
    80000a2c:	0ff0bc23          	sd	t6,248(ra)
    80000a30:	0200006f          	j	80000a50 <test_end>

0000000080000a34 <crash_forward>:
    80000a34:	0ff0000f          	fence
    80000a38:	00018063          	beqz	gp,80000a38 <crash_forward+0x4>
    80000a3c:	00119193          	slli	gp,gp,0x1
    80000a40:	0011e193          	ori	gp,gp,1
    80000a44:	05d00893          	li	a7,93
    80000a48:	00018513          	mv	a0,gp
    80000a4c:	00000073          	ecall

0000000080000a50 <test_end>:
    80000a50:	0ff0000f          	fence
    80000a54:	00100193          	li	gp,1
    80000a58:	05d00893          	li	a7,93
    80000a5c:	00000513          	li	a0,0
    80000a60:	00000073          	ecall
    80000a64:	c0001073          	unimp
	...

Disassembly of section .tohost:

0000000080001000 <tohost>:
	...

0000000080001040 <fromhost>:
	...

Disassembly of section .data:

0000000080002000 <hidden_data>:
	...

0000000080002008 <reg_x1_init>:
    80002008:	7868                	ld	a0,240(s0)
    8000200a:	5eb6                	lw	t4,108(sp)
    8000200c:	3c14                	fld	fa3,56(s0)
    8000200e:	e39e                	sd	t2,448(sp)

0000000080002010 <reg_x2_init>:
    80002010:	14b8                	addi	a4,sp,616
    80002012:	58a1                	li	a7,-24
    80002014:	df00                	sw	s0,56(a4)
    80002016:	8d05                	sub	a0,a0,s1

0000000080002018 <reg_x3_init>:
    80002018:	cd18                	sw	a4,24(a0)
    8000201a:	2f64f37b          	0x2f64f37b
    8000201e:	c2ee                	sw	s11,68(sp)

0000000080002020 <reg_x4_init>:
    80002020:	8000                	0x8000
    80002022:	ffff                	0xffff
    80002024:	ffff                	0xffff
    80002026:	ffff                	0xffff

0000000080002028 <reg_x5_init>:
    80002028:	4da0                	lw	s0,88(a1)
    8000202a:	73a9                	lui	t2,0xfffea
    8000202c:	263f4da7          	fsq	ft3,635(t5)

0000000080002030 <reg_x6_init>:
    80002030:	ffffff83          	0xffffff83
    80002034:	ffff                	0xffff
    80002036:	ffff                	0xffff

0000000080002038 <reg_x7_init>:
    80002038:	8006                	c.mv	zero,ra
    8000203a:	ffff                	0xffff
    8000203c:	ffff                	0xffff
    8000203e:	ffff                	0xffff

0000000080002040 <reg_x8_init>:
    80002040:	0005                	c.nop	1
    80002042:	0000                	unimp
    80002044:	0000                	unimp
	...

0000000080002048 <reg_x9_init>:
    80002048:	ffff                	0xffff
    8000204a:	ffff                	0xffff
    8000204c:	ffff                	0xffff
    8000204e:	ffff                	0xffff

0000000080002050 <reg_x10_init>:
	...

0000000080002058 <reg_x11_init>:
    80002058:	7574                	ld	a3,232(a0)
    8000205a:	d295                	beqz	a3,80001f7e <fromhost+0xf3e>
    8000205c:	f83b817b          	0xf83b817b

0000000080002060 <reg_x12_init>:
    80002060:	9e0a3197          	auipc	gp,0x9e0a3
    80002064:	0bb5                	addi	s7,s7,13
    80002066:	f61f        	0xffff8001f61f

0000000080002068 <reg_x13_init>:
    80002068:	8001                	c.srli64	s0
    8000206a:	ffff                	0xffff
    8000206c:	ffff                	0xffff
    8000206e:	ffff                	0xffff

0000000080002070 <reg_x14_init>:
    80002070:	1e48                	addi	a0,sp,820
    80002072:	bc6e                	fsd	fs11,56(sp)
    80002074:	58139ec3          	fmadd.s	ft9,ft7,ft1,fa1,rtz

0000000080002078 <reg_x15_init>:
    80002078:	0000                	unimp
    8000207a:	8000                	0x8000
    8000207c:	ffff                	0xffff
    8000207e:	ffff                	0xffff

0000000080002080 <reg_x16_init>:
    80002080:	503d                	c.li	zero,-17
    80002082:	62d71157          	0x62d71157
    80002086:	b4e6                	fsd	fs9,104(sp)

0000000080002088 <reg_x17_init>:
    80002088:	51b4                	lw	a3,96(a1)
    8000208a:	bb55                	j	80001e3e <fromhost+0xdfe>
    8000208c:	c48e                	sw	gp,72(sp)
    8000208e:	b5c9                	j	80001f50 <fromhost+0xf10>

0000000080002090 <reg_x18_init>:
    80002090:	0006                	c.slli	zero,0x1
    80002092:	8000                	0x8000
    80002094:	ffff                	0xffff
    80002096:	ffff                	0xffff

0000000080002098 <reg_x19_init>:
	...

00000000800020a0 <reg_x20_init>:
    800020a0:	ffffff87          	0xffffff87
    800020a4:	ffff                	0xffff
    800020a6:	ffff                	0xffff

00000000800020a8 <reg_x21_init>:
    800020a8:	af18                	fsd	fa4,24(a4)
    800020aa:	43d5                	li	t2,21
    800020ac:	4dcd                	li	s11,19
    800020ae:	10fe                	slli	ra,ra,0x3f

00000000800020b0 <reg_x22_init>:
    800020b0:	0fa5                	addi	t6,t6,9
    800020b2:	f7692a37          	lui	s4,0xf7692
    800020b6:	23cd                	addiw	t2,t2,19

00000000800020b8 <reg_x23_init>:
	...

00000000800020c0 <reg_x24_init>:
    800020c0:	ffff                	0xffff
    800020c2:	ffff                	0xffff
    800020c4:	ffff                	0xffff
    800020c6:	ffff                	0xffff

00000000800020c8 <reg_x25_init>:
    800020c8:	ffff                	0xffff
    800020ca:	ffff                	0xffff
    800020cc:	ffff                	0xffff
    800020ce:	ffff                	0xffff

00000000800020d0 <reg_x26_init>:
    800020d0:	0005                	c.nop	1
    800020d2:	8000                	0x8000
    800020d4:	ffff                	0xffff
    800020d6:	ffff                	0xffff

00000000800020d8 <reg_x27_init>:
    800020d8:	ffffff87          	0xffffff87
    800020dc:	ffff                	0xffff
    800020de:	ffff                	0xffff

00000000800020e0 <reg_x28_init>:
    800020e0:	dfc6e16f          	jal	sp,7ff706dc <_start-0x8f924>
    800020e4:	4751                	li	a4,20
    800020e6:	7b90                	ld	a2,48(a5)

00000000800020e8 <reg_x29_init>:
    800020e8:	0004                	0x4
    800020ea:	0000                	unimp
    800020ec:	0000                	unimp
	...

00000000800020f0 <reg_x30_init>:
    800020f0:	0004                	0x4
    800020f2:	0000                	unimp
    800020f4:	0000                	unimp
	...

00000000800020f8 <reg_x31_init>:
    800020f8:	9a44                	0x9a44
    800020fa:	46de0aa3          	sb	a3,1141(t3)
    800020fe:	9afc                	0x9afc

0000000080002100 <begin_signature>:
    80002100:	4f41                	li	t5,16
    80002102:	ae43eb2f          	0xae43eb2f
    80002106:	21e8                	fld	fa0,192(a1)

0000000080002108 <reg_x1_output>:
    80002108:	f1e5                	bnez	a1,800020e8 <reg_x29_init>
    8000210a:	ed11                	bnez	a0,80002126 <reg_x4_output+0x6>
    8000210c:	7e19                	lui	t3,0xfffe6
    8000210e:	d356                	sw	s5,164(sp)

0000000080002110 <reg_x2_output>:
    80002110:	7da5                	lui	s11,0xfffe9
    80002112:	4bf8                	lw	a4,84(a5)
    80002114:	2ca4                	fld	fs1,88(s1)
    80002116:	bd51                	j	80001faa <fromhost+0xf6a>

0000000080002118 <reg_x3_output>:
    80002118:	8d2e                	mv	s10,a1
    8000211a:	d8c0                	sw	s0,52(s1)
    8000211c:	38ac                	fld	fa1,112(s1)
    8000211e:	b422                	fsd	fs0,40(sp)

0000000080002120 <reg_x4_output>:
    80002120:	ed8a6343          	0xed8a6343
    80002124:	35da796f          	jal	s2,800a9c80 <__global_pointer$+0xa6e70>

0000000080002128 <reg_x5_output>:
    80002128:	c875                	beqz	s0,8000221c <test_memory+0x1c>
    8000212a:	a339                	j	80002638 <_end+0x28>
    8000212c:	f410                	sd	a2,40(s0)
    8000212e:	          	0xcf3320db

0000000080002130 <reg_x6_output>:
    80002130:	1025cf33          	0x1025cf33
    80002134:	1e1515eb          	0x1e1515eb

0000000080002138 <reg_x7_output>:
    80002138:	89e5094b          	fnmsub.s	fs2,fa0,ft10,fa7,rne
    8000213c:	c5e5                	beqz	a1,80002224 <test_memory+0x24>
    8000213e:	124e                	slli	tp,tp,0x33

0000000080002140 <reg_x8_output>:
    80002140:	8521                	srai	a0,a0,0x8
    80002142:	7712                	ld	a4,288(sp)
    80002144:	af2e                	fsd	fa1,408(sp)
    80002146:	86fa                	mv	a3,t5

0000000080002148 <reg_x9_output>:
    80002148:	0dc9c623          	0xdc9c623
    8000214c:	3200                	fld	fs0,32(a2)
    8000214e:	          	lui	s0,0x2b40f

0000000080002150 <reg_x10_output>:
    80002150:	2b40                	fld	fs0,144(a4)
    80002152:	69e0                	ld	s0,208(a1)
    80002154:	bcb11b6f          	jal	s6,7ff13d1e <_start-0xec2e2>

0000000080002158 <reg_x11_output>:
    80002158:	a76c                	fsd	fa1,200(a4)
    8000215a:	cbfc                	sw	a5,84(a5)
    8000215c:	b349                	j	80001ede <fromhost+0xe9e>
    8000215e:	78a1                	lui	a7,0xfffe8

0000000080002160 <reg_x12_output>:
    80002160:	a37e                	fsd	ft11,384(sp)
    80002162:	678633f3          	csrrc	t2,0x678,a2
    80002166:	4f29                	li	t5,10

0000000080002168 <reg_x13_output>:
    80002168:	25e1                	addiw	a1,a1,24
    8000216a:	5795                	li	a5,-27
    8000216c:	6ee6                	ld	t4,88(sp)
    8000216e:	392e                	fld	fs2,232(sp)

0000000080002170 <reg_x14_output>:
    80002170:	43f8                	lw	a4,68(a5)
    80002172:	91f4                	0x91f4
    80002174:	b8ac                	fsd	fa1,112(s1)
    80002176:	          	bge	t5,ra,80002528 <test_memory+0x328>

0000000080002178 <reg_x15_output>:
    80002178:	3a1f 1b2e 7599      	0x75991b2e3a1f
    8000217e:	123a                	slli	tp,tp,0x2e

0000000080002180 <reg_x16_output>:
    80002180:	1defa2af          	sc.w.aq	t0,t5,(t6)
    80002184:	57690687          	0x57690687

0000000080002188 <reg_x17_output>:
    80002188:	0d09f177          	0xd09f177
    8000218c:	3766                	fld	fa4,120(sp)
    8000218e:	3911                	addiw	s2,s2,-28

0000000080002190 <reg_x18_output>:
    80002190:	e87c                	sd	a5,208(s0)
    80002192:	7541                	lui	a0,0xffff0
    80002194:	dc97f163          	bgeu	a5,s1,80001756 <fromhost+0x716>

0000000080002198 <reg_x19_output>:
    80002198:	fc05                	bnez	s0,800020d0 <reg_x26_init>
    8000219a:	fa18                	sd	a4,48(a2)
    8000219c:	2b4f0d77          	0x2b4f0d77

00000000800021a0 <reg_x20_output>:
    800021a0:	df41                	beqz	a4,80002138 <reg_x7_output>
    800021a2:	38c0a1bb          	0x38c0a1bb
    800021a6:	a1f2                	fsd	ft8,192(sp)

00000000800021a8 <reg_x21_output>:
    800021a8:	8801                	andi	s0,s0,0
    800021aa:	06a4                	addi	s1,sp,840
    800021ac:	fe44                	sd	s1,184(a2)
    800021ae:	          	fmsub.q	fs1,ft3,fs6,ft5,unknown

00000000800021b0 <reg_x22_output>:
    800021b0:	2f61                	addiw	t5,t5,24
    800021b2:	d15f 9613 f2ec      	0xf2ec9613d15f

00000000800021b8 <reg_x23_output>:
    800021b8:	fe54                	sd	a3,184(a2)
    800021ba:	0069                	c.nop	26
    800021bc:	1fee                	slli	t6,t6,0x3b
    800021be:	28d4                	fld	fa3,144(s1)

00000000800021c0 <reg_x24_output>:
    800021c0:	8071                	srli	s0,s0,0x1c
    800021c2:	e09c                	sd	a5,0(s1)
    800021c4:	ffc8                	sd	a0,184(a5)
    800021c6:	bf1a                	fsd	ft6,440(sp)

00000000800021c8 <reg_x25_output>:
    800021c8:	746e                	ld	s0,248(sp)
    800021ca:	52dd                	li	t0,-9
    800021cc:	3cec                	fld	fa1,248(s1)
    800021ce:	0e15                	addi	t3,t3,5

00000000800021d0 <reg_x26_output>:
    800021d0:	e186712f          	0xe186712f
    800021d4:	9886                	add	a7,a7,ra
    800021d6:	          	0xe756142f

00000000800021d8 <reg_x27_output>:
    800021d8:	e756                	sd	s5,392(sp)
    800021da:	0440                	addi	s0,sp,516
    800021dc:	9ee9                	0x9ee9
    800021de:	e6df        	0xa279ab2e6df

00000000800021e0 <reg_x28_output>:
    800021e0:	9ab2                	add	s5,s5,a2
    800021e2:	ceb80a27          	0xceb80a27
    800021e6:	8e62                	mv	t3,s8

00000000800021e8 <reg_x29_output>:
    800021e8:	9402                	jalr	s0
    800021ea:	23ea968b          	0x23ea968b
    800021ee:	5eaa                	lw	t4,168(sp)

00000000800021f0 <reg_x30_output>:
    800021f0:	2c5912e3          	bne	s2,t0,80002cb4 <_end+0x6a4>
    800021f4:	7048                	ld	a0,160(s0)
    800021f6:	  	0x1b70afe00e839bf

00000000800021f8 <reg_x31_output>:
    800021f8:	00e8                	addi	a0,sp,76
    800021fa:	0afe                	slli	s5,s5,0x1f
    800021fc:	048801b7          	lui	gp,0x4880

0000000080002200 <test_memory>:
    80002200:	9d5a222b          	0x9d5a222b
    80002204:	b6ac                	fsd	fa1,104(a3)
    80002206:	4535                	li	a0,13
    80002208:	8cd4                	0x8cd4
    8000220a:	7ff4                	ld	a3,248(a5)
    8000220c:	cdf0db73          	csrrwi	s6,0xcdf,1
    80002210:	206d                	0x206d
    80002212:	ca41                	beqz	a2,800022a2 <test_memory+0xa2>
    80002214:	8f25                	xor	a4,a4,s1
    80002216:	e504                	sd	s1,8(a0)
    80002218:	96fc                	0x96fc
    8000221a:	0d8ce753          	0xd8ce753
    8000221e:	fa42                	sd	a6,304(sp)
    80002220:	ad36                	fsd	fa3,152(sp)
    80002222:	5b68                	lw	a0,116(a4)
    80002224:	a346                	fsd	fa7,384(sp)
    80002226:	7538                	ld	a4,104(a0)
    80002228:	9451                	srai	s0,s0,0x34
    8000222a:	7605                	lui	a2,0xfffe1
    8000222c:	53dc                	lw	a5,36(a5)
    8000222e:	30ae                	fld	ft1,232(sp)
    80002230:	eb7bb733          	0xeb7bb733
    80002234:	e5b2                	sd	a2,200(sp)
    80002236:	baf4                	fsd	fa3,240(a3)
    80002238:	8bb4a617          	auipc	a2,0x8bb4a
    8000223c:	b5ff2e03          	lw	t3,-1185(t5)
    80002240:	d9f606e3          	beq	a2,t6,80001fcc <fromhost+0xf8c>
    80002244:	a72a                	fsd	fa0,392(sp)
    80002246:	7430                	ld	a2,104(s0)
    80002248:	a26e85b7          	lui	a1,0xa26e8
    8000224c:	a61c                	fsd	fa5,8(a2)
    8000224e:	7fdd                	lui	t6,0xffff7
    80002250:	408c                	lw	a1,0(s1)
    80002252:	7c16                	ld	s8,352(sp)
    80002254:	77c8                	ld	a0,168(a5)
    80002256:	d9d3e5d3          	0xd9d3e5d3
    8000225a:	217a                	fld	ft2,408(sp)
    8000225c:	5d96                	lw	s11,100(sp)
    8000225e:	de8e                	sw	gp,124(sp)
    80002260:	9172                	add	sp,sp,t3
    80002262:	ed99                	bnez	a1,80002280 <test_memory+0x80>
    80002264:	f7d75883          	lhu	a7,-131(a4)
    80002268:	d299489b          	0xd299489b
    8000226c:	0456                	slli	s0,s0,0x15
    8000226e:	7c46be67          	0x7c46be67
    80002272:	8368                	0x8368
    80002274:	00fd                	addi	ra,ra,31
    80002276:	a29e                	fsd	ft7,320(sp)
    80002278:	db5e                	sw	s7,180(sp)
    8000227a:	e65d                	bnez	a2,80002328 <test_memory+0x128>
    8000227c:	9e24                	0x9e24
    8000227e:	ce01                	beqz	a2,80002296 <test_memory+0x96>
    80002280:	78dd                	lui	a7,0xffff7
    80002282:	98df 3d7c f02e      	0xf02e3d7c98df
    80002288:	8764                	0x8764
    8000228a:	3a4b70b7          	lui	ra,0x3a4b7
    8000228e:	7794                	ld	a3,40(a5)
    80002290:	5b21                	li	s6,-24
    80002292:	43d5                	li	t2,21
    80002294:	a935                	j	800026d0 <_end+0xc0>
    80002296:	dbda                	sw	s6,244(sp)
    80002298:	effa                	sd	t5,472(sp)
    8000229a:	ab15                	j	800027ce <_end+0x1be>
    8000229c:	0174                	addi	a3,sp,140
    8000229e:	c91a                	sw	t1,144(sp)
    800022a0:	b54c                	fsd	fa1,168(a0)
    800022a2:	c72c                	sw	a1,72(a4)
    800022a4:	48c8                	lw	a0,20(s1)
    800022a6:	b5cdab23          	sw	t3,-1194(s11) # fffffffffffe8b56 <__global_pointer$+0xffffffff7ffe5d46>
    800022aa:	0360                	addi	s0,sp,396
    800022ac:	bdde                	fsd	fs7,248(sp)
    800022ae:	7a64                	ld	s1,240(a2)
    800022b0:	a952                	fsd	fs4,144(sp)
    800022b2:	2edc                	fld	fa5,152(a3)
    800022b4:	c911                	beqz	a0,800022c8 <test_memory+0xc8>
    800022b6:	e77b77b7          	lui	a5,0xe77b7
    800022ba:	41ac8f43          	fmadd.s	ft10,fs9,fs10,fs0,rne
    800022be:	f7fc                	sd	a5,232(a5)
    800022c0:	dd9e                	sw	t2,248(sp)
    800022c2:	de30                	sw	a2,120(a2)
    800022c4:	1498661b          	0x1498661b
    800022c8:	377a6767          	0x377a6767
    800022cc:	4f9c                	lw	a5,24(a5)
    800022ce:	89011823          	sh	a6,-1904(sp)
    800022d2:	be7878c7          	fmsub.q	fa7,fa6,ft7,fs7
    800022d6:	5acc0baf          	0x5acc0baf
    800022da:	3ff8                	fld	fa4,248(a5)
    800022dc:	2aafe9db          	0x2aafe9db
    800022e0:	1bcfc9e7          	0x1bcfc9e7
    800022e4:	16b0                	addi	a2,sp,872
    800022e6:	7620                	ld	s0,104(a2)
    800022e8:	f614                	sd	a3,40(a2)
    800022ea:	7564                	ld	s1,232(a0)
    800022ec:	d6df2b33          	0xd6df2b33
    800022f0:	7679bccb          	fnmsub.q	fs9,fs3,ft7,fa4,rup
    800022f4:	d115                	beqz	a0,80002218 <test_memory+0x18>
    800022f6:	fc22                	sd	s0,56(sp)
    800022f8:	3a6a                	fld	fs4,184(sp)
    800022fa:	8f74                	0x8f74
    800022fc:	0e6c                	addi	a1,sp,796
    800022fe:	05ec822b          	0x5ec822b
    80002302:	c9ad                	beqz	a1,80002374 <test_memory+0x174>
    80002304:	1dc0                	addi	s0,sp,756
    80002306:	7201                	lui	tp,0xfffe0
    80002308:	788d                	lui	a7,0xfffe3
    8000230a:	67a6                	ld	a5,72(sp)
    8000230c:	3aaac7f3          	0x3aaac7f3
    80002310:	c240                	sw	s0,4(a2)
    80002312:	f731                	bnez	a4,8000225e <test_memory+0x5e>
    80002314:	aa9926d7          	0xaa9926d7
    80002318:	b5fcace7          	0xb5fcace7
    8000231c:	acec95b7          	lui	a1,0xacec9
    80002320:	13a9                	addi	t2,t2,-22
    80002322:	3d108ac3          	0x3d108ac3
    80002326:	08de1553          	fsub.s	fa0,ft8,fa3,rtz
    8000232a:	a68e                	fsd	ft3,328(sp)
    8000232c:	2954                	fld	fa3,144(a0)
    8000232e:	02c2                	slli	t0,t0,0x10
    80002330:	bc66                	fsd	fs9,56(sp)
    80002332:	7b41                	lui	s6,0xffff0
    80002334:	c874                	sw	a3,84(s0)
    80002336:	399e                	fld	fs3,480(sp)
    80002338:	3d69                	addiw	s10,s10,-6
    8000233a:	ecdc                	sd	a5,152(s1)
    8000233c:	84671073          	csrw	0x846,a4
    80002340:	6ab07dcb          	fnmsub.d	fs11,ft0,fa1,fa3
    80002344:	0165                	addi	sp,sp,25
    80002346:	5ae5c547          	fmsub.d	fa0,fa1,fa4,fa1,rmm
    8000234a:	f189                	bnez	a1,8000224c <test_memory+0x4c>
    8000234c:	bf70                	fsd	fa2,248(a4)
    8000234e:	f9fa                	sd	t5,240(sp)
    80002350:	2e34                	fld	fa3,88(a2)
    80002352:	b5df800b          	0xb5df800b
    80002356:	5a28996b          	0x5a28996b
    8000235a:	223d5deb          	0x223d5deb
    8000235e:	7ebe                	ld	t4,488(sp)
    80002360:	e1a4ba37          	lui	s4,0xe1a4b
    80002364:	9f04                	0x9f04
    80002366:	7bea                	ld	s7,184(sp)
    80002368:	a2d6                	fsd	fs5,320(sp)
    8000236a:	fc26                	sd	s1,56(sp)
    8000236c:	d785                	beqz	a5,80002294 <test_memory+0x94>
    8000236e:	441e                	lw	s0,196(sp)
    80002370:	8518                	0x8518
    80002372:	0ad718c7          	fmsub.d	fa7,fa4,fa3,ft1,rtz
    80002376:	04ca                	slli	s1,s1,0x12
    80002378:	933a22f3          	csrrs	t0,0x933,s4
    8000237c:	96987a13          	andi	s4,a6,-1687
    80002380:	dc81                	beqz	s1,80002298 <test_memory+0x98>
    80002382:	b316                	fsd	ft5,416(sp)
    80002384:	40fdde3f d9fccbb9 	0xd9fccbb940fdde3f
    8000238c:	9c75                	0x9c75
    8000238e:	e416                	sd	t0,8(sp)
    80002390:	7372                	ld	t1,312(sp)
    80002392:	3357b2e7          	0x3357b2e7
    80002396:	d1ec                	sw	a1,100(a1)
    80002398:	87ac                	0x87ac
    8000239a:	abb5                	j	80002916 <_end+0x306>
    8000239c:	5adc                	lw	a5,52(a3)
    8000239e:	0108                	addi	a0,sp,128
    800023a0:	1876                	slli	a6,a6,0x3d
    800023a2:	68b0                	ld	a2,80(s1)
    800023a4:	17e6                	slli	a5,a5,0x39
    800023a6:	fdeb0ba7          	0xfdeb0ba7
    800023aa:	a74681f3          	0xa74681f3
    800023ae:	1100                	addi	s0,sp,160
    800023b0:	34131b17          	auipc	s6,0x34131
    800023b4:	3026                	fld	ft0,104(sp)
    800023b6:	7f25                	lui	t5,0xfffe9
    800023b8:	9ae1b6c7          	fmsub.d	fa3,ft3,fa4,fs3,rup
    800023bc:	b3de                	fsd	fs7,480(sp)
    800023be:	47cc                	lw	a1,12(a5)
    800023c0:	1492                	slli	s1,s1,0x24
    800023c2:	2e14                	fld	fa3,24(a2)
    800023c4:	41cc                	lw	a1,4(a1)
    800023c6:	7599421b          	0x7599421b
    800023ca:	b6a8                	fsd	fa0,104(a3)
    800023cc:	1fa2                	slli	t6,t6,0x28
    800023ce:	d29c                	sw	a5,32(a3)
    800023d0:	07ce                	slli	a5,a5,0x13
    800023d2:	9715                	srai	a4,a4,0x25
    800023d4:	2fb4eb47          	fmsub.q	fs6,fs1,fs11,ft5,unknown
    800023d8:	a303dbcf          	fnmadd.d	fs7,ft7,fa6,fs4,unknown
    800023dc:	c946                	sw	a7,144(sp)
    800023de:	246c                	fld	fa1,200(s0)
    800023e0:	0c8a                	slli	s9,s9,0x2
    800023e2:	fd71                	bnez	a0,800023be <test_memory+0x1be>
    800023e4:	dc8b0b4b          	0xdc8b0b4b
    800023e8:	a948                	fsd	fa0,144(a0)
    800023ea:	dee1                	beqz	a3,800023c2 <test_memory+0x1c2>
    800023ec:	47a66c57          	0x47a66c57
    800023f0:	f9d6                	sd	s5,240(sp)
    800023f2:	cc39                	beqz	s0,80002450 <test_memory+0x250>
    800023f4:	9c89                	subw	s1,s1,a0
    800023f6:	611a                	ld	sp,384(sp)
    800023f8:	2de2                	fld	fs11,24(sp)
    800023fa:	0a55                	addi	s4,s4,21
    800023fc:	6ca5                	lui	s9,0x9
    800023fe:	c6f0                	sw	a2,76(a3)
    80002400:	c3c4                	sw	s1,4(a5)
    80002402:	6001                	0x6001
    80002404:	09c2                	slli	s3,s3,0x10
    80002406:	c050c8e7          	0xc050c8e7
    8000240a:	73d9fe57          	0x73d9fe57
    8000240e:	eb0e                	sd	gp,400(sp)
    80002410:	805e                	c.mv	zero,s7
    80002412:	3dfae8ef          	jal	a7,800b0ff0 <__global_pointer$+0xae1e0>
    80002416:	7d9f 4e30 c519      	0xc5194e307d9f
    8000241c:	0936c56b          	0x936c56b
    80002420:	47da                	lw	a5,148(sp)
    80002422:	f50f80eb          	0xf50f80eb
    80002426:	8d4c                	0x8d4c
    80002428:	595c                	lw	a5,52(a0)
    8000242a:	0c41                	addi	s8,s8,16
    8000242c:	6cbc                	ld	a5,88(s1)
    8000242e:	271f 640c a1ab      	0xa1ab640c271f
    80002434:	106d                	c.nop	-5
    80002436:	150a                	slli	a0,a0,0x22
    80002438:	f67f                	0xf67f
    8000243a:	6fb1                	lui	t6,0xc
    8000243c:	a976                	fsd	ft9,144(sp)
    8000243e:	6e2d                	lui	t3,0xb
    80002440:	f420831b          	addiw	t1,ra,-190
    80002444:	f419                	bnez	s0,80002352 <test_memory+0x152>
    80002446:	a0eb4f2f          	0xa0eb4f2f
    8000244a:	3e3b5a63          	bge	s6,gp,8000283e <_end+0x22e>
    8000244e:	8805                	andi	s0,s0,1
    80002450:	a065e177          	0xa065e177
    80002454:	2ff8                	fld	fa4,216(a5)
    80002456:	f0b1                	bnez	s1,8000239a <test_memory+0x19a>
    80002458:	f7aa                	sd	a0,488(sp)
    8000245a:	7d09                	lui	s10,0xfffe2
    8000245c:	857f                	0x857f
    8000245e:	9f0ab26b          	0x9f0ab26b
    80002462:	5e35                	li	t3,-19
    80002464:	558df94b          	0x558df94b
    80002468:	b7d2                	fsd	fs4,488(sp)
    8000246a:	9c9e                	add	s9,s9,t2
    8000246c:	70b2                	ld	ra,296(sp)
    8000246e:	e94c                	sd	a1,144(a0)
    80002470:	b3ad                	j	800021da <reg_x27_output+0x2>
    80002472:	8930                	0x8930
    80002474:	ec583877          	0xec583877
    80002478:	881d                	andi	s0,s0,7
    8000247a:	eef1                	bnez	a3,80002556 <test_memory+0x356>
    8000247c:	d5a4                	sw	s1,104(a1)
    8000247e:	21ed                	addiw	gp,gp,27
    80002480:	36dd                	addiw	a3,a3,-9
    80002482:	1d4d                	addi	s10,s10,-13
    80002484:	d4c42f0f          	0xd4c42f0f
    80002488:	69b8                	ld	a4,80(a1)
    8000248a:	6630                	ld	a2,72(a2)
    8000248c:	0c3fae27          	fsw	ft3,220(t6) # c0dc <_start-0x7fff3f24>
    80002490:	eeae                	sd	a1,344(sp)
    80002492:	65b4                	ld	a3,72(a1)
    80002494:	798efa0b          	0x798efa0b
    80002498:	4745e25b          	0x4745e25b
    8000249c:	dcfe2def          	jal	s11,7ffe526a <_start-0x1ad96>
    800024a0:	59ff                	0x59ff
    800024a2:	2e89                	addiw	t4,t4,2
    800024a4:	52d47457          	0x52d47457
    800024a8:	3399                	addiw	t2,t2,-26
    800024aa:	d2bc9f27          	0xd2bc9f27
    800024ae:	1f44                	addi	s1,sp,948
    800024b0:	a9ee                	fsd	fs11,208(sp)
    800024b2:	bfa1                	j	8000240a <test_memory+0x20a>
    800024b4:	3d92                	fld	fs11,288(sp)
    800024b6:	f782                	sd	zero,488(sp)
    800024b8:	3379                	addiw	t1,t1,-2
    800024ba:	a1fe                	fsd	ft11,192(sp)
    800024bc:	d2c1                	beqz	a3,8000243c <test_memory+0x23c>
    800024be:	b47f                	0xb47f
    800024c0:	5e8e                	lw	t4,224(sp)
    800024c2:	ceaa                	sw	a0,92(sp)
    800024c4:	3b2de917          	auipc	s2,0x3b2de
    800024c8:	9a44                	0x9a44
    800024ca:	8d3f89bf 7ad7e09b 	0x7ad7e09b8d3f89bf
    800024d2:	e955                	bnez	a0,80002586 <test_memory+0x386>
    800024d4:	9938                	0x9938
    800024d6:	9570                	0x9570
    800024d8:	d9a0                	sw	s0,112(a1)
    800024da:	e16d1177          	0xe16d1177
    800024de:	83de4c27          	fsq	ft9,-1992(t3) # a838 <_start-0x7fff57c8>
    800024e2:	bfc5                	j	800024d2 <test_memory+0x2d2>
    800024e4:	494a8acb          	fnmsub.s	fs5,fs5,fs4,fs1,rne
    800024e8:	d0dd                	beqz	s1,8000248e <test_memory+0x28e>
    800024ea:	6ca5                	lui	s9,0x9
    800024ec:	8f9d                	sub	a5,a5,a5
    800024ee:	311f bf45 d34c      	0xd34cbf45311f
    800024f4:	4a3554e7          	0x4a3554e7
    800024f8:	f28e                	sd	gp,352(sp)
    800024fa:	089f679b          	0x89f679b
    800024fe:	bf62                	fsd	fs8,440(sp)
    80002500:	64f4                	ld	a3,200(s1)
    80002502:	b13d                	j	80002130 <reg_x6_output>
    80002504:	e0ee                	sd	s11,64(sp)
    80002506:	af5b49b3          	0xaf5b49b3
    8000250a:	dc55                	beqz	s0,800024c6 <test_memory+0x2c6>
    8000250c:	4f65                	li	t5,25
    8000250e:	1df0                	addi	a2,sp,764
    80002510:	b808                	fsd	fa0,48(s0)
    80002512:	541e                	lw	s0,228(sp)
    80002514:	5ece                	lw	t4,240(sp)
    80002516:	3a15879b          	addiw	a5,a1,929
    8000251a:	8fb8                	0x8fb8
    8000251c:	d0ea                	sw	s10,96(sp)
    8000251e:	3b0b1be3          	bne	s6,a6,800030d4 <__global_pointer$+0x2c4>
    80002522:	0266                	slli	tp,tp,0x19
    80002524:	5140b983          	ld	s3,1300(ra) # 3a4b7514 <_start-0x45b48aec>
    80002528:	eb12f90b          	0xeb12f90b
    8000252c:	5651                	li	a2,-12
    8000252e:	a220                	fsd	fs0,64(a2)
    80002530:	7365                	lui	t1,0xffff9
    80002532:	4fdef813          	andi	a6,t4,1277
    80002536:	b46a                	fsd	fs10,40(sp)
    80002538:	7e25389b          	0x7e25389b
    8000253c:	a330754b          	fnmsub.d	fa0,ft0,fs3,fs4
    80002540:	fb7ff013          	andi	zero,t6,-73
    80002544:	f58c                	sd	a1,40(a1)
    80002546:	f29d                	bnez	a3,8000246c <test_memory+0x26c>
    80002548:	3c33f30b          	0x3c33f30b
    8000254c:	a3ce22bb          	0xa3ce22bb
    80002550:	8796                	mv	a5,t0
    80002552:	449c                	lw	a5,8(s1)
    80002554:	8052                	c.mv	zero,s4
    80002556:	245f c199 8413      	0x8413c199245f
    8000255c:	4b99                	li	s7,6
    8000255e:	012dea8f          	0x12dea8f
    80002562:	a3f0                	fsd	fa2,192(a5)
    80002564:	6594                	ld	a3,8(a1)
    80002566:	2a74                	fld	fa3,208(a2)
    80002568:	4ad0                	lw	a2,20(a3)
    8000256a:	14b8                	addi	a4,sp,616
    8000256c:	981e                	add	a6,a6,t2
    8000256e:	fa48                	sd	a0,176(a2)
    80002570:	9d45                	0x9d45
    80002572:	db3a                	sw	a4,180(sp)
    80002574:	2c21                	addiw	s8,s8,8
    80002576:	3985                	addiw	s3,s3,-31
    80002578:	c21d                	beqz	a2,8000259e <test_memory+0x39e>
    8000257a:	bd18871b          	addiw	a4,a7,-1071
    8000257e:	9f36                	add	t5,t5,a3
    80002580:	3130                	fld	fa2,96(a0)
    80002582:	8fe5                	and	a5,a5,s1
    80002584:	b629                	j	8000208e <reg_x17_init+0x6>
    80002586:	b2bd                	j	80001ef4 <fromhost+0xeb4>
    80002588:	4ca1                	li	s9,8
    8000258a:	0866                	slli	a6,a6,0x19
    8000258c:	ff9e                	sd	t2,504(sp)
    8000258e:	9d20                	0x9d20
    80002590:	ca15                	beqz	a2,800025c4 <test_memory+0x3c4>
    80002592:	0e99                	addi	t4,t4,6
    80002594:	a78e                	fsd	ft3,456(sp)
    80002596:	9699                	srai	a3,a3,0x26
    80002598:	35665f47          	0x35665f47
    8000259c:	eaadceeb          	0xeaadceeb
    800025a0:	5acf0b27          	0x5acf0b27
    800025a4:	6c5c                	ld	a5,152(s0)
    800025a6:	2e1a                	fld	ft8,384(sp)
    800025a8:	6a19                	lui	s4,0x6
    800025aa:	cfe8                	sw	a0,92(a5)
    800025ac:	9881                	andi	s1,s1,-32
    800025ae:	764c                	ld	a1,168(a2)
    800025b0:	bb19                	j	800022c6 <test_memory+0xc6>
    800025b2:	4bee                	lw	s7,216(sp)
    800025b4:	a399                	j	80002afa <_end+0x4ea>
    800025b6:	ce78                	sw	a4,92(a2)
    800025b8:	d08d64cf          	fnmadd.s	fs1,fs10,fs0,fs10,unknown
    800025bc:	31a63a97          	auipc	s5,0x31a63
    800025c0:	34d1                	addiw	s1,s1,-12
    800025c2:	f2400753          	0xf2400753
    800025c6:	243a                	fld	fs0,392(sp)
    800025c8:	10a9                	addi	ra,ra,-22
    800025ca:	29a5                	addiw	s3,s3,9
    800025cc:	b3b7b8b3          	0xb3b7b8b3
    800025d0:	31deaf5b          	0x31deaf5b
    800025d4:	828a                	mv	t0,sp
    800025d6:	c8b8                	sw	a4,80(s1)
    800025d8:	037e                	slli	t1,t1,0x1f
    800025da:	928a                	add	t0,t0,sp
    800025dc:	168d                	addi	a3,a3,-29
    800025de:	2dd1                	addiw	s11,s11,20
    800025e0:	9120                	0x9120
    800025e2:	28aa                	fld	fa7,136(sp)
    800025e4:	b370                	fsd	fa2,224(a4)
    800025e6:	18ad                	addi	a7,a7,-21
    800025e8:	644ad013          	0x644ad013
    800025ec:	deec7d3f 4d7c4257 	0x4d7c4257deec7d3f
    800025f4:	bc6d                	j	800020ae <reg_x21_init+0x6>
    800025f6:	27ed                	addiw	a5,a5,27
    800025f8:	dfb0                	sw	a2,120(a5)
    800025fa:	014c                	addi	a1,sp,132
    800025fc:	31700e9b          	addiw	t4,zero,791

0000000080002600 <loop_count>:
    80002600:	0040                	addi	s0,sp,4
	...

Disassembly of section .riscv.attributes:

0000000000000000 <.riscv.attributes>:
   0:	1e41                	addi	t3,t3,-16
   2:	0000                	unimp
   4:	7200                	ld	s0,32(a2)
   6:	7369                	lui	t1,0xffffa
   8:	01007663          	bgeu	zero,a6,14 <_start-0x7fffffec>
   c:	0014                	0x14
   e:	0000                	unimp
  10:	7205                	lui	tp,0xfffe1
  12:	3676                	fld	fa2,376(sp)
  14:	6934                	ld	a3,80(a0)
  16:	7032                	0x7032
  18:	5f30                	lw	a2,120(a4)
  1a:	326d                	addiw	tp,tp,-5
  1c:	3070                	fld	fa2,224(s0)
	...
