
build/test98:     file format elf64-littleriscv


Disassembly of section .text.init:

0000000080000000 <_start>:
    80000000:	05c0006f          	j	8000005c <reset_vector>

0000000080000004 <trap_vector>:
    80000004:	34202f73          	csrr	t5,mcause
    80000008:	00800f93          	li	t6,8
    8000000c:	03ff0a63          	beq	t5,t6,80000040 <write_tohost>
    80000010:	00900f93          	li	t6,9
    80000014:	03ff0663          	beq	t5,t6,80000040 <write_tohost>
    80000018:	00b00f93          	li	t6,11
    8000001c:	03ff0263          	beq	t5,t6,80000040 <write_tohost>
    80000020:	80000f17          	auipc	t5,0x80000
    80000024:	fe0f0f13          	addi	t5,t5,-32 # 0 <_start-0x80000000>
    80000028:	000f0463          	beqz	t5,80000030 <trap_vector+0x2c>
    8000002c:	000f0067          	jr	t5
    80000030:	34202f73          	csrr	t5,mcause
    80000034:	000f5463          	bgez	t5,8000003c <handle_exception>
    80000038:	0040006f          	j	8000003c <handle_exception>

000000008000003c <handle_exception>:
    8000003c:	5391e193          	ori	gp,gp,1337

0000000080000040 <write_tohost>:
    80000040:	00001f17          	auipc	t5,0x1
    80000044:	fc3f2023          	sw	gp,-64(t5) # 80001000 <tohost>
    80000048:	000902b7          	lui	t0,0x90
    8000004c:	0012829b          	addiw	t0,t0,1
    80000050:	00c29293          	slli	t0,t0,0xc
    80000054:	0002af83          	lw	t6,0(t0) # 90000 <_start-0x7ff70000>
    80000058:	fe9ff06f          	j	80000040 <write_tohost>

000000008000005c <reset_vector>:
    8000005c:	00000093          	li	ra,0
    80000060:	00000113          	li	sp,0
    80000064:	00000193          	li	gp,0
    80000068:	00000213          	li	tp,0
    8000006c:	00000293          	li	t0,0
    80000070:	00000313          	li	t1,0
    80000074:	00000393          	li	t2,0
    80000078:	00000413          	li	s0,0
    8000007c:	00000493          	li	s1,0
    80000080:	00000513          	li	a0,0
    80000084:	00000593          	li	a1,0
    80000088:	00000613          	li	a2,0
    8000008c:	00000693          	li	a3,0
    80000090:	00000713          	li	a4,0
    80000094:	00000793          	li	a5,0
    80000098:	00000813          	li	a6,0
    8000009c:	00000893          	li	a7,0
    800000a0:	00000913          	li	s2,0
    800000a4:	00000993          	li	s3,0
    800000a8:	00000a13          	li	s4,0
    800000ac:	00000a93          	li	s5,0
    800000b0:	00000b13          	li	s6,0
    800000b4:	00000b93          	li	s7,0
    800000b8:	00000c13          	li	s8,0
    800000bc:	00000c93          	li	s9,0
    800000c0:	00000d13          	li	s10,0
    800000c4:	00000d93          	li	s11,0
    800000c8:	00000e13          	li	t3,0
    800000cc:	00000e93          	li	t4,0
    800000d0:	00000f13          	li	t5,0
    800000d4:	00000f93          	li	t6,0
    800000d8:	f1402573          	csrr	a0,mhartid
    800000dc:	00051063          	bnez	a0,800000dc <reset_vector+0x80>
    800000e0:	00000297          	auipc	t0,0x0
    800000e4:	01028293          	addi	t0,t0,16 # 800000f0 <reset_vector+0x94>
    800000e8:	30529073          	csrw	mtvec,t0
    800000ec:	18005073          	csrwi	satp,0
    800000f0:	00000297          	auipc	t0,0x0
    800000f4:	02428293          	addi	t0,t0,36 # 80000114 <reset_vector+0xb8>
    800000f8:	30529073          	csrw	mtvec,t0
    800000fc:	0010029b          	addiw	t0,zero,1
    80000100:	03529293          	slli	t0,t0,0x35
    80000104:	fff28293          	addi	t0,t0,-1
    80000108:	3b029073          	csrw	pmpaddr0,t0
    8000010c:	01f00293          	li	t0,31
    80000110:	3a029073          	csrw	pmpcfg0,t0
    80000114:	30405073          	csrwi	mie,0
    80000118:	00000297          	auipc	t0,0x0
    8000011c:	01428293          	addi	t0,t0,20 # 8000012c <reset_vector+0xd0>
    80000120:	30529073          	csrw	mtvec,t0
    80000124:	30205073          	csrwi	medeleg,0
    80000128:	30305073          	csrwi	mideleg,0
    8000012c:	00000193          	li	gp,0
    80000130:	00000297          	auipc	t0,0x0
    80000134:	ed428293          	addi	t0,t0,-300 # 80000004 <trap_vector>
    80000138:	30529073          	csrw	mtvec,t0
    8000013c:	00100513          	li	a0,1
    80000140:	01f51513          	slli	a0,a0,0x1f
    80000144:	00055c63          	bgez	a0,8000015c <reset_vector+0x100>
    80000148:	0ff0000f          	fence
    8000014c:	00100193          	li	gp,1
    80000150:	05d00893          	li	a7,93
    80000154:	00000513          	li	a0,0
    80000158:	00000073          	ecall
    8000015c:	80000297          	auipc	t0,0x80000
    80000160:	ea428293          	addi	t0,t0,-348 # 0 <_start-0x80000000>
    80000164:	00028a63          	beqz	t0,80000178 <reset_vector+0x11c>
    80000168:	10529073          	csrw	stvec,t0
    8000016c:	0000b2b7          	lui	t0,0xb
    80000170:	1092829b          	addiw	t0,t0,265
    80000174:	30229073          	csrw	medeleg,t0
    80000178:	30005073          	csrwi	mstatus,0
    8000017c:	00000297          	auipc	t0,0x0
    80000180:	01428293          	addi	t0,t0,20 # 80000190 <reset_vector+0x134>
    80000184:	34129073          	csrw	mepc,t0
    80000188:	f1402573          	csrr	a0,mhartid
    8000018c:	30200073          	mret
    80000190:	0200006f          	j	800001b0 <test_start>

0000000080000194 <crash_backward>:
    80000194:	0ff0000f          	fence
    80000198:	00018063          	beqz	gp,80000198 <crash_backward+0x4>
    8000019c:	00119193          	slli	gp,gp,0x1
    800001a0:	0011e193          	ori	gp,gp,1
    800001a4:	05d00893          	li	a7,93
    800001a8:	00018513          	mv	a0,gp
    800001ac:	00000073          	ecall

00000000800001b0 <test_start>:
    800001b0:	00002f97          	auipc	t6,0x2
    800001b4:	e50f8f93          	addi	t6,t6,-432 # 80002000 <hidden_data>
    800001b8:	000fb003          	ld	zero,0(t6)
    800001bc:	008fb083          	ld	ra,8(t6)
    800001c0:	010fb103          	ld	sp,16(t6)
    800001c4:	018fb183          	ld	gp,24(t6)
    800001c8:	020fb203          	ld	tp,32(t6)
    800001cc:	028fb283          	ld	t0,40(t6)
    800001d0:	030fb303          	ld	t1,48(t6)
    800001d4:	038fb383          	ld	t2,56(t6)
    800001d8:	040fb403          	ld	s0,64(t6)
    800001dc:	048fb483          	ld	s1,72(t6)
    800001e0:	050fb503          	ld	a0,80(t6)
    800001e4:	058fb583          	ld	a1,88(t6)
    800001e8:	060fb603          	ld	a2,96(t6)
    800001ec:	068fb683          	ld	a3,104(t6)
    800001f0:	070fb703          	ld	a4,112(t6)
    800001f4:	078fb783          	ld	a5,120(t6)
    800001f8:	080fb803          	ld	a6,128(t6)
    800001fc:	088fb883          	ld	a7,136(t6)
    80000200:	090fb903          	ld	s2,144(t6)
    80000204:	098fb983          	ld	s3,152(t6)
    80000208:	0a0fba03          	ld	s4,160(t6)
    8000020c:	0a8fba83          	ld	s5,168(t6)
    80000210:	0b0fbb03          	ld	s6,176(t6)
    80000214:	0b8fbb83          	ld	s7,184(t6)
    80000218:	0c0fbc03          	ld	s8,192(t6)
    8000021c:	0c8fbc83          	ld	s9,200(t6)
    80000220:	0d0fbd03          	ld	s10,208(t6)
    80000224:	0d8fbd83          	ld	s11,216(t6)
    80000228:	0e0fbe03          	ld	t3,224(t6)
    8000022c:	0e8fbe83          	ld	t4,232(t6)
    80000230:	0f0fbf03          	ld	t5,240(t6)
    80000234:	0f8fbf83          	ld	t6,248(t6)
    80000238:	0040006f          	j	8000023c <pseg_0>

000000008000023c <pseg_0>:
    8000023c:	7ae71263          	bne	a4,a4,800009e0 <crash_forward>
    80000240:	00002e17          	auipc	t3,0x2
    80000244:	35ee0e13          	addi	t3,t3,862 # 8000259e <test_memory+0x39e>
    80000248:	03bdd8b3          	divu	a7,s11,s11
    8000024c:	e5400713          	li	a4,-428
    80000250:	00100f13          	li	t5,1
    80000254:	4063083b          	subw	a6,t1,t1
    80000258:	00100613          	li	a2,1
    8000025c:	00098793          	mv	a5,s3
    80000260:	4b500d13          	li	s10,1205
    80000264:	414a02bb          	subw	t0,s4,s4
    80000268:	031a6cb3          	rem	s9,s4,a7
    8000026c:	03ff1f13          	slli	t5,t5,0x3f
    80000270:	01ad10bb          	sllw	ra,s10,s10
    80000274:	e0200593          	li	a1,-510
    80000278:	00000a93          	li	s5,0
    8000027c:	d0ae3183          	ld	gp,-758(t3)
    80000280:	00078513          	mv	a0,a5
    80000284:	00b5833b          	addw	t1,a1,a1
    80000288:	82d00993          	li	s3,-2003
    8000028c:	3b300e93          	li	t4,947
    80000290:	1ba00c13          	li	s8,442
    80000294:	fff00413          	li	s0,-1
    80000298:	00100813          	li	a6,1
    8000029c:	056e8b93          	addi	s7,t4,86
    800002a0:	03371db3          	mulh	s11,a4,s3
    800002a4:	72a7ce63          	blt	a5,a0,800009e0 <crash_forward>
    800002a8:	00100313          	li	t1,1
    800002ac:	03f31313          	slli	t1,t1,0x3f
    800002b0:	00000093          	li	ra,0
    800002b4:	00000d13          	li	s10,0
    800002b8:	fff00293          	li	t0,-1
    800002bc:	03f61613          	slli	a2,a2,0x3f
    800002c0:	03f81813          	slli	a6,a6,0x3f
    800002c4:	00000213          	li	tp,0
    800002c8:	fff00113          	li	sp,-1
    800002cc:	70b59a63          	bne	a1,a1,800009e0 <crash_forward>
    800002d0:	039c85b3          	mul	a1,s9,s9
    800002d4:	692c0393          	addi	t2,s8,1682
    800002d8:	fff00913          	li	s2,-1
    800002dc:	0318dcbb          	divuw	s9,a7,a7
    800002e0:	eba09ae3          	bne	ra,s10,80000194 <crash_backward>
    800002e4:	0062c2b3          	xor	t0,t0,t1
    800002e8:	ebdbc6e3          	blt	s7,t4,80000194 <crash_backward>
    800002ec:	0052f8b3          	and	a7,t0,t0
    800002f0:	01e44433          	xor	s0,s0,t5
    800002f4:	9ee00513          	li	a0,-1554
    800002f8:	4efa4b93          	xori	s7,s4,1263
    800002fc:	01094933          	xor	s2,s2,a6
    80000300:	00c14133          	xor	sp,sp,a2
    80000304:	03e073b3          	remu	t2,zero,t5
    80000308:	012b7e33          	and	t3,s6,s2
    8000030c:	0022fb33          	and	s6,t0,sp
    80000310:	001bac33          	slt	s8,s7,ra
    80000314:	00000993          	li	s3,0
    80000318:	00cb6a33          	or	s4,s6,a2
    8000031c:	010e6fb3          	or	t6,t3,a6
    80000320:	00000593          	li	a1,0
    80000324:	008276b3          	and	a3,tp,s0
    80000328:	40a557b3          	sra	a5,a0,a0
    8000032c:	00100a13          	li	s4,1
    80000330:	01e2e4b3          	or	s1,t0,t5
    80000334:	6bfe4663          	blt	t3,t6,800009e0 <crash_forward>
    80000338:	0060e1b3          	or	gp,ra,t1
    8000033c:	00100713          	li	a4,1
    80000340:	03f71713          	slli	a4,a4,0x3f
    80000344:	e4d4e8e3          	bltu	s1,a3,80000194 <crash_backward>
    80000348:	fff00213          	li	tp,-1
    8000034c:	00e24233          	xor	tp,tp,a4
    80000350:	d3e00e93          	li	t4,-706
    80000354:	00000b93          	li	s7,0
    80000358:	0388763b          	remuw	a2,a6,s8
    8000035c:	fc6e069b          	addiw	a3,t3,-58
    80000360:	00002f97          	auipc	t6,0x2
    80000364:	b75f8f93          	addi	t6,t6,-1163 # 80001ed5 <fromhost+0xe95>
    80000368:	00d6e833          	or	a6,a3,a3
    8000036c:	03fa1a13          	slli	s4,s4,0x3f
    80000370:	fff00393          	li	t2,-1
    80000374:	00002497          	auipc	s1,0x2
    80000378:	bc248493          	addi	s1,s1,-1086 # 80001f36 <fromhost+0xef6>
    8000037c:	b7000f13          	li	t5,-1168
    80000380:	d9f00893          	li	a7,-609
    80000384:	a6100593          	li	a1,-1439
    80000388:	036b1633          	mulh	a2,s6,s6
    8000038c:	dc600993          	li	s3,-570
    80000390:	0047fd33          	and	s10,a5,tp
    80000394:	e0a00b13          	li	s6,-502
    80000398:	3aa00193          	li	gp,938
    8000039c:	0143c3b3          	xor	t2,t2,s4
    800003a0:	0078fc33          	and	s8,a7,t2
    800003a4:	00000513          	li	a0,0
    800003a8:	014c6133          	or	sp,s8,s4
    800003ac:	28e00313          	li	t1,654
    800003b0:	c3000793          	li	a5,-976
    800003b4:	02f7b833          	mulhu	a6,a5,a5
    800003b8:	0118c933          	xor	s2,a7,a7
    800003bc:	62ab9263          	bne	s7,a0,800009e0 <crash_forward>
    800003c0:	02e00093          	li	ra,46
    800003c4:	00e66cb3          	or	s9,a2,a4
    800003c8:	b5700913          	li	s2,-1193
    800003cc:	0231d43b          	divuw	s0,gp,gp
    800003d0:	406f02b3          	sub	t0,t5,t1
    800003d4:	00002817          	auipc	a6,0x2
    800003d8:	b1380813          	addi	a6,a6,-1261 # 80001ee7 <fromhost+0xea7>
    800003dc:	20f00893          	li	a7,527
    800003e0:	02a50bb3          	mul	s7,a0,a0
    800003e4:	00fb1abb          	sllw	s5,s6,a5
    800003e8:	4f183603          	ld	a2,1265(a6)
    800003ec:	26b00413          	li	s0,619
    800003f0:	0cb00193          	li	gp,203
    800003f4:	db8150e3          	bge	sp,s8,80000194 <crash_backward>
    800003f8:	0319553b          	divuw	a0,s2,a7
    800003fc:	8a500293          	li	t0,-1883
    80000400:	d9aceae3          	bltu	s9,s10,80000194 <crash_backward>
    80000404:	021e8dbb          	mulw	s11,t4,ra
    80000408:	0034533b          	srlw	t1,s0,gp
    8000040c:	58bfae03          	lw	t3,1419(t6)
    80000410:	5284b523          	sd	s0,1322(s1)
    80000414:	413586b3          	sub	a3,a1,s3
    80000418:	4052df3b          	sraw	t5,t0,t0
    8000041c:	62000c93          	li	s9,1568
    80000420:	01595f93          	srli	t6,s2,0x15
    80000424:	01a2113b          	sllw	sp,tp,s10
    80000428:	035f03bb          	mulw	t2,t5,s5
    8000042c:	0031d6b3          	srl	a3,gp,gp
    80000430:	00002797          	auipc	a5,0x2
    80000434:	cde78793          	addi	a5,a5,-802 # 8000210e <reg_x1_output+0x6>
    80000438:	312ae813          	ori	a6,s5,786
    8000043c:	019c8c33          	add	s8,s9,s9
    80000440:	fe500613          	li	a2,-27
    80000444:	008404b3          	add	s1,s0,s0
    80000448:	fa500a13          	li	s4,-91
    8000044c:	14e79723          	sh	a4,334(a5)
    80000450:	00002197          	auipc	gp,0x2
    80000454:	0f218193          	addi	gp,gp,242 # 80002542 <test_memory+0x342>
    80000458:	0318efb3          	rem	t6,a7,a7
    8000045c:	58a51263          	bne	a0,a0,800009e0 <crash_forward>
    80000460:	00100a93          	li	s5,1
    80000464:	07900d93          	li	s11,121
    80000468:	03fa9a93          	slli	s5,s5,0x3f
    8000046c:	00100693          	li	a3,1
    80000470:	d2300e93          	li	t4,-733
    80000474:	57600c13          	li	s8,1398
    80000478:	d0004ee3          	bltz	zero,80000194 <crash_backward>
    8000047c:	01ba153b          	sllw	a0,s4,s11
    80000480:	038c13b3          	mulh	t2,s8,s8
    80000484:	00100b93          	li	s7,1
    80000488:	3602f813          	andi	a6,t0,864
    8000048c:	1f800313          	li	t1,504
    80000490:	fff00f13          	li	t5,-1
    80000494:	08d00113          	li	sp,141
    80000498:	d99180a3          	sb	s9,-639(gp) # 80002b91 <_end+0x581>
    8000049c:	015f4f33          	xor	t5,t5,s5
    800004a0:	03fb9b93          	slli	s7,s7,0x3f
    800004a4:	01d658b3          	srl	a7,a2,t4
    800004a8:	24c00793          	li	a5,588
    800004ac:	fff00293          	li	t0,-1
    800004b0:	0172c2b3          	xor	t0,t0,s7
    800004b4:	02600c13          	li	s8,38
    800004b8:	77100413          	li	s0,1905
    800004bc:	02f13fb3          	mulhu	t6,sp,a5
    800004c0:	5d100113          	li	sp,1489
    800004c4:	00002d97          	auipc	s11,0x2
    800004c8:	4f3d8d93          	addi	s11,s11,1267 # 800029b7 <_end+0x3a7>
    800004cc:	00213fb3          	sltu	t6,sp,sp
    800004d0:	01e47733          	and	a4,s0,t5
    800004d4:	03f69693          	slli	a3,a3,0x3f
    800004d8:	bddd8223          	sb	t4,-1084(s11)
    800004dc:	0053f933          	and	s2,t2,t0
    800004e0:	fff00c93          	li	s9,-1
    800004e4:	015a69b3          	or	s3,s4,s5
    800004e8:	4ee9ec63          	bltu	s3,a4,800009e0 <crash_forward>
    800004ec:	5fd00d93          	li	s11,1533
    800004f0:	017960b3          	or	ra,s2,s7
    800004f4:	03ce07b3          	mul	a5,t3,t3
    800004f8:	00dcccb3          	xor	s9,s9,a3
    800004fc:	29a00393          	li	t2,666
    80000500:	019a7233          	and	tp,s4,s9
    80000504:	1fe00113          	li	sp,510
    80000508:	11600613          	li	a2,278
    8000050c:	6dc00e13          	li	t3,1756
    80000510:	0284583b          	divuw	a6,s0,s0
    80000514:	022dcfb3          	div	t6,s11,sp
    80000518:	6f200a13          	li	s4,1778
    8000051c:	414608b3          	sub	a7,a2,s4
    80000520:	61730d13          	addi	s10,t1,1559
    80000524:	5a400193          	li	gp,1444
    80000528:	84e00b13          	li	s6,-1970
    8000052c:	036e75b3          	remu	a1,t3,s6
    80000530:	4033deb3          	sra	t4,t2,gp
    80000534:	038c6533          	rem	a0,s8,s8
    80000538:	00d264b3          	or	s1,tp,a3
    8000053c:	4a44e263          	bltu	s1,tp,800009e0 <crash_forward>
    80000540:	03f7c2b3          	div	t0,a5,t6
    80000544:	00002d17          	auipc	s10,0x2
    80000548:	235d0d13          	addi	s10,s10,565 # 80002779 <_end+0x169>
    8000054c:	00b50cbb          	addw	s9,a0,a1
    80000550:	02f7dc3b          	divuw	s8,a5,a5
    80000554:	e66d2da3          	sw	t1,-389(s10)
    80000558:	01fc91bb          	sllw	gp,s9,t6
    8000055c:	0210c83b          	divw	a6,ra,ra
    80000560:	d8d00e13          	li	t3,-627
    80000564:	01b298bb          	sllw	a7,t0,s11
    80000568:	d7200793          	li	a5,-654
    8000056c:	01fb6833          	or	a6,s6,t6
    80000570:	00100b13          	li	s6,1
    80000574:	00080893          	mv	a7,a6
    80000578:	7c900993          	li	s3,1993
    8000057c:	000a0393          	mv	t2,s4
    80000580:	41ce593b          	sraw	s2,t3,t3
    80000584:	eced069b          	addiw	a3,s10,-306
    80000588:	00e7143b          	sllw	s0,a4,a4
    8000058c:	8db00e13          	li	t3,-1829
    80000590:	0273bdb3          	mulhu	s11,t2,t2
    80000594:	3e900f93          	li	t6,1001
    80000598:	415380bb          	subw	ra,t2,s5
    8000059c:	63d00513          	li	a0,1597
    800005a0:	00038113          	mv	sp,t2
    800005a4:	41ce0d33          	sub	s10,t3,t3
    800005a8:	b9300813          	li	a6,-1133
    800005ac:	01ff973b          	sllw	a4,t6,t6
    800005b0:	e6500493          	li	s1,-411
    800005b4:	40808bbb          	subw	s7,ra,s0
    800005b8:	03082933          	mulhsu	s2,a6,a6
    800005bc:	00088c93          	mv	s9,a7
    800005c0:	22d00c13          	li	s8,557
    800005c4:	4118d1bb          	sraw	gp,a7,a7
    800005c8:	038c72bb          	remuw	t0,s8,s8
    800005cc:	0273a0b3          	mulhsu	ra,t2,t2
    800005d0:	b2100713          	li	a4,-1247
    800005d4:	019cd433          	srl	s0,s9,s9
    800005d8:	4198c463          	blt	a7,s9,800009e0 <crash_forward>
    800005dc:	03224c33          	div	s8,tp,s2
    800005e0:	48300e13          	li	t3,1155
    800005e4:	026361b3          	rem	gp,t1,t1
    800005e8:	f6e00a93          	li	s5,-146
    800005ec:	02b592b3          	mulh	t0,a1,a1
    800005f0:	00002c97          	auipc	s9,0x2
    800005f4:	eaac8c93          	addi	s9,s9,-342 # 8000249a <test_memory+0x29a>
    800005f8:	0a3c81a3          	sb	gp,163(s9)
    800005fc:	4084543b          	sraw	s0,s0,s0
    80000600:	2b500b93          	li	s7,693
    80000604:	02214d33          	div	s10,sp,sp
    80000608:	0137f633          	and	a2,a5,s3
    8000060c:	00831d9b          	slliw	s11,t1,0x8
    80000610:	02a54f3b          	divw	t5,a0,a0
    80000614:	00090613          	mv	a2,s2
    80000618:	40a808b3          	sub	a7,a6,a0
    8000061c:	40d85f9b          	sraiw	t6,a6,0xd
    80000620:	03c7713b          	remuw	sp,a4,t3
    80000624:	00002297          	auipc	t0,0x2
    80000628:	4a828293          	addi	t0,t0,1192 # 80002acc <_end+0x4bc>
    8000062c:	d8100693          	li	a3,-639
    80000630:	03fb1b13          	slli	s6,s6,0x3f
    80000634:	5c900c13          	li	s8,1481
    80000638:	a9628c83          	lb	s9,-1386(t0)
    8000063c:	fff00593          	li	a1,-1
    80000640:	f3400913          	li	s2,-204
    80000644:	02ebe33b          	remw	t1,s7,a4
    80000648:	08eb8813          	addi	a6,s7,142
    8000064c:	418c50bb          	sraw	ra,s8,s8
    80000650:	4154d23b          	sraw	tp,s1,s5
    80000654:	64ca6313          	ori	t1,s4,1612
    80000658:	0126c3b3          	xor	t2,a3,s2
    8000065c:	69900093          	li	ra,1689
    80000660:	2e300113          	li	sp,739
    80000664:	00100f13          	li	t5,1
    80000668:	01f9e533          	or	a0,s3,t6
    8000066c:	00100413          	li	s0,1
    80000670:	c1800293          	li	t0,-1000
    80000674:	00060193          	mv	gp,a2
    80000678:	03ff1f13          	slli	t5,t5,0x3f
    8000067c:	0165c5b3          	xor	a1,a1,s6
    80000680:	03005a93          	srli	s5,zero,0x30
    80000684:	81800713          	li	a4,-2024
    80000688:	02e0ffb3          	remu	t6,ra,a4
    8000068c:	fff00e13          	li	t3,-1
    80000690:	23e00913          	li	s2,574
    80000694:	00002217          	auipc	tp,0x2
    80000698:	ac220213          	addi	tp,tp,-1342 # 80002156 <reg_x10_output+0x6>
    8000069c:	14810c13          	addi	s8,sp,328
    800006a0:	01ffe733          	or	a4,t6,t6
    800006a4:	0252a8b3          	mulhsu	a7,t0,t0
    800006a8:	40cd531b          	sraiw	t1,s10,0xc
    800006ac:	03f41413          	slli	s0,s0,0x3f
    800006b0:	032943bb          	divw	t2,s2,s2
    800006b4:	40af833b          	subw	t1,t6,a0
    800006b8:	8b900893          	li	a7,-1863
    800006bc:	322c4263          	blt	s8,sp,800009e0 <crash_forward>
    800006c0:	00bb7eb3          	and	t4,s6,a1
    800006c4:	011890b3          	sll	ra,a7,a7
    800006c8:	5c700513          	li	a0,1479
    800006cc:	00002297          	auipc	t0,0x2
    800006d0:	c6028293          	addi	t0,t0,-928 # 8000232c <test_memory+0x12c>
    800006d4:	01ee4e33          	xor	t3,t3,t5
    800006d8:	5ad00f93          	li	t6,1453
    800006dc:	37e00693          	li	a3,894
    800006e0:	016dea33          	or	s4,s11,s6
    800006e4:	fff00993          	li	s3,-1
    800006e8:	00002917          	auipc	s2,0x2
    800006ec:	e3690913          	addi	s2,s2,-458 # 8000251e <test_memory+0x31e>
    800006f0:	2f4ec863          	blt	t4,s4,800009e0 <crash_forward>
    800006f4:	039c813b          	mulw	sp,s9,s9
    800006f8:	85300613          	li	a2,-1965
    800006fc:	00000313          	li	t1,0
    80000700:	00cf9733          	sll	a4,t6,a2
    80000704:	0279fb3b          	remuw	s6,s3,t2
    80000708:	8d000f93          	li	t6,-1840
    8000070c:	00a94183          	lbu	gp,10(s2)
    80000710:	01cffcb3          	and	s9,t6,t3
    80000714:	96700093          	li	ra,-1689
    80000718:	01ecedb3          	or	s11,s9,t5
    8000071c:	22720d23          	sb	t2,570(tp) # 23a <_start-0x7ffffdc6>
    80000720:	9f000713          	li	a4,-1552
    80000724:	00108c33          	add	s8,ra,ra
    80000728:	c3500113          	li	sp,-971
    8000072c:	00000b93          	li	s7,0
    80000730:	2b734863          	blt	t1,s7,800009e0 <crash_forward>
    80000734:	d7b00a13          	li	s4,-645
    80000738:	53000b13          	li	s6,1328
    8000073c:	a5bc8ce3          	beq	s9,s11,80000194 <crash_backward>
    80000740:	016b0c33          	add	s8,s6,s6
    80000744:	038014b3          	mulh	s1,zero,s8
    80000748:	4ae00313          	li	t1,1198
    8000074c:	28006a63          	bltu	zero,zero,800009e0 <crash_forward>
    80000750:	17c2a383          	lw	t2,380(t0)
    80000754:	022768b3          	rem	a7,a4,sp
    80000758:	d946b813          	sltiu	a6,a3,-620
    8000075c:	40d55ab3          	sra	s5,a0,a3
    80000760:	00000913          	li	s2,0
    80000764:	013960b3          	or	ra,s2,s3
    80000768:	019cadb3          	slt	s11,s9,s9
    8000076c:	034a02b3          	mul	t0,s4,s4
    80000770:	000b0393          	mv	t2,s6
    80000774:	03084cbb          	divw	s9,a6,a6
    80000778:	00634bb3          	xor	s7,t1,t1
    8000077c:	00000213          	li	tp,0
    80000780:	cfc00113          	li	sp,-772
    80000784:	bd7f8613          	addi	a2,t6,-1065
    80000788:	00002197          	auipc	gp,0x2
    8000078c:	f6c18193          	addi	gp,gp,-148 # 800026f4 <_end+0xe4>
    80000790:	00002a97          	auipc	s5,0x2
    80000794:	ce6a8a93          	addi	s5,s5,-794 # 80002476 <test_memory+0x276>
    80000798:	00002297          	auipc	t0,0x2
    8000079c:	53128293          	addi	t0,t0,1329 # 80002cc9 <_end+0x6b9>
    800007a0:	32d60c93          	addi	s9,a2,813
    800007a4:	b4100b13          	li	s6,-1215
    800007a8:	0089c9b3          	xor	s3,s3,s0
    800007ac:	86500493          	li	s1,-1947
    800007b0:	036b2e33          	mulhsu	t3,s6,s6
    800007b4:	51800593          	li	a1,1304
    800007b8:	013777b3          	and	a5,a4,s3
    800007bc:	e6200b93          	li	s7,-414
    800007c0:	417b8333          	sub	t1,s7,s7
    800007c4:	00ba7eb3          	and	t4,s4,a1
    800007c8:	181a9023          	sh	ra,384(s5)
    800007cc:	4094d833          	sra	a6,s1,s1
    800007d0:	3e500893          	li	a7,997
    800007d4:	00038f13          	mv	t5,t2
    800007d8:	8372bd83          	ld	s11,-1993(t0)
    800007dc:	008b6d33          	or	s10,s6,s0
    800007e0:	efe1d683          	lhu	a3,-258(gp) # 80002d0e <_end+0x6fe>
    800007e4:	02213533          	mulhu	a0,sp,sp
    800007e8:	6f600713          	li	a4,1782
    800007ec:	02e8ec33          	rem	s8,a7,a4
    800007f0:	00100093          	li	ra,1
    800007f4:	03f09093          	slli	ra,ra,0x3f
    800007f8:	30e00713          	li	a4,782
    800007fc:	00001397          	auipc	t2,0x1
    80000800:	69038393          	addi	t2,t2,1680 # 80001e8c <fromhost+0xe4c>
    80000804:	3b43b623          	sd	s4,940(t2)
    80000808:	00002517          	auipc	a0,0x2
    8000080c:	25d50513          	addi	a0,a0,605 # 80002a65 <_end+0x455>
    80000810:	00100f93          	li	t6,1
    80000814:	021b5c3b          	divuw	s8,s6,ra
    80000818:	0005b7b3          	sltu	a5,a1,zero
    8000081c:	02da99b3          	mulh	s3,s5,a3
    80000820:	01fffeb3          	and	t4,t6,t6
    80000824:	03ff9f93          	slli	t6,t6,0x3f
    80000828:	b9200693          	li	a3,-1134
    8000082c:	03ce77b3          	remu	a5,t3,t3
    80000830:	01070a93          	addi	s5,a4,16
    80000834:	cc500a13          	li	s4,-827
    80000838:	fff00c93          	li	s9,-1
    8000083c:	1b577263          	bgeu	a4,s5,800009e0 <crash_forward>
    80000840:	e9300293          	li	t0,-365
    80000844:	00fdd81b          	srliw	a6,s11,0xf
    80000848:	80d51103          	lh	sp,-2035(a0)
    8000084c:	001cccb3          	xor	s9,s9,ra
    80000850:	d0c00413          	li	s0,-756
    80000854:	74c00613          	li	a2,1868
    80000858:	0256d333          	divu	t1,a3,t0
    8000085c:	63d00193          	li	gp,1597
    80000860:	ca400213          	li	tp,-860
    80000864:	f4200e93          	li	t4,-190
    80000868:	023a693b          	remw	s2,s4,gp
    8000086c:	024634b3          	mulhu	s1,a2,tp
    80000870:	000e0393          	mv	t2,t3
    80000874:	fff00593          	li	a1,-1
    80000878:	97500793          	li	a5,-1675
    8000087c:	0314f133          	remu	sp,s1,a7
    80000880:	01f5c5b3          	xor	a1,a1,t6
    80000884:	03ff9833          	mulh	a6,t6,t6
    80000888:	0052863b          	addw	a2,t0,t0
    8000088c:	00f91b9b          	slliw	s7,s2,0xf
    80000890:	eb600d93          	li	s11,-330
    80000894:	18100213          	li	tp,385
    80000898:	00001197          	auipc	gp,0x1
    8000089c:	66a18193          	addi	gp,gp,1642 # 80001f02 <fromhost+0xec2>
    800008a0:	45119123          	sh	a7,1090(gp) # 80003252 <__global_pointer$+0x442>
    800008a4:	00038c13          	mv	s8,t2
    800008a8:	3d000913          	li	s2,976
    800008ac:	41b408b3          	sub	a7,s0,s11
    800008b0:	02f7c53b          	divw	a0,a5,a5
    800008b4:	58900613          	li	a2,1417
    800008b8:	41ded9bb          	sraw	s3,t4,t4
    800008bc:	01516db3          	or	s11,sp,s5
    800008c0:	019ffb33          	and	s6,t6,s9
    800008c4:	29600313          	li	t1,662
    800008c8:	004206b3          	add	a3,tp,tp
    800008cc:	00b4ff33          	and	t5,s1,a1
    800008d0:	026e4833          	div	a6,t3,t1
    800008d4:	b4c2a413          	slti	s0,t0,-1204
    800008d8:	93600393          	li	t2,-1738
    800008dc:	40c65bb3          	sra	s7,a2,a2
    800008e0:	12b00513          	li	a0,299
    800008e4:	00100e93          	li	t4,1
    800008e8:	66700193          	li	gp,1639
    800008ec:	006924b3          	slt	s1,s2,t1
    800008f0:	01f2ed33          	or	s10,t0,t6
    800008f4:	03fe9e93          	slli	t4,t4,0x3f
    800008f8:	7fd18113          	addi	sp,gp,2045 # 8000360d <__global_pointer$+0x7fd>
    800008fc:	fff00893          	li	a7,-1
    80000900:	00126e33          	or	t3,tp,ra
    80000904:	43500d93          	li	s11,1077
    80000908:	02f7b433          	mulhu	s0,a5,a5
    8000090c:	03bd96b3          	mulh	a3,s11,s11
    80000910:	00100a93          	li	s5,1
    80000914:	02a387b3          	mul	a5,t2,a0
    80000918:	01d8c8b3          	xor	a7,a7,t4
    8000091c:	03fa9a93          	slli	s5,s5,0x3f
    80000920:	fff00293          	li	t0,-1
    80000924:	011c7c33          	and	s8,s8,a7
    80000928:	01dc69b3          	or	s3,s8,t4
    8000092c:	0152c2b3          	xor	t0,t0,s5
    80000930:	0054fa33          	and	s4,s1,t0
    80000934:	015a6733          	or	a4,s4,s5
    80000938:	0b475463          	bge	a4,s4,800009e0 <crash_forward>
    8000093c:	0040006f          	j	80000940 <reg_dump>

0000000080000940 <reg_dump>:
    80000940:	00002097          	auipc	ra,0x2
    80000944:	cc008093          	addi	ra,ra,-832 # 80002600 <loop_count>
    80000948:	0000a103          	lw	sp,0(ra)
    8000094c:	fff10193          	addi	gp,sp,-1
    80000950:	0030a023          	sw	gp,0(ra)
    80000954:	8e0114e3          	bnez	sp,8000023c <pseg_0>
    80000958:	00001097          	auipc	ra,0x1
    8000095c:	7a808093          	addi	ra,ra,1960 # 80002100 <begin_signature>
    80000960:	0000b023          	sd	zero,0(ra)
    80000964:	0020b823          	sd	sp,16(ra)
    80000968:	0030bc23          	sd	gp,24(ra)
    8000096c:	0240b023          	sd	tp,32(ra)
    80000970:	0250b423          	sd	t0,40(ra)
    80000974:	0260b823          	sd	t1,48(ra)
    80000978:	0270bc23          	sd	t2,56(ra)
    8000097c:	0480b023          	sd	s0,64(ra)
    80000980:	0490b423          	sd	s1,72(ra)
    80000984:	04a0b823          	sd	a0,80(ra)
    80000988:	04b0bc23          	sd	a1,88(ra)
    8000098c:	06c0b023          	sd	a2,96(ra)
    80000990:	06d0b423          	sd	a3,104(ra)
    80000994:	06e0b823          	sd	a4,112(ra)
    80000998:	06f0bc23          	sd	a5,120(ra)
    8000099c:	0900b023          	sd	a6,128(ra)
    800009a0:	0910b423          	sd	a7,136(ra)
    800009a4:	0920b823          	sd	s2,144(ra)
    800009a8:	0930bc23          	sd	s3,152(ra)
    800009ac:	0b40b023          	sd	s4,160(ra)
    800009b0:	0b50b423          	sd	s5,168(ra)
    800009b4:	0b60b823          	sd	s6,176(ra)
    800009b8:	0b70bc23          	sd	s7,184(ra)
    800009bc:	0d80b023          	sd	s8,192(ra)
    800009c0:	0d90b423          	sd	s9,200(ra)
    800009c4:	0da0b823          	sd	s10,208(ra)
    800009c8:	0db0bc23          	sd	s11,216(ra)
    800009cc:	0fc0b023          	sd	t3,224(ra)
    800009d0:	0fd0b423          	sd	t4,232(ra)
    800009d4:	0fe0b823          	sd	t5,240(ra)
    800009d8:	0ff0bc23          	sd	t6,248(ra)
    800009dc:	0200006f          	j	800009fc <test_end>

00000000800009e0 <crash_forward>:
    800009e0:	0ff0000f          	fence
    800009e4:	00018063          	beqz	gp,800009e4 <crash_forward+0x4>
    800009e8:	00119193          	slli	gp,gp,0x1
    800009ec:	0011e193          	ori	gp,gp,1
    800009f0:	05d00893          	li	a7,93
    800009f4:	00018513          	mv	a0,gp
    800009f8:	00000073          	ecall

00000000800009fc <test_end>:
    800009fc:	0ff0000f          	fence
    80000a00:	00100193          	li	gp,1
    80000a04:	05d00893          	li	a7,93
    80000a08:	00000513          	li	a0,0
    80000a0c:	00000073          	ecall
    80000a10:	c0001073          	unimp
	...

Disassembly of section .tohost:

0000000080001000 <tohost>:
	...

0000000080001040 <fromhost>:
	...

Disassembly of section .data:

0000000080002000 <hidden_data>:
    80002000:	8bb446ef          	jal	a3,7ff468ba <_start-0xb9746>
    80002004:	c03d                	beqz	s0,8000206a <reg_x13_init+0x2>
    80002006:	efa8                	sd	a0,88(a5)

0000000080002008 <reg_x1_init>:
    80002008:	ff85                	bnez	a5,80001f40 <fromhost+0xf00>
    8000200a:	ffff                	0xffff
    8000200c:	ffff                	0xffff
    8000200e:	ffff                	0xffff

0000000080002010 <reg_x2_init>:
    80002010:	0009                	c.nop	2
    80002012:	0000                	unimp
    80002014:	0000                	unimp
    80002016:	0800                	addi	s0,sp,16

0000000080002018 <reg_x3_init>:
    80002018:	b0ff                	0xb0ff
    8000201a:	0822                	slli	a6,a6,0x8
    8000201c:	02362b43          	fmadd.d	fs6,fa2,ft3,ft0,rdn

0000000080002020 <reg_x4_init>:
    80002020:	0045dab3          	srl	s5,a1,tp
    80002024:	5909                	li	s2,-30
    80002026:	b575                	j	80001ed2 <fromhost+0xe92>

0000000080002028 <reg_x5_init>:
    80002028:	39b0                	fld	fa2,112(a1)
    8000202a:	cfe2619b          	0xcfe2619b
    8000202e:	cb78                	sw	a4,84(a4)

0000000080002030 <reg_x6_init>:
    80002030:	2299                	addiw	t0,t0,6
    80002032:	d1f6                	sw	t4,224(sp)
    80002034:	2b2b0337          	lui	t1,0x2b2b0

0000000080002038 <reg_x7_init>:
    80002038:	55f0                	lw	a2,108(a1)
    8000203a:	ae56                	fsd	fs5,280(sp)
    8000203c:	348c                	fld	fa1,40(s1)
    8000203e:	6004                	ld	s1,0(s0)

0000000080002040 <reg_x8_init>:
    80002040:	e718                	sd	a4,8(a4)
    80002042:	491f1f03          	lh	t5,1169(t5)
    80002046:	  	0xedbf

0000000080002048 <reg_x9_init>:
	...

0000000080002050 <reg_x10_init>:
    80002050:	ffff                	0xffff
    80002052:	ffff                	0xffff
    80002054:	ffff                	0xffff
    80002056:	ffff                	0xffff

0000000080002058 <reg_x11_init>:
    80002058:	1a5e                	slli	s4,s4,0x37
    8000205a:	aa54                	fsd	fa3,144(a2)
    8000205c:	e189                	bnez	a1,8000205e <reg_x11_init+0x6>
    8000205e:	ef39                	bnez	a4,800020bc <reg_x23_init+0x4>

0000000080002060 <reg_x12_init>:
    80002060:	ffff                	0xffff
    80002062:	ffff                	0xffff
    80002064:	ffff                	0xffff
    80002066:	ffff                	0xffff

0000000080002068 <reg_x13_init>:
    80002068:	75c6                	ld	a1,112(sp)
    8000206a:	fe7d                	bnez	a2,80002068 <reg_x13_init>
    8000206c:	84c8                	0x84c8
    8000206e:	9b75                	andi	a4,a4,-3

0000000080002070 <reg_x14_init>:
    80002070:	7288                	ld	a0,32(a3)
    80002072:	28e2                	fld	fa7,24(sp)
    80002074:	3b75                	addiw	s6,s6,-3
    80002076:	f872                	sd	t3,48(sp)

0000000080002078 <reg_x15_init>:
	...

0000000080002080 <reg_x16_init>:
    80002080:	40e9                	li	ra,26
    80002082:	d419                	beqz	s0,80001f90 <fromhost+0xf50>
    80002084:	eb6f5a27          	0xeb6f5a27

0000000080002088 <reg_x17_init>:
    80002088:	80000007          	0x80000007
    8000208c:	ffff                	0xffff
    8000208e:	ffff                	0xffff

0000000080002090 <reg_x18_init>:
    80002090:	ffff                	0xffff
    80002092:	ffff                	0xffff
    80002094:	ffff                	0xffff
    80002096:	ffff                	0xffff

0000000080002098 <reg_x19_init>:
    80002098:	d088                	sw	a0,32(s1)
    8000209a:	1c1c                	addi	a5,sp,560
    8000209c:	21ba7fef          	jal	t6,800a9ab6 <__global_pointer$+0xa6ca6>

00000000800020a0 <reg_x20_init>:
    800020a0:	0000                	unimp
    800020a2:	0000                	unimp
    800020a4:	0000                	unimp
    800020a6:	0800                	addi	s0,sp,16

00000000800020a8 <reg_x21_init>:
    800020a8:	0006                	c.slli	zero,0x1
    800020aa:	0000                	unimp
    800020ac:	0000                	unimp
	...

00000000800020b0 <reg_x22_init>:
    800020b0:	ffff                	0xffff
    800020b2:	ffff                	0xffff
    800020b4:	ffff                	0xffff
    800020b6:	ffff                	0xffff

00000000800020b8 <reg_x23_init>:
	...

00000000800020c0 <reg_x24_init>:
    800020c0:	419a                	lw	gp,132(sp)
    800020c2:	f6cac793          	xori	a5,s5,-148
    800020c6:	1479                	addi	s0,s0,-2

00000000800020c8 <reg_x25_init>:
    800020c8:	2cea                	fld	fs9,152(sp)
    800020ca:	949e                	add	s1,s1,t2
    800020cc:	efcc                	sd	a1,152(a5)
    800020ce:	1ced                	addi	s9,s9,-5

00000000800020d0 <reg_x26_init>:
    800020d0:	7b01                	lui	s6,0xfffe0
    800020d2:	dcdf 9195 1c20      	0x1c209195dcdf

00000000800020d8 <reg_x27_init>:
    800020d8:	2259                	addiw	tp,tp,22
    800020da:	158e                	slli	a1,a1,0x23
    800020dc:	e3c166c7          	fmsub.d	fa3,ft2,ft8,ft8,unknown

00000000800020e0 <reg_x28_init>:
    800020e0:	ffff                	0xffff
    800020e2:	ffff                	0xffff
    800020e4:	ffff                	0xffff
    800020e6:	ffff                	0xffff

00000000800020e8 <reg_x29_init>:
    800020e8:	4431                	li	s0,12
    800020ea:	8e5d                	or	a2,a2,a5
    800020ec:	7fd6                	ld	t6,368(sp)
    800020ee:	          	0x458f

00000000800020f0 <reg_x30_init>:
	...

00000000800020f8 <reg_x31_init>:
	...

0000000080002100 <begin_signature>:
    80002100:	21da                	fld	ft3,400(sp)
    80002102:	af7a                	fsd	ft10,408(sp)
    80002104:	9268598b          	0x9268598b

0000000080002108 <reg_x1_output>:
    80002108:	385e                	fld	fa6,496(sp)
    8000210a:	e5a70987          	0xe5a70987
    8000210e:	  	0x32b72c3de6fa433f

0000000080002110 <reg_x2_output>:
    80002110:	e6fa                	sd	t5,328(sp)
    80002112:	2c3d                	addiw	s8,s8,15
    80002114:	3f9d32b7          	lui	t0,0x3f9d3

0000000080002118 <reg_x3_output>:
    80002118:	bda2b1c7          	0xbda2b1c7
    8000211c:	a0ec                	fsd	fa1,192(s1)
    8000211e:	          	0xc88e7f57

0000000080002120 <reg_x4_output>:
    80002120:	c88e                	sw	gp,80(sp)
    80002122:	3ba187b3          	0x3ba187b3
    80002126:	7a58                	ld	a4,176(a2)

0000000080002128 <reg_x5_output>:
    80002128:	a9dcfccb          	fnmsub.s	fs9,fs9,ft9,fs5
    8000212c:	6206                	ld	tp,64(sp)
    8000212e:	cc1e                	sw	t2,24(sp)

0000000080002130 <reg_x6_output>:
    80002130:	0be4                	addi	s1,sp,476
    80002132:	7140                	ld	s0,160(a0)
    80002134:	aefa                	fsd	ft10,344(sp)
    80002136:	          	fnmsub.s	fs5,fs3,ft2,ft1,rup

0000000080002138 <reg_x7_output>:
    80002138:	0829                	addi	a6,a6,10
    8000213a:	4cbd                	li	s9,15
    8000213c:	8c58                	0x8c58
    8000213e:	ae00                	fsd	fs0,24(a2)

0000000080002140 <reg_x8_output>:
    80002140:	8f95                	sub	a5,a5,a3
    80002142:	ab44265b          	0xab44265b
    80002146:	b8e1                	j	80001a1e <fromhost+0x9de>

0000000080002148 <reg_x9_output>:
    80002148:	9d66                	add	s10,s10,s9
    8000214a:	52d1                	li	t0,-12
    8000214c:	5bb54a3b          	0x5bb54a3b

0000000080002150 <reg_x10_output>:
    80002150:	ac0a                	fsd	ft2,24(sp)
    80002152:	92ec839b          	addiw	t2,s9,-1746
    80002156:	aead                	j	800024d0 <test_memory+0x2d0>

0000000080002158 <reg_x11_output>:
    80002158:	9ef1                	0x9ef1
    8000215a:	e331                	bnez	a4,8000219e <reg_x19_output+0x6>
    8000215c:	83ffbd33          	0x83ffbd33

0000000080002160 <reg_x12_output>:
    80002160:	1841                	addi	a6,a6,-16
    80002162:	0539                	addi	a0,a0,14
    80002164:	d99f a40a       	0x8487a40ad99f

0000000080002168 <reg_x13_output>:
    80002168:	b53f8487          	0xb53f8487
    8000216c:	95567d67          	0x95567d67

0000000080002170 <reg_x14_output>:
    80002170:	d6d1                	beqz	a3,800020fc <reg_x31_init+0x4>
    80002172:	4c99                	li	s9,6
    80002174:	d2d5                	beqz	a3,80002118 <reg_x3_output>
    80002176:	b8ca                	fsd	fs2,112(sp)

0000000080002178 <reg_x15_output>:
    80002178:	b9d8                	fsd	fa4,176(a1)
    8000217a:	eafd                	bnez	a3,80002270 <test_memory+0x70>
    8000217c:	1c4d                	addi	s8,s8,-13
    8000217e:	  	0x55b0c61e6f2b7c3f

0000000080002180 <reg_x16_output>:
    80002180:	c61e6f2b          	0xc61e6f2b
    80002184:	55b0                	lw	a2,104(a1)
    80002186:	5ed8                	lw	a4,60(a3)

0000000080002188 <reg_x17_output>:
    80002188:	5ff7c36b          	0x5ff7c36b
    8000218c:	5fd29ea7          	0x5fd29ea7

0000000080002190 <reg_x18_output>:
    80002190:	f722                	sd	s0,424(sp)
    80002192:	47b2                	lw	a5,12(sp)
    80002194:	4a0c                	lw	a1,16(a2)
    80002196:	24d1                	addiw	s1,s1,20

0000000080002198 <reg_x19_output>:
    80002198:	4dbe                	lw	s11,204(sp)
    8000219a:	be9e                	fsd	ft7,376(sp)
    8000219c:	21aa                	fld	ft3,136(sp)
    8000219e:	          	0xb0acb1bb

00000000800021a0 <reg_x20_output>:
    800021a0:	b0ac                	fsd	fa1,96(s1)
    800021a2:	69a8                	ld	a0,80(a1)
    800021a4:	b10372cf          	fnmadd.s	ft5,ft6,fa6,fs6

00000000800021a8 <reg_x21_output>:
    800021a8:	8ab0                	0x8ab0
    800021aa:	6b32                	ld	s6,264(sp)
    800021ac:	1f84                	addi	s1,sp,1008
    800021ae:	ef4a                	sd	s2,408(sp)

00000000800021b0 <reg_x22_output>:
    800021b0:	3fe9                	addiw	t6,t6,-6
    800021b2:	6865                	lui	a6,0x19
    800021b4:	0980                	addi	s0,sp,208
    800021b6:	          	0x81230dbb

00000000800021b8 <reg_x23_output>:
    800021b8:	fe3f8123          	sb	gp,-30(t6)
    800021bc:	06fe                	slli	a3,a3,0x1f
    800021be:	674a                	ld	a4,144(sp)

00000000800021c0 <reg_x24_output>:
    800021c0:	bd65                	j	80002078 <reg_x15_init>
    800021c2:	4ac0                	lw	s0,20(a3)
    800021c4:	ff1f 6fa6       	0x32dd6fa6ff1f

00000000800021c8 <reg_x25_output>:
    800021c8:	32dd                	addiw	t0,t0,-9
    800021ca:	5766                	lw	a4,120(sp)
    800021cc:	1a80                	addi	s0,sp,368
    800021ce:	e325                	bnez	a4,8000222e <test_memory+0x2e>

00000000800021d0 <reg_x26_output>:
    800021d0:	2899                	addiw	a7,a7,6
    800021d2:	16bc                	addi	a5,sp,872
    800021d4:	46fff633          	0x46fff633

00000000800021d8 <reg_x27_output>:
    800021d8:	1e2bbcaf          	sc.d.aqrl	s9,sp,(s7)
    800021dc:	0d26ca37          	lui	s4,0xd26c

00000000800021e0 <reg_x28_output>:
    800021e0:	10cdfeb7          	lui	t4,0x10cdf
    800021e4:	4a1f 215c       	0xd4d8215c4a1f

00000000800021e8 <reg_x29_output>:
    800021e8:	d4d8                	sw	a4,44(s1)
    800021ea:	0fc6                	slli	t6,t6,0x11
    800021ec:	fd91                	bnez	a1,80002108 <reg_x1_output>
    800021ee:	          	0xf9a7283b

00000000800021f0 <reg_x30_output>:
    800021f0:	619af9a7          	0x619af9a7
    800021f4:	b7b9                	j	80002142 <reg_x8_output+0x2>
    800021f6:	a5ec                	fsd	fa1,200(a1)

00000000800021f8 <reg_x31_output>:
    800021f8:	4baa                	lw	s7,136(sp)
    800021fa:	a0dc                	fsd	fa5,128(s1)
    800021fc:	2ae9ffef          	jal	t6,800a14aa <__global_pointer$+0x9e69a>

0000000080002200 <test_memory>:
    80002200:	3b4c                	fld	fa1,176(a4)
    80002202:	56cd                	li	a3,-13
    80002204:	7b1c                	ld	a5,48(a4)
    80002206:	9d82                	jalr	s11
    80002208:	726e                	ld	tp,248(sp)
    8000220a:	06f0                	addi	a2,sp,844
    8000220c:	049d                	addi	s1,s1,7
    8000220e:	690b867b          	0x690b867b
    80002212:	961c                	0x961c
    80002214:	f6bc                	sd	a5,104(a3)
    80002216:	6c78                	ld	a4,216(s0)
    80002218:	8c84                	0x8c84
    8000221a:	994d                	andi	a0,a0,-13
    8000221c:	75fc                	ld	a5,232(a1)
    8000221e:	ffda                	sd	s6,504(sp)
    80002220:	7b8c                	ld	a1,48(a5)
    80002222:	99bd                	andi	a1,a1,-17
    80002224:	e3aa37bb          	0xe3aa37bb
    80002228:	aece                	fsd	fs3,344(sp)
    8000222a:	f27d                	bnez	a2,80002210 <test_memory+0x10>
    8000222c:	8401                	c.srai64	s0
    8000222e:	a08a                	fsd	ft2,64(sp)
    80002230:	46c2                	lw	a3,16(sp)
    80002232:	4399                	li	t2,6
    80002234:	eb7c                	sd	a5,208(a4)
    80002236:	a836                	fsd	fa3,16(sp)
    80002238:	4478b14f          	0x4478b14f
    8000223c:	a5e4                	fsd	fs1,200(a1)
    8000223e:	fe293ebf 9a751d14 	0x9a751d14fe293ebf
    80002246:	4d5f 170e c08d      	0xc08d170e4d5f
    8000224c:	0310                	addi	a2,sp,384
    8000224e:	b346                	fsd	fa7,416(sp)
    80002250:	394e                	fld	fs2,240(sp)
    80002252:	5428                	lw	a0,104(s0)
    80002254:	3c48                	fld	fa0,184(s0)
    80002256:	5136                	lw	sp,108(sp)
    80002258:	1040                	addi	s0,sp,36
    8000225a:	c315                	beqz	a4,8000227e <test_memory+0x7e>
    8000225c:	f761                	bnez	a4,80002224 <test_memory+0x24>
    8000225e:	059f 3c94 d830      	0xd8303c94059f
    80002264:	7912                	ld	s2,288(sp)
    80002266:	89cc                	0x89cc
    80002268:	faa5                	bnez	a3,800021d8 <reg_x27_output>
    8000226a:	0076                	c.slli	zero,0x1d
    8000226c:	268e                	fld	fa3,192(sp)
    8000226e:	920c                	0x920c
    80002270:	8a34                	0x8a34
    80002272:	49a8                	lw	a0,80(a1)
    80002274:	2c06                	fld	fs8,64(sp)
    80002276:	d5f4                	sw	a3,108(a1)
    80002278:	0431                	addi	s0,s0,12
    8000227a:	d2e33f03          	ld	t5,-722(t1) # 2b2afd2e <_start-0x54d502d2>
    8000227e:	1514                	addi	a3,sp,672
    80002280:	ff85                	bnez	a5,800021b8 <reg_x23_output>
    80002282:	2bec                	fld	fa1,208(a5)
    80002284:	fb36                	sd	a3,432(sp)
    80002286:	87ec                	0x87ec
    80002288:	1e35d3ef          	jal	t2,8005fc6a <__global_pointer$+0x5ce5a>
    8000228c:	6b32                	ld	s6,264(sp)
    8000228e:	3431                	addiw	s0,s0,-20
    80002290:	027d                	addi	tp,tp,31
    80002292:	dfaa                	sw	a0,252(sp)
    80002294:	8ab318af          	0x8ab318af
    80002298:	5d22                	lw	s10,40(sp)
    8000229a:	1202                	slli	tp,tp,0x20
    8000229c:	840a                	mv	s0,sp
    8000229e:	561e                	lw	a2,228(sp)
    800022a0:	13e38377          	0x13e38377
    800022a4:	80d1                	srli	s1,s1,0x14
    800022a6:	9150                	0x9150
    800022a8:	40ad                	li	ra,11
    800022aa:	b0297e43          	fmadd.s	ft8,fs2,ft2,fs6
    800022ae:	a71f d735 4ac3      	0x4ac3d735a71f
    800022b4:	49d5                	li	s3,21
    800022b6:	60b423d3          	0x60b423d3
    800022ba:	d596                	sw	t0,232(sp)
    800022bc:	ec2e                	sd	a1,24(sp)
    800022be:	f0a1                	bnez	s1,800021fe <reg_x31_output+0x6>
    800022c0:	ad29                	j	800028da <_end+0x2ca>
    800022c2:	d8acc2ef          	jal	t0,7ffce84c <_start-0x317b4>
    800022c6:	5ca0                	lw	s0,120(s1)
    800022c8:	8a82                	jr	s5
    800022ca:	9194bdeb          	0x9194bdeb
    800022ce:	5fec                	lw	a1,124(a5)
    800022d0:	a5f0                	fsd	fa2,200(a1)
    800022d2:	0e2c                	addi	a1,sp,792
    800022d4:	0f14                	addi	a3,sp,912
    800022d6:	5aacfc07          	0x5aacfc07
    800022da:	9e39                	addw	a2,a2,a4
    800022dc:	8ffa04db          	0x8ffa04db
    800022e0:	4e1e                	lw	t3,196(sp)
    800022e2:	1efc                	addi	a5,sp,892
    800022e4:	cc69c6e3          	blt	s3,t1,80001fb0 <fromhost+0xf70>
    800022e8:	1a59bf77          	0x1a59bf77
    800022ec:	9309                	srli	a4,a4,0x22
    800022ee:	b670                	fsd	fa2,232(a2)
    800022f0:	8140                	0x8140
    800022f2:	e8a5                	bnez	s1,80002362 <test_memory+0x162>
    800022f4:	687c2ea3          	sw	t2,1693(s8)
    800022f8:	bd76                	fsd	ft9,184(sp)
    800022fa:	0641                	addi	a2,a2,16
    800022fc:	3250                	fld	fa2,160(a2)
    800022fe:	791ef647          	fmsub.s	fa2,ft9,fa7,fa5
    80002302:	5c42                	lw	s8,48(sp)
    80002304:	db66                	sw	s9,180(sp)
    80002306:	63da                	ld	t2,400(sp)
    80002308:	46de5a77          	0x46de5a77
    8000230c:	1a0e                	slli	s4,s4,0x23
    8000230e:	cb29                	beqz	a4,80002360 <test_memory+0x160>
    80002310:	0d40                	addi	s0,sp,660
    80002312:	aa0a                	fsd	ft2,272(sp)
    80002314:	a3ce                	fsd	fs3,448(sp)
    80002316:	c654                	sw	a3,12(a2)
    80002318:	d2a0                	sw	s0,96(a3)
    8000231a:	171a                	slli	a4,a4,0x26
    8000231c:	65fc                	ld	a5,200(a1)
    8000231e:	aa66                	fsd	fs9,272(sp)
    80002320:	0c6ee6b3          	0xc6ee6b3
    80002324:	387d9877          	0x387d9877
    80002328:	7bd4                	ld	a3,176(a5)
    8000232a:	c932                	sw	a2,144(sp)
    8000232c:	38a0                	fld	fs0,112(s1)
    8000232e:	ac0c386f          	jal	a6,7ffc55ee <_start-0x3aa12>
    80002332:	ad72db17          	auipc	s6,0xad72d
    80002336:	3e08                	fld	fa0,56(a2)
    80002338:	fb5a                	sd	s6,432(sp)
    8000233a:	91b2                	add	gp,gp,a2
    8000233c:	5fba1107          	0x5fba1107
    80002340:	69ad                	lui	s3,0xb
    80002342:	525f e92f 4d19      	0x4d19e92f525f
    80002348:	b1c0                	fsd	fs0,160(a1)
    8000234a:	48b9                	li	a7,14
    8000234c:	b6cd47b3          	0xb6cd47b3
    80002350:	ba46                	fsd	fa7,304(sp)
    80002352:	013d                	addi	sp,sp,15
    80002354:	2c80                	fld	fs0,24(s1)
    80002356:	728c                	ld	a1,32(a3)
    80002358:	80fd                	srli	s1,s1,0x1f
    8000235a:	9141                	srli	a0,a0,0x30
    8000235c:	e6ce                	sd	s3,328(sp)
    8000235e:	b22e                	fsd	fa1,288(sp)
    80002360:	739e                	ld	t2,480(sp)
    80002362:	8f6a                	mv	t5,s10
    80002364:	cf42e7f7          	0xcf42e7f7
    80002368:	50d5                	li	ra,-11
    8000236a:	1c04                	addi	s1,sp,560
    8000236c:	51a8                	lw	a0,96(a1)
    8000236e:	4b7d                	li	s6,31
    80002370:	f088db93          	0xf088db93
    80002374:	7351527b          	0x7351527b
    80002378:	f581                	bnez	a1,80002280 <test_memory+0x80>
    8000237a:	05c5                	addi	a1,a1,17
    8000237c:	6f5e                	ld	t5,464(sp)
    8000237e:	f426                	sd	s1,40(sp)
    80002380:	a95f cb62 f513      	0xf513cb62a95f
    80002386:	a645                	j	80002726 <_end+0x116>
    80002388:	5c8e                	lw	s9,224(sp)
    8000238a:	c614                	sw	a3,8(a2)
    8000238c:	4cd8                	lw	a4,28(s1)
    8000238e:	af5a                	fsd	fs6,408(sp)
    80002390:	571c                	lw	a5,40(a4)
    80002392:	a0020dfb          	0xa0020dfb
    80002396:	5182                	lw	gp,32(sp)
    80002398:	2405                	addiw	s0,s0,1
    8000239a:	69f90de3          	beq	s2,t6,80003234 <__global_pointer$+0x424>
    8000239e:	1731                	addi	a4,a4,-20
    800023a0:	8789                	srai	a5,a5,0x2
    800023a2:	4cc8                	lw	a0,28(s1)
    800023a4:	1d15                	addi	s10,s10,-27
    800023a6:	1f76                	slli	t5,t5,0x3d
    800023a8:	0326ffcb          	fnmsub.d	ft11,fa3,fs2,ft0
    800023ac:	2612                	fld	fa2,256(sp)
    800023ae:	5bce                	lw	s7,240(sp)
    800023b0:	840e                	mv	s0,gp
    800023b2:	9ce4                	0x9ce4
    800023b4:	333d                	addiw	t1,t1,-17
    800023b6:	aa0e                	fsd	ft3,272(sp)
    800023b8:	914a                	add	sp,sp,s2
    800023ba:	ff96c9f7          	0xff96c9f7
    800023be:	16fd2bc3          	fmadd.q	fs7,fs10,fa5,ft2,rdn
    800023c2:	52dc                	lw	a5,36(a3)
    800023c4:	490dcf63          	blt	s11,a6,80002862 <_end+0x252>
    800023c8:	9551                	srai	a0,a0,0x34
    800023ca:	7b04                	ld	s1,48(a4)
    800023cc:	9b14                	0x9b14
    800023ce:	1286                	slli	t0,t0,0x21
    800023d0:	461a                	lw	a2,132(sp)
    800023d2:	3209                	addiw	tp,tp,-30
    800023d4:	4f5c6673          	csrrsi	a2,0x4f5,24
    800023d8:	8c38                	0x8c38
    800023da:	dc95                	beqz	s1,80002316 <test_memory+0x116>
    800023dc:	c560                	sw	s0,76(a0)
    800023de:	8f4d                	or	a4,a4,a1
    800023e0:	b15d                	j	80002086 <reg_x16_init+0x6>
    800023e2:	a780                	fsd	fs0,8(a5)
    800023e4:	e4b9                	bnez	s1,80002432 <test_memory+0x232>
    800023e6:	ba20                	fsd	fs0,112(a2)
    800023e8:	4048                	lw	a0,4(s0)
    800023ea:	2d19                	addiw	s10,s10,6
    800023ec:	e514                	sd	a3,8(a0)
    800023ee:	c3fa                	sw	t5,196(sp)
    800023f0:	99f5                	andi	a1,a1,-3
    800023f2:	be752faf          	0xbe752faf
    800023f6:	ce59fecb          	fnmsub.q	ft9,fs3,ft5,fs9
    800023fa:	6ebc                	ld	a5,88(a3)
    800023fc:	a35f8f37          	lui	t5,0xa35f8
    80002400:	d590                	sw	a2,40(a1)
    80002402:	cb24                	sw	s1,80(a4)
    80002404:	f5a8                	sd	a0,104(a1)
    80002406:	1b58                	addi	a4,sp,436
    80002408:	30d814bb          	0x30d814bb
    8000240c:	333a                	fld	ft6,424(sp)
    8000240e:	700c                	ld	a1,32(s0)
    80002410:	31d9                	addiw	gp,gp,-10
    80002412:	bddf 292e b74c      	0xb74c292ebddf
    80002418:	ac59                	j	800026ae <_end+0x9e>
    8000241a:	122b3877          	0x122b3877
    8000241e:	d3c9                	beqz	a5,800023a0 <test_memory+0x1a0>
    80002420:	0c42                	slli	s8,s8,0x10
    80002422:	d120                	sw	s0,96(a0)
    80002424:	0112                	slli	sp,sp,0x4
    80002426:	c176                	sw	t4,128(sp)
    80002428:	732ad01b          	0x732ad01b
    8000242c:	fb4af523          	0xfb4af523
    80002430:	0a692203          	lw	tp,166(s2)
    80002434:	8c1f d7b3 d68c      	0xd68cd7b38c1f
    8000243a:	c0bd                	beqz	s1,800024a0 <test_memory+0x2a0>
    8000243c:	5702                	lw	a4,32(sp)
    8000243e:	c4d8                	sw	a4,12(s1)
    80002440:	dc61                	beqz	s0,80002418 <test_memory+0x218>
    80002442:	9f38                	0x9f38
    80002444:	62b1                	lui	t0,0xc
    80002446:	0fcd                	addi	t6,t6,19
    80002448:	21bd                	addiw	gp,gp,15
    8000244a:	aff0                	fsd	fa2,216(a5)
    8000244c:	f55f faaa 9d33      	0x9d33faaaf55f
    80002452:	bc88                	fsd	fa0,56(s1)
    80002454:	a2d4                	fsd	fa3,128(a3)
    80002456:	a4a5                	j	800026be <_end+0xae>
    80002458:	a968                	fsd	fa0,208(a0)
    8000245a:	c1be                	sw	a5,192(sp)
    8000245c:	fcba                	sd	a4,120(sp)
    8000245e:	be24                	fsd	fs1,120(a2)
    80002460:	cfa1                	beqz	a5,800024b8 <test_memory+0x2b8>
    80002462:	2744                	fld	fs1,136(a4)
    80002464:	2641198f          	0x2641198f
    80002468:	04ca8357          	0x4ca8357
    8000246c:	43f5                	li	t2,29
    8000246e:	26b0                	fld	fa2,72(a3)
    80002470:	702ec12f          	0x702ec12f
    80002474:	2d78                	fld	fa4,216(a0)
    80002476:	3729                	addiw	a4,a4,-22
    80002478:	0e06                	slli	t3,t3,0x1
    8000247a:	60f5                	lui	ra,0x1d
    8000247c:	4b01                	li	s6,0
    8000247e:	c991                	beqz	a1,80002492 <test_memory+0x292>
    80002480:	86f9                	srai	a3,a3,0x1e
    80002482:	5e14                	lw	a3,56(a2)
    80002484:	93695e8b          	0x93695e8b
    80002488:	20c1a187          	flw	ft3,524(gp) # 8000301c <__global_pointer$+0x20c>
    8000248c:	7e5ef0db          	0x7e5ef0db
    80002490:	7340                	ld	s0,160(a4)
    80002492:	6f3fbd4b          	fnmsub.q	fs10,ft11,fs3,fa3,rup
    80002496:	1e44                	addi	s1,sp,820
    80002498:	eaa5                	bnez	a3,80002508 <test_memory+0x308>
    8000249a:	b4a6                	fsd	fs1,104(sp)
    8000249c:	896b14b7          	lui	s1,0x896b1
    800024a0:	df24                	sw	s1,120(a4)
    800024a2:	271d                	addiw	a4,a4,7
    800024a4:	8ada                	mv	s5,s6
    800024a6:	60ea                	ld	ra,152(sp)
    800024a8:	544c                	lw	a1,44(s0)
    800024aa:	4278                	lw	a4,68(a2)
    800024ac:	967e                	add	a2,a2,t6
    800024ae:	4cb32177          	0x4cb32177
    800024b2:	c7a5                	beqz	a5,8000251a <test_memory+0x31a>
    800024b4:	fcfc                	sd	a5,248(s1)
    800024b6:	2f3a                	fld	ft10,392(sp)
    800024b8:	2328                	fld	fa0,64(a4)
    800024ba:	e2b2                	sd	a2,320(sp)
    800024bc:	6a74                	ld	a3,208(a2)
    800024be:	7bd6                	ld	s7,368(sp)
    800024c0:	2521                	addiw	a0,a0,8
    800024c2:	2896                	fld	fa7,320(sp)
    800024c4:	d5314e83          	lbu	t4,-685(sp)
    800024c8:	ecf9278b          	0xecf9278b
    800024cc:	b43e                	fsd	fa5,40(sp)
    800024ce:	90ca                	add	ra,ra,s2
    800024d0:	9759                	srai	a4,a4,0x36
    800024d2:	9412                	add	s0,s0,tp
    800024d4:	db8e                	sw	gp,244(sp)
    800024d6:	1946                	slli	s2,s2,0x31
    800024d8:	fec92993          	slti	s3,s2,-20
    800024dc:	1d04                	addi	s1,sp,688
    800024de:	3cec                	fld	fa1,248(s1)
    800024e0:	5ab4                	lw	a3,112(a3)
    800024e2:	7fee                	ld	t6,248(sp)
    800024e4:	36e1                	addiw	a3,a3,-8
    800024e6:	738bb30f          	0x738bb30f
    800024ea:	d8f3795b          	0xd8f3795b
    800024ee:	52ac                	lw	a1,96(a3)
    800024f0:	68255a07          	0x68255a07
    800024f4:	52e6ee6b          	0x52e6ee6b
    800024f8:	1e91                	addi	t4,t4,-28
    800024fa:	b081                	j	80001d3a <fromhost+0xcfa>
    800024fc:	0fe4                	addi	s1,sp,988
    800024fe:	5c36                	lw	s8,108(sp)
    80002500:	9ae38ae3          	beq	t2,a4,80001eb4 <fromhost+0xe74>
    80002504:	8524                	0x8524
    80002506:	94f1                	srai	s1,s1,0x3c
    80002508:	0579                	addi	a0,a0,30
    8000250a:	9d6271c3          	0x9d6271c3
    8000250e:	f0d5                	bnez	s1,800024b2 <test_memory+0x2b2>
    80002510:	499c7517          	auipc	a0,0x499c7
    80002514:	b61d                	j	8000203a <reg_x7_init+0x2>
    80002516:	e01c                	sd	a5,0(s0)
    80002518:	81f1                	srli	a1,a1,0x1c
    8000251a:	5bc793d3          	0x5bc793d3
    8000251e:	2e798573          	0x2e798573
    80002522:	0d95                	addi	s11,s11,5
    80002524:	54d1                	li	s1,-12
    80002526:	3eac                	fld	fa1,120(a3)
    80002528:	57e5                	li	a5,-7
    8000252a:	f07c                	sd	a5,224(s0)
    8000252c:	6ec8                	ld	a0,152(a3)
    8000252e:	cee5e433          	0xcee5e433
    80002532:	5ec04b2b          	0x5ec04b2b
    80002536:	73244233          	0x73244233
    8000253a:	38f5                	addiw	a7,a7,-3
    8000253c:	4115                	li	sp,5
    8000253e:	0fce                	slli	t6,t6,0x13
    80002540:	a086                	fsd	ft1,64(sp)
    80002542:	123e1a53          	fmul.d	fs4,ft8,ft3,rtz
    80002546:	6614                	ld	a3,8(a2)
    80002548:	14375b43          	0x14375b43
    8000254c:	2958                	fld	fa4,144(a0)
    8000254e:	4a7e                	lw	s4,220(sp)
    80002550:	9054                	0x9054
    80002552:	b46d                	j	80001ffc <fromhost+0xfbc>
    80002554:	9aea1e87          	0x9aea1e87
    80002558:	81c1                	srli	a1,a1,0x10
    8000255a:	a2a6                	fsd	fs1,320(sp)
    8000255c:	ea66                	sd	s9,272(sp)
    8000255e:	81ed                	srli	a1,a1,0x1b
    80002560:	a2dc                	fsd	fa5,128(a3)
    80002562:	c418                	sw	a4,8(s0)
    80002564:	4116                	lw	sp,68(sp)
    80002566:	7fdf ce6c f8a2      	0xf8a2ce6c7fdf
    8000256c:	82b4                	0x82b4
    8000256e:	3092                	fld	ft1,288(sp)
    80002570:	3b0e7147          	fmsub.d	ft2,ft8,fa6,ft7
    80002574:	e438                	sd	a4,72(s0)
    80002576:	0e02ae1b          	0xe02ae1b
    8000257a:	2459                	addiw	s0,s0,22
    8000257c:	3c8dff0b          	0x3c8dff0b
    80002580:	f294                	sd	a3,32(a3)
    80002582:	92dbb0db          	0x92dbb0db
    80002586:	938a                	add	t2,t2,sp
    80002588:	271a                	fld	fa4,384(sp)
    8000258a:	88ea                	mv	a7,s10
    8000258c:	d3e04477          	0xd3e04477
    80002590:	73871527          	0x73871527
    80002594:	55ac                	lw	a1,104(a1)
    80002596:	f63e                	sd	a5,296(sp)
    80002598:	3944                	fld	fs1,176(a0)
    8000259a:	8bd6                	mv	s7,s5
    8000259c:	0584                	addi	s1,sp,704
    8000259e:	4886                	lw	a7,64(sp)
    800025a0:	ec88                	sd	a0,24(s1)
    800025a2:	d535                	beqz	a0,8000250e <test_memory+0x30e>
    800025a4:	4d5f f639 0a6f      	0xa6ff6394d5f
    800025aa:	efd8                	sd	a4,152(a5)
    800025ac:	56ac                	lw	a1,104(a3)
    800025ae:	7c75                	lui	s8,0xffffd
    800025b0:	57f47763          	bgeu	s0,t6,80002b1e <_end+0x50e>
    800025b4:	1e51                	addi	t3,t3,-12
    800025b6:	7152                	ld	sp,304(sp)
    800025b8:	943f668b          	0x943f668b
    800025bc:	960a                	add	a2,a2,sp
    800025be:	386a                	fld	fa6,184(sp)
    800025c0:	41d6                	lw	gp,84(sp)
    800025c2:	df02                	sw	zero,188(sp)
    800025c4:	11cc014b          	fnmsub.s	ft2,fs8,ft8,ft2,rne
    800025c8:	5f9f556f          	jal	a0,800f83c0 <__global_pointer$+0xf55b0>
    800025cc:	9a55                	andi	a2,a2,-11
    800025ce:	67ec786f          	jal	a6,800c9c4c <__global_pointer$+0xc6e3c>
    800025d2:	43e1                	li	t2,24
    800025d4:	8da8                	0x8da8
    800025d6:	251e                	fld	fa0,448(sp)
    800025d8:	ba8f4afb          	0xba8f4afb
    800025dc:	29325d07          	0x29325d07
    800025e0:	98f4bc63          	0x98f4bc63
    800025e4:	9099                	srli	s1,s1,0x26
    800025e6:	b5810aa7          	0xb5810aa7
    800025ea:	698c                	ld	a1,16(a1)
    800025ec:	93e4                	0x93e4
    800025ee:	50df 17b5 0c13      	0xc1317b550df
    800025f4:	9ad285c7          	fmsub.d	fa1,ft5,fa3,fs3,rne
    800025f8:	8e60                	0x8e60
    800025fa:	adfc                	fsd	fa5,216(a1)
    800025fc:	ed9a                	sd	t1,216(sp)
    800025fe:	3088                	fld	fa0,32(s1)

0000000080002600 <loop_count>:
    80002600:	0040                	addi	s0,sp,4
	...

Disassembly of section .riscv.attributes:

0000000000000000 <.riscv.attributes>:
   0:	1e41                	addi	t3,t3,-16
   2:	0000                	unimp
   4:	7200                	ld	s0,32(a2)
   6:	7369                	lui	t1,0xffffa
   8:	01007663          	bgeu	zero,a6,14 <_start-0x7fffffec>
   c:	0014                	0x14
   e:	0000                	unimp
  10:	7205                	lui	tp,0xfffe1
  12:	3676                	fld	fa2,376(sp)
  14:	6934                	ld	a3,80(a0)
  16:	7032                	0x7032
  18:	5f30                	lw	a2,120(a4)
  1a:	326d                	addiw	tp,tp,-5
  1c:	3070                	fld	fa2,224(s0)
	...
