
build/test36:     file format elf64-littleriscv


Disassembly of section .text.init:

0000000080000000 <_start>:
    80000000:	05c0006f          	j	8000005c <reset_vector>

0000000080000004 <trap_vector>:
    80000004:	34202f73          	csrr	t5,mcause
    80000008:	00800f93          	li	t6,8
    8000000c:	03ff0a63          	beq	t5,t6,80000040 <write_tohost>
    80000010:	00900f93          	li	t6,9
    80000014:	03ff0663          	beq	t5,t6,80000040 <write_tohost>
    80000018:	00b00f93          	li	t6,11
    8000001c:	03ff0263          	beq	t5,t6,80000040 <write_tohost>
    80000020:	80000f17          	auipc	t5,0x80000
    80000024:	fe0f0f13          	addi	t5,t5,-32 # 0 <_start-0x80000000>
    80000028:	000f0463          	beqz	t5,80000030 <trap_vector+0x2c>
    8000002c:	000f0067          	jr	t5
    80000030:	34202f73          	csrr	t5,mcause
    80000034:	000f5463          	bgez	t5,8000003c <handle_exception>
    80000038:	0040006f          	j	8000003c <handle_exception>

000000008000003c <handle_exception>:
    8000003c:	5391e193          	ori	gp,gp,1337

0000000080000040 <write_tohost>:
    80000040:	00001f17          	auipc	t5,0x1
    80000044:	fc3f2023          	sw	gp,-64(t5) # 80001000 <tohost>
    80000048:	000902b7          	lui	t0,0x90
    8000004c:	0012829b          	addiw	t0,t0,1
    80000050:	00c29293          	slli	t0,t0,0xc
    80000054:	0002af83          	lw	t6,0(t0) # 90000 <_start-0x7ff70000>
    80000058:	fe9ff06f          	j	80000040 <write_tohost>

000000008000005c <reset_vector>:
    8000005c:	00000093          	li	ra,0
    80000060:	00000113          	li	sp,0
    80000064:	00000193          	li	gp,0
    80000068:	00000213          	li	tp,0
    8000006c:	00000293          	li	t0,0
    80000070:	00000313          	li	t1,0
    80000074:	00000393          	li	t2,0
    80000078:	00000413          	li	s0,0
    8000007c:	00000493          	li	s1,0
    80000080:	00000513          	li	a0,0
    80000084:	00000593          	li	a1,0
    80000088:	00000613          	li	a2,0
    8000008c:	00000693          	li	a3,0
    80000090:	00000713          	li	a4,0
    80000094:	00000793          	li	a5,0
    80000098:	00000813          	li	a6,0
    8000009c:	00000893          	li	a7,0
    800000a0:	00000913          	li	s2,0
    800000a4:	00000993          	li	s3,0
    800000a8:	00000a13          	li	s4,0
    800000ac:	00000a93          	li	s5,0
    800000b0:	00000b13          	li	s6,0
    800000b4:	00000b93          	li	s7,0
    800000b8:	00000c13          	li	s8,0
    800000bc:	00000c93          	li	s9,0
    800000c0:	00000d13          	li	s10,0
    800000c4:	00000d93          	li	s11,0
    800000c8:	00000e13          	li	t3,0
    800000cc:	00000e93          	li	t4,0
    800000d0:	00000f13          	li	t5,0
    800000d4:	00000f93          	li	t6,0
    800000d8:	f1402573          	csrr	a0,mhartid
    800000dc:	00051063          	bnez	a0,800000dc <reset_vector+0x80>
    800000e0:	00000297          	auipc	t0,0x0
    800000e4:	01028293          	addi	t0,t0,16 # 800000f0 <reset_vector+0x94>
    800000e8:	30529073          	csrw	mtvec,t0
    800000ec:	18005073          	csrwi	satp,0
    800000f0:	00000297          	auipc	t0,0x0
    800000f4:	02428293          	addi	t0,t0,36 # 80000114 <reset_vector+0xb8>
    800000f8:	30529073          	csrw	mtvec,t0
    800000fc:	0010029b          	addiw	t0,zero,1
    80000100:	03529293          	slli	t0,t0,0x35
    80000104:	fff28293          	addi	t0,t0,-1
    80000108:	3b029073          	csrw	pmpaddr0,t0
    8000010c:	01f00293          	li	t0,31
    80000110:	3a029073          	csrw	pmpcfg0,t0
    80000114:	30405073          	csrwi	mie,0
    80000118:	00000297          	auipc	t0,0x0
    8000011c:	01428293          	addi	t0,t0,20 # 8000012c <reset_vector+0xd0>
    80000120:	30529073          	csrw	mtvec,t0
    80000124:	30205073          	csrwi	medeleg,0
    80000128:	30305073          	csrwi	mideleg,0
    8000012c:	00000193          	li	gp,0
    80000130:	00000297          	auipc	t0,0x0
    80000134:	ed428293          	addi	t0,t0,-300 # 80000004 <trap_vector>
    80000138:	30529073          	csrw	mtvec,t0
    8000013c:	00100513          	li	a0,1
    80000140:	01f51513          	slli	a0,a0,0x1f
    80000144:	00055c63          	bgez	a0,8000015c <reset_vector+0x100>
    80000148:	0ff0000f          	fence
    8000014c:	00100193          	li	gp,1
    80000150:	05d00893          	li	a7,93
    80000154:	00000513          	li	a0,0
    80000158:	00000073          	ecall
    8000015c:	80000297          	auipc	t0,0x80000
    80000160:	ea428293          	addi	t0,t0,-348 # 0 <_start-0x80000000>
    80000164:	00028a63          	beqz	t0,80000178 <reset_vector+0x11c>
    80000168:	10529073          	csrw	stvec,t0
    8000016c:	0000b2b7          	lui	t0,0xb
    80000170:	1092829b          	addiw	t0,t0,265
    80000174:	30229073          	csrw	medeleg,t0
    80000178:	30005073          	csrwi	mstatus,0
    8000017c:	00000297          	auipc	t0,0x0
    80000180:	01428293          	addi	t0,t0,20 # 80000190 <reset_vector+0x134>
    80000184:	34129073          	csrw	mepc,t0
    80000188:	f1402573          	csrr	a0,mhartid
    8000018c:	30200073          	mret
    80000190:	0200006f          	j	800001b0 <test_start>

0000000080000194 <crash_backward>:
    80000194:	0ff0000f          	fence
    80000198:	00018063          	beqz	gp,80000198 <crash_backward+0x4>
    8000019c:	00119193          	slli	gp,gp,0x1
    800001a0:	0011e193          	ori	gp,gp,1
    800001a4:	05d00893          	li	a7,93
    800001a8:	00018513          	mv	a0,gp
    800001ac:	00000073          	ecall

00000000800001b0 <test_start>:
    800001b0:	00002f97          	auipc	t6,0x2
    800001b4:	e50f8f93          	addi	t6,t6,-432 # 80002000 <hidden_data>
    800001b8:	000fb003          	ld	zero,0(t6)
    800001bc:	008fb083          	ld	ra,8(t6)
    800001c0:	010fb103          	ld	sp,16(t6)
    800001c4:	018fb183          	ld	gp,24(t6)
    800001c8:	020fb203          	ld	tp,32(t6)
    800001cc:	028fb283          	ld	t0,40(t6)
    800001d0:	030fb303          	ld	t1,48(t6)
    800001d4:	038fb383          	ld	t2,56(t6)
    800001d8:	040fb403          	ld	s0,64(t6)
    800001dc:	048fb483          	ld	s1,72(t6)
    800001e0:	050fb503          	ld	a0,80(t6)
    800001e4:	058fb583          	ld	a1,88(t6)
    800001e8:	060fb603          	ld	a2,96(t6)
    800001ec:	068fb683          	ld	a3,104(t6)
    800001f0:	070fb703          	ld	a4,112(t6)
    800001f4:	078fb783          	ld	a5,120(t6)
    800001f8:	080fb803          	ld	a6,128(t6)
    800001fc:	088fb883          	ld	a7,136(t6)
    80000200:	090fb903          	ld	s2,144(t6)
    80000204:	098fb983          	ld	s3,152(t6)
    80000208:	0a0fba03          	ld	s4,160(t6)
    8000020c:	0a8fba83          	ld	s5,168(t6)
    80000210:	0b0fbb03          	ld	s6,176(t6)
    80000214:	0b8fbb83          	ld	s7,184(t6)
    80000218:	0c0fbc03          	ld	s8,192(t6)
    8000021c:	0c8fbc83          	ld	s9,200(t6)
    80000220:	0d0fbd03          	ld	s10,208(t6)
    80000224:	0d8fbd83          	ld	s11,216(t6)
    80000228:	0e0fbe03          	ld	t3,224(t6)
    8000022c:	0e8fbe83          	ld	t4,232(t6)
    80000230:	0f0fbf03          	ld	t5,240(t6)
    80000234:	0f8fbf83          	ld	t6,248(t6)
    80000238:	0040006f          	j	8000023c <pseg_0>

000000008000023c <pseg_0>:
    8000023c:	00002917          	auipc	s2,0x2
    80000240:	a8d90913          	addi	s2,s2,-1395 # 80001cc9 <fromhost+0xc89>
    80000244:	57700193          	li	gp,1399
    80000248:	fb100d93          	li	s11,-79
    8000024c:	00100a13          	li	s4,1
    80000250:	21300213          	li	tp,531
    80000254:	f5f00493          	li	s1,-161
    80000258:	00002c17          	auipc	s8,0x2
    8000025c:	0fdc0c13          	addi	s8,s8,253 # 80002355 <test_memory+0x155>
    80000260:	05000413          	li	s0,80
    80000264:	00100e93          	li	t4,1
    80000268:	8fa00793          	li	a5,-1798
    8000026c:	7c790103          	lb	sp,1991(s2)
    80000270:	00002d17          	auipc	s10,0x2
    80000274:	459d0d13          	addi	s10,s10,1113 # 800026c9 <_end+0xb9>
    80000278:	34000f13          	li	t5,832
    8000027c:	00f4833b          	addw	t1,s1,a5
    80000280:	0281fbbb          	remuw	s7,gp,s0
    80000284:	03fa1a13          	slli	s4,s4,0x3f
    80000288:	b9dd1e03          	lh	t3,-1123(s10)
    8000028c:	01ef5cb3          	srl	s9,t5,t5
    80000290:	f7bc6683          	lwu	a3,-133(s8)
    80000294:	412a55b3          	sra	a1,s4,s2
    80000298:	03fe9e93          	slli	t4,t4,0x3f
    8000029c:	02421533          	mulh	a0,tp,tp
    800002a0:	fff00893          	li	a7,-1
    800002a4:	00002597          	auipc	a1,0x2
    800002a8:	b2858593          	addi	a1,a1,-1240 # 80001dcc <fromhost+0xd8c>
    800002ac:	8c400b13          	li	s6,-1852
    800002b0:	5615ae23          	sw	ra,1404(a1)
    800002b4:	00100313          	li	t1,1
    800002b8:	3dc00413          	li	s0,988
    800002bc:	e0800813          	li	a6,-504
    800002c0:	0148c8b3          	xor	a7,a7,s4
    800002c4:	0e100c93          	li	s9,225
    800002c8:	4ff00093          	li	ra,1279
    800002cc:	030dc9b3          	div	s3,s11,a6
    800002d0:	00844bb3          	xor	s7,s0,s0
    800002d4:	011a7733          	and	a4,s4,a7
    800002d8:	03086d3b          	remw	s10,a6,a6
    800002dc:	019cc7b3          	xor	a5,s9,s9
    800002e0:	bb700f13          	li	t5,-1097
    800002e4:	41ef093b          	subw	s2,t5,t5
    800002e8:	021b12b3          	mulh	t0,s6,ra
    800002ec:	03f31313          	slli	t1,t1,0x3f
    800002f0:	01476ab3          	or	s5,a4,s4
    800002f4:	fff00393          	li	t2,-1
    800002f8:	40f185b7          	lui	a1,0x40f18
    800002fc:	01188f3b          	addw	t5,a7,a7
    80000300:	1f200193          	li	gp,498
    80000304:	01d3c3b3          	xor	t2,t2,t4
    80000308:	2cf00813          	li	a6,719
    8000030c:	0c618693          	addi	a3,gp,198 # 80002ed6 <__global_pointer$+0xc6>
    80000310:	2cb00593          	li	a1,715
    80000314:	8bc00d93          	li	s11,-1860
    80000318:	16b00093          	li	ra,363
    8000031c:	fff00493          	li	s1,-1
    80000320:	ff700113          	li	sp,-9
    80000324:	00211e3b          	sllw	t3,sp,sp
    80000328:	007bffb3          	and	t6,s7,t2
    8000032c:	46ec8213          	addi	tp,s9,1134
    80000330:	af500793          	li	a5,-1291
    80000334:	00fdb933          	sltu	s2,s11,a5
    80000338:	02b86f33          	rem	t5,a6,a1
    8000033c:	00100213          	li	tp,1
    80000340:	cf000f13          	li	t5,-784
    80000344:	01dfe633          	or	a2,t6,t4
    80000348:	e1500993          	li	s3,-491
    8000034c:	0064c4b3          	xor	s1,s1,t1
    80000350:	f9500c93          	li	s9,-107
    80000354:	042e0693          	addi	a3,t3,66
    80000358:	02b59e33          	mulh	t3,a1,a1
    8000035c:	4010db33          	sra	s6,ra,ra
    80000360:	03f21213          	slli	tp,tp,0x3f
    80000364:	8d600d13          	li	s10,-1834
    80000368:	0273c5b3          	div	a1,t2,t2
    8000036c:	416cd41b          	sraiw	s0,s9,0x16
    80000370:	009a7c33          	and	s8,s4,s1
    80000374:	f7bf0193          	addi	gp,t5,-133
    80000378:	00906833          	or	a6,zero,s1
    8000037c:	fff00913          	li	s2,-1
    80000380:	00494933          	xor	s2,s2,tp
    80000384:	03a9c2b3          	div	t0,s3,s10
    80000388:	006c6533          	or	a0,s8,t1
    8000038c:	039c9bb3          	mulh	s7,s9,s9
    80000390:	012c77b3          	and	a5,s8,s2
    80000394:	00456133          	or	sp,a0,tp
    80000398:	de27fee3          	bgeu	a5,sp,80000194 <crash_backward>
    8000039c:	59400813          	li	a6,1428
    800003a0:	bd000b93          	li	s7,-1072
    800003a4:	00100b13          	li	s6,1
    800003a8:	21380093          	addi	ra,a6,531
    800003ac:	02b8ce33          	div	t3,a7,a1
    800003b0:	014206bb          	addw	a3,tp,s4
    800003b4:	add00313          	li	t1,-1315
    800003b8:	03fb1b13          	slli	s6,s6,0x3f
    800003bc:	50000f93          	li	t6,1280
    800003c0:	fff00293          	li	t0,-1
    800003c4:	d4eb8393          	addi	t2,s7,-690
    800003c8:	b09e3413          	sltiu	s0,t3,-1271
    800003cc:	00060e13          	mv	t3,a2
    800003d0:	0162c2b3          	xor	t0,t0,s6
    800003d4:	57d00993          	li	s3,1405
    800003d8:	000e0693          	mv	a3,t3
    800003dc:	fa400213          	li	tp,-92
    800003e0:	00527a33          	and	s4,tp,t0
    800003e4:	01a814b3          	sll	s1,a6,s10
    800003e8:	033fc5bb          	divw	a1,t6,s3
    800003ec:	93100713          	li	a4,-1743
    800003f0:	33a00193          	li	gp,826
    800003f4:	00002c97          	auipc	s9,0x2
    800003f8:	526c8c93          	addi	s9,s9,1318 # 8000291a <_end+0x30a>
    800003fc:	47500c13          	li	s8,1141
    80000400:	02e74ab3          	div	s5,a4,a4
    80000404:	d8de18e3          	bne	t3,a3,80000194 <crash_backward>
    80000408:	00002117          	auipc	sp,0x2
    8000040c:	56110113          	addi	sp,sp,1377 # 80002969 <_end+0x359>
    80000410:	3b500d93          	li	s11,949
    80000414:	4cf00893          	li	a7,1231
    80000418:	39900f93          	li	t6,921
    8000041c:	d7b00813          	li	a6,-645
    80000420:	d4580b93          	addi	s7,a6,-699
    80000424:	c4d118a3          	sh	a3,-943(sp)
    80000428:	03825eb3          	divu	t4,tp,s8
    8000042c:	016a6f33          	or	t5,s4,s6
    80000430:	0031c533          	xor	a0,gp,gp
    80000434:	00100713          	li	a4,1
    80000438:	ab200693          	li	a3,-1358
    8000043c:	fd900c13          	li	s8,-39
    80000440:	ca4cd903          	lhu	s2,-860(s9)
    80000444:	9eb00193          	li	gp,-1557
    80000448:	03ff8433          	mul	s0,t6,t6
    8000044c:	d5ea74e3          	bgeu	s4,t5,80000194 <crash_backward>
    80000450:	98a00513          	li	a0,-1654
    80000454:	414a5e33          	sra	t3,s4,s4
    80000458:	00a69233          	sll	tp,a3,a0
    8000045c:	e3000393          	li	t2,-464
    80000460:	02fa55b3          	divu	a1,s4,a5
    80000464:	67b00d13          	li	s10,1659
    80000468:	4d000513          	li	a0,1232
    8000046c:	53750f13          	addi	t5,a0,1335
    80000470:	03f71713          	slli	a4,a4,0x3f
    80000474:	00002917          	auipc	s2,0x2
    80000478:	24390913          	addi	s2,s2,579 # 800026b7 <_end+0xa7>
    8000047c:	00145433          	srl	s0,s0,ra
    80000480:	0273e9bb          	remw	s3,t2,t2
    80000484:	034f8133          	mul	sp,t6,s4
    80000488:	fff00a93          	li	s5,-1
    8000048c:	3d800b93          	li	s7,984
    80000490:	01ad53bb          	srlw	t2,s10,s10
    80000494:	fa000993          	li	s3,-96
    80000498:	031da633          	mulhsu	a2,s11,a7
    8000049c:	000c1413          	slli	s0,s8,0x0
    800004a0:	03a307bb          	mulw	a5,t1,s10
    800004a4:	de591c83          	lh	s9,-539(s2)
    800004a8:	74900213          	li	tp,1865
    800004ac:	004226b3          	slt	a3,tp,tp
    800004b0:	000f8b13          	mv	s6,t6
    800004b4:	000b0f93          	mv	t6,s6
    800004b8:	85800813          	li	a6,-1960
    800004bc:	55fb4263          	blt	s6,t6,80000a00 <crash_forward>
    800004c0:	cc800e13          	li	t3,-824
    800004c4:	41cbd2b3          	sra	t0,s7,t3
    800004c8:	0339b5b3          	mulhu	a1,s3,s3
    800004cc:	00eacab3          	xor	s5,s5,a4
    800004d0:	03084a3b          	divw	s4,a6,a6
    800004d4:	0152f0b3          	and	ra,t0,s5
    800004d8:	00ea64b3          	or	s1,s4,a4
    800004dc:	003c3eb3          	sltu	t4,s8,gp
    800004e0:	ca14dae3          	bge	s1,ra,80000194 <crash_backward>
    800004e4:	03fffc3b          	remuw	s8,t6,t6
    800004e8:	00000313          	li	t1,0
    800004ec:	26700793          	li	a5,615
    800004f0:	35800f93          	li	t6,856
    800004f4:	01b41b1b          	slliw	s6,s0,0x1b
    800004f8:	00002517          	auipc	a0,0x2
    800004fc:	b4050513          	addi	a0,a0,-1216 # 80002038 <reg_x7_init>
    80000500:	00a21e1b          	slliw	t3,tp,0xa
    80000504:	02300813          	li	a6,35
    80000508:	53553423          	sd	s5,1320(a0)
    8000050c:	00000b93          	li	s7,0
    80000510:	5c600213          	li	tp,1478
    80000514:	c97310e3          	bne	t1,s7,80000194 <crash_backward>
    80000518:	93000293          	li	t0,-1744
    8000051c:	0ea00193          	li	gp,234
    80000520:	57500f13          	li	t5,1397
    80000524:	400a0cb3          	sub	s9,s4,zero
    80000528:	b4c00413          	li	s0,-1204
    8000052c:	016b3133          	sltu	sp,s6,s6
    80000530:	02ac00b3          	mul	ra,s8,a0
    80000534:	0252c33b          	divw	t1,t0,t0
    80000538:	d4c00093          	li	ra,-692
    8000053c:	00002a97          	auipc	s5,0x2
    80000540:	af3a8a93          	addi	s5,s5,-1293 # 8000202f <reg_x5_init+0x7>
    80000544:	40c60c33          	sub	s8,a2,a2
    80000548:	4010d13b          	sraw	sp,ra,ra
    8000054c:	0329653b          	remw	a0,s2,s2
    80000550:	00002d97          	auipc	s11,0x2
    80000554:	40fd8d93          	addi	s11,s11,1039 # 8000295f <_end+0x34f>
    80000558:	2a400c93          	li	s9,676
    8000055c:	33c00a13          	li	s4,828
    80000560:	84b00393          	li	t2,-1973
    80000564:	007846b3          	xor	a3,a6,t2
    80000568:	be800b13          	li	s6,-1048
    8000056c:	0287fd33          	remu	s10,a5,s0
    80000570:	01e2193b          	sllw	s2,tp,t5
    80000574:	a2bd9e83          	lh	t4,-1493(s11)
    80000578:	0031d5bb          	srlw	a1,gp,gp
    8000057c:	d6000113          	li	sp,-672
    80000580:	00001717          	auipc	a4,0x1
    80000584:	5dd70713          	addi	a4,a4,1501 # 80001b5d <fromhost+0xb1d>
    80000588:	77e705a3          	sb	t5,1899(a4)
    8000058c:	014fb9b3          	sltu	s3,t6,s4
    80000590:	ac600b93          	li	s7,-1338
    80000594:	fc200c13          	li	s8,-62
    80000598:	037b54b3          	divu	s1,s6,s7
    8000059c:	038cf0bb          	remuw	ra,s9,s8
    800005a0:	29fa9e03          	lh	t3,671(s5)
    800005a4:	40d6863b          	subw	a2,a3,a3
    800005a8:	025288bb          	mulw	a7,t0,t0
    800005ac:	00213333          	sltu	t1,sp,sp
    800005b0:	7b700a13          	li	s4,1975
    800005b4:	00a30b33          	add	s6,t1,a0
    800005b8:	59800b93          	li	s7,1432
    800005bc:	23b00d93          	li	s11,571
    800005c0:	401d03b3          	sub	t2,s10,ra
    800005c4:	037ba6b3          	mulhsu	a3,s7,s7
    800005c8:	85d00213          	li	tp,-1955
    800005cc:	03770abb          	mulw	s5,a4,s7
    800005d0:	a6400713          	li	a4,-1436
    800005d4:	004a10b3          	sll	ra,s4,tp
    800005d8:	87a00113          	li	sp,-1926
    800005dc:	02b5b933          	mulhu	s2,a1,a1
    800005e0:	e2d00493          	li	s1,-467
    800005e4:	ced00f13          	li	t5,-787
    800005e8:	c6800413          	li	s0,-920
    800005ec:	35c00e13          	li	t3,860
    800005f0:	a6c00d13          	li	s10,-1428
    800005f4:	01c41cb3          	sll	s9,s0,t3
    800005f8:	02276533          	rem	a0,a4,sp
    800005fc:	34300313          	li	t1,835
    80000600:	00630c3b          	addw	s8,t1,t1
    80000604:	02e741bb          	divw	gp,a4,a4
    80000608:	3c300193          	li	gp,963
    8000060c:	11e00693          	li	a3,286
    80000610:	00100213          	li	tp,1
    80000614:	07100293          	li	t0,113
    80000618:	fe000593          	li	a1,-32
    8000061c:	02bdf63b          	remuw	a2,s11,a1
    80000620:	05802a13          	slti	s4,zero,88
    80000624:	d9500413          	li	s0,-619
    80000628:	0aa00813          	li	a6,170
    8000062c:	00100313          	li	t1,1
    80000630:	3be00993          	li	s3,958
    80000634:	60800113          	li	sp,1544
    80000638:	03f21213          	slli	tp,tp,0x3f
    8000063c:	0334afb3          	mulhsu	t6,s1,s3
    80000640:	010d4eb3          	xor	t4,s10,a6
    80000644:	008a0e3b          	addw	t3,s4,s0
    80000648:	00210933          	add	s2,sp,sp
    8000064c:	0231aab3          	mulhsu	s5,gp,gp
    80000650:	02d6ab33          	mulhsu	s6,a3,a3
    80000654:	405f08b3          	sub	a7,t5,t0
    80000658:	fff00093          	li	ra,-1
    8000065c:	f3140c93          	addi	s9,s0,-207
    80000660:	03f31313          	slli	t1,t1,0x3f
    80000664:	00001797          	auipc	a5,0x1
    80000668:	59378793          	addi	a5,a5,1427 # 80001bf7 <fromhost+0xbb7>
    8000066c:	41c3dd9b          	sraiw	s11,t2,0x1c
    80000670:	fff00713          	li	a4,-1
    80000674:	03040fb3          	mul	t6,s0,a6
    80000678:	00100693          	li	a3,1
    8000067c:	00674733          	xor	a4,a4,t1
    80000680:	e2700593          	li	a1,-473
    80000684:	01f0c833          	xor	a6,ra,t6
    80000688:	7ea7aca3          	sw	a0,2041(a5)
    8000068c:	ea200413          	li	s0,-350
    80000690:	00100113          	li	sp,1
    80000694:	cfd00613          	li	a2,-771
    80000698:	03f69693          	slli	a3,a3,0x3f
    8000069c:	9b600f13          	li	t5,-1610
    800006a0:	c4960a13          	addi	s4,a2,-951
    800006a4:	aec648e3          	blt	a2,a2,80000194 <crash_backward>
    800006a8:	03bdb8b3          	mulhu	a7,s11,s11
    800006ac:	0040c0b3          	xor	ra,ra,tp
    800006b0:	fff00293          	li	t0,-1
    800006b4:	028434b3          	mulhu	s1,s0,s0
    800006b8:	89af0a93          	addi	s5,t5,-1894
    800006bc:	0016f3b3          	and	t2,a3,ra
    800006c0:	03f11113          	slli	sp,sp,0x3f
    800006c4:	00e87c33          	and	s8,a6,a4
    800006c8:	a4ec3193          	sltiu	gp,s8,-1458
    800006cc:	fff00c93          	li	s9,-1
    800006d0:	00000f93          	li	t6,0
    800006d4:	02b5eb3b          	remw	s6,a1,a1
    800006d8:	002cccb3          	xor	s9,s9,sp
    800006dc:	01947e33          	and	t3,s0,s9
    800006e0:	015a81bb          	addw	gp,s5,s5
    800006e4:	00000793          	li	a5,0
    800006e8:	fbe00613          	li	a2,-66
    800006ec:	00d2c2b3          	xor	t0,t0,a3
    800006f0:	6e200813          	li	a6,1762
    800006f4:	26600413          	li	s0,614
    800006f8:	f4c00593          	li	a1,-180
    800006fc:	0055feb3          	and	t4,a1,t0
    80000700:	00a3aa33          	slt	s4,t2,a0
    80000704:	028614b3          	mulh	s1,a2,s0
    80000708:	2f5f0c63          	beq	t5,s5,80000a00 <crash_forward>
    8000070c:	00d1ed33          	or	s10,gp,a3
    80000710:	a0a00d93          	li	s11,-1526
    80000714:	f5300b13          	li	s6,-173
    80000718:	013764b3          	or	s1,a4,s3
    8000071c:	00236933          	or	s2,t1,sp
    80000720:	d0f00413          	li	s0,-753
    80000724:	02d5f7b3          	remu	a5,a1,a3
    80000728:	02b868bb          	remw	a7,a6,a1
    8000072c:	006c6bb3          	or	s7,s8,t1
    80000730:	a74d8993          	addi	s3,s11,-1420
    80000734:	2d7c7663          	bgeu	s8,s7,80000a00 <crash_forward>
    80000738:	e6600f93          	li	t6,-410
    8000073c:	02842633          	mulhsu	a2,s0,s0
    80000740:	00426533          	or	a0,tp,tp
    80000744:	a5b9f8e3          	bgeu	s3,s11,80000194 <crash_backward>
    80000748:	2baefc63          	bgeu	t4,s10,80000a00 <crash_forward>
    8000074c:	a47554e3          	bge	a0,t2,80000194 <crash_backward>
    80000750:	00de8abb          	addw	s5,t4,a3
    80000754:	a2eb0193          	addi	gp,s6,-1490
    80000758:	6ad00a13          	li	s4,1709
    8000075c:	414f8f33          	sub	t5,t6,s4
    80000760:	2b61f063          	bgeu	gp,s6,80000a00 <crash_forward>
    80000764:	40eb813b          	subw	sp,s7,a4
    80000768:	35400813          	li	a6,852
    8000076c:	03ce7dbb          	remuw	s11,t3,t3
    80000770:	180d2a13          	slti	s4,s10,384
    80000774:	00002497          	auipc	s1,0x2
    80000778:	34648493          	addi	s1,s1,838 # 80002aba <_end+0x4aa>
    8000077c:	ba200313          	li	t1,-1118
    80000780:	01ad093b          	addw	s2,s10,s10
    80000784:	78a00293          	li	t0,1930
    80000788:	b0f00093          	li	ra,-1265
    8000078c:	8a100e93          	li	t4,-1887
    80000790:	00100413          	li	s0,1
    80000794:	02d6c3bb          	divw	t2,a3,a3
    80000798:	00000193          	li	gp,0
    8000079c:	406355b3          	sra	a1,t1,t1
    800007a0:	03f41413          	slli	s0,s0,0x3f
    800007a4:	c5200793          	li	a5,-942
    800007a8:	01613233          	sltu	tp,sp,s6
    800007ac:	db308e13          	addi	t3,ra,-589
    800007b0:	5b280613          	addi	a2,a6,1458
    800007b4:	01de98bb          	sllw	a7,t4,t4
    800007b8:	fff00a13          	li	s4,-1
    800007bc:	022106b3          	mul	a3,sp,sp
    800007c0:	17e00f93          	li	t6,382
    800007c4:	008a4a33          	xor	s4,s4,s0
    800007c8:	1ef00993          	li	s3,495
    800007cc:	35d00b93          	li	s7,861
    800007d0:	22001863          	bnez	zero,80000a00 <crash_forward>
    800007d4:	23066663          	bltu	a2,a6,80000a00 <crash_forward>
    800007d8:	01cd90b3          	sll	ra,s11,t3
    800007dc:	25c98393          	addi	t2,s3,604
    800007e0:	01b70eb3          	add	t4,a4,s11
    800007e4:	4172dab3          	sra	s5,t0,s7
    800007e8:	83c4cf03          	lbu	t5,-1988(s1)
    800007ec:	00821693          	slli	a3,tp,0x8
    800007f0:	60a00d13          	li	s10,1546
    800007f4:	5e400893          	li	a7,1508
    800007f8:	0147f133          	and	sp,a5,s4
    800007fc:	0118be33          	sltu	t3,a7,a7
    80000800:	00000b13          	li	s6,0
    80000804:	03e69e33          	mulh	t3,a3,t5
    80000808:	68e00393          	li	t2,1678
    8000080c:	5ae00293          	li	t0,1454
    80000810:	43400493          	li	s1,1076
    80000814:	3e148e93          	addi	t4,s1,993
    80000818:	02739f33          	mulh	t5,t2,t2
    8000081c:	41f78533          	sub	a0,a5,t6
    80000820:	409488b3          	sub	a7,s1,s1
    80000824:	0086edb3          	or	s11,a3,s0
    80000828:	97600213          	li	tp,-1674
    8000082c:	ae500713          	li	a4,-1307
    80000830:	65b3f913          	andi	s2,t2,1627
    80000834:	02ed2c33          	mulhsu	s8,s10,a4
    80000838:	9561cee3          	blt	gp,s6,80000194 <crash_backward>
    8000083c:	00100a93          	li	s5,1
    80000840:	b1300693          	li	a3,-1261
    80000844:	017b9a33          	sll	s4,s7,s7
    80000848:	1bd48c63          	beq	s1,t4,80000a00 <crash_forward>
    8000084c:	55a00113          	li	sp,1370
    80000850:	016b39b3          	sltu	s3,s6,s6
    80000854:	03fa9a93          	slli	s5,s5,0x3f
    80000858:	00100413          	li	s0,1
    8000085c:	02c00793          	li	a5,44
    80000860:	03ce4c33          	div	s8,t3,t3
    80000864:	038be3b3          	rem	t2,s7,s8
    80000868:	00002c97          	auipc	s9,0x2
    8000086c:	f43c8c93          	addi	s9,s9,-189 # 800027ab <_end+0x19b>
    80000870:	d55c9fa3          	sh	s5,-673(s9)
    80000874:	00c6991b          	slliw	s2,a3,0xc
    80000878:	e797c593          	xori	a1,a5,-391
    8000087c:	00425333          	srl	t1,tp,tp
    80000880:	f9100193          	li	gp,-111
    80000884:	03f41413          	slli	s0,s0,0x3f
    80000888:	fff00f13          	li	t5,-1
    8000088c:	008f4f33          	xor	t5,t5,s0
    80000890:	fff00b93          	li	s7,-1
    80000894:	02f7ce33          	div	t3,a5,a5
    80000898:	015bcbb3          	xor	s7,s7,s5
    8000089c:	0172f633          	and	a2,t0,s7
    800008a0:	40315b33          	sra	s6,sp,gp
    800008a4:	015660b3          	or	ra,a2,s5
    800008a8:	00000d93          	li	s11,0
    800008ac:	01eaffb3          	and	t6,s5,t5
    800008b0:	02d2f83b          	remuw	a6,t0,a3
    800008b4:	008fed33          	or	s10,t6,s0
    800008b8:	00000713          	li	a4,0
    800008bc:	01f71533          	sll	a0,a4,t6
    800008c0:	15fd5063          	bge	s10,t6,80000a00 <crash_forward>
    800008c4:	8c1648e3          	blt	a2,ra,80000194 <crash_backward>
    800008c8:	00100213          	li	tp,1
    800008cc:	00100b93          	li	s7,1
    800008d0:	03fb9b93          	slli	s7,s7,0x3f
    800008d4:	00000493          	li	s1,0
    800008d8:	03f21213          	slli	tp,tp,0x3f
    800008dc:	00100413          	li	s0,1
    800008e0:	fff00193          	li	gp,-1
    800008e4:	01caceb3          	xor	t4,s5,t3
    800008e8:	024275b3          	remu	a1,tp,tp
    800008ec:	4fb00793          	li	a5,1275
    800008f0:	00000913          	li	s2,0
    800008f4:	f0c00f93          	li	t6,-244
    800008f8:	68b00d13          	li	s10,1675
    800008fc:	03ad6e3b          	remw	t3,s10,s10
    80000900:	fff00c93          	li	s9,-1
    80000904:	017cccb3          	xor	s9,s9,s7
    80000908:	418ad093          	srai	ra,s5,0x18
    8000090c:	03f41413          	slli	s0,s0,0x3f
    80000910:	01ffc533          	xor	a0,t6,t6
    80000914:	0041c1b3          	xor	gp,gp,tp
    80000918:	4db42d93          	slti	s11,s0,1243
    8000091c:	0198f8b3          	and	a7,a7,s9
    80000920:	0294f63b          	remuw	a2,s1,s1
    80000924:	00317733          	and	a4,sp,gp
    80000928:	004de6b3          	or	a3,s11,tp
    8000092c:	0178e833          	or	a6,a7,s7
    80000930:	02f7d133          	divu	sp,a5,a5
    80000934:	86d770e3          	bgeu	a4,a3,80000194 <crash_backward>
    80000938:	00002397          	auipc	t2,0x2
    8000093c:	80d38393          	addi	t2,t2,-2035 # 80002145 <reg_x8_output+0x5>
    80000940:	31b3b983          	ld	s3,795(t2)
    80000944:	fff00f13          	li	t5,-1
    80000948:	008f4f33          	xor	t5,t5,s0
    8000094c:	d9400a93          	li	s5,-620
    80000950:	aa1a8313          	addi	t1,s5,-1375
    80000954:	846ac0e3          	blt	s5,t1,80000194 <crash_backward>
    80000958:	01e5fb33          	and	s6,a1,t5
    8000095c:	008fea33          	or	s4,t6,s0
    80000960:	0040006f          	j	80000964 <reg_dump>

0000000080000964 <reg_dump>:
    80000964:	00002097          	auipc	ra,0x2
    80000968:	c9c08093          	addi	ra,ra,-868 # 80002600 <loop_count>
    8000096c:	0000a103          	lw	sp,0(ra)
    80000970:	fff10193          	addi	gp,sp,-1
    80000974:	0030a023          	sw	gp,0(ra)
    80000978:	8c0112e3          	bnez	sp,8000023c <pseg_0>
    8000097c:	00001097          	auipc	ra,0x1
    80000980:	78408093          	addi	ra,ra,1924 # 80002100 <begin_signature>
    80000984:	0000b023          	sd	zero,0(ra)
    80000988:	0020b823          	sd	sp,16(ra)
    8000098c:	0030bc23          	sd	gp,24(ra)
    80000990:	0240b023          	sd	tp,32(ra)
    80000994:	0250b423          	sd	t0,40(ra)
    80000998:	0260b823          	sd	t1,48(ra)
    8000099c:	0480b023          	sd	s0,64(ra)
    800009a0:	0490b423          	sd	s1,72(ra)
    800009a4:	04a0b823          	sd	a0,80(ra)
    800009a8:	04b0bc23          	sd	a1,88(ra)
    800009ac:	06c0b023          	sd	a2,96(ra)
    800009b0:	06d0b423          	sd	a3,104(ra)
    800009b4:	06e0b823          	sd	a4,112(ra)
    800009b8:	06f0bc23          	sd	a5,120(ra)
    800009bc:	0900b023          	sd	a6,128(ra)
    800009c0:	0910b423          	sd	a7,136(ra)
    800009c4:	0920b823          	sd	s2,144(ra)
    800009c8:	0930bc23          	sd	s3,152(ra)
    800009cc:	0b40b023          	sd	s4,160(ra)
    800009d0:	0b50b423          	sd	s5,168(ra)
    800009d4:	0b60b823          	sd	s6,176(ra)
    800009d8:	0b70bc23          	sd	s7,184(ra)
    800009dc:	0d80b023          	sd	s8,192(ra)
    800009e0:	0d90b423          	sd	s9,200(ra)
    800009e4:	0da0b823          	sd	s10,208(ra)
    800009e8:	0db0bc23          	sd	s11,216(ra)
    800009ec:	0fc0b023          	sd	t3,224(ra)
    800009f0:	0fd0b423          	sd	t4,232(ra)
    800009f4:	0fe0b823          	sd	t5,240(ra)
    800009f8:	0ff0bc23          	sd	t6,248(ra)
    800009fc:	0200006f          	j	80000a1c <test_end>

0000000080000a00 <crash_forward>:
    80000a00:	0ff0000f          	fence
    80000a04:	00018063          	beqz	gp,80000a04 <crash_forward+0x4>
    80000a08:	00119193          	slli	gp,gp,0x1
    80000a0c:	0011e193          	ori	gp,gp,1
    80000a10:	05d00893          	li	a7,93
    80000a14:	00018513          	mv	a0,gp
    80000a18:	00000073          	ecall

0000000080000a1c <test_end>:
    80000a1c:	0ff0000f          	fence
    80000a20:	00100193          	li	gp,1
    80000a24:	05d00893          	li	a7,93
    80000a28:	00000513          	li	a0,0
    80000a2c:	00000073          	ecall
    80000a30:	c0001073          	unimp
	...

Disassembly of section .tohost:

0000000080001000 <tohost>:
	...

0000000080001040 <fromhost>:
	...

Disassembly of section .data:

0000000080002000 <hidden_data>:
    80002000:	111a21b7          	lui	gp,0x111a2
    80002004:	09a29683          	lh	a3,154(t0)

0000000080002008 <reg_x1_init>:
    80002008:	f1c3f8b7          	lui	a7,0xf1c3f
    8000200c:	5c1f abbd       	0x8002abbd5c1f

0000000080002010 <reg_x2_init>:
    80002010:	8002                	0x8002
    80002012:	ffff                	0xffff
    80002014:	ffff                	0xffff
    80002016:	ffff                	0xffff

0000000080002018 <reg_x3_init>:
    80002018:	781a                	ld	a6,416(sp)
    8000201a:	e66e                	sd	s11,264(sp)
    8000201c:	34fc                	fld	fa5,232(s1)
    8000201e:	3e65                	addiw	t3,t3,-7

0000000080002020 <reg_x4_init>:
    80002020:	0004                	0x4
    80002022:	8000                	0x8000
    80002024:	ffff                	0xffff
    80002026:	ffff                	0xffff

0000000080002028 <reg_x5_init>:
    80002028:	c741                	beqz	a4,800020b0 <reg_x22_init>
    8000202a:	77ed                	lui	a5,0xffffb
    8000202c:	20fa                	fld	ft1,408(sp)
    8000202e:	871c                	0x871c

0000000080002030 <reg_x6_init>:
    80002030:	b292b5cb          	fnmsub.d	fa1,ft5,fs1,fs6,rup
    80002034:	a8bc                	fsd	fa5,80(s1)
    80002036:	76d2                	ld	a3,304(sp)

0000000080002038 <reg_x7_init>:
    80002038:	ff80                	sd	s0,56(a5)
    8000203a:	ffff                	0xffff
    8000203c:	ffff                	0xffff
    8000203e:	ffff                	0xffff

0000000080002040 <reg_x8_init>:
    80002040:	ff89                	bnez	a5,80001f5a <fromhost+0xf1a>
    80002042:	ffff                	0xffff
    80002044:	ffff                	0xffff
    80002046:	ffff                	0xffff

0000000080002048 <reg_x9_init>:
	...

0000000080002050 <reg_x10_init>:
    80002050:	73a9                	lui	t2,0xfffea
    80002052:	615e                	ld	sp,464(sp)
    80002054:	9ec5                	0x9ec5
    80002056:	          	lw	t5,-509(a5) # ffffffffffffae03 <__global_pointer$+0xffffffff7fff7ff3>

0000000080002058 <reg_x11_init>:
    80002058:	0377e037          	lui	zero,0x377e
    8000205c:	131fb967          	0x131fb967

0000000080002060 <reg_x12_init>:
    80002060:	0008                	0x8
    80002062:	8000                	0x8000
    80002064:	ffff                	0xffff
    80002066:	ffff                	0xffff

0000000080002068 <reg_x13_init>:
	...

0000000080002070 <reg_x14_init>:
    80002070:	ffff                	0xffff
    80002072:	ffff                	0xffff
    80002074:	ffff                	0xffff
    80002076:	ffff                	0xffff

0000000080002078 <reg_x15_init>:
    80002078:	0009                	c.nop	2
    8000207a:	8000                	0x8000
    8000207c:	ffff                	0xffff
    8000207e:	ffff                	0xffff

0000000080002080 <reg_x16_init>:
    80002080:	8008                	0x8008
    80002082:	ffff                	0xffff
    80002084:	ffff                	0xffff
    80002086:	ffff                	0xffff

0000000080002088 <reg_x17_init>:
	...

0000000080002090 <reg_x18_init>:
    80002090:	31b2                	fld	ft3,296(sp)
    80002092:	45632447          	0x45632447
    80002096:	6361                	lui	t1,0x18

0000000080002098 <reg_x19_init>:
    80002098:	ffff                	0xffff
    8000209a:	ffff                	0xffff
    8000209c:	ffff                	0xffff
    8000209e:	ffff                	0xffff

00000000800020a0 <reg_x20_init>:
    800020a0:	dd0e                	sw	gp,184(sp)
    800020a2:	7a70                	ld	a2,240(a2)
    800020a4:	024d                	addi	tp,tp,19
    800020a6:	ce4c                	sw	a1,28(a2)

00000000800020a8 <reg_x21_init>:
	...

00000000800020b0 <reg_x22_init>:
    800020b0:	c276                	sw	t4,4(sp)
    800020b2:	54b1                	li	s1,-20
    800020b4:	9cb9                	addw	s1,s1,a4
    800020b6:	7332                	ld	t1,296(sp)

00000000800020b8 <reg_x23_init>:
    800020b8:	8009                	srli	s0,s0,0x2
    800020ba:	ffff                	0xffff
    800020bc:	ffff                	0xffff
    800020be:	ffff                	0xffff

00000000800020c0 <reg_x24_init>:
    800020c0:	e1138c7b          	0xe1138c7b
    800020c4:	91ac                	0x91ac
    800020c6:	6370                	ld	a2,192(a4)

00000000800020c8 <reg_x25_init>:
    800020c8:	ffff                	0xffff
    800020ca:	ffff                	0xffff
    800020cc:	ffff                	0xffff
    800020ce:	ffff                	0xffff

00000000800020d0 <reg_x26_init>:
    800020d0:	8004                	0x8004
    800020d2:	ffff                	0xffff
    800020d4:	ffff                	0xffff
    800020d6:	ffff                	0xffff

00000000800020d8 <reg_x27_init>:
    800020d8:	ce6e89ab          	0xce6e89ab
    800020dc:	5804                	lw	s1,48(s0)
    800020de:	          	auipc	a3,0x20

00000000800020e0 <reg_x28_init>:
    800020e0:	0002                	c.slli64	zero
    800020e2:	0000                	unimp
    800020e4:	0000                	unimp
	...

00000000800020e8 <reg_x29_init>:
    800020e8:	1558                	addi	a4,sp,676
    800020ea:	0f2c                	addi	a1,sp,920
    800020ec:	84d9                	srai	s1,s1,0x16
    800020ee:	          	lui	a3,0x766fc

00000000800020f0 <reg_x30_init>:
    800020f0:	7527766f          	jal	a2,80079842 <__global_pointer$+0x76a32>
    800020f4:	ff2e                	sd	a1,440(sp)
    800020f6:	e0f1                	bnez	s1,800021ba <reg_x23_output+0x2>

00000000800020f8 <reg_x31_init>:
    800020f8:	0194                	addi	a3,sp,192
    800020fa:	c125                	beqz	a0,8000215a <reg_x11_output+0x2>
    800020fc:	83dbac07          	flw	fs8,-1987(s7)

0000000080002100 <begin_signature>:
    80002100:	8611af17          	auipc	t5,0x8611a
    80002104:	bdb1c9b3          	0xbdb1c9b3

0000000080002108 <reg_x1_output>:
    80002108:	2d31                	addiw	s10,s10,12
    8000210a:	6d01669b          	0x6d01669b
    8000210e:	2292                	fld	ft5,256(sp)

0000000080002110 <reg_x2_output>:
    80002110:	b419                	j	80001b16 <fromhost+0xad6>
    80002112:	2682                	fld	fa3,0(sp)
    80002114:	70f4                	ld	a3,224(s1)
    80002116:	a6a2                	fsd	fs0,328(sp)

0000000080002118 <reg_x3_output>:
    80002118:	99c9                	andi	a1,a1,-14
    8000211a:	4f2e                	lw	t5,200(sp)
    8000211c:	43d2                	lw	t2,20(sp)
    8000211e:	3018                	fld	fa4,32(s0)

0000000080002120 <reg_x4_output>:
    80002120:	8e968a97          	auipc	s5,0x8e968
    80002124:	2b10                	fld	fa2,16(a4)
    80002126:	edd5                	bnez	a1,800021e2 <reg_x28_output+0x2>

0000000080002128 <reg_x5_output>:
    80002128:	c1ce                	sw	s3,192(sp)
    8000212a:	94a5                	srai	s1,s1,0x29
    8000212c:	41c1                	li	gp,16
    8000212e:	ed5a                	sd	s6,152(sp)

0000000080002130 <reg_x6_output>:
    80002130:	3154                	fld	fa3,160(a0)
    80002132:	e646                	sd	a7,264(sp)
    80002134:	be15                	j	80001c68 <fromhost+0xc28>
    80002136:	5470                	lw	a2,108(s0)

0000000080002138 <reg_x7_output>:
    80002138:	37a2                	fld	fa5,40(sp)
    8000213a:	d4ec                	sw	a1,108(s1)
    8000213c:	a081ad6b          	0xa081ad6b

0000000080002140 <reg_x8_output>:
    80002140:	089d                	addi	a7,a7,7
    80002142:	984c                	0x984c
    80002144:	a88d                	j	800021b6 <reg_x22_output+0x6>
    80002146:	dce6                	sw	s9,120(sp)

0000000080002148 <reg_x9_output>:
    80002148:	1514                	addi	a3,sp,672
    8000214a:	8306                	mv	t1,ra
    8000214c:	3e0d                	addiw	t3,t3,-29
    8000214e:	656a                	ld	a0,152(sp)

0000000080002150 <reg_x10_output>:
    80002150:	55e5                	li	a1,-7
    80002152:	6e74                	ld	a3,216(a2)
    80002154:	06dd                	addi	a3,a3,23
    80002156:	          	0xbb1ce2d7

0000000080002158 <reg_x11_output>:
    80002158:	bb1c                	fsd	fa5,48(a4)
    8000215a:	10b9                	addi	ra,ra,-18
    8000215c:	3691198f          	0x3691198f

0000000080002160 <reg_x12_output>:
    80002160:	ec90                	sd	a2,24(s1)
    80002162:	bd39                	j	80001f80 <fromhost+0xf40>
    80002164:	eaec                	sd	a1,208(a3)
    80002166:	2c82                	fld	fs9,0(sp)

0000000080002168 <reg_x13_output>:
    80002168:	58c4                	lw	s1,52(s1)
    8000216a:	4fe9                	li	t6,26
    8000216c:	2ec2                	fld	ft9,16(sp)
    8000216e:	          	0x100fb9e7

0000000080002170 <reg_x14_output>:
    80002170:	fc44100f          	0xfc44100f
    80002174:	ce1a0a0b          	0xce1a0a0b

0000000080002178 <reg_x15_output>:
    80002178:	c0896d63          	bltu	s2,s0,80001592 <fromhost+0x552>
    8000217c:	09f86feb          	0x9f86feb

0000000080002180 <reg_x16_output>:
    80002180:	e32c                	sd	a1,64(a4)
    80002182:	e512c517          	auipc	a0,0xe512c
    80002186:	f49a                	sd	t1,104(sp)

0000000080002188 <reg_x17_output>:
    80002188:	ba11                	j	80001a9c <fromhost+0xa5c>
    8000218a:	c540                	sw	s0,12(a0)
    8000218c:	b182                	fsd	ft0,224(sp)
    8000218e:	0aed                	addi	s5,s5,27

0000000080002190 <reg_x18_output>:
    80002190:	f8a6                	sd	s1,112(sp)
    80002192:	c3a0                	sw	s0,64(a5)
    80002194:	ceca                	sw	s2,92(sp)
    80002196:	2fca                	fld	ft11,144(sp)

0000000080002198 <reg_x19_output>:
    80002198:	5656                	lw	a2,116(sp)
    8000219a:	e891                	bnez	s1,800021ae <reg_x21_output+0x6>
    8000219c:	27073137          	lui	sp,0x27073

00000000800021a0 <reg_x20_output>:
    800021a0:	d900                	sw	s0,48(a0)
    800021a2:	0259                	addi	tp,tp,22
    800021a4:	748d                	lui	s1,0xfffe3
    800021a6:	fb3d                	bnez	a4,8000211c <reg_x3_output+0x4>

00000000800021a8 <reg_x21_output>:
    800021a8:	dc24                	sw	s1,120(s0)
    800021aa:	ee31                	bnez	a2,80002206 <test_memory+0x6>
    800021ac:	0936                	slli	s2,s2,0xd
    800021ae:	5b8a                	lw	s7,160(sp)

00000000800021b0 <reg_x22_output>:
    800021b0:	9195                	srli	a1,a1,0x25
    800021b2:	8f16                	mv	t5,t0
    800021b4:	5bb9cd27          	fsq	fs11,1466(s3)

00000000800021b8 <reg_x23_output>:
    800021b8:	0b38df07          	0xb38df07
    800021bc:	13ad                	addi	t2,t2,-21
    800021be:	          	0xa0f09dfb

00000000800021c0 <reg_x24_output>:
    800021c0:	a0f0                	fsd	fa2,192(s1)
    800021c2:	7b00                	ld	s0,48(a4)
    800021c4:	9206                	add	tp,tp,ra
    800021c6:	d2c4                	sw	s1,36(a3)

00000000800021c8 <reg_x25_output>:
    800021c8:	229a                	fld	ft5,384(sp)
    800021ca:	6b2c                	ld	a1,80(a4)
    800021cc:	028a                	slli	t0,t0,0x2
    800021ce:	e626                	sd	s1,264(sp)

00000000800021d0 <reg_x26_output>:
    800021d0:	d45a                	sw	s6,40(sp)
    800021d2:	0174                	addi	a3,sp,140
    800021d4:	a691                	j	80002518 <test_memory+0x318>
    800021d6:	7bf6                	ld	s7,376(sp)

00000000800021d8 <reg_x27_output>:
    800021d8:	443c                	lw	a5,72(s0)
    800021da:	f328                	sd	a0,96(a4)
    800021dc:	af86                	fsd	ft1,472(sp)
    800021de:	          	auipc	s8,0xeab3a

00000000800021e0 <reg_x28_output>:
    800021e0:	5368eab3          	0x5368eab3
    800021e4:	11d2                	slli	gp,gp,0x34
    800021e6:	5148                	lw	a0,36(a0)

00000000800021e8 <reg_x29_output>:
    800021e8:	cc04                	sw	s1,24(s0)
    800021ea:	c66c                	sw	a1,76(a2)
    800021ec:	e869                	bnez	s0,800022be <test_memory+0xbe>
    800021ee:	c61e                	sw	t2,12(sp)

00000000800021f0 <reg_x30_output>:
    800021f0:	1085                	addi	ra,ra,-31
    800021f2:	5908                	lw	a0,48(a0)
    800021f4:	aade6e5b          	0xaade6e5b

00000000800021f8 <reg_x31_output>:
    800021f8:	d8f1                	beqz	s1,800021cc <reg_x25_output+0x4>
    800021fa:	3b8963e3          	bltu	s2,s8,80002da0 <_end+0x790>
    800021fe:	          	0x89562a57

0000000080002200 <test_memory>:
    80002200:	8956                	mv	s2,s5
    80002202:	3e92                	fld	ft9,288(sp)
    80002204:	8e77f467          	0x8e77f467
    80002208:	dc66                	sw	s9,56(sp)
    8000220a:	888bb9fb          	0x888bb9fb
    8000220e:	cd75                	beqz	a0,8000230a <test_memory+0x10a>
    80002210:	1a3d                	addi	s4,s4,-17
    80002212:	f57e                	sd	t6,168(sp)
    80002214:	823e                	mv	tp,a5
    80002216:	287a                	fld	fa6,408(sp)
    80002218:	18d4                	addi	a3,sp,116
    8000221a:	689d                	lui	a7,0x7
    8000221c:	5975                	li	s2,-3
    8000221e:	55c6                	lw	a1,112(sp)
    80002220:	ec9a09b7          	lui	s3,0xec9a0
    80002224:	46dd                	li	a3,23
    80002226:	5740                	lw	s0,44(a4)
    80002228:	d7b8                	sw	a4,104(a5)
    8000222a:	47e4af6b          	0x47e4af6b
    8000222e:	89ca                	mv	s3,s2
    80002230:	c8ba                	sw	a4,80(sp)
    80002232:	2ad2                	fld	fs5,272(sp)
    80002234:	eeb1f2d7          	0xeeb1f2d7
    80002238:	8ac8                	0x8ac8
    8000223a:	f2968423          	sb	s1,-216(a3) # 766fbf28 <_start-0x99040d8>
    8000223e:	b5dc                	fsd	fa5,168(a1)
    80002240:	990a                	add	s2,s2,sp
    80002242:	0d5e                	slli	s10,s10,0x17
    80002244:	9376                	add	t1,t1,t4
    80002246:	d0d8                	sw	a4,36(s1)
    80002248:	4c68                	lw	a0,92(s0)
    8000224a:	c0e6                	sw	s9,64(sp)
    8000224c:	4730                	lw	a2,72(a4)
    8000224e:	c4ccf017          	auipc	zero,0xc4ccf
    80002252:	1cdd                	addi	s9,s9,-9
    80002254:	7c26                	ld	s8,104(sp)
    80002256:	7362160f          	0x7362160f
    8000225a:	b81f 243a 5d66      	0x5d66243ab81f
    80002260:	3b58                	fld	fa4,176(a4)
    80002262:	828e                	mv	t0,gp
    80002264:	e211                	bnez	a2,80002268 <test_memory+0x68>
    80002266:	d720                	sw	s0,104(a4)
    80002268:	2dd6                	fld	fs11,336(sp)
    8000226a:	976f2a4f          	fnmadd.q	fs4,ft10,fs6,fs2,rdn
    8000226e:	e2da                	sd	s6,320(sp)
    80002270:	785ba753          	0x785ba753
    80002274:	0e0d                	addi	t3,t3,3
    80002276:	331e                	fld	ft6,480(sp)
    80002278:	3500576f          	jal	a4,800075c8 <__global_pointer$+0x47b8>
    8000227c:	3c32                	fld	fs8,296(sp)
    8000227e:	02c9                	addi	t0,t0,18
    80002280:	c99251fb          	0xc99251fb
    80002284:	48b5                	li	a7,13
    80002286:	7c6e                	ld	s8,248(sp)
    80002288:	6888fed7          	0x6888fed7
    8000228c:	7e62                	ld	t3,56(sp)
    8000228e:	caa2                	sw	s0,84(sp)
    80002290:	67c4                	ld	s1,136(a5)
    80002292:	df8c                	sw	a1,56(a5)
    80002294:	e4d6                	sd	s5,72(sp)
    80002296:	129d                	addi	t0,t0,-25
    80002298:	4e6c                	lw	a1,92(a2)
    8000229a:	8749                	srai	a4,a4,0x12
    8000229c:	c551                	beqz	a0,80002328 <test_memory+0x128>
    8000229e:	74c5                	lui	s1,0xffff1
    800022a0:	7224                	ld	s1,96(a2)
    800022a2:	7b16                	ld	s6,352(sp)
    800022a4:	0c0d                	addi	s8,s8,3
    800022a6:	f329                	bnez	a4,800021e8 <reg_x29_output>
    800022a8:	3c23cc33          	0x3c23cc33
    800022ac:	cb12                	sw	tp,148(sp)
    800022ae:	c52d                	beqz	a0,80002318 <test_memory+0x118>
    800022b0:	c9c11aab          	0xc9c11aab
    800022b4:	31ad                	addiw	gp,gp,-21
    800022b6:	0114                	addi	a3,sp,128
    800022b8:	250d                	addiw	a0,a0,3
    800022ba:	4225                	li	tp,9
    800022bc:	c0f4a3f3          	csrrs	t2,hpmcounter15,s1
    800022c0:	8b55                	andi	a4,a4,21
    800022c2:	4fe5fb23          	0x4fe5fb23
    800022c6:	13de                	slli	t2,t2,0x37
    800022c8:	6400f727          	0x6400f727
    800022cc:	3a49                	addiw	s4,s4,-14
    800022ce:	8392                	mv	t2,tp
    800022d0:	66730023          	sb	t2,1632(t1) # 18660 <_start-0x7ffe79a0>
    800022d4:	18775323          	0x18775323
    800022d8:	7a6c4fb7          	lui	t6,0x7a6c4
    800022dc:	4272                	lw	tp,28(sp)
    800022de:	f9a0                	sd	s0,112(a1)
    800022e0:	1a095de7          	0x1a095de7
    800022e4:	57b2                	lw	a5,44(sp)
    800022e6:	cfe4a4a7          	fsw	ft10,-791(s1) # ffffffffffff0ce9 <__global_pointer$+0xffffffff7ffeded9>
    800022ea:	2bb5                	addiw	s7,s7,13
    800022ec:	cc1aeb17          	auipc	s6,0xcc1ae
    800022f0:	e25f cdbd 9da9      	0x9da9cdbde25f
    800022f6:	e4f9                	bnez	s1,800023c4 <test_memory+0x1c4>
    800022f8:	ad05                	j	80002928 <_end+0x318>
    800022fa:	e086                	sd	ra,64(sp)
    800022fc:	cdb0                	sw	a2,88(a1)
    800022fe:	e8c5                	bnez	s1,800023ae <test_memory+0x1ae>
    80002300:	4186                	lw	gp,64(sp)
    80002302:	7390                	ld	a2,32(a5)
    80002304:	5708                	lw	a0,40(a4)
    80002306:	8108                	0x8108
    80002308:	000e                	c.slli	zero,0x3
    8000230a:	e34ed8b7          	lui	a7,0xe34ed
    8000230e:	b8d0                	fsd	fa2,176(s1)
    80002310:	c425                	beqz	s0,80002378 <test_memory+0x178>
    80002312:	b41b6957          	0xb41b6957
    80002316:	1034                	addi	a3,sp,40
    80002318:	1846                	slli	a6,a6,0x31
    8000231a:	8194ead3          	0x8194ead3
    8000231e:	2651                	addiw	a2,a2,20
    80002320:	cf2d3baf          	0xcf2d3baf
    80002324:	d221                	beqz	a2,80002264 <test_memory+0x64>
    80002326:	c3a8                	sw	a0,64(a5)
    80002328:	c53d                	beqz	a0,80002396 <test_memory+0x196>
    8000232a:	9896                	add	a7,a7,t0
    8000232c:	a406                	fsd	ft1,8(sp)
    8000232e:	37df df4e 0a5f      	0xa5fdf4e37df
    80002334:	a8377033          	0xa8377033
    80002338:	cbfd                	beqz	a5,8000242e <test_memory+0x22e>
    8000233a:	4d7e                	lw	s10,220(sp)
    8000233c:	f7e80587          	0xf7e80587
    80002340:	6639                	lui	a2,0xe
    80002342:	a132                	fsd	fa2,128(sp)
    80002344:	8e5c                	0x8e5c
    80002346:	fb7f1d87          	0xfb7f1d87
    8000234a:	d1df ce1b 0747      	0x747ce1bd1df
    80002350:	f348                	sd	a0,160(a4)
    80002352:	919e                	add	gp,gp,t2
    80002354:	5b10                	lw	a2,48(a4)
    80002356:	0638                	addi	a4,sp,776
    80002358:	9460                	0x9460
    8000235a:	eff6                	sd	t4,472(sp)
    8000235c:	18ced8f3          	csrrwi	a7,0x18c,29
    80002360:	a5c9                	j	80002a22 <_end+0x412>
    80002362:	1235                	addi	tp,tp,-19
    80002364:	12bd                	addi	t0,t0,-17
    80002366:	988c                	0x988c
    80002368:	f7d4                	sd	a3,168(a5)
    8000236a:	d6aaa057          	0xd6aaa057
    8000236e:	6191                	lui	gp,0x4
    80002370:	e394                	sd	a3,0(a5)
    80002372:	6912                	ld	s2,256(sp)
    80002374:	b5b9                	j	800021c2 <reg_x24_output+0x2>
    80002376:	4eee                	lw	t4,216(sp)
    80002378:	d1da                	sw	s6,224(sp)
    8000237a:	cfccab5b          	0xcfccab5b
    8000237e:	08c5                	addi	a7,a7,17
    80002380:	b05c                	fsd	fa5,160(s0)
    80002382:	b8659f27          	0xb8659f27
    80002386:	32b11d97          	auipc	s11,0x32b11
    8000238a:	d4b1                	beqz	s1,800022d6 <test_memory+0xd6>
    8000238c:	cb98                	sw	a4,16(a5)
    8000238e:	d572                	sw	t3,168(sp)
    80002390:	a648                	fsd	fa0,136(a2)
    80002392:	4edf 1194 04d4      	0x4d411944edf
    80002398:	4b8a                	lw	s7,128(sp)
    8000239a:	9f0860a7          	0x9f0860a7
    8000239e:	63c1c8e3          	blt	gp,t3,800031ce <__global_pointer$+0x3be>
    800023a2:	79d5                	lui	s3,0xffff5
    800023a4:	4b24                	lw	s1,80(a4)
    800023a6:	3878                	fld	fa4,240(s0)
    800023a8:	c27e                	sw	t6,4(sp)
    800023aa:	06f8                	addi	a4,sp,844
    800023ac:	280d                	addiw	a6,a6,3
    800023ae:	4e95                	li	t4,5
    800023b0:	828d                	srli	a3,a3,0x3
    800023b2:	1aff                	0x1aff
    800023b4:	78ee                	ld	a7,248(sp)
    800023b6:	2ad0                	fld	fa2,144(a3)
    800023b8:	d1c2                	sw	a6,224(sp)
    800023ba:	791d6063          	bltu	s10,a7,80002b3a <_end+0x52a>
    800023be:	6c1cfdc7          	0x6c1cfdc7
    800023c2:	4ecd                	li	t4,19
    800023c4:	39e4                	fld	fs1,240(a1)
    800023c6:	be5e                	fsd	fs7,312(sp)
    800023c8:	a618                	fsd	fa4,8(a2)
    800023ca:	2a48                	fld	fa0,144(a2)
    800023cc:	b8f1                	j	80001ca8 <fromhost+0xc68>
    800023ce:	9f2229f7          	0x9f2229f7
    800023d2:	3a4c                	fld	fa1,176(a2)
    800023d4:	04132777          	0x4132777
    800023d8:	b088                	fsd	fa0,32(s1)
    800023da:	b12a                	fsd	fa0,160(sp)
    800023dc:	ba88                	fsd	fa0,48(a3)
    800023de:	46b1                	li	a3,12
    800023e0:	3a65                	addiw	s4,s4,-7
    800023e2:	fae4                	sd	s1,240(a3)
    800023e4:	5738                	lw	a4,104(a4)
    800023e6:	2db8                	fld	fa4,88(a1)
    800023e8:	9788df4f          	fnmadd.q	ft10,fa7,fs8,fs2,unknown
    800023ec:	4c949173          	csrrw	sp,0x4c9,s1
    800023f0:	92bde0d7          	0x92bde0d7
    800023f4:	d2c2                	sw	a6,100(sp)
    800023f6:	9419                	srai	s0,s0,0x26
    800023f8:	f218                	sd	a4,32(a2)
    800023fa:	a64e7d4b          	fnmsub.q	fs10,ft8,ft4,fs4
    800023fe:	3955                	addiw	s2,s2,-11
    80002400:	07d04ae7          	0x7d04ae7
    80002404:	29d8                	fld	fa4,144(a1)
    80002406:	5d69d897          	auipc	a7,0x5d69d
    8000240a:	b449                	j	80001e8c <fromhost+0xe4c>
    8000240c:	0f89                	addi	t6,t6,2
    8000240e:	9742                	add	a4,a4,a6
    80002410:	65f11913          	0x65f11913
    80002414:	82ca                	mv	t0,s2
    80002416:	a028                	fsd	fa0,64(s0)
    80002418:	715f d34c 3270      	0x3270d34c715f
    8000241e:	da76                	sw	t4,52(sp)
    80002420:	bbc1                	j	800021f0 <reg_x30_output>
    80002422:	7c98                	ld	a4,56(s1)
    80002424:	cd1c                	sw	a5,24(a0)
    80002426:	2cf9                	addiw	s9,s9,30
    80002428:	b79e                	fsd	ft7,488(sp)
    8000242a:	31fe                	fld	ft3,504(sp)
    8000242c:	f06a                	sd	s10,32(sp)
    8000242e:	beff                	0xbeff
    80002430:	905c844f          	fnmadd.s	fs0,fs9,ft5,fs2,rne
    80002434:	19b3fa67          	0x19b3fa67
    80002438:	bc82                	fsd	ft0,120(sp)
    8000243a:	e47af023          	0xe47af023
    8000243e:	9b9f 3368 abd0      	0xabd033689b9f
    80002444:	6182                	ld	gp,0(sp)
    80002446:	b8a6                	fsd	fs1,112(sp)
    80002448:	b79a                	fsd	ft6,488(sp)
    8000244a:	750f612b          	0x750f612b
    8000244e:	8522                	mv	a0,s0
    80002450:	9899                	andi	s1,s1,-26
    80002452:	34c1                	addiw	s1,s1,-16
    80002454:	afde                	fsd	fs7,472(sp)
    80002456:	8780                	0x8780
    80002458:	c755                	beqz	a4,80002504 <test_memory+0x304>
    8000245a:	bdf97d63          	bgeu	s2,t6,80001834 <fromhost+0x7f4>
    8000245e:	de91                	beqz	a3,8000237a <test_memory+0x17a>
    80002460:	2ed61723          	sh	a3,750(a2) # e2ee <_start-0x7fff1d12>
    80002464:	0d2e                	slli	s10,s10,0xb
    80002466:	d870                	sw	a2,116(s0)
    80002468:	b3fd                	j	80002256 <test_memory+0x56>
    8000246a:	3b41                	addiw	s6,s6,-16
    8000246c:	96b9                	srai	a3,a3,0x2e
    8000246e:	870d                	srai	a4,a4,0x3
    80002470:	2412                	fld	fs0,256(sp)
    80002472:	554f7cbb          	0x554f7cbb
    80002476:	3978                	fld	fa4,240(a0)
    80002478:	6de5                	lui	s11,0x19
    8000247a:	88b4                	0x88b4
    8000247c:	bf2738fb          	0xbf2738fb
    80002480:	118e                	slli	gp,gp,0x23
    80002482:	2a98                	fld	fa4,16(a3)
    80002484:	8c65                	and	s0,s0,s1
    80002486:	5d0c                	lw	a1,56(a0)
    80002488:	bade                	fsd	fs7,368(sp)
    8000248a:	9541                	srai	a0,a0,0x30
    8000248c:	4b68                	lw	a0,84(a4)
    8000248e:	6172                	ld	sp,280(sp)
    80002490:	bb70                	fsd	fa2,240(a4)
    80002492:	9880                	0x9880
    80002494:	d177f143          	fmadd.s	ft2,fa5,fs7,fs10
    80002498:	7d4cc6ef          	jal	a3,800cec6c <__global_pointer$+0xcbe5c>
    8000249c:	549a                	lw	s1,164(sp)
    8000249e:	6cd5                	lui	s9,0x15
    800024a0:	e918                	sd	a4,16(a0)
    800024a2:	4f8d                	li	t6,3
    800024a4:	5211                	li	tp,-28
    800024a6:	8c44d1db          	0x8c44d1db
    800024aa:	6468                	ld	a0,200(s0)
    800024ac:	da68                	sw	a0,116(a2)
    800024ae:	787daf3f 87289139 	0x87289139787daf3f
    800024b6:	f198                	sd	a4,32(a1)
    800024b8:	4666                	lw	a2,88(sp)
    800024ba:	1354                	addi	a3,sp,420
    800024bc:	ad0cb16b          	0xad0cb16b
    800024c0:	a685                	j	80002820 <_end+0x210>
    800024c2:	c3e9                	beqz	a5,80002584 <test_memory+0x384>
    800024c4:	3840                	fld	fs0,176(s0)
    800024c6:	7c40                	ld	s0,184(s0)
    800024c8:	64ac                	ld	a1,72(s1)
    800024ca:	40c01d6f          	jal	s10,800038d6 <__global_pointer$+0xac6>
    800024ce:	089680bb          	0x89680bb
    800024d2:	d278                	sw	a4,100(a2)
    800024d4:	4fcc                	lw	a1,28(a5)
    800024d6:	aeb4                	fsd	fa3,88(a3)
    800024d8:	aff1                	j	80002cb4 <_end+0x6a4>
    800024da:	fc55                	bnez	s0,80002496 <test_memory+0x296>
    800024dc:	3812be0b          	0x3812be0b
    800024e0:	0b6c                	addi	a1,sp,412
    800024e2:	4c36                	lw	s8,76(sp)
    800024e4:	c0a6                	sw	s1,64(sp)
    800024e6:	97869c73          	csrrw	s8,0x978,a3
    800024ea:	a5c0fe2b          	0xa5c0fe2b
    800024ee:	436e                	lw	t1,216(sp)
    800024f0:	0b2c                	addi	a1,sp,408
    800024f2:	88ba                	mv	a7,a4
    800024f4:	81e5                	srli	a1,a1,0x19
    800024f6:	bc2a                	fsd	fa0,56(sp)
    800024f8:	d96a                	sw	s10,176(sp)
    800024fa:	0f2d                	addi	t5,t5,11
    800024fc:	f3a0                	sd	s0,96(a5)
    800024fe:	58b98223          	sb	a1,1412(s3) # ffffffffffff5584 <__global_pointer$+0xffffffff7fff2774>
    80002502:	93dd                	srli	a5,a5,0x37
    80002504:	e515                	bnez	a0,80002530 <test_memory+0x330>
    80002506:	f2ea                	sd	s10,352(sp)
    80002508:	f9b8                	sd	a4,112(a1)
    8000250a:	8096                	mv	ra,t0
    8000250c:	df7d                	beqz	a4,8000250a <test_memory+0x30a>
    8000250e:	b7e2                	fsd	fs8,488(sp)
    80002510:	c046                	sw	a7,0(sp)
    80002512:	1404                	addi	s1,sp,544
    80002514:	2423aa8b          	0x2423aa8b
    80002518:	3d60                	fld	fs0,248(a0)
    8000251a:	d920                	sw	s0,112(a0)
    8000251c:	2249                	addiw	tp,tp,18
    8000251e:	2af1                	addiw	s5,s5,28
    80002520:	652d                	lui	a0,0xb
    80002522:	6c52                	ld	s8,272(sp)
    80002524:	780c                	ld	a1,48(s0)
    80002526:	0fb8                	addi	a4,sp,984
    80002528:	1c19                	addi	s8,s8,-26
    8000252a:	074d4d8b          	0x74d4d8b
    8000252e:	7e55                	lui	t3,0xffff5
    80002530:	06fe                	slli	a3,a3,0x1f
    80002532:	d6f9                	beqz	a3,80002500 <test_memory+0x300>
    80002534:	c5d895b7          	lui	a1,0xc5d89
    80002538:	5d96                	lw	s11,100(sp)
    8000253a:	cdb3c4fb          	0xcdb3c4fb
    8000253e:	bdc9                	j	80002410 <test_memory+0x210>
    80002540:	03d9                	addi	t2,t2,22
    80002542:	36d6                	fld	fa3,368(sp)
    80002544:	1526                	slli	a0,a0,0x29
    80002546:	7b8a                	ld	s7,160(sp)
    80002548:	c4b955f7          	0xc4b955f7
    8000254c:	1e4a                	slli	t3,t3,0x32
    8000254e:	f7da                	sd	s6,488(sp)
    80002550:	ac00                	fsd	fs0,24(s0)
    80002552:	9bf8                	0x9bf8
    80002554:	c6cc                	sw	a1,12(a3)
    80002556:	c19d                	beqz	a1,8000257c <test_memory+0x37c>
    80002558:	f582                	sd	zero,232(sp)
    8000255a:	7c76                	ld	s8,376(sp)
    8000255c:	a505998b          	0xa505998b
    80002560:	7212baa7          	fsd	ft1,1845(t0)
    80002564:	a1a6                	fsd	fs1,192(sp)
    80002566:	5c22                	lw	s8,40(sp)
    80002568:	9f92                	add	t6,t6,tp
    8000256a:	96a9                	srai	a3,a3,0x2a
    8000256c:	c1d5                	beqz	a1,80002610 <_end>
    8000256e:	b5a2                	fsd	fs0,232(sp)
    80002570:	080e                	slli	a6,a6,0x3
    80002572:	810ea337          	lui	t1,0x810ea
    80002576:	70b5                	lui	ra,0xfffed
    80002578:	c335fccf          	fnmadd.d	fs9,fa1,fs3,fs8
    8000257c:	c5ff                	0xc5ff
    8000257e:	337e                	fld	ft6,504(sp)
    80002580:	c8d1                	beqz	s1,80002614 <_end+0x4>
    80002582:	9208                	0x9208
    80002584:	5cf1                	li	s9,-4
    80002586:	d074                	sw	a3,100(s0)
    80002588:	3c9e                	fld	fs9,480(sp)
    8000258a:	fcca                	sd	s2,120(sp)
    8000258c:	f010                	sd	a2,32(s0)
    8000258e:	7450                	ld	a2,168(s0)
    80002590:	ee7e                	sd	t6,280(sp)
    80002592:	2dce                	fld	fs11,208(sp)
    80002594:	6026                	0x6026
    80002596:	852a                	mv	a0,a0
    80002598:	ce1679db          	0xce1679db
    8000259c:	6f2fbc47          	fmsub.q	fs8,ft11,fs2,fa3,rup
    800025a0:	7d68                	ld	a0,248(a0)
    800025a2:	de04                	sw	s1,56(a2)
    800025a4:	8114                	0x8114
    800025a6:	e2bc                	sd	a5,64(a3)
    800025a8:	36c5                	addiw	a3,a3,-15
    800025aa:	d2da                	sw	s6,100(sp)
    800025ac:	dc62                	sw	s8,56(sp)
    800025ae:	ad91                	j	80002c02 <_end+0x5f2>
    800025b0:	ebba                	sd	a4,464(sp)
    800025b2:	809e0337          	lui	t1,0x809e0
    800025b6:	7434                	ld	a3,104(s0)
    800025b8:	2439                	addiw	s0,s0,14
    800025ba:	04b9                	addi	s1,s1,14
    800025bc:	ab1d                	j	80002af2 <_end+0x4e2>
    800025be:	d845                	beqz	s0,8000256e <test_memory+0x36e>
    800025c0:	ddce                	sw	s3,248(sp)
    800025c2:	0d98                	addi	a4,sp,720
    800025c4:	9942733b          	0x9942733b
    800025c8:	3438a823          	sw	gp,848(a7) # dd69f756 <__global_pointer$+0x5d69c946>
    800025cc:	d3f8                	sw	a4,100(a5)
    800025ce:	1e6d                	addi	t3,t3,-5
    800025d0:	ffb4d3bf 5beb3865 	0x5beb3865ffb4d3bf
    800025d8:	d731                	beqz	a4,80002524 <test_memory+0x324>
    800025da:	2e6a                	fld	ft8,152(sp)
    800025dc:	333c                	fld	fa5,96(a4)
    800025de:	c03a                	sw	a4,0(sp)
    800025e0:	9c3c                	0x9c3c
    800025e2:	c2d8                	sw	a4,4(a3)
    800025e4:	609c8437          	lui	s0,0x609c8
    800025e8:	d5c8                	sw	a0,44(a1)
    800025ea:	46e2                	lw	a3,24(sp)
    800025ec:	3d00323f 3395a09f 	0x3395a09f3d00323f
    800025f4:	2b455f53          	0x2b455f53
    800025f8:	46d9d43b          	0x46d9d43b
    800025fc:	23e5                	addiw	t2,t2,25
    800025fe:	e4c6                	sd	a7,72(sp)

0000000080002600 <loop_count>:
    80002600:	0040                	addi	s0,sp,4
	...

Disassembly of section .riscv.attributes:

0000000000000000 <.riscv.attributes>:
   0:	1e41                	addi	t3,t3,-16
   2:	0000                	unimp
   4:	7200                	ld	s0,32(a2)
   6:	7369                	lui	t1,0xffffa
   8:	01007663          	bgeu	zero,a6,14 <_start-0x7fffffec>
   c:	0014                	0x14
   e:	0000                	unimp
  10:	7205                	lui	tp,0xfffe1
  12:	3676                	fld	fa2,376(sp)
  14:	6934                	ld	a3,80(a0)
  16:	7032                	0x7032
  18:	5f30                	lw	a2,120(a4)
  1a:	326d                	addiw	tp,tp,-5
  1c:	3070                	fld	fa2,224(s0)
	...
