
build/test70:     file format elf64-littleriscv


Disassembly of section .text.init:

0000000080000000 <_start>:
    80000000:	05c0006f          	j	8000005c <reset_vector>

0000000080000004 <trap_vector>:
    80000004:	34202f73          	csrr	t5,mcause
    80000008:	00800f93          	li	t6,8
    8000000c:	03ff0a63          	beq	t5,t6,80000040 <write_tohost>
    80000010:	00900f93          	li	t6,9
    80000014:	03ff0663          	beq	t5,t6,80000040 <write_tohost>
    80000018:	00b00f93          	li	t6,11
    8000001c:	03ff0263          	beq	t5,t6,80000040 <write_tohost>
    80000020:	80000f17          	auipc	t5,0x80000
    80000024:	fe0f0f13          	addi	t5,t5,-32 # 0 <_start-0x80000000>
    80000028:	000f0463          	beqz	t5,80000030 <trap_vector+0x2c>
    8000002c:	000f0067          	jr	t5
    80000030:	34202f73          	csrr	t5,mcause
    80000034:	000f5463          	bgez	t5,8000003c <handle_exception>
    80000038:	0040006f          	j	8000003c <handle_exception>

000000008000003c <handle_exception>:
    8000003c:	5391e193          	ori	gp,gp,1337

0000000080000040 <write_tohost>:
    80000040:	00001f17          	auipc	t5,0x1
    80000044:	fc3f2023          	sw	gp,-64(t5) # 80001000 <tohost>
    80000048:	000902b7          	lui	t0,0x90
    8000004c:	0012829b          	addiw	t0,t0,1
    80000050:	00c29293          	slli	t0,t0,0xc
    80000054:	0002af83          	lw	t6,0(t0) # 90000 <_start-0x7ff70000>
    80000058:	fe9ff06f          	j	80000040 <write_tohost>

000000008000005c <reset_vector>:
    8000005c:	00000093          	li	ra,0
    80000060:	00000113          	li	sp,0
    80000064:	00000193          	li	gp,0
    80000068:	00000213          	li	tp,0
    8000006c:	00000293          	li	t0,0
    80000070:	00000313          	li	t1,0
    80000074:	00000393          	li	t2,0
    80000078:	00000413          	li	s0,0
    8000007c:	00000493          	li	s1,0
    80000080:	00000513          	li	a0,0
    80000084:	00000593          	li	a1,0
    80000088:	00000613          	li	a2,0
    8000008c:	00000693          	li	a3,0
    80000090:	00000713          	li	a4,0
    80000094:	00000793          	li	a5,0
    80000098:	00000813          	li	a6,0
    8000009c:	00000893          	li	a7,0
    800000a0:	00000913          	li	s2,0
    800000a4:	00000993          	li	s3,0
    800000a8:	00000a13          	li	s4,0
    800000ac:	00000a93          	li	s5,0
    800000b0:	00000b13          	li	s6,0
    800000b4:	00000b93          	li	s7,0
    800000b8:	00000c13          	li	s8,0
    800000bc:	00000c93          	li	s9,0
    800000c0:	00000d13          	li	s10,0
    800000c4:	00000d93          	li	s11,0
    800000c8:	00000e13          	li	t3,0
    800000cc:	00000e93          	li	t4,0
    800000d0:	00000f13          	li	t5,0
    800000d4:	00000f93          	li	t6,0
    800000d8:	f1402573          	csrr	a0,mhartid
    800000dc:	00051063          	bnez	a0,800000dc <reset_vector+0x80>
    800000e0:	00000297          	auipc	t0,0x0
    800000e4:	01028293          	addi	t0,t0,16 # 800000f0 <reset_vector+0x94>
    800000e8:	30529073          	csrw	mtvec,t0
    800000ec:	18005073          	csrwi	satp,0
    800000f0:	00000297          	auipc	t0,0x0
    800000f4:	02428293          	addi	t0,t0,36 # 80000114 <reset_vector+0xb8>
    800000f8:	30529073          	csrw	mtvec,t0
    800000fc:	0010029b          	addiw	t0,zero,1
    80000100:	03529293          	slli	t0,t0,0x35
    80000104:	fff28293          	addi	t0,t0,-1
    80000108:	3b029073          	csrw	pmpaddr0,t0
    8000010c:	01f00293          	li	t0,31
    80000110:	3a029073          	csrw	pmpcfg0,t0
    80000114:	30405073          	csrwi	mie,0
    80000118:	00000297          	auipc	t0,0x0
    8000011c:	01428293          	addi	t0,t0,20 # 8000012c <reset_vector+0xd0>
    80000120:	30529073          	csrw	mtvec,t0
    80000124:	30205073          	csrwi	medeleg,0
    80000128:	30305073          	csrwi	mideleg,0
    8000012c:	00000193          	li	gp,0
    80000130:	00000297          	auipc	t0,0x0
    80000134:	ed428293          	addi	t0,t0,-300 # 80000004 <trap_vector>
    80000138:	30529073          	csrw	mtvec,t0
    8000013c:	00100513          	li	a0,1
    80000140:	01f51513          	slli	a0,a0,0x1f
    80000144:	00055c63          	bgez	a0,8000015c <reset_vector+0x100>
    80000148:	0ff0000f          	fence
    8000014c:	00100193          	li	gp,1
    80000150:	05d00893          	li	a7,93
    80000154:	00000513          	li	a0,0
    80000158:	00000073          	ecall
    8000015c:	80000297          	auipc	t0,0x80000
    80000160:	ea428293          	addi	t0,t0,-348 # 0 <_start-0x80000000>
    80000164:	00028a63          	beqz	t0,80000178 <reset_vector+0x11c>
    80000168:	10529073          	csrw	stvec,t0
    8000016c:	0000b2b7          	lui	t0,0xb
    80000170:	1092829b          	addiw	t0,t0,265
    80000174:	30229073          	csrw	medeleg,t0
    80000178:	30005073          	csrwi	mstatus,0
    8000017c:	00000297          	auipc	t0,0x0
    80000180:	01428293          	addi	t0,t0,20 # 80000190 <reset_vector+0x134>
    80000184:	34129073          	csrw	mepc,t0
    80000188:	f1402573          	csrr	a0,mhartid
    8000018c:	30200073          	mret
    80000190:	0200006f          	j	800001b0 <test_start>

0000000080000194 <crash_backward>:
    80000194:	0ff0000f          	fence
    80000198:	00018063          	beqz	gp,80000198 <crash_backward+0x4>
    8000019c:	00119193          	slli	gp,gp,0x1
    800001a0:	0011e193          	ori	gp,gp,1
    800001a4:	05d00893          	li	a7,93
    800001a8:	00018513          	mv	a0,gp
    800001ac:	00000073          	ecall

00000000800001b0 <test_start>:
    800001b0:	00002f97          	auipc	t6,0x2
    800001b4:	e50f8f93          	addi	t6,t6,-432 # 80002000 <hidden_data>
    800001b8:	000fb003          	ld	zero,0(t6)
    800001bc:	008fb083          	ld	ra,8(t6)
    800001c0:	010fb103          	ld	sp,16(t6)
    800001c4:	018fb183          	ld	gp,24(t6)
    800001c8:	020fb203          	ld	tp,32(t6)
    800001cc:	028fb283          	ld	t0,40(t6)
    800001d0:	030fb303          	ld	t1,48(t6)
    800001d4:	038fb383          	ld	t2,56(t6)
    800001d8:	040fb403          	ld	s0,64(t6)
    800001dc:	048fb483          	ld	s1,72(t6)
    800001e0:	050fb503          	ld	a0,80(t6)
    800001e4:	058fb583          	ld	a1,88(t6)
    800001e8:	060fb603          	ld	a2,96(t6)
    800001ec:	068fb683          	ld	a3,104(t6)
    800001f0:	070fb703          	ld	a4,112(t6)
    800001f4:	078fb783          	ld	a5,120(t6)
    800001f8:	080fb803          	ld	a6,128(t6)
    800001fc:	088fb883          	ld	a7,136(t6)
    80000200:	090fb903          	ld	s2,144(t6)
    80000204:	098fb983          	ld	s3,152(t6)
    80000208:	0a0fba03          	ld	s4,160(t6)
    8000020c:	0a8fba83          	ld	s5,168(t6)
    80000210:	0b0fbb03          	ld	s6,176(t6)
    80000214:	0b8fbb83          	ld	s7,184(t6)
    80000218:	0c0fbc03          	ld	s8,192(t6)
    8000021c:	0c8fbc83          	ld	s9,200(t6)
    80000220:	0d0fbd03          	ld	s10,208(t6)
    80000224:	0d8fbd83          	ld	s11,216(t6)
    80000228:	0e0fbe03          	ld	t3,224(t6)
    8000022c:	0e8fbe83          	ld	t4,232(t6)
    80000230:	0f0fbf03          	ld	t5,240(t6)
    80000234:	0f8fbf83          	ld	t6,248(t6)
    80000238:	0040006f          	j	8000023c <pseg_0>

000000008000023c <pseg_0>:
    8000023c:	77800813          	li	a6,1912
    80000240:	42025613          	srai	a2,tp,0x20
    80000244:	20b00593          	li	a1,523
    80000248:	ccc00513          	li	a0,-820
    8000024c:	00002797          	auipc	a5,0x2
    80000250:	42978793          	addi	a5,a5,1065 # 80002675 <_end+0x65>
    80000254:	01e2bab3          	sltu	s5,t0,t5
    80000258:	02a859bb          	divuw	s3,a6,a0
    8000025c:	b7800b13          	li	s6,-1160
    80000260:	e8d00313          	li	t1,-371
    80000264:	3f300d93          	li	s11,1011
    80000268:	ecd00713          	li	a4,-307
    8000026c:	014a0c33          	add	s8,s4,s4
    80000270:	6af00e93          	li	t4,1711
    80000274:	00100c13          	li	s8,1
    80000278:	de979f83          	lh	t6,-535(a5)
    8000027c:	b6700393          	li	t2,-1177
    80000280:	0010de3b          	srlw	t3,ra,ra
    80000284:	7cd00193          	li	gp,1997
    80000288:	023ed4b3          	divu	s1,t4,gp
    8000028c:	03fc1c13          	slli	s8,s8,0x3f
    80000290:	38700a13          	li	s4,903
    80000294:	016b22b3          	slt	t0,s6,s6
    80000298:	034388bb          	mulw	a7,t2,s4
    8000029c:	06d00113          	li	sp,109
    800002a0:	006356b3          	srl	a3,t1,t1
    800002a4:	00002497          	auipc	s1,0x2
    800002a8:	f1148493          	addi	s1,s1,-239 # 800021b5 <reg_x22_output+0x5>
    800002ac:	3bf00c93          	li	s9,959
    800002b0:	3ef00293          	li	t0,1007
    800002b4:	00002897          	auipc	a7,0x2
    800002b8:	43d88893          	addi	a7,a7,1085 # 800026f1 <_end+0xe1>
    800002bc:	74500413          	li	s0,1861
    800002c0:	fceb0b1b          	addiw	s6,s6,-50
    800002c4:	00210bb3          	add	s7,sp,sp
    800002c8:	00002797          	auipc	a5,0x2
    800002cc:	56c78793          	addi	a5,a5,1388 # 80002834 <_end+0x224>
    800002d0:	00416533          	or	a0,sp,tp
    800002d4:	63f00313          	li	t1,1599
    800002d8:	bca70d13          	addi	s10,a4,-1078
    800002dc:	eaed5ce3          	bge	s10,a4,80000194 <crash_backward>
    800002e0:	40c60b3b          	subw	s6,a2,a2
    800002e4:	c7a7ce83          	lbu	t4,-902(a5)
    800002e8:	00630a3b          	addw	s4,t1,t1
    800002ec:	0395f233          	remu	tp,a1,s9
    800002f0:	102bf713          	andi	a4,s7,258
    800002f4:	59000f13          	li	t5,1424
    800002f8:	03bdf93b          	remuw	s2,s11,s11
    800002fc:	025283bb          	mulw	t2,t0,t0
    80000300:	000b8313          	mv	t1,s7
    80000304:	74600213          	li	tp,1862
    80000308:	21b4bf83          	ld	t6,539(s1)
    8000030c:	ec600a13          	li	s4,-314
    80000310:	13d00e93          	li	t4,317
    80000314:	bca88683          	lb	a3,-1078(a7)
    80000318:	00f78fb3          	add	t6,a5,a5
    8000031c:	004235b3          	sltu	a1,tp,tp
    80000320:	01e450b3          	srl	ra,s0,t5
    80000324:	41840633          	sub	a2,s0,s8
    80000328:	01b85493          	srli	s1,a6,0x1b
    8000032c:	e1aa0513          	addi	a0,s4,-486
    80000330:	b1000693          	li	a3,-1264
    80000334:	0340dbb3          	divu	s7,ra,s4
    80000338:	fff00993          	li	s3,-1
    8000033c:	1b500413          	li	s0,437
    80000340:	86c00093          	li	ra,-1940
    80000344:	00d69dbb          	sllw	s11,a3,a3
    80000348:	0189c9b3          	xor	s3,s3,s8
    8000034c:	00003197          	auipc	gp,0x3
    80000350:	85a18193          	addi	gp,gp,-1958 # 80002ba6 <_end+0x596>
    80000354:	c891a493          	slti	s1,gp,-887
    80000358:	00002717          	auipc	a4,0x2
    8000035c:	01570713          	addi	a4,a4,21 # 8000236d <test_memory+0x16d>
    80000360:	1f400f93          	li	t6,500
    80000364:	7e9f8613          	addi	a2,t6,2025
    80000368:	9301de03          	lhu	t3,-1744(gp) # 80002740 <_end+0x130>
    8000036c:	24400793          	li	a5,580
    80000370:	6e800893          	li	a7,1768
    80000374:	79800d13          	li	s10,1944
    80000378:	03deeb3b          	remw	s6,t4,t4
    8000037c:	00002e17          	auipc	t3,0x2
    80000380:	756e0e13          	addi	t3,t3,1878 # 80002ad2 <_end+0x4c2>
    80000384:	00010593          	mv	a1,sp
    80000388:	b6cfc693          	xori	a3,t6,-1172
    8000038c:	f0373283          	ld	t0,-253(a4)
    80000390:	a53e2123          	sw	s3,-1470(t3)
    80000394:	00058f13          	mv	t5,a1
    80000398:	de001ee3          	bnez	zero,80000194 <crash_backward>
    8000039c:	fd700493          	li	s1,-41
    800003a0:	00030c93          	mv	s9,t1
    800003a4:	b9f00b13          	li	s6,-1121
    800003a8:	4014023b          	subw	tp,s0,ra
    800003ac:	013cf833          	and	a6,s9,s3
    800003b0:	41d85d9b          	sraiw	s11,a6,0x1d
    800003b4:	62900e13          	li	t3,1577
    800003b8:	95900393          	li	t2,-1703
    800003bc:	e8048b93          	addi	s7,s1,-384
    800003c0:	41a7d13b          	sraw	sp,a5,s10
    800003c4:	dde5e8e3          	bltu	a1,t5,80000194 <crash_backward>
    800003c8:	00002717          	auipc	a4,0x2
    800003cc:	2a070713          	addi	a4,a4,672 # 80002668 <_end+0x58>
    800003d0:	02464233          	div	tp,a2,tp
    800003d4:	e2a00693          	li	a3,-470
    800003d8:	325e0293          	addi	t0,t3,805
    800003dc:	0078c933          	xor	s2,a7,t2
    800003e0:	ba073a03          	ld	s4,-1120(a4)
    800003e4:	00000713          	li	a4,0
    800003e8:	03de3233          	mulhu	tp,t3,t4
    800003ec:	5f931663          	bne	t1,s9,800009d8 <crash_forward>
    800003f0:	03451f33          	mulh	t5,a0,s4
    800003f4:	0079179b          	slliw	a5,s2,0x7
    800003f8:	00002597          	auipc	a1,0x2
    800003fc:	3dd58593          	addi	a1,a1,989 # 800027d5 <_end+0x1c5>
    80000400:	4363db93          	srai	s7,t2,0x36
    80000404:	67b00093          	li	ra,1659
    80000408:	e7c00293          	li	t0,-388
    8000040c:	0252ed33          	rem	s10,t0,t0
    80000410:	01886ab3          	or	s5,a6,s8
    80000414:	0139a133          	slt	sp,s3,s3
    80000418:	28f00d93          	li	s11,655
    8000041c:	9ed00313          	li	t1,-1555
    80000420:	00f917b3          	sll	a5,s2,a5
    80000424:	4e300913          	li	s2,1251
    80000428:	00000393          	li	t2,0
    8000042c:	b1800c93          	li	s9,-1256
    80000430:	ebe00113          	li	sp,-322
    80000434:	00002897          	auipc	a7,0x2
    80000438:	17388893          	addi	a7,a7,371 # 800025a7 <test_memory+0x3a7>
    8000043c:	021081b3          	mul	gp,ra,ra
    80000440:	38d00493          	li	s1,909
    80000444:	03500293          	li	t0,53
    80000448:	03f8d1b3          	divu	gp,a7,t6
    8000044c:	590ad663          	bge	s5,a6,800009d8 <crash_forward>
    80000450:	00002f17          	auipc	t5,0x2
    80000454:	e00f0f13          	addi	t5,t5,-512 # 80002250 <test_memory+0x50>
    80000458:	02997fb3          	remu	t6,s2,s1
    8000045c:	0598b4a3          	sd	s9,73(a7)
    80000460:	41930233          	sub	tp,t1,s9
    80000464:	bba00513          	li	a0,-1094
    80000468:	e215ca03          	lbu	s4,-479(a1)
    8000046c:	0216c433          	div	s0,a3,ra
    80000470:	72400613          	li	a2,1828
    80000474:	08ef0d03          	lb	s10,142(t5)
    80000478:	00ab7eb3          	and	t4,s6,a0
    8000047c:	403cd7bb          	sraw	a5,s9,gp
    80000480:	02514bbb          	divw	s7,sp,t0
    80000484:	00cd8e3b          	addw	t3,s11,a2
    80000488:	d07746e3          	blt	a4,t2,80000194 <crash_backward>
    8000048c:	c9700c93          	li	s9,-873
    80000490:	00038893          	mv	a7,t2
    80000494:	fe600513          	li	a0,-26
    80000498:	03bdc3b3          	div	t2,s11,s11
    8000049c:	81e00f13          	li	t5,-2018
    800004a0:	f74c8593          	addi	a1,s9,-140
    800004a4:	00f79e3b          	sllw	t3,a5,a5
    800004a8:	88400413          	li	s0,-1916
    800004ac:	26800d13          	li	s10,616
    800004b0:	00100193          	li	gp,1
    800004b4:	55f00e93          	li	t4,1375
    800004b8:	2ac00293          	li	t0,684
    800004bc:	92100713          	li	a4,-1759
    800004c0:	0252833b          	mulw	t1,t0,t0
    800004c4:	00088613          	mv	a2,a7
    800004c8:	02e70fbb          	mulw	t6,a4,a4
    800004cc:	4b4d0a93          	addi	s5,s10,1204
    800004d0:	2d700093          	li	ra,727
    800004d4:	00948fbb          	addw	t6,s1,s1
    800004d8:	98c00a13          	li	s4,-1652
    800004dc:	6ca00913          	li	s2,1738
    800004e0:	014f06b3          	add	a3,t5,s4
    800004e4:	01247233          	and	tp,s0,s2
    800004e8:	d5300993          	li	s3,-685
    800004ec:	03f348b3          	div	a7,t1,t6
    800004f0:	1c600693          	li	a3,454
    800004f4:	013ed7bb          	srlw	a5,t4,s3
    800004f8:	034b5933          	divu	s2,s6,s4
    800004fc:	d7d00f93          	li	t6,-643
    80000500:	00100a93          	li	s5,1
    80000504:	01f81433          	sll	s0,a6,t6
    80000508:	c80066e3          	bltu	zero,zero,80000194 <crash_backward>
    8000050c:	71200d13          	li	s10,1810
    80000510:	03fa9a93          	slli	s5,s5,0x3f
    80000514:	b4e00493          	li	s1,-1202
    80000518:	e3d00d93          	li	s11,-451
    8000051c:	01b4db3b          	srlw	s6,s1,s11
    80000520:	fff00e13          	li	t3,-1
    80000524:	aba00a13          	li	s4,-1350
    80000528:	d0d00293          	li	t0,-755
    8000052c:	03f19193          	slli	gp,gp,0x3f
    80000530:	00a53bb3          	sltu	s7,a0,a0
    80000534:	fff00113          	li	sp,-1
    80000538:	03ad5cbb          	divuw	s9,s10,s10
    8000053c:	4f300213          	li	tp,1267
    80000540:	59220613          	addi	a2,tp,1426 # 592 <_start-0x7ffffa6e>
    80000544:	015e4e33          	xor	t3,t3,s5
    80000548:	00314133          	xor	sp,sp,gp
    8000054c:	0146af33          	slt	t5,a3,s4
    80000550:	0050933b          	sllw	t1,ra,t0
    80000554:	01c2f3b3          	and	t2,t0,t3
    80000558:	0029f833          	and	a6,s3,sp
    8000055c:	f2400313          	li	t1,-220
    80000560:	406308b3          	sub	a7,t1,t1
    80000564:	72600d13          	li	s10,1830
    80000568:	0069f533          	and	a0,s3,t1
    8000056c:	41ad5dbb          	sraw	s11,s10,s10
    80000570:	82ef8593          	addi	a1,t6,-2002
    80000574:	021e37b3          	mulhu	a5,t3,ra
    80000578:	8db00493          	li	s1,-1829
    8000057c:	44bfee63          	bltu	t6,a1,800009d8 <crash_forward>
    80000580:	a2952e93          	slti	t4,a0,-1495
    80000584:	01be5093          	srli	ra,t3,0x1b
    80000588:	00002217          	auipc	tp,0x2
    8000058c:	3e720213          	addi	tp,tp,999 # 8000296f <_end+0x35f>
    80000590:	77f00d93          	li	s11,1919
    80000594:	cb400b93          	li	s7,-844
    80000598:	01726fb3          	or	t6,tp,s7
    8000059c:	45a00613          	li	a2,1114
    800005a0:	04c00693          	li	a3,76
    800005a4:	01536733          	or	a4,t1,s5
    800005a8:	40c65a33          	sra	s4,a2,a2
    800005ac:	00002e97          	auipc	t4,0x2
    800005b0:	905e8e93          	addi	t4,t4,-1787 # 80001eb1 <fromhost+0xe71>
    800005b4:	fa500293          	li	t0,-91
    800005b8:	01623933          	sltu	s2,tp,s6
    800005bc:	79b00593          	li	a1,1947
    800005c0:	033b473b          	divw	a4,s6,s3
    800005c4:	f4300b13          	li	s6,-189
    800005c8:	93c22aa3          	sw	t3,-1739(tp) # fffffffffffff935 <__global_pointer$+0xffffffff7fffcb25>
    800005cc:	0174df3b          	srlw	t5,s1,s7
    800005d0:	5f0ea5a3          	sw	a6,1515(t4)
    800005d4:	16900893          	li	a7,361
    800005d8:	65288a93          	addi	s5,a7,1618
    800005dc:	79900913          	li	s2,1945
    800005e0:	00386c33          	or	s8,a6,gp
    800005e4:	02d6d9b3          	divu	s3,a3,a3
    800005e8:	8b828c93          	addi	s9,t0,-1864
    800005ec:	00100f93          	li	t6,1
    800005f0:	03ad4e3b          	divw	t3,s10,s10
    800005f4:	06200513          	li	a0,98
    800005f8:	03ff9f93          	slli	t6,t6,0x3f
    800005fc:	fedb0413          	addi	s0,s6,-19
    80000600:	b9588ae3          	beq	a7,s5,80000194 <crash_backward>
    80000604:	01296a33          	or	s4,s2,s2
    80000608:	03bd80b3          	mul	ra,s11,s11
    8000060c:	fff00613          	li	a2,-1
    80000610:	b90c62e3          	bltu	s8,a6,80000194 <crash_backward>
    80000614:	00002a17          	auipc	s4,0x2
    80000618:	f90a0a13          	addi	s4,s4,-112 # 800025a4 <test_memory+0x3a4>
    8000061c:	03ec9bb3          	mulh	s7,s9,t5
    80000620:	411159bb          	sraw	s3,sp,a7
    80000624:	00030493          	mv	s1,t1
    80000628:	03bdd8bb          	divuw	a7,s11,s11
    8000062c:	01d8d21b          	srliw	tp,a7,0x1d
    80000630:	3b92e463          	bltu	t0,s9,800009d8 <crash_forward>
    80000634:	03217eb3          	remu	t4,sp,s2
    80000638:	e72a2623          	sw	s2,-404(s4)
    8000063c:	6cb00393          	li	t2,1739
    80000640:	00048093          	mv	ra,s1
    80000644:	01f64633          	xor	a2,a2,t6
    80000648:	54000a93          	li	s5,1344
    8000064c:	28c00693          	li	a3,652
    80000650:	00c177b3          	and	a5,sp,a2
    80000654:	01f7e333          	or	t1,a5,t6
    80000658:	b3647ee3          	bgeu	s0,s6,80000194 <crash_backward>
    8000065c:	00d6adb3          	slt	s11,a3,a3
    80000660:	0cc00f13          	li	t5,204
    80000664:	01eae733          	or	a4,s5,t5
    80000668:	0273a933          	mulhsu	s2,t2,t2
    8000066c:	b2f364e3          	bltu	t1,a5,80000194 <crash_backward>
    80000670:	3614e463          	bltu	s1,ra,800009d8 <crash_forward>
    80000674:	00b0ae33          	slt	t3,ra,a1
    80000678:	00a5dd33          	srl	s10,a1,a0
    8000067c:	55000293          	li	t0,1360
    80000680:	01381abb          	sllw	s5,a6,s3
    80000684:	0227fc3b          	remuw	s8,a5,sp
    80000688:	00000e13          	li	t3,0
    8000068c:	000c0c93          	mv	s9,s8
    80000690:	6b000213          	li	tp,1712
    80000694:	000470b3          	and	ra,s0,zero
    80000698:	2ce00713          	li	a4,718
    8000069c:	32006e63          	bltu	zero,zero,800009d8 <crash_forward>
    800006a0:	93900a13          	li	s4,-1735
    800006a4:	02729793          	slli	a5,t0,0x27
    800006a8:	d8a00813          	li	a6,-630
    800006ac:	428cdd13          	srai	s10,s9,0x28
    800006b0:	00000513          	li	a0,0
    800006b4:	b0800313          	li	t1,-1272
    800006b8:	00001117          	auipc	sp,0x1
    800006bc:	49d10113          	addi	sp,sp,1181 # 80001b55 <fromhost+0xb15>
    800006c0:	76315483          	lhu	s1,1891(sp)
    800006c4:	0142d5bb          	srlw	a1,t0,s4
    800006c8:	006839b3          	sltu	s3,a6,t1
    800006cc:	02e20ebb          	mulw	t4,tp,a4
    800006d0:	f7600d93          	li	s11,-138
    800006d4:	84400693          	li	a3,-1980
    800006d8:	00100b93          	li	s7,1
    800006dc:	014b72b3          	and	t0,s6,s4
    800006e0:	00001317          	auipc	t1,0x1
    800006e4:	67430313          	addi	t1,t1,1652 # 80001d54 <fromhost+0xd14>
    800006e8:	70435803          	lhu	a6,1796(t1)
    800006ec:	2eae6663          	bltu	t3,a0,800009d8 <crash_forward>
    800006f0:	00002a97          	auipc	s5,0x2
    800006f4:	412a8a93          	addi	s5,s5,1042 # 80002b02 <_end+0x4f2>
    800006f8:	000c8193          	mv	gp,s9
    800006fc:	00002d17          	auipc	s10,0x2
    80000700:	330d0d13          	addi	s10,s10,816 # 80002a2c <_end+0x41c>
    80000704:	00001497          	auipc	s1,0x1
    80000708:	7cb48493          	addi	s1,s1,1995 # 80001ecf <fromhost+0xe8f>
    8000070c:	e3c00f13          	li	t5,-452
    80000710:	41e6d933          	sra	s2,a3,t5
    80000714:	03fb9b93          	slli	s7,s7,0x3f
    80000718:	46700393          	li	t2,1127
    8000071c:	0339b833          	mulhu	a6,s3,s3
    80000720:	26100513          	li	a0,609
    80000724:	027dfb33          	remu	s6,s11,t2
    80000728:	34e00e13          	li	t3,846
    8000072c:	c8f00293          	li	t0,-881
    80000730:	81800993          	li	s3,-2024
    80000734:	00020213          	mv	tp,tp
    80000738:	00020e93          	mv	t4,tp
    8000073c:	4187d63b          	sraw	a2,a5,s8
    80000740:	0052c333          	xor	t1,t0,t0
    80000744:	00002117          	auipc	sp,0x2
    80000748:	dab10113          	addi	sp,sp,-597 # 800024ef <test_memory+0x2ef>
    8000074c:	29d21663          	bne	tp,t4,800009d8 <crash_forward>
    80000750:	fff00413          	li	s0,-1
    80000754:	01086f33          	or	t5,a6,a6
    80000758:	a88d6783          	lwu	a5,-1400(s10)
    8000075c:	263cee63          	bltu	s9,gp,800009d8 <crash_forward>
    80000760:	00001097          	auipc	ra,0x1
    80000764:	4ae08093          	addi	ra,ra,1198 # 80001c0e <fromhost+0xbce>
    80000768:	960ada03          	lhu	s4,-1696(s5)
    8000076c:	079b8693          	addi	a3,s7,121
    80000770:	651085a3          	sb	a7,1611(ra)
    80000774:	d6910583          	lb	a1,-663(sp)
    80000778:	01744433          	xor	s0,s0,s7
    8000077c:	29400c13          	li	s8,660
    80000780:	0189d733          	srl	a4,s3,s8
    80000784:	01c57933          	and	s2,a0,t3
    80000788:	5ee492a3          	sh	a4,1509(s1)
    8000078c:	8d200993          	li	s3,-1838
    80000790:	03aca1b3          	mulhsu	gp,s9,s10
    80000794:	43900293          	li	t0,1081
    80000798:	00100b13          	li	s6,1
    8000079c:	008dffb3          	and	t6,s11,s0
    800007a0:	017fe8b3          	or	a7,t6,s7
    800007a4:	00b11a3b          	sllw	s4,sp,a1
    800007a8:	47328c93          	addi	s9,t0,1139
    800007ac:	0339b333          	mulhu	t1,s3,s3
    800007b0:	03fb1b13          	slli	s6,s6,0x3f
    800007b4:	fff00693          	li	a3,-1
    800007b8:	0166c6b3          	xor	a3,a3,s6
    800007bc:	00dcf233          	and	tp,s9,a3
    800007c0:	01656133          	or	sp,a0,s6
    800007c4:	14700f13          	li	t5,327
    800007c8:	01ef1833          	sll	a6,t5,t5
    800007cc:	20100f13          	li	t5,513
    800007d0:	9c0042e3          	bltz	zero,80000194 <crash_backward>
    800007d4:	84a00e13          	li	t3,-1974
    800007d8:	00000293          	li	t0,0
    800007dc:	00529db3          	sll	s11,t0,t0
    800007e0:	00000713          	li	a4,0
    800007e4:	84900513          	li	a0,-1975
    800007e8:	cbe00913          	li	s2,-834
    800007ec:	4094d99b          	sraiw	s3,s1,0x9
    800007f0:	98f50893          	addi	a7,a0,-1649
    800007f4:	01ef1d3b          	sllw	s10,t5,t5
    800007f8:	e8400b93          	li	s7,-380
    800007fc:	75700193          	li	gp,1879
    80000800:	84400c13          	li	s8,-1980
    80000804:	f85c0593          	addi	a1,s8,-123
    80000808:	00000f13          	li	t5,0
    8000080c:	017e3633          	sltu	a2,t3,s7
    80000810:	4031d83b          	sraw	a6,gp,gp
    80000814:	14900d93          	li	s11,329
    80000818:	00000993          	li	s3,0
    8000081c:	01bd90b3          	sll	ra,s11,s11
    80000820:	00002f97          	auipc	t6,0x2
    80000824:	43df8f93          	addi	t6,t6,1085 # 80002c5d <_end+0x64d>
    80000828:	964166e3          	bltu	sp,tp,80000194 <crash_backward>
    8000082c:	1b3f6663          	bltu	t5,s3,800009d8 <crash_forward>
    80000830:	4d500c13          	li	s8,1237
    80000834:	01b17833          	and	a6,sp,s11
    80000838:	9c000393          	li	t2,-1600
    8000083c:	3e400513          	li	a0,996
    80000840:	00002717          	auipc	a4,0x2
    80000844:	d4470713          	addi	a4,a4,-700 # 80002584 <test_memory+0x384>
    80000848:	24d00d13          	li	s10,589
    8000084c:	cbb00a13          	li	s4,-837
    80000850:	bba00793          	li	a5,-1094
    80000854:	00100b13          	li	s6,1
    80000858:	0343e333          	rem	t1,t2,s4
    8000085c:	28200e93          	li	t4,642
    80000860:	f2770283          	lb	t0,-217(a4)
    80000864:	00002597          	auipc	a1,0x2
    80000868:	ea758593          	addi	a1,a1,-345 # 8000270b <_end+0xfb>
    8000086c:	011bddbb          	srlw	s11,s7,a7
    80000870:	03a52233          	mulhsu	tp,a0,s10
    80000874:	d075a0a3          	sw	t2,-767(a1)
    80000878:	01d78433          	add	s0,a5,t4
    8000087c:	ccd90493          	addi	s1,s2,-819
    80000880:	96900993          	li	s3,-1687
    80000884:	0139d8b3          	srl	a7,s3,s3
    80000888:	03fb1b13          	slli	s6,s6,0x3f
    8000088c:	fff00b93          	li	s7,-1
    80000890:	63800193          	li	gp,1592
    80000894:	023c6e33          	rem	t3,s8,gp
    80000898:	14996063          	bltu	s2,s1,800009d8 <crash_forward>
    8000089c:	00001a97          	auipc	s5,0x1
    800008a0:	780a8a93          	addi	s5,s5,1920 # 8000201c <reg_x3_init+0x4>
    800008a4:	48ca8a23          	sb	a2,1172(s5)
    800008a8:	853fbc83          	ld	s9,-1965(t6)
    800008ac:	016bcbb3          	xor	s7,s7,s6
    800008b0:	01747633          	and	a2,s0,s7
    800008b4:	12001263          	bnez	zero,800009d8 <crash_forward>
    800008b8:	01666f33          	or	t5,a2,s6
    800008bc:	01297533          	and	a0,s2,s2
    800008c0:	aef00893          	li	a7,-1297
    800008c4:	a7d7f713          	andi	a4,a5,-1411
    800008c8:	00100413          	li	s0,1
    800008cc:	00100993          	li	s3,1
    800008d0:	94c00693          	li	a3,-1716
    800008d4:	00f7b3b3          	sltu	t2,a5,a5
    800008d8:	02d6f7bb          	remuw	a5,a3,a3
    800008dc:	03188cb3          	mul	s9,a7,a7
    800008e0:	00100093          	li	ra,1
    800008e4:	a7c00a13          	li	s4,-1412
    800008e8:	e0fa0193          	addi	gp,s4,-497
    800008ec:	03f09093          	slli	ra,ra,0x3f
    800008f0:	0153911b          	slliw	sp,t2,0x15
    800008f4:	fff00213          	li	tp,-1
    800008f8:	03f99993          	slli	s3,s3,0x3f
    800008fc:	02e75933          	divu	s2,a4,a4
    80000900:	00124233          	xor	tp,tp,ra
    80000904:	fff00813          	li	a6,-1
    80000908:	01384833          	xor	a6,a6,s3
    8000090c:	010df5b3          	and	a1,s11,a6
    80000910:	0d41d463          	bge	gp,s4,800009d8 <crash_forward>
    80000914:	03f41413          	slli	s0,s0,0x3f
    80000918:	004ff2b3          	and	t0,t6,tp
    8000091c:	0135edb3          	or	s11,a1,s3
    80000920:	fff00e13          	li	t3,-1
    80000924:	008e4e33          	xor	t3,t3,s0
    80000928:	0012e333          	or	t1,t0,ra
    8000092c:	01c8ffb3          	and	t6,a7,t3
    80000930:	008feab3          	or	s5,t6,s0
    80000934:	0040006f          	j	80000938 <reg_dump>

0000000080000938 <reg_dump>:
    80000938:	00002097          	auipc	ra,0x2
    8000093c:	cc808093          	addi	ra,ra,-824 # 80002600 <loop_count>
    80000940:	0000a103          	lw	sp,0(ra)
    80000944:	fff10193          	addi	gp,sp,-1
    80000948:	0030a023          	sw	gp,0(ra)
    8000094c:	8e0118e3          	bnez	sp,8000023c <pseg_0>
    80000950:	00001097          	auipc	ra,0x1
    80000954:	7b008093          	addi	ra,ra,1968 # 80002100 <begin_signature>
    80000958:	0000b023          	sd	zero,0(ra)
    8000095c:	0020b823          	sd	sp,16(ra)
    80000960:	0030bc23          	sd	gp,24(ra)
    80000964:	0240b023          	sd	tp,32(ra)
    80000968:	0250b423          	sd	t0,40(ra)
    8000096c:	0260b823          	sd	t1,48(ra)
    80000970:	0270bc23          	sd	t2,56(ra)
    80000974:	0480b023          	sd	s0,64(ra)
    80000978:	0490b423          	sd	s1,72(ra)
    8000097c:	04a0b823          	sd	a0,80(ra)
    80000980:	04b0bc23          	sd	a1,88(ra)
    80000984:	06c0b023          	sd	a2,96(ra)
    80000988:	06d0b423          	sd	a3,104(ra)
    8000098c:	06e0b823          	sd	a4,112(ra)
    80000990:	06f0bc23          	sd	a5,120(ra)
    80000994:	0900b023          	sd	a6,128(ra)
    80000998:	0910b423          	sd	a7,136(ra)
    8000099c:	0920b823          	sd	s2,144(ra)
    800009a0:	0930bc23          	sd	s3,152(ra)
    800009a4:	0b40b023          	sd	s4,160(ra)
    800009a8:	0b50b423          	sd	s5,168(ra)
    800009ac:	0b60b823          	sd	s6,176(ra)
    800009b0:	0b70bc23          	sd	s7,184(ra)
    800009b4:	0d80b023          	sd	s8,192(ra)
    800009b8:	0d90b423          	sd	s9,200(ra)
    800009bc:	0da0b823          	sd	s10,208(ra)
    800009c0:	0db0bc23          	sd	s11,216(ra)
    800009c4:	0fc0b023          	sd	t3,224(ra)
    800009c8:	0fd0b423          	sd	t4,232(ra)
    800009cc:	0fe0b823          	sd	t5,240(ra)
    800009d0:	0ff0bc23          	sd	t6,248(ra)
    800009d4:	0200006f          	j	800009f4 <test_end>

00000000800009d8 <crash_forward>:
    800009d8:	0ff0000f          	fence
    800009dc:	00018063          	beqz	gp,800009dc <crash_forward+0x4>
    800009e0:	00119193          	slli	gp,gp,0x1
    800009e4:	0011e193          	ori	gp,gp,1
    800009e8:	05d00893          	li	a7,93
    800009ec:	00018513          	mv	a0,gp
    800009f0:	00000073          	ecall

00000000800009f4 <test_end>:
    800009f4:	0ff0000f          	fence
    800009f8:	00100193          	li	gp,1
    800009fc:	05d00893          	li	a7,93
    80000a00:	00000513          	li	a0,0
    80000a04:	00000073          	ecall
    80000a08:	c0001073          	unimp
	...

Disassembly of section .tohost:

0000000080001000 <tohost>:
	...

0000000080001040 <fromhost>:
	...

Disassembly of section .data:

0000000080002000 <hidden_data>:
    80002000:	ffff                	0xffff
    80002002:	ffff                	0xffff
    80002004:	ffff                	0xffff
    80002006:	ffff                	0xffff

0000000080002008 <reg_x1_init>:
    80002008:	ffff                	0xffff
    8000200a:	ffff                	0xffff
    8000200c:	ffff                	0xffff
    8000200e:	ffff                	0xffff

0000000080002010 <reg_x2_init>:
    80002010:	4ff9                	li	t6,30
    80002012:	d57e435b          	0xd57e435b
    80002016:	1af4                	addi	a3,sp,380

0000000080002018 <reg_x3_init>:
    80002018:	ffff8007          	0xffff8007
    8000201c:	ffff                	0xffff
    8000201e:	ffff                	0xffff

0000000080002020 <reg_x4_init>:
    80002020:	f381                	bnez	a5,80001f20 <fromhost+0xee0>
    80002022:	ec62                	sd	s8,24(sp)
    80002024:	8a66                	mv	s4,s9
    80002026:	fc35                	bnez	s0,80001fa2 <fromhost+0xf62>

0000000080002028 <reg_x5_init>:
    80002028:	63f0                	ld	a2,192(a5)
    8000202a:	73b2c673          	0x73b2c673
    8000202e:	7451                	lui	s0,0xffff4

0000000080002030 <reg_x6_init>:
    80002030:	b069                	j	800018ba <fromhost+0x87a>
    80002032:	2f9d                	addiw	t6,t6,7
    80002034:	468d58b7          	lui	a7,0x468d5

0000000080002038 <reg_x7_init>:
    80002038:	6f29                	lui	t5,0xa
    8000203a:	89be8387          	0x89be8387
    8000203e:	          	0xffffa0f7

0000000080002040 <reg_x8_init>:
    80002040:	ffff                	0xffff
    80002042:	ffff                	0xffff
    80002044:	ffff                	0xffff
    80002046:	ffff                	0xffff

0000000080002048 <reg_x9_init>:
	...

0000000080002050 <reg_x10_init>:
    80002050:	5c4e                	lw	s8,240(sp)
    80002052:	dad2                	sw	s4,116(sp)
    80002054:	d56d                	beqz	a0,8000203e <reg_x7_init+0x6>
    80002056:	fc29                	bnez	s0,80001fb0 <fromhost+0xf70>

0000000080002058 <reg_x11_init>:
    80002058:	8006                	c.mv	zero,ra
    8000205a:	ffff                	0xffff
    8000205c:	ffff                	0xffff
    8000205e:	ffff                	0xffff

0000000080002060 <reg_x12_init>:
    80002060:	bc8a                	fsd	ft2,120(sp)
    80002062:	0136                	slli	sp,sp,0xd
    80002064:	03a2                	slli	t2,t2,0x8
    80002066:	ac54                	fsd	fa3,152(s0)

0000000080002068 <reg_x13_init>:
    80002068:	0009                	c.nop	2
    8000206a:	0000                	unimp
    8000206c:	0000                	unimp
    8000206e:	0800                	addi	s0,sp,16

0000000080002070 <reg_x14_init>:
    80002070:	718c                	ld	a1,32(a1)
    80002072:	ce00                	sw	s0,24(a2)
    80002074:	e350                	sd	a2,128(a4)
    80002076:	a135                	j	800024a2 <test_memory+0x2a2>

0000000080002078 <reg_x15_init>:
    80002078:	21c0                	fld	fs0,128(a1)
    8000207a:	fa2a                	sd	a0,304(sp)
    8000207c:	a84f1223          	sh	tp,-1404(t5) # 9a84 <_start-0x7fff657c>

0000000080002080 <reg_x16_init>:
    80002080:	ff85                	bnez	a5,80001fb8 <fromhost+0xf78>
    80002082:	ffff                	0xffff
    80002084:	ffff                	0xffff
    80002086:	ffff                	0xffff

0000000080002088 <reg_x17_init>:
	...

0000000080002090 <reg_x18_init>:
    80002090:	ffff                	0xffff
    80002092:	ffff                	0xffff
    80002094:	ffff                	0xffff
    80002096:	ffff                	0xffff

0000000080002098 <reg_x19_init>:
    80002098:	0002                	c.slli64	zero
    8000209a:	0000                	unimp
    8000209c:	0000                	unimp
	...

00000000800020a0 <reg_x20_init>:
    800020a0:	2125                	addiw	sp,sp,9
    800020a2:	7165                	addi	sp,sp,-400
    800020a4:	4a7a01f7          	0x4a7a01f7

00000000800020a8 <reg_x21_init>:
	...

00000000800020b0 <reg_x22_init>:
    800020b0:	5dbc                	lw	a5,120(a1)
    800020b2:	7d76                	ld	s10,376(sp)
    800020b4:	2a46                	fld	fs4,80(sp)
    800020b6:	7761                	lui	a4,0xffff8

00000000800020b8 <reg_x23_init>:
    800020b8:	8004                	0x8004
    800020ba:	ffff                	0xffff
    800020bc:	ffff                	0xffff
    800020be:	ffff                	0xffff

00000000800020c0 <reg_x24_init>:
	...

00000000800020c8 <reg_x25_init>:
    800020c8:	4e39                	li	t3,14
    800020ca:	866dbbf3          	csrrc	s7,0x866,s11
    800020ce:	8ac5                	andi	a3,a3,17

00000000800020d0 <reg_x26_init>:
    800020d0:	ffdf ffff ffff      	0xffffffffffdf
    800020d6:	ffff                	0xffff

00000000800020d8 <reg_x27_init>:
    800020d8:	ffff                	0xffff
    800020da:	ffff                	0xffff
    800020dc:	ffff                	0xffff
    800020de:	ffff                	0xffff

00000000800020e0 <reg_x28_init>:
    800020e0:	0002                	c.slli64	zero
    800020e2:	8000                	0x8000
    800020e4:	ffff                	0xffff
    800020e6:	ffff                	0xffff

00000000800020e8 <reg_x29_init>:
    800020e8:	b6a5                	j	80001c50 <fromhost+0xc10>
    800020ea:	aedc                	fsd	fa5,152(a3)
    800020ec:	44ed                	li	s1,27
    800020ee:	          	fnmsub.q	fa0,ft11,ft11,ft11,rne

00000000800020f0 <reg_x30_init>:
    800020f0:	ffff                	0xffff
    800020f2:	ffff                	0xffff
    800020f4:	ffff                	0xffff
    800020f6:	ffff                	0xffff

00000000800020f8 <reg_x31_init>:
    800020f8:	c8e7a24b          	fnmsub.s	ft4,fa5,fa4,fs9,rdn
    800020fc:	899f c5f7       	0x80a2c5f7899f

0000000080002100 <begin_signature>:
    80002100:	80a2                	mv	ra,s0
    80002102:	d1be                	sw	a5,224(sp)
    80002104:	cdaefd07          	0xcdaefd07

0000000080002108 <reg_x1_output>:
    80002108:	94a4                	0x94a4
    8000210a:	7b78                	ld	a4,240(a4)
    8000210c:	d89e                	sw	t2,112(sp)
    8000210e:	          	auipc	s3,0x3ff08

0000000080002110 <reg_x2_output>:
    80002110:	3ff0                	fld	fa2,248(a5)
    80002112:	038e7d77          	0x38e7d77
    80002116:	d3fc                	sw	a5,100(a5)

0000000080002118 <reg_x3_output>:
    80002118:	69f06d33          	0x69f06d33
    8000211c:	668a                	ld	a3,128(sp)
    8000211e:	ee35                	bnez	a2,8000219a <reg_x19_output+0x2>

0000000080002120 <reg_x4_output>:
    80002120:	17f2                	slli	a5,a5,0x3c
    80002122:	5d5d                	li	s10,-9
    80002124:	26b6                	fld	fa3,328(sp)
    80002126:	bb5a                	fsd	fs6,432(sp)

0000000080002128 <reg_x5_output>:
    80002128:	04d5                	addi	s1,s1,21
    8000212a:	6da2                	ld	s11,8(sp)
    8000212c:	ff1f 5e68       	0x61bf5e68ff1f

0000000080002130 <reg_x6_output>:
    80002130:	8a9261bf 7c84f792 	0x7c84f7928a9261bf

0000000080002138 <reg_x7_output>:
    80002138:	9ec05157          	0x9ec05157
    8000213c:	840361f7          	0x840361f7

0000000080002140 <reg_x8_output>:
    80002140:	71e4                	ld	s1,224(a1)
    80002142:	d9d5                	beqz	a1,800020f6 <reg_x30_init+0x6>
    80002144:	9cd4                	0x9cd4
    80002146:	605a                	0x605a

0000000080002148 <reg_x9_output>:
    80002148:	f5b4                	sd	a3,104(a1)
    8000214a:	28e2                	fld	fa7,24(sp)
    8000214c:	ecd4d0af          	0xecd4d0af

0000000080002150 <reg_x10_output>:
    80002150:	794b7363          	bgeu	s6,s4,800028d6 <_end+0x2c6>
    80002154:	875e                	mv	a4,s7
    80002156:	6751                	lui	a4,0x14

0000000080002158 <reg_x11_output>:
    80002158:	3eba                	fld	ft9,424(sp)
    8000215a:	e148                	sd	a0,128(a0)
    8000215c:	e791                	bnez	a5,80002168 <reg_x13_output>
    8000215e:	da81                	beqz	a3,8000206e <reg_x13_init+0x6>

0000000080002160 <reg_x12_output>:
    80002160:	6efe                	ld	t4,472(sp)
    80002162:	5c1532ef          	jal	t0,80055f22 <__global_pointer$+0x53112>
    80002166:	abbc                	fsd	fa5,80(a5)

0000000080002168 <reg_x13_output>:
    80002168:	c5ec                	sw	a1,76(a1)
    8000216a:	cd966627          	0xcd966627
    8000216e:	f700                	sd	s0,40(a4)

0000000080002170 <reg_x14_output>:
    80002170:	02b4                	addi	a3,sp,328
    80002172:	e554                	sd	a3,136(a0)
    80002174:	26f9                	addiw	a3,a3,30
    80002176:	d882                	sw	zero,112(sp)

0000000080002178 <reg_x15_output>:
    80002178:	deaa                	sw	a0,124(sp)
    8000217a:	d8d1                	beqz	s1,8000210e <reg_x1_output+0x6>
    8000217c:	ef8a                	sd	sp,472(sp)
    8000217e:	6fa4                	ld	s1,88(a5)

0000000080002180 <reg_x16_output>:
    80002180:	8d8c                	0x8d8c
    80002182:	524a                	lw	tp,176(sp)
    80002184:	79be2b7b          	0x79be2b7b

0000000080002188 <reg_x17_output>:
    80002188:	6176318f          	0x6176318f
    8000218c:	ba91                	j	80001ae0 <fromhost+0xaa0>
    8000218e:	744e                	ld	s0,240(sp)

0000000080002190 <reg_x18_output>:
    80002190:	d390                	sw	a2,32(a5)
    80002192:	82ea                	mv	t0,s10
    80002194:	e604                	sd	s1,8(a2)
    80002196:	          	addiw	zero,s5,673

0000000080002198 <reg_x19_output>:
    80002198:	2a1a                	fld	fs4,384(sp)
    8000219a:	d42e                	sw	a1,40(sp)
    8000219c:	09c9                	addi	s3,s3,18
    8000219e:	57b8                	lw	a4,104(a5)

00000000800021a0 <reg_x20_output>:
    800021a0:	5e1c                	lw	a5,56(a2)
    800021a2:	4ea2                	lw	t4,8(sp)
    800021a4:	12dd                	addi	t0,t0,-9
    800021a6:	2ff9                	addiw	t6,t6,30

00000000800021a8 <reg_x21_output>:
    800021a8:	998e1a8f          	0x998e1a8f
    800021ac:	982d3b4f          	fnmadd.s	fs6,fs10,ft2,fs3,rup

00000000800021b0 <reg_x22_output>:
    800021b0:	1c58                	addi	a4,sp,564
    800021b2:	ce2f2fa3          	sw	sp,-769(t5)
    800021b6:	5ba0                	lw	s0,112(a5)

00000000800021b8 <reg_x23_output>:
    800021b8:	3a1f 23ca 2069      	0x206923ca3a1f
    800021be:	288e                	fld	fa7,192(sp)

00000000800021c0 <reg_x24_output>:
    800021c0:	0802                	c.slli64	a6
    800021c2:	5e7d                	li	t3,-1
    800021c4:	01902167          	0x1902167

00000000800021c8 <reg_x25_output>:
    800021c8:	e146                	sd	a7,128(sp)
    800021ca:	daaa                	sw	a0,116(sp)
    800021cc:	3cf8                	fld	fa4,248(s1)
    800021ce:	1771                	addi	a4,a4,-4

00000000800021d0 <reg_x26_output>:
    800021d0:	d270                	sw	a2,100(a2)
    800021d2:	1926                	slli	s2,s2,0x29
    800021d4:	95e591bf  	0x465da87495e591bf

00000000800021d8 <reg_x27_output>:
    800021d8:	a874                	fsd	fa3,208(s0)
    800021da:	465d                	li	a2,23
    800021dc:	90f70a37          	lui	s4,0x90f70

00000000800021e0 <reg_x28_output>:
    800021e0:	ddd5                	beqz	a1,8000219c <reg_x19_output+0x4>
    800021e2:	2b75                	addiw	s6,s6,29
    800021e4:	8418                	0x8418
    800021e6:	9622                	add	a2,a2,s0

00000000800021e8 <reg_x29_output>:
    800021e8:	01e74cef          	jal	s9,80076206 <__global_pointer$+0x733f6>
    800021ec:	868230a3          	sd	s0,-1951(tp) # fffffffffffff861 <__global_pointer$+0xffffffff7fffca51>

00000000800021f0 <reg_x30_output>:
    800021f0:	06c2                	slli	a3,a3,0x10
    800021f2:	f846                	sd	a7,48(sp)
    800021f4:	8a0c                	0x8a0c
    800021f6:	d17e                	sw	t6,160(sp)

00000000800021f8 <reg_x31_output>:
    800021f8:	6bd47ff7          	0x6bd47ff7
    800021fc:	9164ed37          	lui	s10,0x9164e

0000000080002200 <test_memory>:
    80002200:	01f0                	addi	a2,sp,204
    80002202:	d796                	sw	t0,236(sp)
    80002204:	ec44                	sd	s1,152(s0)
    80002206:	ab79                	j	800027a4 <_end+0x194>
    80002208:	042a                	slli	s0,s0,0xa
    8000220a:	5506                	lw	a0,96(sp)
    8000220c:	15dc                	addi	a5,sp,740
    8000220e:	523ce9e3          	bltu	s9,gp,80002f40 <__global_pointer$+0x130>
    80002212:	16e5                	addi	a3,a3,-7
    80002214:	0609                	addi	a2,a2,2
    80002216:	bb5e                	fsd	fs7,432(sp)
    80002218:	bd29                	j	80002032 <reg_x6_init+0x2>
    8000221a:	e456                	sd	s5,8(sp)
    8000221c:	711e                	ld	sp,480(sp)
    8000221e:	1af23deb          	0x1af23deb
    80002222:	026d                	addi	tp,tp,27
    80002224:	4616                	lw	a2,68(sp)
    80002226:	957c8f2f          	0x957c8f2f
    8000222a:	40a0                	lw	s0,64(s1)
    8000222c:	5524                	lw	s1,104(a0)
    8000222e:	79e2                	ld	s3,56(sp)
    80002230:	524d                	li	tp,-13
    80002232:	579d                	li	a5,-25
    80002234:	1c7de8b3          	0x1c7de8b3
    80002238:	5eb2                	lw	t4,44(sp)
    8000223a:	c1da2b8f          	0xc1da2b8f
    8000223e:	0d02                	c.slli64	s10
    80002240:	183e                	slli	a6,a6,0x2f
    80002242:	5fdc                	lw	a5,60(a5)
    80002244:	bf04                	fsd	fs1,56(a4)
    80002246:	0fccfabf 6a6fccff 	0x6a6fccff0fccfabf
    8000224e:	297a                	fld	fs2,408(sp)
    80002250:	356c                	fld	fa1,232(a0)
    80002252:	be1d                	j	80001d88 <fromhost+0xd48>
    80002254:	979f e2ae 05db      	0x5dbe2ae979f
    8000225a:	6295                	lui	t0,0x5
    8000225c:	f9b86207          	0xf9b86207
    80002260:	067c                	addi	a5,sp,780
    80002262:	fec4                	sd	s1,184(a3)
    80002264:	1c61                	addi	s8,s8,-8
    80002266:	f1cc                	sd	a1,160(a1)
    80002268:	2ae8                	fld	fa0,208(a3)
    8000226a:	201a                	fld	ft0,384(sp)
    8000226c:	5fa8                	lw	a0,120(a5)
    8000226e:	b7ad                	j	800021d8 <reg_x27_output>
    80002270:	5791                	li	a5,-28
    80002272:	07a2                	slli	a5,a5,0x8
    80002274:	397c                	fld	fa5,240(a0)
    80002276:	c1e5                	beqz	a1,80002356 <test_memory+0x156>
    80002278:	35162713          	slti	a4,a2,849
    8000227c:	2b37cd77          	0x2b37cd77
    80002280:	f416                	sd	t0,40(sp)
    80002282:	320a                	fld	ft4,160(sp)
    80002284:	61d1                	lui	gp,0x14
    80002286:	bf7c                	fsd	fa5,248(a4)
    80002288:	fffe                	sd	t6,504(sp)
    8000228a:	f189                	bnez	a1,8000218c <reg_x17_output+0x4>
    8000228c:	1728                	addi	a0,sp,936
    8000228e:	f1e5                	bnez	a1,8000226e <test_memory+0x6e>
    80002290:	eeba                	sd	a4,344(sp)
    80002292:	bb16                	fsd	ft5,432(sp)
    80002294:	4481                	li	s1,0
    80002296:	ca6b20a3          	sw	t1,-863(s6)
    8000229a:	58aa                	lw	a7,168(sp)
    8000229c:	ebb2                	sd	a2,464(sp)
    8000229e:	66d4                	ld	a3,136(a3)
    800022a0:	e5bc                	sd	a5,72(a1)
    800022a2:	2aa8                	fld	fa0,80(a3)
    800022a4:	c7c9                	beqz	a5,8000232e <test_memory+0x12e>
    800022a6:	1541                	addi	a0,a0,-16
    800022a8:	eb635223          	0xeb635223
    800022ac:	6642                	ld	a2,16(sp)
    800022ae:	5522                	lw	a0,40(sp)
    800022b0:	c768                	sw	a0,76(a4)
    800022b2:	b8a9                	j	80001b0c <fromhost+0xacc>
    800022b4:	5d05                	li	s10,-31
    800022b6:	fb51                	bnez	a4,8000224a <test_memory+0x4a>
    800022b8:	dc19                	beqz	s0,800021d6 <reg_x26_output+0x6>
    800022ba:	0f6d                	addi	t5,t5,27
    800022bc:	4d025273          	csrrwi	tp,0x4d0,4
    800022c0:	dae0                	sw	s0,116(a3)
    800022c2:	b5ae                	fsd	fa1,232(sp)
    800022c4:	0216                	slli	tp,tp,0x5
    800022c6:	9a71                	andi	a2,a2,-4
    800022c8:	914566cf          	fnmadd.s	fa3,fa0,fs4,fs2,unknown
    800022cc:	ffba                	sd	a4,504(sp)
    800022ce:	6b04                	ld	s1,16(a4)
    800022d0:	111f b8f1 83eb      	0x83ebb8f1111f
    800022d6:	0cf94ba7          	fsq	fa5,215(s2)
    800022da:	5940                	lw	s0,52(a0)
    800022dc:	5828                	lw	a0,112(s0)
    800022de:	44dd                	li	s1,23
    800022e0:	3d79e23b          	0x3d79e23b
    800022e4:	d659                	beqz	a2,80002272 <test_memory+0x72>
    800022e6:	f16e                	sd	s11,160(sp)
    800022e8:	6e5f 6d1a 2e4b      	0x2e4b6d1a6e5f
    800022ee:	16f6                	slli	a3,a3,0x3d
    800022f0:	3aea                	fld	fs5,184(sp)
    800022f2:	5bea                	lw	s7,184(sp)
    800022f4:	952e                	add	a0,a0,a1
    800022f6:	4a7c                	lw	a5,84(a2)
    800022f8:	c9564307          	flq	ft6,-875(a2)
    800022fc:	f672                	sd	t3,296(sp)
    800022fe:	0539                	addi	a0,a0,14
    80002300:	3e46                	fld	ft8,112(sp)
    80002302:	2184                	fld	fs1,0(a1)
    80002304:	0284                	addi	s1,sp,320
    80002306:	5469                	li	s0,-6
    80002308:	7c92                	ld	s9,288(sp)
    8000230a:	ef4c                	sd	a1,152(a4)
    8000230c:	5f1d                	li	t5,-25
    8000230e:	8700                	0x8700
    80002310:	dfd4                	sw	a3,60(a5)
    80002312:	6068                	ld	a0,192(s0)
    80002314:	1659                	addi	a2,a2,-10
    80002316:	99e69397          	auipc	t2,0x99e69
    8000231a:	47f5                	li	a5,29
    8000231c:	dd587cab          	0xdd587cab
    80002320:	99c2                	add	s3,s3,a6
    80002322:	b486                	fsd	ft1,104(sp)
    80002324:	735e                	ld	t1,496(sp)
    80002326:	70d5                	lui	ra,0xffff5
    80002328:	110d                	addi	sp,sp,-29
    8000232a:	a671                	j	800026b6 <_end+0xa6>
    8000232c:	a31d7c53          	0xa31d7c53
    80002330:	5cc6c36f          	jal	t1,8006e8fc <__global_pointer$+0x6baec>
    80002334:	5510                	lw	a2,40(a0)
    80002336:	cc59                	beqz	s0,800023d4 <test_memory+0x1d4>
    80002338:	f35c                	sd	a5,160(a4)
    8000233a:	627e                	ld	tp,472(sp)
    8000233c:	125c                	addi	a5,sp,292
    8000233e:	4c313aaf          	0x4c313aaf
    80002342:	cb04b4db          	0xcb04b4db
    80002346:	1631                	addi	a2,a2,-20
    80002348:	30ad2fd7          	0x30ad2fd7
    8000234c:	1784                	addi	s1,sp,992
    8000234e:	a506                	fsd	ft1,136(sp)
    80002350:	de51                	beqz	a2,800022ec <test_memory+0xec>
    80002352:	d9e6                	sw	s9,240(sp)
    80002354:	ef62d587          	0xef62d587
    80002358:	17d4                	addi	a3,sp,996
    8000235a:	2e2c                	fld	fa1,88(a2)
    8000235c:	6c7109c3          	0x6c7109c3
    80002360:	ae5a                	fsd	fs6,280(sp)
    80002362:	df55                	beqz	a4,8000231e <test_memory+0x11e>
    80002364:	3766                	fld	fa4,120(sp)
    80002366:	a1bd                	j	800027d4 <_end+0x1c4>
    80002368:	09dd                	addi	s3,s3,23
    8000236a:	8f54                	0x8f54
    8000236c:	6434                	ld	a3,72(s0)
    8000236e:	7a93f9cb          	fnmsub.d	fs3,ft7,fs1,fa5
    80002372:	01dd                	addi	gp,gp,23
    80002374:	c881110b          	0xc881110b
    80002378:	66da                	ld	a3,400(sp)
    8000237a:	2c20                	fld	fs0,88(s0)
    8000237c:	0252                	slli	tp,tp,0x14
    8000237e:	50be                	lw	ra,236(sp)
    80002380:	7ec9                	lui	t4,0xffff2
    80002382:	50ff                	0x50ff
    80002384:	98c8                	0x98c8
    80002386:	ce26                	sw	s1,28(sp)
    80002388:	5382356f          	jal	a0,800258c0 <__global_pointer$+0x22ab0>
    8000238c:	adc60263          	beq	a2,t3,80001650 <fromhost+0x610>
    80002390:	6051                	c.lui	zero,0x14
    80002392:	84752bcf          	0x84752bcf
    80002396:	7d89                	lui	s11,0xfffe2
    80002398:	0faf17a3          	sh	s10,239(t5)
    8000239c:	db32                	sw	a2,180(sp)
    8000239e:	6aa2                	ld	s5,8(sp)
    800023a0:	564c                	lw	a1,44(a2)
    800023a2:	c86e                	sw	s11,16(sp)
    800023a4:	f83e                	sd	a5,48(sp)
    800023a6:	b368                	fsd	fa0,224(a4)
    800023a8:	76c1                	lui	a3,0xffff0
    800023aa:	990170b7          	lui	ra,0x99017
    800023ae:	122c6aa3          	0x122c6aa3
    800023b2:	6eda                	ld	t4,400(sp)
    800023b4:	0eba                	slli	t4,t4,0xe
    800023b6:	098239f7          	0x98239f7
    800023ba:	c1f9                	beqz	a1,80002480 <test_memory+0x280>
    800023bc:	db5675bb          	0xdb5675bb
    800023c0:	7ba32c77          	0x7ba32c77
    800023c4:	4e38                	lw	a4,88(a2)
    800023c6:	5050                	lw	a2,36(s0)
    800023c8:	60b1186b          	0x60b1186b
    800023cc:	4071                	c.li	zero,28
    800023ce:	7e9d                	lui	t4,0xfffe7
    800023d0:	0e1719cb          	fnmsub.q	fs3,fa4,ft1,ft1,rtz
    800023d4:	9f5e                	add	t5,t5,s7
    800023d6:	3464                	fld	fs1,232(s0)
    800023d8:	2474                	fld	fa3,200(s0)
    800023da:	8044                	0x8044
    800023dc:	47fe                	lw	a5,220(sp)
    800023de:	dc5c                	sw	a5,60(s0)
    800023e0:	ec21                	bnez	s0,80002438 <test_memory+0x238>
    800023e2:	23a5                	addiw	t2,t2,9
    800023e4:	ec6098f3          	csrrw	a7,0xec6,ra
    800023e8:	d3ea                	sw	s10,228(sp)
    800023ea:	aa06                	fsd	ft1,272(sp)
    800023ec:	bd0c                	fsd	fa1,56(a0)
    800023ee:	7b20                	ld	s0,112(a4)
    800023f0:	6455                	lui	s0,0x15
    800023f2:	000c                	0xc
    800023f4:	4e3f34fb          	0x4e3f34fb
    800023f8:	4995                	li	s3,5
    800023fa:	7cae                	ld	s9,232(sp)
    800023fc:	bf3e                	fsd	fa5,440(sp)
    800023fe:	a376                	fsd	ft9,384(sp)
    80002400:	17e5                	addi	a5,a5,-7
    80002402:	4304134f          	fnmadd.d	ft6,fs0,fa6,fs0,rtz
    80002406:	fe19                	bnez	a2,80002324 <test_memory+0x124>
    80002408:	4a1d                	li	s4,7
    8000240a:	c94c                	sw	a1,20(a0)
    8000240c:	89a1                	andi	a1,a1,8
    8000240e:	b876                	fsd	ft9,48(sp)
    80002410:	aef8                	fsd	fa4,216(a3)
    80002412:	2bbf0c1b          	addiw	s8,t5,699
    80002416:	7f49                	lui	t5,0xffff2
    80002418:	d3a9                	beqz	a5,8000235a <test_memory+0x15a>
    8000241a:	fb1d                	bnez	a4,80002350 <test_memory+0x150>
    8000241c:	726e                	ld	tp,248(sp)
    8000241e:	7ea20c93          	addi	s9,tp,2026 # 7ea <_start-0x7ffff816>
    80002422:	aaf1                	j	800025fe <test_memory+0x3fe>
    80002424:	d9d0                	sw	a2,52(a1)
    80002426:	06ce                	slli	a3,a3,0x13
    80002428:	0bc8                	addi	a0,sp,468
    8000242a:	f2b9                	bnez	a3,80002370 <test_memory+0x170>
    8000242c:	732eb1ef          	jal	gp,800edb5e <__global_pointer$+0xead4e>
    80002430:	0366                	slli	t1,t1,0x19
    80002432:	dbeaf8c3          	fmadd.d	fa7,fs5,ft10,fs11
    80002436:	17c8                	addi	a0,sp,996
    80002438:	a794                	fsd	fa3,8(a5)
    8000243a:	7e91                	lui	t4,0xfffe4
    8000243c:	24bc                	fld	fa5,72(s1)
    8000243e:	fffb011b          	addiw	sp,s6,-1
    80002442:	3ed5                	addiw	t4,t4,-11
    80002444:	02951417          	auipc	s0,0x2951
    80002448:	3214                	fld	fa3,32(a2)
    8000244a:	2099                	addiw	ra,ra,6
    8000244c:	475e7d2b          	0x475e7d2b
    80002450:	0dc04453          	0xdc04453
    80002454:	8855                	andi	s0,s0,21
    80002456:	a57c                	fsd	fa5,200(a0)
    80002458:	d4e2                	sw	s8,104(sp)
    8000245a:	3d32                	fld	fs10,296(sp)
    8000245c:	9806                	add	a6,a6,ra
    8000245e:	60d8574f          	fnmadd.s	fa4,fa6,fa3,fa2,unknown
    80002462:	286592bb          	0x286592bb
    80002466:	870d9ff3          	csrrw	t6,0x870,s11
    8000246a:	6908                	ld	a0,16(a0)
    8000246c:	e87d                	bnez	s0,80002562 <test_memory+0x362>
    8000246e:	84f8                	0x84f8
    80002470:	c9f8                	sw	a4,84(a1)
    80002472:	bd69                	j	8000230c <test_memory+0x10c>
    80002474:	9ce6                	add	s9,s9,s9
    80002476:	f0ad                	bnez	s1,800023d8 <test_memory+0x1d8>
    80002478:	c640                	sw	s0,12(a2)
    8000247a:	bbc9                	j	8000224c <test_memory+0x4c>
    8000247c:	2f5c                	fld	fa5,152(a4)
    8000247e:	cfa1                	beqz	a5,800024d6 <test_memory+0x2d6>
    80002480:	60cc2fe3          	0x60cc2fe3
    80002484:	73a0                	ld	s0,96(a5)
    80002486:	705c                	ld	a5,160(s0)
    80002488:	a3ba3e23          	sd	s11,-1476(s4) # ffffffff90f6fa3c <__global_pointer$+0xffffffff10f6cc2c>
    8000248c:	f181                	bnez	a1,8000238c <test_memory+0x18c>
    8000248e:	0e9337cb          	fnmsub.q	fa5,ft6,fs1,ft1,rup
    80002492:	a0ce                	fsd	fs3,64(sp)
    80002494:	3d1c                	fld	fa5,56(a0)
    80002496:	17fd                	addi	a5,a5,-1
    80002498:	0201                	addi	tp,tp,0
    8000249a:	2379                	addiw	t1,t1,30
    8000249c:	6189                	lui	gp,0x2
    8000249e:	e926                	sd	s1,144(sp)
    800024a0:	ba0c                	fsd	fa1,48(a2)
    800024a2:	febc                	sd	a5,120(a3)
    800024a4:	6f7d                	lui	t5,0x1f
    800024a6:	3caaa7a7          	fsw	fa0,975(s5)
    800024aa:	b0c9fecf          	fnmadd.s	ft9,fs3,fa2,fs6
    800024ae:	c4ec                	sw	a1,76(s1)
    800024b0:	6ae5                	lui	s5,0x19
    800024b2:	126c                	addi	a1,sp,300
    800024b4:	4ac4228b          	0x4ac4228b
    800024b8:	7a9a                	ld	s5,416(sp)
    800024ba:	9edf fb84 819e      	0x819efb849edf
    800024c0:	0f06                	slli	t5,t5,0x1
    800024c2:	f90b1803          	lh	a6,-112(s6)
    800024c6:	cdfc                	sw	a5,92(a1)
    800024c8:	f25a                	sd	s6,288(sp)
    800024ca:	3ffc                	fld	fa5,248(a5)
    800024cc:	445a                	lw	s0,148(sp)
    800024ce:	ae9c                	fsd	fa5,24(a3)
    800024d0:	e2b2                	sd	a2,320(sp)
    800024d2:	9b98                	0x9b98
    800024d4:	cb54                	sw	a3,20(a4)
    800024d6:	031f 6f25 ce04      	0xce046f25031f
    800024dc:	32fd                	addiw	t0,t0,-1
    800024de:	98ad                	andi	s1,s1,-21
    800024e0:	a05b15c7          	fmsub.s	fa1,fs6,ft5,fs4,rtz
    800024e4:	e726                	sd	s1,392(sp)
    800024e6:	fcf9                	bnez	s1,800024c4 <test_memory+0x2c4>
    800024e8:	1586c1cf          	0x1586c1cf
    800024ec:	66ef8a2b          	0x66ef8a2b
    800024f0:	0144                	addi	s1,sp,132
    800024f2:	18dd                	addi	a7,a7,-9
    800024f4:	f8b6                	sd	a3,112(sp)
    800024f6:	ea06                	sd	ra,272(sp)
    800024f8:	dbe2                	sw	s8,244(sp)
    800024fa:	2aae                	fld	fs5,200(sp)
    800024fc:	88d8                	0x88d8
    800024fe:	192e                	slli	s2,s2,0x2b
    80002500:	b10c                	fsd	fa1,32(a0)
    80002502:	9608                	0x9608
    80002504:	f104                	sd	s1,32(a0)
    80002506:	ddfc                	sw	a5,124(a1)
    80002508:	f90a                	sd	sp,176(sp)
    8000250a:	aaaa08cb          	fnmsub.d	fa7,fs4,fa0,fs5,rne
    8000250e:	c5e918c3          	0xc5e918c3
    80002512:	7d78f1e7          	0x7d78f1e7
    80002516:	c0ff                	0xc0ff
    80002518:	7ab2                	ld	s5,296(sp)
    8000251a:	090a                	slli	s2,s2,0x2
    8000251c:	7ba9                	lui	s7,0xfffea
    8000251e:	3ede                	fld	ft9,496(sp)
    80002520:	e789f3d3          	0xe789f3d3
    80002524:	e4ac                	sd	a1,72(s1)
    80002526:	a4da                	fsd	fs6,72(sp)
    80002528:	59ee                	lw	s3,248(sp)
    8000252a:	5a6c                	lw	a1,116(a2)
    8000252c:	7336                	ld	t1,360(sp)
    8000252e:	f5c9                	bnez	a1,800024b8 <test_memory+0x2b8>
    80002530:	a071                	j	800025bc <test_memory+0x3bc>
    80002532:	01de                	slli	gp,gp,0x17
    80002534:	c64f5c83          	lhu	s9,-924(t5) # 1ec64 <_start-0x7ffe139c>
    80002538:	babc539b          	0xbabc539b
    8000253c:	09ad0a3b          	0x9ad0a3b
    80002540:	65df d4ab 2d7a      	0x2d7ad4ab65df
    80002546:	32c4af73          	csrrs	t5,mhpmevent12,s1
    8000254a:	4e45                	li	t3,17
    8000254c:	80a6                	mv	ra,s1
    8000254e:	e7b1                	bnez	a5,8000259a <test_memory+0x39a>
    80002550:	7db1                	lui	s11,0xfffec
    80002552:	d521                	beqz	a0,8000249a <test_memory+0x29a>
    80002554:	3746                	fld	fa4,112(sp)
    80002556:	dd4709c3          	0xdd4709c3
    8000255a:	3cc8                	fld	fa0,184(s1)
    8000255c:	0610                	addi	a2,sp,768
    8000255e:	58373373          	csrrc	t1,0x583,a4
    80002562:	6f30                	ld	a2,88(a4)
    80002564:	aa9e                	fsd	ft7,336(sp)
    80002566:	47de                	lw	a5,212(sp)
    80002568:	33c906b7          	lui	a3,0x33c90
    8000256c:	39c0                	fld	fs0,176(a1)
    8000256e:	e40279c3          	0xe40279c3
    80002572:	0c4fb1d3          	0xc4fb1d3
    80002576:	1164                	addi	s1,sp,172
    80002578:	ad84                	fsd	fs1,24(a1)
    8000257a:	c2ed                	beqz	a3,8000265c <_end+0x4c>
    8000257c:	35d6                	fld	fa1,368(sp)
    8000257e:	47ee                	lw	a5,216(sp)
    80002580:	738149a7          	fsq	fs8,1843(sp)
    80002584:	d59a                	sw	t1,232(sp)
    80002586:	4432                	lw	s0,12(sp)
    80002588:	c659                	beqz	a2,80002616 <_end+0x6>
    8000258a:	99c2c573          	0x99c2c573
    8000258e:	6f68                	ld	a0,216(a4)
    80002590:	1fc2                	slli	t6,t6,0x30
    80002592:	78bd                	lui	a7,0xfffef
    80002594:	feb645bb          	0xfeb645bb
    80002598:	b9c5                	j	80002288 <test_memory+0x88>
    8000259a:	6550                	ld	a2,136(a0)
    8000259c:	d22f47f7          	0xd22f47f7
    800025a0:	5b3d                	li	s6,-17
    800025a2:	8e12                	mv	t3,tp
    800025a4:	38c5                	addiw	a7,a7,-15
    800025a6:	981ce413          	ori	s0,s9,-1663
    800025aa:	505d                	c.li	zero,-9
    800025ac:	cade                	sw	s7,84(sp)
    800025ae:	c378                	sw	a4,68(a4)
    800025b0:	7fd1                	lui	t6,0xffff4
    800025b2:	cc51                	beqz	s0,8000264e <_end+0x3e>
    800025b4:	17b9                	addi	a5,a5,-18
    800025b6:	1e5c                	addi	a5,sp,820
    800025b8:	279f 2fa7 950c      	0x950c2fa7279f
    800025be:	d4cd0de3          	beq	s10,a2,80002318 <test_memory+0x118>
    800025c2:	35cf4673          	0x35cf4673
    800025c6:	30da598b          	0x30da598b
    800025ca:	732e                	ld	t1,232(sp)
    800025cc:	90b6                	add	ra,ra,a3
    800025ce:	a216bb4b          	fnmsub.d	fs6,fa3,ft1,fs4,rup
    800025d2:	13f6                	slli	t2,t2,0x3d
    800025d4:	2f12                	fld	ft10,256(sp)
    800025d6:	6d35                	lui	s10,0xd
    800025d8:	ad4d                	j	80002c8a <_end+0x67a>
    800025da:	d335                	beqz	a4,8000253e <test_memory+0x33e>
    800025dc:	2e24b263          	0x2e24b263
    800025e0:	b96e                	fsd	fs11,176(sp)
    800025e2:	353e                	fld	fa0,488(sp)
    800025e4:	dfea1c33          	0xdfea1c33
    800025e8:	bc4e                	fsd	fs3,56(sp)
    800025ea:	29f2                	fld	fs3,280(sp)
    800025ec:	82e4                	0x82e4
    800025ee:	4fdf cff8 e1d4      	0xe1d4cff84fdf
    800025f4:	af9c                	fsd	fa5,24(a5)
    800025f6:	2755                	addiw	a4,a4,21
    800025f8:	822d                	srli	a2,a2,0xb
    800025fa:	474c                	lw	a1,12(a4)
    800025fc:	d481                	beqz	s1,80002504 <test_memory+0x304>
    800025fe:	          	lui	a3,0x401

0000000080002600 <loop_count>:
    80002600:	0040                	addi	s0,sp,4
	...

Disassembly of section .riscv.attributes:

0000000000000000 <.riscv.attributes>:
   0:	1e41                	addi	t3,t3,-16
   2:	0000                	unimp
   4:	7200                	ld	s0,32(a2)
   6:	7369                	lui	t1,0xffffa
   8:	01007663          	bgeu	zero,a6,14 <_start-0x7fffffec>
   c:	0014                	0x14
   e:	0000                	unimp
  10:	7205                	lui	tp,0xfffe1
  12:	3676                	fld	fa2,376(sp)
  14:	6934                	ld	a3,80(a0)
  16:	7032                	0x7032
  18:	5f30                	lw	a2,120(a4)
  1a:	326d                	addiw	tp,tp,-5
  1c:	3070                	fld	fa2,224(s0)
	...
