
build/test75:     file format elf64-littleriscv


Disassembly of section .text.init:

0000000080000000 <_start>:
    80000000:	05c0006f          	j	8000005c <reset_vector>

0000000080000004 <trap_vector>:
    80000004:	34202f73          	csrr	t5,mcause
    80000008:	00800f93          	li	t6,8
    8000000c:	03ff0a63          	beq	t5,t6,80000040 <write_tohost>
    80000010:	00900f93          	li	t6,9
    80000014:	03ff0663          	beq	t5,t6,80000040 <write_tohost>
    80000018:	00b00f93          	li	t6,11
    8000001c:	03ff0263          	beq	t5,t6,80000040 <write_tohost>
    80000020:	80000f17          	auipc	t5,0x80000
    80000024:	fe0f0f13          	addi	t5,t5,-32 # 0 <_start-0x80000000>
    80000028:	000f0463          	beqz	t5,80000030 <trap_vector+0x2c>
    8000002c:	000f0067          	jr	t5
    80000030:	34202f73          	csrr	t5,mcause
    80000034:	000f5463          	bgez	t5,8000003c <handle_exception>
    80000038:	0040006f          	j	8000003c <handle_exception>

000000008000003c <handle_exception>:
    8000003c:	5391e193          	ori	gp,gp,1337

0000000080000040 <write_tohost>:
    80000040:	00001f17          	auipc	t5,0x1
    80000044:	fc3f2023          	sw	gp,-64(t5) # 80001000 <tohost>
    80000048:	000902b7          	lui	t0,0x90
    8000004c:	0012829b          	addiw	t0,t0,1
    80000050:	00c29293          	slli	t0,t0,0xc
    80000054:	0002af83          	lw	t6,0(t0) # 90000 <_start-0x7ff70000>
    80000058:	fe9ff06f          	j	80000040 <write_tohost>

000000008000005c <reset_vector>:
    8000005c:	00000093          	li	ra,0
    80000060:	00000113          	li	sp,0
    80000064:	00000193          	li	gp,0
    80000068:	00000213          	li	tp,0
    8000006c:	00000293          	li	t0,0
    80000070:	00000313          	li	t1,0
    80000074:	00000393          	li	t2,0
    80000078:	00000413          	li	s0,0
    8000007c:	00000493          	li	s1,0
    80000080:	00000513          	li	a0,0
    80000084:	00000593          	li	a1,0
    80000088:	00000613          	li	a2,0
    8000008c:	00000693          	li	a3,0
    80000090:	00000713          	li	a4,0
    80000094:	00000793          	li	a5,0
    80000098:	00000813          	li	a6,0
    8000009c:	00000893          	li	a7,0
    800000a0:	00000913          	li	s2,0
    800000a4:	00000993          	li	s3,0
    800000a8:	00000a13          	li	s4,0
    800000ac:	00000a93          	li	s5,0
    800000b0:	00000b13          	li	s6,0
    800000b4:	00000b93          	li	s7,0
    800000b8:	00000c13          	li	s8,0
    800000bc:	00000c93          	li	s9,0
    800000c0:	00000d13          	li	s10,0
    800000c4:	00000d93          	li	s11,0
    800000c8:	00000e13          	li	t3,0
    800000cc:	00000e93          	li	t4,0
    800000d0:	00000f13          	li	t5,0
    800000d4:	00000f93          	li	t6,0
    800000d8:	f1402573          	csrr	a0,mhartid
    800000dc:	00051063          	bnez	a0,800000dc <reset_vector+0x80>
    800000e0:	00000297          	auipc	t0,0x0
    800000e4:	01028293          	addi	t0,t0,16 # 800000f0 <reset_vector+0x94>
    800000e8:	30529073          	csrw	mtvec,t0
    800000ec:	18005073          	csrwi	satp,0
    800000f0:	00000297          	auipc	t0,0x0
    800000f4:	02428293          	addi	t0,t0,36 # 80000114 <reset_vector+0xb8>
    800000f8:	30529073          	csrw	mtvec,t0
    800000fc:	0010029b          	addiw	t0,zero,1
    80000100:	03529293          	slli	t0,t0,0x35
    80000104:	fff28293          	addi	t0,t0,-1
    80000108:	3b029073          	csrw	pmpaddr0,t0
    8000010c:	01f00293          	li	t0,31
    80000110:	3a029073          	csrw	pmpcfg0,t0
    80000114:	30405073          	csrwi	mie,0
    80000118:	00000297          	auipc	t0,0x0
    8000011c:	01428293          	addi	t0,t0,20 # 8000012c <reset_vector+0xd0>
    80000120:	30529073          	csrw	mtvec,t0
    80000124:	30205073          	csrwi	medeleg,0
    80000128:	30305073          	csrwi	mideleg,0
    8000012c:	00000193          	li	gp,0
    80000130:	00000297          	auipc	t0,0x0
    80000134:	ed428293          	addi	t0,t0,-300 # 80000004 <trap_vector>
    80000138:	30529073          	csrw	mtvec,t0
    8000013c:	00100513          	li	a0,1
    80000140:	01f51513          	slli	a0,a0,0x1f
    80000144:	00055c63          	bgez	a0,8000015c <reset_vector+0x100>
    80000148:	0ff0000f          	fence
    8000014c:	00100193          	li	gp,1
    80000150:	05d00893          	li	a7,93
    80000154:	00000513          	li	a0,0
    80000158:	00000073          	ecall
    8000015c:	80000297          	auipc	t0,0x80000
    80000160:	ea428293          	addi	t0,t0,-348 # 0 <_start-0x80000000>
    80000164:	00028a63          	beqz	t0,80000178 <reset_vector+0x11c>
    80000168:	10529073          	csrw	stvec,t0
    8000016c:	0000b2b7          	lui	t0,0xb
    80000170:	1092829b          	addiw	t0,t0,265
    80000174:	30229073          	csrw	medeleg,t0
    80000178:	30005073          	csrwi	mstatus,0
    8000017c:	00000297          	auipc	t0,0x0
    80000180:	01428293          	addi	t0,t0,20 # 80000190 <reset_vector+0x134>
    80000184:	34129073          	csrw	mepc,t0
    80000188:	f1402573          	csrr	a0,mhartid
    8000018c:	30200073          	mret
    80000190:	0200006f          	j	800001b0 <test_start>

0000000080000194 <crash_backward>:
    80000194:	0ff0000f          	fence
    80000198:	00018063          	beqz	gp,80000198 <crash_backward+0x4>
    8000019c:	00119193          	slli	gp,gp,0x1
    800001a0:	0011e193          	ori	gp,gp,1
    800001a4:	05d00893          	li	a7,93
    800001a8:	00018513          	mv	a0,gp
    800001ac:	00000073          	ecall

00000000800001b0 <test_start>:
    800001b0:	00002f97          	auipc	t6,0x2
    800001b4:	e50f8f93          	addi	t6,t6,-432 # 80002000 <hidden_data>
    800001b8:	000fb003          	ld	zero,0(t6)
    800001bc:	008fb083          	ld	ra,8(t6)
    800001c0:	010fb103          	ld	sp,16(t6)
    800001c4:	018fb183          	ld	gp,24(t6)
    800001c8:	020fb203          	ld	tp,32(t6)
    800001cc:	028fb283          	ld	t0,40(t6)
    800001d0:	030fb303          	ld	t1,48(t6)
    800001d4:	038fb383          	ld	t2,56(t6)
    800001d8:	040fb403          	ld	s0,64(t6)
    800001dc:	048fb483          	ld	s1,72(t6)
    800001e0:	050fb503          	ld	a0,80(t6)
    800001e4:	058fb583          	ld	a1,88(t6)
    800001e8:	060fb603          	ld	a2,96(t6)
    800001ec:	068fb683          	ld	a3,104(t6)
    800001f0:	070fb703          	ld	a4,112(t6)
    800001f4:	078fb783          	ld	a5,120(t6)
    800001f8:	080fb803          	ld	a6,128(t6)
    800001fc:	088fb883          	ld	a7,136(t6)
    80000200:	090fb903          	ld	s2,144(t6)
    80000204:	098fb983          	ld	s3,152(t6)
    80000208:	0a0fba03          	ld	s4,160(t6)
    8000020c:	0a8fba83          	ld	s5,168(t6)
    80000210:	0b0fbb03          	ld	s6,176(t6)
    80000214:	0b8fbb83          	ld	s7,184(t6)
    80000218:	0c0fbc03          	ld	s8,192(t6)
    8000021c:	0c8fbc83          	ld	s9,200(t6)
    80000220:	0d0fbd03          	ld	s10,208(t6)
    80000224:	0d8fbd83          	ld	s11,216(t6)
    80000228:	0e0fbe03          	ld	t3,224(t6)
    8000022c:	0e8fbe83          	ld	t4,232(t6)
    80000230:	0f0fbf03          	ld	t5,240(t6)
    80000234:	0f8fbf83          	ld	t6,248(t6)
    80000238:	0040006f          	j	8000023c <pseg_0>

000000008000023c <pseg_0>:
    8000023c:	f0500b93          	li	s7,-251
    80000240:	e0d00f13          	li	t5,-499
    80000244:	1f700a93          	li	s5,503
    80000248:	000b0e13          	mv	t3,s6
    8000024c:	73b00713          	li	a4,1851
    80000250:	02a118b3          	mulh	a7,sp,a0
    80000254:	8e8b8e93          	addi	t4,s7,-1816
    80000258:	04600f93          	li	t6,70
    8000025c:	93f00213          	li	tp,-1729
    80000260:	00050193          	mv	gp,a0
    80000264:	00018113          	mv	sp,gp
    80000268:	00003d17          	auipc	s10,0x3
    8000026c:	88ed0d13          	addi	s10,s10,-1906 # 80002af6 <_end+0x4e6>
    80000270:	00100e93          	li	t4,1
    80000274:	acd00293          	li	t0,-1331
    80000278:	000e0793          	mv	a5,t3
    8000027c:	ade00693          	li	a3,-1314
    80000280:	7ef00413          	li	s0,2031
    80000284:	03fe9e93          	slli	t4,t4,0x3f
    80000288:	e7ff0393          	addi	t2,t5,-385
    8000028c:	fff00313          	li	t1,-1
    80000290:	c2b00813          	li	a6,-981
    80000294:	22a00093          	li	ra,554
    80000298:	01d34333          	xor	t1,t1,t4
    8000029c:	02846533          	rem	a0,s0,s0
    800002a0:	a84d3923          	sd	tp,-1390(s10)
    800002a4:	e9300993          	li	s3,-365
    800002a8:	0138193b          	sllw	s2,a6,s3
    800002ac:	00002d97          	auipc	s11,0x2
    800002b0:	e0bd8d93          	addi	s11,s11,-501 # 800020b7 <reg_x22_init+0x7>
    800002b4:	021afa33          	remu	s4,s5,ra
    800002b8:	006a7bb3          	and	s7,s4,t1
    800002bc:	6d600c13          	li	s8,1750
    800002c0:	166dcc83          	lbu	s9,358(s11)
    800002c4:	00d695bb          	sllw	a1,a3,a3
    800002c8:	00002917          	auipc	s2,0x2
    800002cc:	d3190913          	addi	s2,s2,-719 # 80001ff9 <fromhost+0xfb9>
    800002d0:	03876b33          	rem	s6,a4,s8
    800002d4:	00002797          	auipc	a5,0x2
    800002d8:	13478793          	addi	a5,a5,308 # 80002408 <test_memory+0x208>
    800002dc:	eb6b6ce3          	bltu	s6,s6,80000194 <crash_backward>
    800002e0:	016b5b33          	srl	s6,s6,s6
    800002e4:	bbabea93          	ori	s5,s7,-1094
    800002e8:	06600593          	li	a1,102
    800002ec:	02b7c083          	lbu	ra,43(a5)
    800002f0:	a1a00993          	li	s3,-1510
    800002f4:	02420633          	mul	a2,tp,tp
    800002f8:	03e83db3          	mulhu	s11,a6,t5
    800002fc:	94700e13          	li	t3,-1721
    80000300:	7dd00813          	li	a6,2013
    80000304:	01ce3a33          	sltu	s4,t3,t3
    80000308:	00002797          	auipc	a5,0x2
    8000030c:	0c078793          	addi	a5,a5,192 # 800023c8 <test_memory+0x1c8>
    80000310:	dc100a93          	li	s5,-575
    80000314:	035ac233          	div	tp,s5,s5
    80000318:	02a54433          	div	s0,a0,a0
    8000031c:	03b3e533          	rem	a0,t2,s11
    80000320:	00002717          	auipc	a4,0x2
    80000324:	35a70713          	addi	a4,a4,858 # 8000267a <_end+0x6a>
    80000328:	405fd4b3          	sra	s1,t6,t0
    8000032c:	32890f03          	lb	t5,808(s2)
    80000330:	00002297          	auipc	t0,0x2
    80000334:	f4b28293          	addi	t0,t0,-181 # 8000227b <test_memory+0x7b>
    80000338:	021f0e33          	mul	t3,t5,ra
    8000033c:	01956233          	or	tp,a0,s9
    80000340:	02636abb          	remw	s5,t1,t1
    80000344:	d1898d13          	addi	s10,s3,-744
    80000348:	0073913b          	sllw	sp,t2,t2
    8000034c:	5f3d7a63          	bgeu	s10,s3,80000940 <crash_forward>
    80000350:	64700513          	li	a0,1607
    80000354:	d3774c03          	lbu	s8,-713(a4)
    80000358:	02738db3          	mul	s11,t2,t2
    8000035c:	4139da33          	sra	s4,s3,s3
    80000360:	00100a93          	li	s5,1
    80000364:	15e00b13          	li	s6,350
    80000368:	fd07e603          	lwu	a2,-48(a5)
    8000036c:	b2e00f13          	li	t5,-1234
    80000370:	00002617          	auipc	a2,0x2
    80000374:	42060613          	addi	a2,a2,1056 # 80002790 <_end+0x180>
    80000378:	00002717          	auipc	a4,0x2
    8000037c:	c8670713          	addi	a4,a4,-890 # 80001ffe <fromhost+0xfbe>
    80000380:	03fa9a93          	slli	s5,s5,0x3f
    80000384:	a0d00693          	li	a3,-1523
    80000388:	1692af83          	lw	t6,361(t0)
    8000038c:	b1b00e13          	li	t3,-1253
    80000390:	02d5d3b3          	divu	t2,a1,a3
    80000394:	fff00113          	li	sp,-1
    80000398:	03ce7d3b          	remuw	s10,t3,t3
    8000039c:	03085cb3          	divu	s9,a6,a6
    800003a0:	41e50433          	sub	s0,a0,t5
    800003a4:	416b00b3          	sub	ra,s6,s6
    800003a8:	dfe64203          	lbu	tp,-514(a2)
    800003ac:	03ed04b3          	mul	s1,s10,t5
    800003b0:	00ff919b          	slliw	gp,t6,0xf
    800003b4:	c3d00d93          	li	s11,-963
    800003b8:	7d600c13          	li	s8,2006
    800003bc:	418d87b3          	sub	a5,s11,s8
    800003c0:	01514133          	xor	sp,sp,s5
    800003c4:	59772523          	sw	s7,1418(a4)
    800003c8:	02d6ecb3          	rem	s9,a3,a3
    800003cc:	0210c1bb          	divw	gp,ra,ra
    800003d0:	00002297          	auipc	t0,0x2
    800003d4:	b7d28293          	addi	t0,t0,-1155 # 80001f4d <fromhost+0xf0d>
    800003d8:	85b00b13          	li	s6,-1957
    800003dc:	fc600f13          	li	t5,-58
    800003e0:	05500f93          	li	t6,85
    800003e4:	03ef33b3          	mulhu	t2,t5,t5
    800003e8:	00000793          	li	a5,0
    800003ec:	00100e13          	li	t3,1
    800003f0:	00002397          	auipc	t2,0x2
    800003f4:	07138393          	addi	t2,t2,113 # 80002461 <test_memory+0x261>
    800003f8:	1e900593          	li	a1,489
    800003fc:	016b14b3          	sll	s1,s6,s6
    80000400:	ce200613          	li	a2,-798
    80000404:	03fe1e13          	slli	t3,t3,0x3f
    80000408:	2dd00c93          	li	s9,733
    8000040c:	00cf9833          	sll	a6,t6,a2
    80000410:	5712cd03          	lbu	s10,1393(t0)
    80000414:	fff00693          	li	a3,-1
    80000418:	0633ef03          	lwu	t5,99(t2)
    8000041c:	00002b17          	auipc	s6,0x2
    80000420:	e71b0b13          	addi	s6,s6,-399 # 8000228d <test_memory+0x8d>
    80000424:	00000c13          	li	s8,0
    80000428:	49e00f13          	li	t5,1182
    8000042c:	5eb00d93          	li	s11,1515
    80000430:	01d1e8b3          	or	a7,gp,t4
    80000434:	5d800d13          	li	s10,1496
    80000438:	00060613          	mv	a2,a2
    8000043c:	68a58513          	addi	a0,a1,1674
    80000440:	01c6c6b3          	xor	a3,a3,t3
    80000444:	00192a33          	slt	s4,s2,ra
    80000448:	00060813          	mv	a6,a2
    8000044c:	01deb233          	sltu	tp,t4,t4
    80000450:	d51b82e3          	beq	s7,a7,80000194 <crash_backward>
    80000454:	00ca52bb          	srlw	t0,s4,a2
    80000458:	00dd7433          	and	s0,s10,a3
    8000045c:	01c460b3          	or	ra,s0,t3
    80000460:	057b5483          	lhu	s1,87(s6)
    80000464:	01bda733          	slt	a4,s11,s11
    80000468:	01ffebb3          	or	s7,t6,t6
    8000046c:	03af5fb3          	divu	t6,t5,s10
    80000470:	00425c33          	srl	s8,tp,tp
    80000474:	a139a713          	slti	a4,s3,-1517
    80000478:	019c91bb          	sllw	gp,s9,s9
    8000047c:	16f00213          	li	tp,367
    80000480:	00100d93          	li	s11,1
    80000484:	00002197          	auipc	gp,0x2
    80000488:	58d18193          	addi	gp,gp,1421 # 80002a11 <_end+0x401>
    8000048c:	96c1b7a3          	sd	a2,-1681(gp) # 8000277f <_end+0x16f>
    80000490:	002e7933          	and	s2,t3,sp
    80000494:	f4900f13          	li	t5,-183
    80000498:	90200893          	li	a7,-1790
    8000049c:	03fd9d93          	slli	s11,s11,0x3f
    800004a0:	fff00e93          	li	t4,-1
    800004a4:	c5200c13          	li	s8,-942
    800004a8:	037bd73b          	divuw	a4,s7,s7
    800004ac:	3ca00313          	li	t1,970
    800004b0:	b7800193          	li	gp,-1160
    800004b4:	a1d00793          	li	a5,-1507
    800004b8:	c0200613          	li	a2,-1022
    800004bc:	022782bb          	mulw	t0,a5,sp
    800004c0:	015269b3          	or	s3,tp,s5
    800004c4:	004c16bb          	sllw	a3,s8,tp
    800004c8:	01beceb3          	xor	t4,t4,s11
    800004cc:	34f00093          	li	ra,847
    800004d0:	01da73b3          	and	t2,s4,t4
    800004d4:	14d00413          	li	s0,333
    800004d8:	00c1f833          	and	a6,gp,a2
    800004dc:	00f7db33          	srl	s6,a5,a5
    800004e0:	011f0d33          	add	s10,t5,a7
    800004e4:	021c0e3b          	mulw	t3,s8,ra
    800004e8:	03856533          	rem	a0,a0,s8
    800004ec:	d6200d13          	li	s10,-670
    800004f0:	000a8f93          	mv	t6,s5
    800004f4:	00002b17          	auipc	s6,0x2
    800004f8:	a97b0b13          	addi	s6,s6,-1385 # 80001f8b <fromhost+0xf4b>
    800004fc:	c0700293          	li	t0,-1017
    80000500:	f5e00093          	li	ra,-162
    80000504:	01b3ea33          	or	s4,t2,s11
    80000508:	000f8b93          	mv	s7,t6
    8000050c:	c97fe4e3          	bltu	t6,s7,80000194 <crash_backward>
    80000510:	032935b3          	mulhu	a1,s2,s2
    80000514:	03a067bb          	remw	a5,zero,s10
    80000518:	d2e00993          	li	s3,-722
    8000051c:	df500b93          	li	s7,-523
    80000520:	4c2b1ea3          	sh	sp,1245(s6)
    80000524:	1a800793          	li	a5,424
    80000528:	00846cb3          	or	s9,s0,s0
    8000052c:	41105a9b          	sraiw	s5,zero,0x11
    80000530:	96200913          	li	s2,-1694
    80000534:	01298533          	add	a0,s3,s2
    80000538:	02455593          	srli	a1,a0,0x24
    8000053c:	00002f17          	auipc	t5,0x2
    80000540:	afff0f13          	addi	t5,t5,-1281 # 8000203b <reg_x7_init+0x3>
    80000544:	026244b3          	div	s1,tp,t1
    80000548:	b3b00713          	li	a4,-1221
    8000054c:	0294d133          	divu	sp,s1,s1
    80000550:	9554f193          	andi	gp,s1,-1707
    80000554:	00e296bb          	sllw	a3,t0,a4
    80000558:	01ad0633          	add	a2,s10,s10
    8000055c:	02fbefbb          	remw	t6,s7,a5
    80000560:	00002897          	auipc	a7,0x2
    80000564:	e3a88893          	addi	a7,a7,-454 # 8000239a <test_memory+0x19a>
    80000568:	f1d8a523          	sw	t4,-246(a7)
    8000056c:	265f5803          	lhu	a6,613(t5)
    80000570:	5a300e13          	li	t3,1443
    80000574:	03c0cc33          	div	s8,ra,t3
    80000578:	01ce9c1b          	slliw	s8,t4,0x1c
    8000057c:	40700593          	li	a1,1031
    80000580:	e192f2b7          	lui	t0,0xe192f
    80000584:	e1400f93          	li	t6,-492
    80000588:	03e3d733          	divu	a4,t2,t5
    8000058c:	c5a00d93          	li	s11,-934
    80000590:	00002d17          	auipc	s10,0x2
    80000594:	c0cd0d13          	addi	s10,s10,-1012 # 8000219c <reg_x19_output+0x4>
    80000598:	00100113          	li	sp,1
    8000059c:	037ba6b3          	mulhsu	a3,s7,s7
    800005a0:	273f849b          	addiw	s1,t6,627
    800005a4:	be4f8393          	addi	t2,t6,-1052
    800005a8:	00100a13          	li	s4,1
    800005ac:	74100493          	li	s1,1857
    800005b0:	008297b3          	sll	a5,t0,s0
    800005b4:	0af52293          	slti	t0,a0,175
    800005b8:	02c643bb          	divw	t2,a2,a2
    800005bc:	3d400913          	li	s2,980
    800005c0:	25600693          	li	a3,598
    800005c4:	03f11113          	slli	sp,sp,0x3f
    800005c8:	01296533          	or	a0,s2,s2
    800005cc:	00002e97          	auipc	t4,0x2
    800005d0:	e77e8e93          	addi	t4,t4,-393 # 80002443 <test_memory+0x243>
    800005d4:	f4beb6a3          	sd	a1,-179(t4)
    800005d8:	022deeb3          	rem	t4,s11,sp
    800005dc:	9f200993          	li	s3,-1550
    800005e0:	03b5aab3          	mulhsu	s5,a1,s11
    800005e4:	00100f93          	li	t6,1
    800005e8:	03ff9f93          	slli	t6,t6,0x3f
    800005ec:	21800e93          	li	t4,536
    800005f0:	00080393          	mv	t2,a6
    800005f4:	bcb00293          	li	t0,-1077
    800005f8:	fff00313          	li	t1,-1
    800005fc:	00a98c3b          	addw	s8,s3,a0
    80000600:	307d3e23          	sd	t2,796(s10)
    80000604:	fff00093          	li	ra,-1
    80000608:	01f0c0b3          	xor	ra,ra,t6
    8000060c:	02ceda93          	srli	s5,t4,0x2c
    80000610:	a7800813          	li	a6,-1416
    80000614:	4c000213          	li	tp,1216
    80000618:	00420cb3          	add	s9,tp,tp
    8000061c:	03fa1a13          	slli	s4,s4,0x3f
    80000620:	10600593          	li	a1,262
    80000624:	00038b13          	mv	s6,t2
    80000628:	00d4d733          	srl	a4,s1,a3
    8000062c:	2f000513          	li	a0,752
    80000630:	0309ae33          	mulhsu	t3,s3,a6
    80000634:	0019f7b3          	and	a5,s3,ra
    80000638:	00234333          	xor	t1,t1,sp
    8000063c:	006afbb3          	and	s7,s5,t1
    80000640:	fff00893          	li	a7,-1
    80000644:	01f7e433          	or	s0,a5,t6
    80000648:	40be8dbb          	subw	s11,t4,a1
    8000064c:	40a2d93b          	sraw	s2,t0,a0
    80000650:	0026ef33          	or	t5,a3,sp
    80000654:	0148c8b3          	xor	a7,a7,s4
    80000658:	011671b3          	and	gp,a2,a7
    8000065c:	0141e633          	or	a2,gp,s4
    80000660:	3d300b13          	li	s6,979
    80000664:	75300c13          	li	s8,1875
    80000668:	006324b3          	slt	s1,t1,t1
    8000066c:	ab200393          	li	t2,-1358
    80000670:	00e75733          	srl	a4,a4,a4
    80000674:	0273edb3          	rem	s11,t2,t2
    80000678:	00002597          	auipc	a1,0x2
    8000067c:	01858593          	addi	a1,a1,24 # 80002690 <_end+0x80>
    80000680:	00c602bb          	addw	t0,a2,a2
    80000684:	5b900913          	li	s2,1465
    80000688:	1dd00113          	li	sp,477
    8000068c:	412958b3          	sra	a7,s2,s2
    80000690:	24600793          	li	a5,582
    80000694:	00fdd69b          	srliw	a3,s11,0xf
    80000698:	40100a13          	li	s4,1025
    8000069c:	038c583b          	divuw	a6,s8,s8
    800006a0:	010849b3          	xor	s3,a6,a6
    800006a4:	03ce093b          	mulw	s2,t3,t3
    800006a8:	bf05a503          	lw	a0,-1040(a1)
    800006ac:	5e000613          	li	a2,1504
    800006b0:	6e300913          	li	s2,1763
    800006b4:	01478333          	add	t1,a5,s4
    800006b8:	00002b97          	auipc	s7,0x2
    800006bc:	982b8b93          	addi	s7,s7,-1662 # 8000203a <reg_x7_init+0x2>
    800006c0:	024fd73b          	divuw	a4,t6,tp
    800006c4:	9b800193          	li	gp,-1608
    800006c8:	40185abb          	sraw	s5,a6,ra
    800006cc:	24ebde83          	lhu	t4,590(s7)
    800006d0:	0339d4bb          	divuw	s1,s3,s3
    800006d4:	c220fd13          	andi	s10,ra,-990
    800006d8:	032965b3          	rem	a1,s2,s2
    800006dc:	034586bb          	mulw	a3,a1,s4
    800006e0:	032950bb          	divuw	ra,s2,s2
    800006e4:	02c14e33          	div	t3,sp,a2
    800006e8:	0032e733          	or	a4,t0,gp
    800006ec:	81e46913          	ori	s2,s0,-2018
    800006f0:	00100693          	li	a3,1
    800006f4:	00ebd33b          	srlw	t1,s7,a4
    800006f8:	00d69c33          	sll	s8,a3,a3
    800006fc:	03f69693          	slli	a3,a3,0x3f
    80000700:	00100293          	li	t0,1
    80000704:	5de00593          	li	a1,1502
    80000708:	d6e00e93          	li	t4,-658
    8000070c:	016b6f33          	or	t5,s6,s6
    80000710:	fff00493          	li	s1,-1
    80000714:	82700093          	li	ra,-2009
    80000718:	b0600213          	li	tp,-1274
    8000071c:	d2100a13          	li	s4,-735
    80000720:	99400e13          	li	t3,-1644
    80000724:	0309c3b3          	div	t2,s3,a6
    80000728:	01de9ab3          	sll	s5,t4,t4
    8000072c:	00419fbb          	sllw	t6,gp,tp
    80000730:	00d4c4b3          	xor	s1,s1,a3
    80000734:	03f29293          	slli	t0,t0,0x3f
    80000738:	016b6933          	or	s2,s6,s6
    8000073c:	fff00c93          	li	s9,-1
    80000740:	033cf133          	remu	sp,s9,s3
    80000744:	0d800893          	li	a7,216
    80000748:	01c0f733          	and	a4,ra,t3
    8000074c:	62e00f93          	li	t6,1582
    80000750:	e4e00613          	li	a2,-434
    80000754:	00b5c7b3          	xor	a5,a1,a1
    80000758:	0094fbb3          	and	s7,s1,s1
    8000075c:	40738ebb          	subw	t4,t2,t2
    80000760:	01e8513b          	srlw	sp,a6,t5
    80000764:	005cccb3          	xor	s9,s9,t0
    80000768:	79c00b13          	li	s6,1948
    8000076c:	00100713          	li	a4,1
    80000770:	02ca0d33          	mul	s10,s4,a2
    80000774:	00002917          	auipc	s2,0x2
    80000778:	99590913          	addi	s2,s2,-1643 # 80002109 <reg_x1_output+0x1>
    8000077c:	016b0e3b          	addw	t3,s6,s6
    80000780:	00dd6533          	or	a0,s10,a3
    80000784:	a9d00993          	li	s3,-1379
    80000788:	00002f17          	auipc	t5,0x2
    8000078c:	917f0f13          	addi	t5,t5,-1769 # 8000209f <reg_x19_init+0x7>
    80000790:	373f5303          	lhu	t1,883(t5)
    80000794:	14591a83          	lh	s5,325(s2)
    80000798:	44b00393          	li	t2,1099
    8000079c:	03f71713          	slli	a4,a4,0x3f
    800007a0:	bc700113          	li	sp,-1081
    800007a4:	01ac0bbb          	addw	s7,s8,s10
    800007a8:	034a7633          	remu	a2,s4,s4
    800007ac:	00000913          	li	s2,0
    800007b0:	73600d13          	li	s10,1846
    800007b4:	40215b3b          	sraw	s6,sp,sp
    800007b8:	00000313          	li	t1,0
    800007bc:	007f8233          	add	tp,t6,t2
    800007c0:	0338cdbb          	divw	s11,a7,s3
    800007c4:	8a400393          	li	t2,-1884
    800007c8:	01de8133          	add	sp,t4,t4
    800007cc:	00000e93          	li	t4,0
    800007d0:	162c0593          	addi	a1,s8,354
    800007d4:	019bf833          	and	a6,s7,s9
    800007d8:	403bde3b          	sraw	t3,s7,gp
    800007dc:	25e00693          	li	a3,606
    800007e0:	01ef1f33          	sll	t5,t5,t5
    800007e4:	14f00513          	li	a0,335
    800007e8:	00109233          	sll	tp,ra,ra
    800007ec:	03457ab3          	remu	s5,a0,s4
    800007f0:	a4f00593          	li	a1,-1457
    800007f4:	82638b13          	addi	s6,t2,-2010
    800007f8:	0053e433          	or	s0,t2,t0
    800007fc:	417b8333          	sub	t1,s7,s7
    80000800:	7f000b93          	li	s7,2032
    80000804:	02a684bb          	mulw	s1,a3,a0
    80000808:	017d67b3          	or	a5,s10,s7
    8000080c:	00000113          	li	sp,0
    80000810:	02b5f8bb          	remuw	a7,a1,a1
    80000814:	41ea06bb          	subw	a3,s4,t5
    80000818:	12001463          	bnez	zero,80000940 <crash_forward>
    8000081c:	00001997          	auipc	s3,0x1
    80000820:	60c98993          	addi	s3,s3,1548 # 80001e28 <fromhost+0xde8>
    80000824:	950c0f13          	addi	t5,s8,-1712
    80000828:	11045c63          	bge	s0,a6,80000940 <crash_forward>
    8000082c:	5919a223          	sw	a7,1412(s3)
    80000830:	2fd00b93          	li	s7,765
    80000834:	fff00193          	li	gp,-1
    80000838:	41de8b3b          	subw	s6,t4,t4
    8000083c:	003df933          	and	s2,s11,gp
    80000840:	00000d93          	li	s11,0
    80000844:	00e1c1b3          	xor	gp,gp,a4
    80000848:	82800213          	li	tp,-2008
    8000084c:	40425d3b          	sraw	s10,tp,tp
    80000850:	003df0b3          	and	ra,s11,gp
    80000854:	00b59e33          	sll	t3,a1,a1
    80000858:	007ecab3          	xor	s5,t4,t2
    8000085c:	004083b3          	add	t2,ra,tp
    80000860:	00000a13          	li	s4,0
    80000864:	4a800793          	li	a5,1192
    80000868:	934e96e3          	bne	t4,s4,80000194 <crash_backward>
    8000086c:	4526eb13          	ori	s6,a3,1106
    80000870:	44600693          	li	a3,1094
    80000874:	40d68a33          	sub	s4,a3,a3
    80000878:	94700913          	li	s2,-1721
    8000087c:	004bb533          	sltu	a0,s7,tp
    80000880:	a4800493          	li	s1,-1464
    80000884:	0255fdbb          	remuw	s11,a1,t0
    80000888:	01295cb3          	srl	s9,s2,s2
    8000088c:	3b500f93          	li	t6,949
    80000890:	03fff633          	remu	a2,t6,t6
    80000894:	0097f333          	and	t1,a5,s1
    80000898:	00e0ec33          	or	s8,ra,a4
    8000089c:	8f80cce3          	blt	ra,s8,80000194 <crash_backward>
    800008a0:	0040006f          	j	800008a4 <reg_dump>

00000000800008a4 <reg_dump>:
    800008a4:	00002097          	auipc	ra,0x2
    800008a8:	d5c08093          	addi	ra,ra,-676 # 80002600 <loop_count>
    800008ac:	0000a103          	lw	sp,0(ra)
    800008b0:	fff10193          	addi	gp,sp,-1
    800008b4:	0030a023          	sw	gp,0(ra)
    800008b8:	980112e3          	bnez	sp,8000023c <pseg_0>
    800008bc:	00002097          	auipc	ra,0x2
    800008c0:	84408093          	addi	ra,ra,-1980 # 80002100 <begin_signature>
    800008c4:	0000b023          	sd	zero,0(ra)
    800008c8:	0020b823          	sd	sp,16(ra)
    800008cc:	0030bc23          	sd	gp,24(ra)
    800008d0:	0240b023          	sd	tp,32(ra)
    800008d4:	0250b423          	sd	t0,40(ra)
    800008d8:	0260b823          	sd	t1,48(ra)
    800008dc:	0270bc23          	sd	t2,56(ra)
    800008e0:	0480b023          	sd	s0,64(ra)
    800008e4:	0490b423          	sd	s1,72(ra)
    800008e8:	04a0b823          	sd	a0,80(ra)
    800008ec:	04b0bc23          	sd	a1,88(ra)
    800008f0:	06c0b023          	sd	a2,96(ra)
    800008f4:	06d0b423          	sd	a3,104(ra)
    800008f8:	06e0b823          	sd	a4,112(ra)
    800008fc:	06f0bc23          	sd	a5,120(ra)
    80000900:	0900b023          	sd	a6,128(ra)
    80000904:	0910b423          	sd	a7,136(ra)
    80000908:	0920b823          	sd	s2,144(ra)
    8000090c:	0b40b023          	sd	s4,160(ra)
    80000910:	0b50b423          	sd	s5,168(ra)
    80000914:	0b60b823          	sd	s6,176(ra)
    80000918:	0b70bc23          	sd	s7,184(ra)
    8000091c:	0d80b023          	sd	s8,192(ra)
    80000920:	0d90b423          	sd	s9,200(ra)
    80000924:	0da0b823          	sd	s10,208(ra)
    80000928:	0db0bc23          	sd	s11,216(ra)
    8000092c:	0fc0b023          	sd	t3,224(ra)
    80000930:	0fd0b423          	sd	t4,232(ra)
    80000934:	0fe0b823          	sd	t5,240(ra)
    80000938:	0ff0bc23          	sd	t6,248(ra)
    8000093c:	0200006f          	j	8000095c <test_end>

0000000080000940 <crash_forward>:
    80000940:	0ff0000f          	fence
    80000944:	00018063          	beqz	gp,80000944 <crash_forward+0x4>
    80000948:	00119193          	slli	gp,gp,0x1
    8000094c:	0011e193          	ori	gp,gp,1
    80000950:	05d00893          	li	a7,93
    80000954:	00018513          	mv	a0,gp
    80000958:	00000073          	ecall

000000008000095c <test_end>:
    8000095c:	0ff0000f          	fence
    80000960:	00100193          	li	gp,1
    80000964:	05d00893          	li	a7,93
    80000968:	00000513          	li	a0,0
    8000096c:	00000073          	ecall
    80000970:	c0001073          	unimp
	...

Disassembly of section .tohost:

0000000080001000 <tohost>:
	...

0000000080001040 <fromhost>:
	...

Disassembly of section .data:

0000000080002000 <hidden_data>:
    80002000:	ffff                	0xffff
    80002002:	ffff                	0xffff
    80002004:	ffff                	0xffff
    80002006:	ffff                	0xffff

0000000080002008 <reg_x1_init>:
    80002008:	0a9e                	slli	s5,s5,0x7
    8000200a:	81ca                	mv	gp,s2
    8000200c:	b335                	j	80001d38 <fromhost+0xcf8>
    8000200e:	22d6                	fld	ft5,336(sp)

0000000080002010 <reg_x2_init>:
    80002010:	adbd                	j	8000268e <_end+0x7e>
    80002012:	8fe5                	and	a5,a5,s1
    80002014:	e9e8                	sd	a0,208(a1)
    80002016:	6cd8                	ld	a4,152(s1)

0000000080002018 <reg_x3_init>:
    80002018:	ffff                	0xffff
    8000201a:	ffff                	0xffff
    8000201c:	ffff                	0xffff
    8000201e:	ffff                	0xffff

0000000080002020 <reg_x4_init>:
    80002020:	ffff                	0xffff
    80002022:	ffff                	0xffff
    80002024:	ffff                	0xffff
    80002026:	ffff                	0xffff

0000000080002028 <reg_x5_init>:
    80002028:	d040                	sw	s0,36(s0)
    8000202a:	07fd                	addi	a5,a5,31
    8000202c:	d07f                	0xd07f
    8000202e:	1e15                	addi	t3,t3,-27

0000000080002030 <reg_x6_init>:
    80002030:	0001                	nop
    80002032:	0000                	unimp
    80002034:	0000                	unimp
	...

0000000080002038 <reg_x7_init>:
    80002038:	2cdc                	fld	fa5,152(s1)
    8000203a:	6ff011ef          	jal	gp,80003f38 <__global_pointer$+0x1128>
    8000203e:	f129                	bnez	a0,80001f80 <fromhost+0xf40>

0000000080002040 <reg_x8_init>:
    80002040:	0671                	addi	a2,a2,28
    80002042:	3101                	addiw	sp,sp,-32
    80002044:	ad2aff07          	0xad2aff07

0000000080002048 <reg_x9_init>:
    80002048:	0005                	c.nop	1
    8000204a:	0000                	unimp
    8000204c:	0000                	unimp
    8000204e:	0800                	addi	s0,sp,16

0000000080002050 <reg_x10_init>:
    80002050:	0009                	c.nop	2
    80002052:	8000                	0x8000
    80002054:	ffff                	0xffff
    80002056:	ffff                	0xffff

0000000080002058 <reg_x11_init>:
    80002058:	cd46                	sw	a7,152(sp)
    8000205a:	dc7c                	sw	a5,124(s0)
    8000205c:	6f2c                	ld	a1,88(a4)
    8000205e:	dfc4                	sw	s1,60(a5)

0000000080002060 <reg_x12_init>:
    80002060:	5349                	li	t1,-14
    80002062:	14d2                	slli	s1,s1,0x34
    80002064:	8ab167f3          	csrrsi	a5,0x8ab,2

0000000080002068 <reg_x13_init>:
    80002068:	0004                	0x4
    8000206a:	0000                	unimp
    8000206c:	0000                	unimp
	...

0000000080002070 <reg_x14_init>:
    80002070:	aa20                	fsd	fs0,80(a2)
    80002072:	90e8                	0x90e8
    80002074:	75c0                	ld	s0,168(a1)
    80002076:	          	0xffff43d3

0000000080002078 <reg_x15_init>:
    80002078:	ffff                	0xffff
    8000207a:	ffff                	0xffff
    8000207c:	ffff                	0xffff
    8000207e:	ffff                	0xffff

0000000080002080 <reg_x16_init>:
    80002080:	0006                	c.slli	zero,0x1
    80002082:	0000                	unimp
    80002084:	0000                	unimp
    80002086:	0800                	addi	s0,sp,16

0000000080002088 <reg_x17_init>:
    80002088:	0006                	c.slli	zero,0x1
    8000208a:	0000                	unimp
    8000208c:	0000                	unimp
    8000208e:	0800                	addi	s0,sp,16

0000000080002090 <reg_x18_init>:
    80002090:	0008                	0x8
    80002092:	8000                	0x8000
    80002094:	ffff                	0xffff
    80002096:	ffff                	0xffff

0000000080002098 <reg_x19_init>:
    80002098:	0001                	nop
    8000209a:	0000                	unimp
    8000209c:	0000                	unimp
	...

00000000800020a0 <reg_x20_init>:
    800020a0:	a8d8                	fsd	fa4,144(s1)
    800020a2:	5469                	li	s0,-6
    800020a4:	3166                	fld	ft2,120(sp)
    800020a6:	          	0x7e66f323

00000000800020a8 <reg_x21_init>:
    800020a8:	7e66                	ld	t3,120(sp)
    800020aa:	2ab97b0f          	0x2ab97b0f
    800020ae:	b9d6                	fsd	fs5,240(sp)

00000000800020b0 <reg_x22_init>:
    800020b0:	d8d4                	sw	a3,52(s1)
    800020b2:	eeb1                	bnez	a3,8000210e <reg_x1_output+0x6>
    800020b4:	e6f0                	sd	a2,200(a3)
    800020b6:	fc0d                	bnez	s0,80001ff0 <fromhost+0xfb0>

00000000800020b8 <reg_x23_init>:
    800020b8:	c4f0                	sw	a2,76(s1)
    800020ba:	18d0                	addi	a2,sp,116
    800020bc:	e962                	sd	s8,144(sp)
    800020be:	          	fmadd.q	ft5,ft10,ft11,ft11,rmm

00000000800020c0 <reg_x24_init>:
    800020c0:	ffff                	0xffff
    800020c2:	ffff                	0xffff
    800020c4:	ffff                	0xffff
    800020c6:	ffff                	0xffff

00000000800020c8 <reg_x25_init>:
    800020c8:	0009                	c.nop	2
    800020ca:	0000                	unimp
    800020cc:	0000                	unimp
    800020ce:	0800                	addi	s0,sp,16

00000000800020d0 <reg_x26_init>:
    800020d0:	0000                	unimp
    800020d2:	8000                	0x8000
    800020d4:	ffff                	0xffff
    800020d6:	ffff                	0xffff

00000000800020d8 <reg_x27_init>:
    800020d8:	8614                	0x8614
    800020da:	bbdf 1fc4 19a4      	0x19a41fc4bbdf

00000000800020e0 <reg_x28_init>:
    800020e0:	4d84                	lw	s1,24(a1)
    800020e2:	e58c                	sd	a1,8(a1)
    800020e4:	fbbe                	sd	a5,496(sp)
    800020e6:	15d1                	addi	a1,a1,-12

00000000800020e8 <reg_x29_init>:
    800020e8:	80000007          	0x80000007
    800020ec:	ffff                	0xffff
    800020ee:	ffff                	0xffff

00000000800020f0 <reg_x30_init>:
    800020f0:	83543b6b          	0x83543b6b
    800020f4:	3a05                	addiw	s4,s4,-31
    800020f6:	4b31                	li	s6,12

00000000800020f8 <reg_x31_init>:
    800020f8:	00000007          	0x7
    800020fc:	0000                	unimp
	...

0000000080002100 <begin_signature>:
    80002100:	5f41ab77          	0x5f41ab77
    80002104:	78ba                	ld	a7,424(sp)
    80002106:	  	0xd3dfb424c9a503bf

0000000080002108 <reg_x1_output>:
    80002108:	c9a5                	beqz	a1,80002178 <reg_x15_output>
    8000210a:	b424                	fsd	fs1,104(s0)
    8000210c:	d3df 7685       	0xd2917685d3df

0000000080002110 <reg_x2_output>:
    80002110:	d291                	beqz	a3,80002014 <reg_x2_init+0x4>
    80002112:	d249                	beqz	a2,80002094 <reg_x18_init+0x4>
    80002114:	a776                	fsd	ft9,392(sp)
    80002116:	8b01                	andi	a4,a4,0

0000000080002118 <reg_x3_output>:
    80002118:	5a24                	lw	s1,112(a2)
    8000211a:	32aa                	fld	ft5,168(sp)
    8000211c:	692c                	ld	a1,80(a0)
    8000211e:	5dfe                	lw	s11,252(sp)

0000000080002120 <reg_x4_output>:
    80002120:	882e                	mv	a6,a1
    80002122:	4d04f1e7          	0x4d04f1e7
    80002126:	e4f0                	sd	a2,200(s1)

0000000080002128 <reg_x5_output>:
    80002128:	cfbe                	sw	a5,220(sp)
    8000212a:	1712                	slli	a4,a4,0x24
    8000212c:	9adc                	0x9adc
    8000212e:	7e24                	ld	s1,120(a2)

0000000080002130 <reg_x6_output>:
    80002130:	5a41                	li	s4,-16
    80002132:	4aa6                	lw	s5,72(sp)
    80002134:	2fd7784b          	fnmsub.q	fa6,fa4,ft9,ft5

0000000080002138 <reg_x7_output>:
    80002138:	5d60                	lw	s0,124(a0)
    8000213a:	d074                	sw	a3,100(s0)
    8000213c:	89d30897          	auipc	a7,0x89d30

0000000080002140 <reg_x8_output>:
    80002140:	f0c1                	bnez	s1,800020c0 <reg_x24_init>
    80002142:	b365b767          	0xb365b767
    80002146:	b19e                	fsd	ft7,224(sp)

0000000080002148 <reg_x9_output>:
    80002148:	2108                	fld	fa0,0(a0)
    8000214a:	7392                	ld	t2,288(sp)
    8000214c:	0431                	addi	s0,s0,12
    8000214e:	9332                	add	t1,t1,a2

0000000080002150 <reg_x10_output>:
    80002150:	5b40ffd3          	0x5b40ffd3
    80002154:	37e1                	addiw	a5,a5,-8
    80002156:	a079                	j	800021e4 <reg_x28_output+0x4>

0000000080002158 <reg_x11_output>:
    80002158:	f570dc87          	0xf570dc87
    8000215c:	02f5                	addi	t0,t0,29
    8000215e:	          	0xb8276187

0000000080002160 <reg_x12_output>:
    80002160:	9130b827          	fsd	fs3,-1776(ra)
    80002164:	b221                	j	80001a6c <fromhost+0xa2c>
    80002166:	fee8                	sd	a0,248(a3)

0000000080002168 <reg_x13_output>:
    80002168:	f688                	sd	a0,40(a3)
    8000216a:	50451d77          	0x50451d77
    8000216e:	a579                	j	800027fc <_end+0x1ec>

0000000080002170 <reg_x14_output>:
    80002170:	59a1                	li	s3,-24
    80002172:	b734                	fsd	fa3,104(a4)
    80002174:	4825                	li	a6,9
    80002176:	c264                	sw	s1,68(a2)

0000000080002178 <reg_x15_output>:
    80002178:	07d0                	addi	a2,sp,964
    8000217a:	d563e1b3          	0xd563e1b3
    8000217e:	6d56                	ld	s10,336(sp)

0000000080002180 <reg_x16_output>:
    80002180:	cc3c                	sw	a5,88(s0)
    80002182:	5e2e                	lw	t3,232(sp)
    80002184:	d770                	sw	a2,108(a4)
    80002186:	32dc                	fld	fa5,160(a3)

0000000080002188 <reg_x17_output>:
    80002188:	78c6                	ld	a7,112(sp)
    8000218a:	be48                	fsd	fa0,184(a2)
    8000218c:	0a90                	addi	a2,sp,336
    8000218e:	483d                	li	a6,15

0000000080002190 <reg_x18_output>:
    80002190:	ad36632b          	0xad36632b
    80002194:	9e3d                	addw	a2,a2,a5
    80002196:	6772                	ld	a4,280(sp)

0000000080002198 <reg_x19_output>:
    80002198:	f336                	sd	a3,416(sp)
    8000219a:	f77d                	bnez	a4,80002188 <reg_x17_output>
    8000219c:	6556                	ld	a0,336(sp)
    8000219e:	          	lui	a7,0x2e408

00000000800021a0 <reg_x20_output>:
    800021a0:	2e40                	fld	fs0,152(a2)
    800021a2:	1b59                	addi	s6,s6,-10
    800021a4:	c3fe                	sw	t6,196(sp)
    800021a6:	  	0xd8224bebac51393f

00000000800021a8 <reg_x21_output>:
    800021a8:	ac51                	j	8000243c <test_memory+0x23c>
    800021aa:	d8224beb          	0xd8224beb
    800021ae:	7ea5                	lui	t4,0xfffe9

00000000800021b0 <reg_x22_output>:
    800021b0:	7d91                	lui	s11,0xfffe4
    800021b2:	190a                	slli	s2,s2,0x22
    800021b4:	7500                	ld	s0,40(a0)
    800021b6:	eb5e                	sd	s7,400(sp)

00000000800021b8 <reg_x23_output>:
    800021b8:	caf8                	sw	a4,84(a3)
    800021ba:	3716670b          	0x3716670b
    800021be:	          	0x7b589253

00000000800021c0 <reg_x24_output>:
    800021c0:	7b58                	ld	a4,176(a4)
    800021c2:	d072                	sw	t3,32(sp)
    800021c4:	856a                	mv	a0,s10
    800021c6:	0688                	addi	a0,sp,832

00000000800021c8 <reg_x25_output>:
    800021c8:	6e39                	lui	t3,0xe
    800021ca:	961ae363          	bltu	s5,ra,80001330 <fromhost+0x2f0>
    800021ce:	40cc                	lw	a1,4(s1)

00000000800021d0 <reg_x26_output>:
    800021d0:	e403001b          	addiw	zero,t1,-448
    800021d4:	cf74                	sw	a3,92(a4)
    800021d6:	9a19                	andi	a2,a2,-26

00000000800021d8 <reg_x27_output>:
    800021d8:	1819                	addi	a6,a6,-26
    800021da:	f43c2357          	0xf43c2357
    800021de:	          	flq	ft2,80(s9)

00000000800021e0 <reg_x28_output>:
    800021e0:	050c                	addi	a1,sp,640
    800021e2:	c0cd8343          	fmadd.s	ft6,fs11,fa2,fs8,rne
    800021e6:	cb1d                	beqz	a4,8000221c <test_memory+0x1c>

00000000800021e8 <reg_x29_output>:
    800021e8:	00948093          	addi	ra,s1,9
    800021ec:	c831                	beqz	s0,80002240 <test_memory+0x40>
    800021ee:	d379                	beqz	a4,800021b4 <reg_x22_output+0x4>

00000000800021f0 <reg_x30_output>:
    800021f0:	58b2                	lw	a7,44(sp)
    800021f2:	70f4                	ld	a3,224(s1)
    800021f4:	cb5c                	sw	a5,20(a4)
    800021f6:	          	sh	a4,335(gp) # 80002f5f <__global_pointer$+0x14f>

00000000800021f8 <reg_x31_output>:
    800021f8:	14e1                	addi	s1,s1,-8
    800021fa:	d818                	sw	a4,48(s0)
    800021fc:	4239                	li	tp,14
    800021fe:	ff9e                	sd	t2,504(sp)

0000000080002200 <test_memory>:
    80002200:	b1cd79c7          	fmsub.s	fs3,fs10,ft8,fs6
    80002204:	ad2d                	j	8000283e <_end+0x22e>
    80002206:	301d                	0x301d
    80002208:	a6f9                	j	800025d6 <test_memory+0x3d6>
    8000220a:	dc74                	sw	a3,124(s0)
    8000220c:	572c                	lw	a1,104(a4)
    8000220e:	75f4                	ld	a3,232(a1)
    80002210:	bc64                	fsd	fs1,248(s0)
    80002212:	c3a8ba3b          	0xc3a8ba3b
    80002216:	ad45                	j	800028c6 <_end+0x2b6>
    80002218:	115a                	slli	sp,sp,0x36
    8000221a:	ad68                	fsd	fa0,216(a0)
    8000221c:	e8d1                	bnez	s1,800022b0 <test_memory+0xb0>
    8000221e:	6e35                	lui	t3,0xd
    80002220:	a2401d5b          	0xa2401d5b
    80002224:	de06                	sw	ra,60(sp)
    80002226:	163a                	slli	a2,a2,0x2e
    80002228:	d32fd307          	0xd32fd307
    8000222c:	9f6d                	0x9f6d
    8000222e:	3a79                	addiw	s4,s4,-2
    80002230:	5abb67e3          	bltu	s6,a1,80002fde <__global_pointer$+0x1ce>
    80002234:	4302                	lw	t1,0(sp)
    80002236:	3362                	fld	ft6,56(sp)
    80002238:	01bce7d3          	fadd.s	fa5,fs9,fs11,unknown
    8000223c:	489d                	li	a7,7
    8000223e:	4da0                	lw	s0,88(a1)
    80002240:	917a                	add	sp,sp,t5
    80002242:	2da4                	fld	fs1,88(a1)
    80002244:	1677ddcb          	fnmsub.q	fs11,fa5,ft7,ft2,unknown
    80002248:	60df 9416 cf63      	0xcf63941660df
    8000224e:	1738                	addi	a4,sp,936
    80002250:	34ee7007          	0x34ee7007
    80002254:	c641                	beqz	a2,800022dc <test_memory+0xdc>
    80002256:	81614a3f 2185e72e 	0x2185e72e81614a3f
    8000225e:	2e3e2623          	sw	gp,748(t3) # d2ec <_start-0x7fff2d14>
    80002262:	8890                	0x8890
    80002264:	985e                	add	a6,a6,s7
    80002266:	63a673cb          	fnmsub.d	ft7,fa2,fs10,fa2
    8000226a:	8566                	mv	a0,s9
    8000226c:	9615                	srai	a2,a2,0x25
    8000226e:	22475eeb          	0x22475eeb
    80002272:	ed76                	sd	t4,152(sp)
    80002274:	4ef4                	lw	a3,92(a3)
    80002276:	b779                	j	80002204 <test_memory+0x4>
    80002278:	6a59                	lui	s4,0x16
    8000227a:	1d38                	addi	a4,sp,696
    8000227c:	a94d                	j	8000272e <_end+0x11e>
    8000227e:	f05d                	bnez	s0,80002224 <test_memory+0x24>
    80002280:	eaa2                	sd	s0,336(sp)
    80002282:	f356                	sd	s5,416(sp)
    80002284:	9599                	srai	a1,a1,0x26
    80002286:	43f8                	lw	a4,68(a5)
    80002288:	0205                	addi	tp,tp,1
    8000228a:	3642                	fld	fa2,48(sp)
    8000228c:	219d                	addiw	gp,gp,7
    8000228e:	d966                	sw	s9,176(sp)
    80002290:	f544                	sd	s1,168(a0)
    80002292:	f8c2                	sd	a6,112(sp)
    80002294:	c5df 08fe 76d8      	0x76d808fec5df
    8000229a:	7469                	lui	s0,0xffffa
    8000229c:	f206                	sd	ra,288(sp)
    8000229e:	6449                	lui	s0,0x12
    800022a0:	d506                	sw	ra,168(sp)
    800022a2:	2982                	fld	fs3,0(sp)
    800022a4:	03c9                	addi	t2,t2,18
    800022a6:	5521                	li	a0,-24
    800022a8:	e2a9                	bnez	a3,800022ea <test_memory+0xea>
    800022aa:	f164                	sd	s1,224(a0)
    800022ac:	6da6                	ld	s11,72(sp)
    800022ae:	a5b8                	fsd	fa4,72(a1)
    800022b0:	8dbb093f 11cf2d79 	0x11cf2d798dbb093f
    800022b8:	05b3773b          	0x5b3773b
    800022bc:	5794a097          	auipc	ra,0x5794a
    800022c0:	de921baf          	0xde921baf
    800022c4:	922d                	srli	a2,a2,0x2b
    800022c6:	bce1                	j	80001d9e <fromhost+0xd5e>
    800022c8:	a8c2                	fsd	fa6,80(sp)
    800022ca:	836a                	mv	t1,s10
    800022cc:	e1f4                	sd	a3,192(a1)
    800022ce:	e8ba                	sd	a4,80(sp)
    800022d0:	389e                	fld	fa7,480(sp)
    800022d2:	6980                	ld	s0,16(a1)
    800022d4:	a46c                	fsd	fa1,200(s0)
    800022d6:	6fd6                	ld	t6,336(sp)
    800022d8:	6b4cfca7          	0x6b4cfca7
    800022dc:	f33d                	bnez	a4,80002242 <test_memory+0x42>
    800022de:	41c4                	lw	s1,4(a1)
    800022e0:	a544                	fsd	fs1,136(a0)
    800022e2:	943d                	srai	s0,s0,0x2f
    800022e4:	0cfd1b7b          	0xcfd1b7b
    800022e8:	8088                	0x8088
    800022ea:	0fb8                	addi	a4,sp,984
    800022ec:	40dd                	li	ra,23
    800022ee:	0c20                	addi	s0,sp,536
    800022f0:	f2b7b86b          	0xf2b7b86b
    800022f4:	3816                	fld	fa6,352(sp)
    800022f6:	8d9a                	mv	s11,t1
    800022f8:	2d82                	fld	fs11,0(sp)
    800022fa:	18073557          	0x18073557
    800022fe:	395291ef          	jal	gp,8002be92 <__global_pointer$+0x29082>
    80002302:	9cca                	add	s9,s9,s2
    80002304:	205c                	fld	fa5,128(s0)
    80002306:	bbb2e0e3          	bltu	t0,s11,80001ea6 <fromhost+0xe66>
    8000230a:	e5c85f5b          	0xe5c85f5b
    8000230e:	fb66                	sd	s9,432(sp)
    80002310:	48d4                	lw	a3,20(s1)
    80002312:	f4f5                	bnez	s1,800022fe <test_memory+0xfe>
    80002314:	870a                	mv	a4,sp
    80002316:	a9f77d9b          	0xa9f77d9b
    8000231a:	28b9                	addiw	a7,a7,14
    8000231c:	d35a                	sw	s6,164(sp)
    8000231e:	7eea                	ld	t4,184(sp)
    80002320:	38c9                	addiw	a7,a7,-14
    80002322:	2a26                	fld	fs4,72(sp)
    80002324:	11ec                	addi	a1,sp,236
    80002326:	7dfdd69b          	0x7dfdd69b
    8000232a:	53b56d6f          	jal	s10,80059064 <__global_pointer$+0x56254>
    8000232e:	f5ac5d43          	0xf5ac5d43
    80002332:	338fdf2b          	0x338fdf2b
    80002336:	209e                	fld	ft1,448(sp)
    80002338:	72e68077          	0x72e68077
    8000233c:	6048766b          	0x6048766b
    80002340:	e67e                	sd	t6,264(sp)
    80002342:	e0d5                	bnez	s1,800023e6 <test_memory+0x1e6>
    80002344:	6c3a                	ld	s8,392(sp)
    80002346:	0cde                	slli	s9,s9,0x17
    80002348:	14db79ab          	0x14db79ab
    8000234c:	13b5                	addi	t2,t2,-19
    8000234e:	415e                	lw	sp,212(sp)
    80002350:	66e9                	lui	a3,0x1a
    80002352:	2a46                	fld	fs4,80(sp)
    80002354:	2620                	fld	fs0,72(a2)
    80002356:	4339                	li	t1,14
    80002358:	e1783233          	0xe1783233
    8000235c:	6b7e25c7          	fmsub.d	fa1,ft8,fs7,fa3,rdn
    80002360:	83f03fa7          	fsd	ft11,-1985(zero) # fffffffffffff83f <__global_pointer$+0xffffffff7fffca2f>
    80002364:	a0ce                	fsd	fs3,64(sp)
    80002366:	bc01ef6b          	0xbc01ef6b
    8000236a:	ab7d                	j	80002928 <_end+0x318>
    8000236c:	e36c                	sd	a1,192(a4)
    8000236e:	1b7e                	slli	s6,s6,0x3f
    80002370:	c124                	sw	s1,64(a0)
    80002372:	4f48                	lw	a0,28(a4)
    80002374:	9fea                	add	t6,t6,s10
    80002376:	c25d                	beqz	a2,8000241c <test_memory+0x21c>
    80002378:	58dbc7a3          	0x58dbc7a3
    8000237c:	6fd0                	ld	a2,152(a5)
    8000237e:	6462e607          	0x6462e607
    80002382:	f5ae                	sd	a1,232(sp)
    80002384:	d11e                	sw	t2,160(sp)
    80002386:	89c771db          	0x89c771db
    8000238a:	0711                	addi	a4,a4,4
    8000238c:	2e7f3397          	auipc	t2,0x2e7f3
    80002390:	161c                	addi	a5,sp,800
    80002392:	7e9e                	ld	t4,480(sp)
    80002394:	1d51                	addi	s10,s10,-12
    80002396:	51be                	lw	gp,236(sp)
    80002398:	f502                	sd	zero,168(sp)
    8000239a:	3978                	fld	fa4,240(a0)
    8000239c:	3336                	fld	ft6,360(sp)
    8000239e:	7a71                	lui	s4,0xffffc
    800023a0:	902e                	c.add	zero,a1
    800023a2:	5917f64f          	fnmadd.s	fa2,fa5,fa7,fa1
    800023a6:	d885                	beqz	s1,800022d6 <test_memory+0xd6>
    800023a8:	4bcc                	lw	a1,20(a5)
    800023aa:	e065                	bnez	s0,8000248a <test_memory+0x28a>
    800023ac:	f680                	sd	s0,40(a3)
    800023ae:	ba9d                	j	80001d24 <fromhost+0xce4>
    800023b0:	1c736533          	0x1c736533
    800023b4:	323f086b          	0x323f086b
    800023b8:	1f0a4ecf          	fnmadd.q	ft9,fs4,fa6,ft3,rmm
    800023bc:	d582                	sw	zero,232(sp)
    800023be:	a26f638b          	0xa26f638b
    800023c2:	299bc153          	0x299bc153
    800023c6:	d635                	beqz	a2,80002332 <test_memory+0x132>
    800023c8:	8b60                	0x8b60
    800023ca:	c9b1                	beqz	a1,8000241e <test_memory+0x21e>
    800023cc:	5c0ebe8b          	0x5c0ebe8b
    800023d0:	e0422bef          	jal	s7,7ff249d4 <_start-0xdb62c>
    800023d4:	3b82                	fld	fs7,32(sp)
    800023d6:	8e4d01db          	0x8e4d01db
    800023da:	c98f6a17          	auipc	s4,0xc98f6
    800023de:	8e3d                	xor	a2,a2,a5
    800023e0:	36ee                	fld	fa3,248(sp)
    800023e2:	e74e                	sd	s3,392(sp)
    800023e4:	f2fd                	bnez	a3,800023ca <test_memory+0x1ca>
    800023e6:	14c8                	addi	a0,sp,612
    800023e8:	fed8                	sd	a4,184(a3)
    800023ea:	f522                	sd	s0,168(sp)
    800023ec:	2cad                	addiw	s9,s9,11
    800023ee:	07de                	slli	a5,a5,0x17
    800023f0:	57ec867b          	0x57ec867b
    800023f4:	5398                	lw	a4,32(a5)
    800023f6:	d1a6                	sw	s1,224(sp)
    800023f8:	4fc3e603          	lwu	a2,1276(t2) # ae7f5888 <__global_pointer$+0x2e7f2a78>
    800023fc:	660e                	ld	a2,192(sp)
    800023fe:	a7b0                	fsd	fa2,72(a5)
    80002400:	88d44e57          	0x88d44e57
    80002404:	1f86                	slli	t6,t6,0x21
    80002406:	35f4                	fld	fa3,232(a1)
    80002408:	a60e                	fsd	ft3,264(sp)
    8000240a:	d8e9                	beqz	s1,800023dc <test_memory+0x1dc>
    8000240c:	aef0                	fsd	fa2,216(a3)
    8000240e:	fe85                	bnez	a3,80002346 <test_memory+0x146>
    80002410:	790ce023          	0x790ce023
    80002414:	d2dc                	sw	a5,36(a3)
    80002416:	d9d6                	sw	s5,240(sp)
    80002418:	663e                	ld	a2,456(sp)
    8000241a:	c062                	sw	s8,0(sp)
    8000241c:	0c01                	addi	s8,s8,0
    8000241e:	4ad1                	li	s5,20
    80002420:	86ba                	mv	a3,a4
    80002422:	6546                	ld	a0,80(sp)
    80002424:	9df5                	0x9df5
    80002426:	f8b9                	bnez	s1,8000237c <test_memory+0x17c>
    80002428:	f6df 565e 8ef2      	0x8ef2565ef6df
    8000242e:	dcc8                	sw	a0,60(s1)
    80002430:	dd5b33db          	0xdd5b33db
    80002434:	1334                	addi	a3,sp,424
    80002436:	7702                	ld	a4,32(sp)
    80002438:	718a                	ld	gp,160(sp)
    8000243a:	5182                	lw	gp,32(sp)
    8000243c:	25609d43          	0x25609d43
    80002440:	0679e40b          	0x679e40b
    80002444:	77647bf7          	0x77647bf7
    80002448:	6a1519ab          	0x6a1519ab
    8000244c:	5062                	0x5062
    8000244e:	acb4                	fsd	fa3,88(s1)
    80002450:	dcb9                	beqz	s1,800023ae <test_memory+0x1ae>
    80002452:	4149                	li	sp,18
    80002454:	96f408bf 7c66413d 	0x7c66413d96f408bf
    8000245c:	fa0b42fb          	0xfa0b42fb
    80002460:	28a2                	fld	fa7,8(sp)
    80002462:	b081                	j	80001ca2 <fromhost+0xc62>
    80002464:	50b1                	li	ra,-20
    80002466:	6109                	addi	sp,sp,128
    80002468:	92e135d7          	0x92e135d7
    8000246c:	5f88                	lw	a0,56(a5)
    8000246e:	79de                	ld	s3,496(sp)
    80002470:	de3bf677          	0xde3bf677
    80002474:	d446                	sw	a7,40(sp)
    80002476:	5ecc                	lw	a1,60(a3)
    80002478:	79ec                	ld	a1,240(a1)
    8000247a:	ee15                	bnez	a2,800024b6 <test_memory+0x2b6>
    8000247c:	842a                	mv	s0,a0
    8000247e:	da42                	sw	a6,52(sp)
    80002480:	bdbc                	fsd	fa5,120(a1)
    80002482:	a318                	fsd	fa4,0(a4)
    80002484:	773e                	ld	a4,488(sp)
    80002486:	a8da                	fsd	fs6,80(sp)
    80002488:	ce4e                	sw	s3,28(sp)
    8000248a:	0e32                	slli	t3,t3,0xc
    8000248c:	0fbe                	slli	t6,t6,0xf
    8000248e:	7539                	lui	a0,0xfffee
    80002490:	4df2                	lw	s11,28(sp)
    80002492:	25d243f7          	0x25d243f7
    80002496:	9f4e                	add	t5,t5,s3
    80002498:	cff4                	sw	a3,92(a5)
    8000249a:	5a7d                	li	s4,-1
    8000249c:	cfd3ac27          	fsw	ft9,-776(t2)
    800024a0:	2bf8                	fld	fa4,208(a5)
    800024a2:	1929a877          	0x1929a877
    800024a6:	64d9                	lui	s1,0x16
    800024a8:	2dfc                	fld	fa5,216(a1)
    800024aa:	c04a                	sw	s2,0(sp)
    800024ac:	2619e9ef          	jal	s3,800a0f0c <__global_pointer$+0x9e0fc>
    800024b0:	e1ad                	bnez	a1,80002512 <test_memory+0x312>
    800024b2:	6f146733          	0x6f146733
    800024b6:	9f82                	jalr	t6
    800024b8:	bbf2                	fsd	ft8,496(sp)
    800024ba:	81164053          	0x81164053
    800024be:	7374                	ld	a3,224(a4)
    800024c0:	23da                	fld	ft7,400(sp)
    800024c2:	e384                	sd	s1,0(a5)
    800024c4:	7cad08f3          	0x7cad08f3
    800024c8:	e452                	sd	s4,8(sp)
    800024ca:	1f1f 4b20 7f4b      	0x7f4b4b201f1f
    800024d0:	b56af24f          	0xb56af24f
    800024d4:	e5f9                	bnez	a1,800025a2 <test_memory+0x3a2>
    800024d6:	3f4be127          	0x3f4be127
    800024da:	4fa5                	li	t6,9
    800024dc:	9ac04a73          	0x9ac04a73
    800024e0:	4db8164b          	0x4db8164b
    800024e4:	58ad6c93          	ori	s9,s10,1418
    800024e8:	51c5                	li	gp,-15
    800024ea:	52e3bf0f          	0x52e3bf0f
    800024ee:	a320f043          	fmadd.d	ft0,ft1,fs2,fs4
    800024f2:	57212047          	fmsub.q	ft0,ft2,fs2,fa0,rdn
    800024f6:	c589                	beqz	a1,80002500 <test_memory+0x300>
    800024f8:	b8a5                	j	80001d70 <fromhost+0xd30>
    800024fa:	b150                	fsd	fa2,160(a0)
    800024fc:	278e                	fld	fa5,192(sp)
    800024fe:	5d5f 5d17 5b26      	0x5b265d175d5f
    80002504:	37ed                	addiw	a5,a5,-5
    80002506:	f864                	sd	s1,240(s0)
    80002508:	3096444f          	fnmadd.s	fs0,fa2,fs1,ft6,rmm
    8000250c:	21e6                	fld	ft3,88(sp)
    8000250e:	b3da                	fsd	fs6,480(sp)
    80002510:	2a90                	fld	fa2,16(a3)
    80002512:	c85c3d5b          	0xc85c3d5b
    80002516:	64ae                	ld	s1,200(sp)
    80002518:	c86c                	sw	a1,84(s0)
    8000251a:	41d1                	li	gp,20
    8000251c:	b60c                	fsd	fa1,40(a2)
    8000251e:	2e51                	addiw	t3,t3,20
    80002520:	f36d                	bnez	a4,80002502 <test_memory+0x302>
    80002522:	775fc973          	0x775fc973
    80002526:	b716                	fsd	ft5,424(sp)
    80002528:	a3ed                	j	80002b12 <_end+0x502>
    8000252a:	6862b6bb          	0x6862b6bb
    8000252e:	af19                	j	80002c44 <_end+0x634>
    80002530:	92b1                	srli	a3,a3,0x2c
    80002532:	c8f6                	sw	t4,80(sp)
    80002534:	eb30                	sd	a2,80(a4)
    80002536:	454e7c0f          	0x454e7c0f
    8000253a:	ee16                	sd	t0,280(sp)
    8000253c:	0862                	slli	a6,a6,0x18
    8000253e:	be63ab9b          	0xbe63ab9b
    80002542:	b4bc                	fsd	fa5,104(s1)
    80002544:	6a3c                	ld	a5,80(a2)
    80002546:	2f1f8c1b          	addiw	s8,t6,753
    8000254a:	44acfdef          	jal	s11,800d1994 <__global_pointer$+0xceb84>
    8000254e:	2bff                	0x2bff
    80002550:	09b8                	addi	a4,sp,216
    80002552:	154c                	addi	a1,sp,676
    80002554:	5f5d                	li	t5,-9
    80002556:	1532                	slli	a0,a0,0x2c
    80002558:	c54d40bf 13c2ec5e 	0x13c2ec5ec54d40bf
    80002560:	6570                	ld	a2,200(a0)
    80002562:	aba9                	j	80002abc <_end+0x4ac>
    80002564:	c40c6d47          	0xc40c6d47
    80002568:	476a                	lw	a4,152(sp)
    8000256a:	6374                	ld	a3,192(a4)
    8000256c:	71a9                	lui	gp,0xfffea
    8000256e:	9d4e                	add	s10,s10,s3
    80002570:	c280                	sw	s0,0(a3)
    80002572:	3139                	addiw	sp,sp,-18
    80002574:	c54c                	sw	a1,12(a0)
    80002576:	67dd                	lui	a5,0x17
    80002578:	1b76                	slli	s6,s6,0x3d
    8000257a:	fee2                	sd	s8,376(sp)
    8000257c:	819f 05ea baf0      	0xbaf005ea819f
    80002582:	b539a237          	lui	tp,0xb539a
    80002586:	cdd90717          	auipc	a4,0xcdd90
    8000258a:	8da9                	xor	a1,a1,a0
    8000258c:	c551                	beqz	a0,80002618 <_end+0x8>
    8000258e:	61c5                	lui	gp,0x11
    80002590:	6506                	ld	a0,64(sp)
    80002592:	dc60                	sw	s0,124(s0)
    80002594:	a0a0                	fsd	fs0,64(s1)
    80002596:	a9ee86cf          	fnmadd.s	fa3,ft9,ft10,fs5,rne
    8000259a:	2815                	addiw	a6,a6,5
    8000259c:	201a                	fld	ft0,384(sp)
    8000259e:	4e6d                	li	t3,27
    800025a0:	b4a4                	fsd	fs1,104(s1)
    800025a2:	d93f50f7          	0xd93f50f7
    800025a6:	ffff                	0xffff
    800025a8:	0f78                	addi	a4,sp,924
    800025aa:	0dc1                	addi	s11,s11,16
    800025ac:	ff34                	sd	a3,120(a4)
    800025ae:	2e58                	fld	fa4,152(a2)
    800025b0:	0eee                	slli	t4,t4,0x1b
    800025b2:	0ab3b067          	0xab3b067
    800025b6:	9919                	andi	a0,a0,-26
    800025b8:	68e6                	ld	a7,88(sp)
    800025ba:	8e92e8e7          	0x8e92e8e7
    800025be:	f42f0747          	0xf42f0747
    800025c2:	c4be                	sw	a5,72(sp)
    800025c4:	2d78                	fld	fa4,216(a0)
    800025c6:	1e92                	slli	t4,t4,0x24
    800025c8:	c1d8                	sw	a4,4(a1)
    800025ca:	83b5                	srli	a5,a5,0xd
    800025cc:	e6f0                	sd	a2,200(a3)
    800025ce:	6044                	ld	s1,128(s0)
    800025d0:	e3fd                	bnez	a5,800026b6 <_end+0xa6>
    800025d2:	418e                	lw	gp,192(sp)
    800025d4:	bd90350f          	0xbd90350f
    800025d8:	c1e2                	sw	s8,192(sp)
    800025da:	5440                	lw	s0,44(s0)
    800025dc:	8928                	0x8928
    800025de:	df9a40bf ed7aa114 	0xed7aa114df9a40bf
    800025e6:	bf9d                	j	8000255c <test_memory+0x35c>
    800025e8:	45990f8f          	0x45990f8f
    800025ec:	bac0                	fsd	fs0,176(a3)
    800025ee:	f918                	sd	a4,48(a0)
    800025f0:	2e9c                	fld	fa5,24(a3)
    800025f2:	5af8                	lw	a4,116(a3)
    800025f4:	bbf1                	j	800023d0 <test_memory+0x1d0>
    800025f6:	38ff                	0x38ff
    800025f8:	83945fa7          	0x83945fa7
    800025fc:	bc0597c7          	0xbc0597c7

0000000080002600 <loop_count>:
    80002600:	0040                	addi	s0,sp,4
	...

Disassembly of section .riscv.attributes:

0000000000000000 <.riscv.attributes>:
   0:	1e41                	addi	t3,t3,-16
   2:	0000                	unimp
   4:	7200                	ld	s0,32(a2)
   6:	7369                	lui	t1,0xffffa
   8:	01007663          	bgeu	zero,a6,14 <_start-0x7fffffec>
   c:	0014                	0x14
   e:	0000                	unimp
  10:	7205                	lui	tp,0xfffe1
  12:	3676                	fld	fa2,376(sp)
  14:	6934                	ld	a3,80(a0)
  16:	7032                	0x7032
  18:	5f30                	lw	a2,120(a4)
  1a:	326d                	addiw	tp,tp,-5
  1c:	3070                	fld	fa2,224(s0)
	...
