
build/test31:     file format elf64-littleriscv


Disassembly of section .text.init:

0000000080000000 <_start>:
    80000000:	05c0006f          	j	8000005c <reset_vector>

0000000080000004 <trap_vector>:
    80000004:	34202f73          	csrr	t5,mcause
    80000008:	00800f93          	li	t6,8
    8000000c:	03ff0a63          	beq	t5,t6,80000040 <write_tohost>
    80000010:	00900f93          	li	t6,9
    80000014:	03ff0663          	beq	t5,t6,80000040 <write_tohost>
    80000018:	00b00f93          	li	t6,11
    8000001c:	03ff0263          	beq	t5,t6,80000040 <write_tohost>
    80000020:	80000f17          	auipc	t5,0x80000
    80000024:	fe0f0f13          	addi	t5,t5,-32 # 0 <_start-0x80000000>
    80000028:	000f0463          	beqz	t5,80000030 <trap_vector+0x2c>
    8000002c:	000f0067          	jr	t5
    80000030:	34202f73          	csrr	t5,mcause
    80000034:	000f5463          	bgez	t5,8000003c <handle_exception>
    80000038:	0040006f          	j	8000003c <handle_exception>

000000008000003c <handle_exception>:
    8000003c:	5391e193          	ori	gp,gp,1337

0000000080000040 <write_tohost>:
    80000040:	00001f17          	auipc	t5,0x1
    80000044:	fc3f2023          	sw	gp,-64(t5) # 80001000 <tohost>
    80000048:	000902b7          	lui	t0,0x90
    8000004c:	0012829b          	addiw	t0,t0,1
    80000050:	00c29293          	slli	t0,t0,0xc
    80000054:	0002af83          	lw	t6,0(t0) # 90000 <_start-0x7ff70000>
    80000058:	fe9ff06f          	j	80000040 <write_tohost>

000000008000005c <reset_vector>:
    8000005c:	00000093          	li	ra,0
    80000060:	00000113          	li	sp,0
    80000064:	00000193          	li	gp,0
    80000068:	00000213          	li	tp,0
    8000006c:	00000293          	li	t0,0
    80000070:	00000313          	li	t1,0
    80000074:	00000393          	li	t2,0
    80000078:	00000413          	li	s0,0
    8000007c:	00000493          	li	s1,0
    80000080:	00000513          	li	a0,0
    80000084:	00000593          	li	a1,0
    80000088:	00000613          	li	a2,0
    8000008c:	00000693          	li	a3,0
    80000090:	00000713          	li	a4,0
    80000094:	00000793          	li	a5,0
    80000098:	00000813          	li	a6,0
    8000009c:	00000893          	li	a7,0
    800000a0:	00000913          	li	s2,0
    800000a4:	00000993          	li	s3,0
    800000a8:	00000a13          	li	s4,0
    800000ac:	00000a93          	li	s5,0
    800000b0:	00000b13          	li	s6,0
    800000b4:	00000b93          	li	s7,0
    800000b8:	00000c13          	li	s8,0
    800000bc:	00000c93          	li	s9,0
    800000c0:	00000d13          	li	s10,0
    800000c4:	00000d93          	li	s11,0
    800000c8:	00000e13          	li	t3,0
    800000cc:	00000e93          	li	t4,0
    800000d0:	00000f13          	li	t5,0
    800000d4:	00000f93          	li	t6,0
    800000d8:	f1402573          	csrr	a0,mhartid
    800000dc:	00051063          	bnez	a0,800000dc <reset_vector+0x80>
    800000e0:	00000297          	auipc	t0,0x0
    800000e4:	01028293          	addi	t0,t0,16 # 800000f0 <reset_vector+0x94>
    800000e8:	30529073          	csrw	mtvec,t0
    800000ec:	18005073          	csrwi	satp,0
    800000f0:	00000297          	auipc	t0,0x0
    800000f4:	02428293          	addi	t0,t0,36 # 80000114 <reset_vector+0xb8>
    800000f8:	30529073          	csrw	mtvec,t0
    800000fc:	0010029b          	addiw	t0,zero,1
    80000100:	03529293          	slli	t0,t0,0x35
    80000104:	fff28293          	addi	t0,t0,-1
    80000108:	3b029073          	csrw	pmpaddr0,t0
    8000010c:	01f00293          	li	t0,31
    80000110:	3a029073          	csrw	pmpcfg0,t0
    80000114:	30405073          	csrwi	mie,0
    80000118:	00000297          	auipc	t0,0x0
    8000011c:	01428293          	addi	t0,t0,20 # 8000012c <reset_vector+0xd0>
    80000120:	30529073          	csrw	mtvec,t0
    80000124:	30205073          	csrwi	medeleg,0
    80000128:	30305073          	csrwi	mideleg,0
    8000012c:	00000193          	li	gp,0
    80000130:	00000297          	auipc	t0,0x0
    80000134:	ed428293          	addi	t0,t0,-300 # 80000004 <trap_vector>
    80000138:	30529073          	csrw	mtvec,t0
    8000013c:	00100513          	li	a0,1
    80000140:	01f51513          	slli	a0,a0,0x1f
    80000144:	00055c63          	bgez	a0,8000015c <reset_vector+0x100>
    80000148:	0ff0000f          	fence
    8000014c:	00100193          	li	gp,1
    80000150:	05d00893          	li	a7,93
    80000154:	00000513          	li	a0,0
    80000158:	00000073          	ecall
    8000015c:	80000297          	auipc	t0,0x80000
    80000160:	ea428293          	addi	t0,t0,-348 # 0 <_start-0x80000000>
    80000164:	00028a63          	beqz	t0,80000178 <reset_vector+0x11c>
    80000168:	10529073          	csrw	stvec,t0
    8000016c:	0000b2b7          	lui	t0,0xb
    80000170:	1092829b          	addiw	t0,t0,265
    80000174:	30229073          	csrw	medeleg,t0
    80000178:	30005073          	csrwi	mstatus,0
    8000017c:	00000297          	auipc	t0,0x0
    80000180:	01428293          	addi	t0,t0,20 # 80000190 <reset_vector+0x134>
    80000184:	34129073          	csrw	mepc,t0
    80000188:	f1402573          	csrr	a0,mhartid
    8000018c:	30200073          	mret
    80000190:	0200006f          	j	800001b0 <test_start>

0000000080000194 <crash_backward>:
    80000194:	0ff0000f          	fence
    80000198:	00018063          	beqz	gp,80000198 <crash_backward+0x4>
    8000019c:	00119193          	slli	gp,gp,0x1
    800001a0:	0011e193          	ori	gp,gp,1
    800001a4:	05d00893          	li	a7,93
    800001a8:	00018513          	mv	a0,gp
    800001ac:	00000073          	ecall

00000000800001b0 <test_start>:
    800001b0:	00002f97          	auipc	t6,0x2
    800001b4:	e50f8f93          	addi	t6,t6,-432 # 80002000 <hidden_data>
    800001b8:	000fb003          	ld	zero,0(t6)
    800001bc:	008fb083          	ld	ra,8(t6)
    800001c0:	010fb103          	ld	sp,16(t6)
    800001c4:	018fb183          	ld	gp,24(t6)
    800001c8:	020fb203          	ld	tp,32(t6)
    800001cc:	028fb283          	ld	t0,40(t6)
    800001d0:	030fb303          	ld	t1,48(t6)
    800001d4:	038fb383          	ld	t2,56(t6)
    800001d8:	040fb403          	ld	s0,64(t6)
    800001dc:	048fb483          	ld	s1,72(t6)
    800001e0:	050fb503          	ld	a0,80(t6)
    800001e4:	058fb583          	ld	a1,88(t6)
    800001e8:	060fb603          	ld	a2,96(t6)
    800001ec:	068fb683          	ld	a3,104(t6)
    800001f0:	070fb703          	ld	a4,112(t6)
    800001f4:	078fb783          	ld	a5,120(t6)
    800001f8:	080fb803          	ld	a6,128(t6)
    800001fc:	088fb883          	ld	a7,136(t6)
    80000200:	090fb903          	ld	s2,144(t6)
    80000204:	098fb983          	ld	s3,152(t6)
    80000208:	0a0fba03          	ld	s4,160(t6)
    8000020c:	0a8fba83          	ld	s5,168(t6)
    80000210:	0b0fbb03          	ld	s6,176(t6)
    80000214:	0b8fbb83          	ld	s7,184(t6)
    80000218:	0c0fbc03          	ld	s8,192(t6)
    8000021c:	0c8fbc83          	ld	s9,200(t6)
    80000220:	0d0fbd03          	ld	s10,208(t6)
    80000224:	0d8fbd83          	ld	s11,216(t6)
    80000228:	0e0fbe03          	ld	t3,224(t6)
    8000022c:	0e8fbe83          	ld	t4,232(t6)
    80000230:	0f0fbf03          	ld	t5,240(t6)
    80000234:	0f8fbf83          	ld	t6,248(t6)
    80000238:	0040006f          	j	8000023c <pseg_0>

000000008000023c <pseg_0>:
    8000023c:	012b959b          	slliw	a1,s7,0x12
    80000240:	08700093          	li	ra,135
    80000244:	51f08a13          	addi	s4,ra,1311
    80000248:	50700d13          	li	s10,1287
    8000024c:	29400713          	li	a4,660
    80000250:	03ad4fbb          	divw	t6,s10,s10
    80000254:	01ce1e3b          	sllw	t3,t3,t3
    80000258:	26a00613          	li	a2,618
    8000025c:	ed400d93          	li	s11,-300
    80000260:	01b75c3b          	srlw	s8,a4,s11
    80000264:	56a00193          	li	gp,1386
    80000268:	010e893b          	addw	s2,t4,a6
    8000026c:	bcf00a93          	li	s5,-1073
    80000270:	ebc00b93          	li	s7,-324
    80000274:	c6b86e13          	ori	t3,a6,-917
    80000278:	00100a13          	li	s4,1
    8000027c:	ea600213          	li	tp,-346
    80000280:	d5900c13          	li	s8,-679
    80000284:	cd200d93          	li	s11,-814
    80000288:	032c59bb          	divuw	s3,s8,s2
    8000028c:	00002e17          	auipc	t3,0x2
    80000290:	1c4e0e13          	addi	t3,t3,452 # 80002450 <test_memory+0x250>
    80000294:	0c8e5903          	lhu	s2,200(t3)
    80000298:	cce00793          	li	a5,-818
    8000029c:	00f7c3b3          	xor	t2,a5,a5
    800002a0:	ae4a8813          	addi	a6,s5,-1308
    800002a4:	01bc6d33          	or	s10,s8,s11
    800002a8:	00002797          	auipc	a5,0x2
    800002ac:	e4c78793          	addi	a5,a5,-436 # 800020f4 <reg_x30_init+0x4>
    800002b0:	3507e083          	lwu	ra,848(a5)
    800002b4:	e5000113          	li	sp,-432
    800002b8:	03e979bb          	remuw	s3,s2,t5
    800002bc:	00002417          	auipc	s0,0x2
    800002c0:	b2740413          	addi	s0,s0,-1241 # 80001de3 <fromhost+0xda3>
    800002c4:	00002317          	auipc	t1,0x2
    800002c8:	2f230313          	addi	t1,t1,754 # 800025b6 <test_memory+0x3b6>
    800002cc:	41f88c33          	sub	s8,a7,t6
    800002d0:	62740903          	lb	s2,1575(s0)
    800002d4:	00000813          	li	a6,0
    800002d8:	00cdd71b          	srliw	a4,s11,0xc
    800002dc:	00000a93          	li	s5,0
    800002e0:	93100593          	li	a1,-1743
    800002e4:	4021df33          	sra	t5,gp,sp
    800002e8:	18300093          	li	ra,387
    800002ec:	4c000d13          	li	s10,1216
    800002f0:	03fa1a13          	slli	s4,s4,0x3f
    800002f4:	fff00b13          	li	s6,-1
    800002f8:	fb632123          	sw	s6,-94(t1)
    800002fc:	02c65ebb          	divuw	t4,a2,a2
    80000300:	91500e13          	li	t3,-1771
    80000304:	f57e0d93          	addi	s11,t3,-169
    80000308:	017bd8b3          	srl	a7,s7,s7
    8000030c:	014b4b33          	xor	s6,s6,s4
    80000310:	01677cb3          	and	s9,a4,s6
    80000314:	f5200993          	li	s3,-174
    80000318:	6ca00513          	li	a0,1738
    8000031c:	00002617          	auipc	a2,0x2
    80000320:	21960613          	addi	a2,a2,537 # 80002535 <test_memory+0x335>
    80000324:	02b5e2b3          	rem	t0,a1,a1
    80000328:	16800e93          	li	t4,360
    8000032c:	02a274b3          	remu	s1,tp,a0
    80000330:	97a00713          	li	a4,-1670
    80000334:	03d9fab3          	remu	s5,s3,t4
    80000338:	24e00c13          	li	s8,590
    8000033c:	5b200f93          	li	t6,1458
    80000340:	2a300913          	li	s2,675
    80000344:	82e00d93          	li	s11,-2002
    80000348:	03f0e7bb          	remw	a5,ra,t6
    8000034c:	0327543b          	divuw	s0,a4,s2
    80000350:	00002217          	auipc	tp,0x2
    80000354:	b0b20213          	addi	tp,tp,-1269 # 80001e5b <fromhost+0xe1b>
    80000358:	48b23ea3          	sd	a1,1181(tp) # 49d <_start-0x7ffffb63>
    8000035c:	99316337          	lui	t1,0x99316
    80000360:	014ce6b3          	or	a3,s9,s4
    80000364:	0284483b          	divw	a6,s0,s0
    80000368:	2c3d0393          	addi	t2,s10,707
    8000036c:	73400293          	li	t0,1844
    80000370:	58b00093          	li	ra,1419
    80000374:	02217bbb          	remuw	s7,sp,sp
    80000378:	d8762183          	lw	gp,-633(a2)
    8000037c:	66f00213          	li	tp,1647
    80000380:	00002817          	auipc	a6,0x2
    80000384:	5e480813          	addi	a6,a6,1508 # 80002964 <_end+0x354>
    80000388:	00d4961b          	slliw	a2,s1,0xd
    8000038c:	00100493          	li	s1,1
    80000390:	8cc81183          	lh	gp,-1844(a6)
    80000394:	03f49493          	slli	s1,s1,0x3f
    80000398:	2e3c0f13          	addi	t5,s8,739
    8000039c:	84100413          	li	s0,-1983
    800003a0:	dfa3cae3          	blt	t2,s10,80000194 <crash_backward>
    800003a4:	0282c8bb          	divw	a7,t0,s0
    800003a8:	b9b00e93          	li	t4,-1125
    800003ac:	03bdfe3b          	remuw	t3,s11,s11
    800003b0:	02ab8133          	mul	sp,s7,a0
    800003b4:	f9f00f93          	li	t6,-97
    800003b8:	03f085b3          	mul	a1,ra,t6
    800003bc:	91600513          	li	a0,-1770
    800003c0:	28400793          	li	a5,644
    800003c4:	02f57733          	remu	a4,a0,a5
    800003c8:	fff00a93          	li	s5,-1
    800003cc:	009acab3          	xor	s5,s5,s1
    800003d0:	0156f9b3          	and	s3,a3,s5
    800003d4:	009c6933          	or	s2,s8,s1
    800003d8:	01d25333          	srl	t1,tp,t4
    800003dc:	032952bb          	divuw	t0,s2,s2
    800003e0:	f3200e93          	li	t4,-206
    800003e4:	6b500693          	li	a3,1717
    800003e8:	9b800713          	li	a4,-1608
    800003ec:	6329f463          	bgeu	s3,s2,80000a14 <crash_forward>
    800003f0:	00e6933b          	sllw	t1,a3,a4
    800003f4:	e6400d93          	li	s11,-412
    800003f8:	7a600b93          	li	s7,1958
    800003fc:	03bdffb3          	remu	t6,s11,s11
    80000400:	0d200e13          	li	t3,210
    80000404:	24100d13          	li	s10,577
    80000408:	00100c93          	li	s9,1
    8000040c:	312d0093          	addi	ra,s10,786
    80000410:	01ce51bb          	srlw	gp,t3,t3
    80000414:	f0fe8393          	addi	t2,t4,-241
    80000418:	e0500993          	li	s3,-507
    8000041c:	db698f93          	addi	t6,s3,-586
    80000420:	b3200613          	li	a2,-1230
    80000424:	d67ee8e3          	bltu	t4,t2,80000194 <crash_backward>
    80000428:	00000d93          	li	s11,0
    8000042c:	006dc6b3          	xor	a3,s11,t1
    80000430:	5c200793          	li	a5,1474
    80000434:	017bd5b3          	srl	a1,s7,s7
    80000438:	a9700893          	li	a7,-1385
    8000043c:	03600493          	li	s1,54
    80000440:	0117bc33          	sltu	s8,a5,a7
    80000444:	e7132a93          	slti	s5,t1,-399
    80000448:	03fc9c93          	slli	s9,s9,0x3f
    8000044c:	5a900313          	li	t1,1449
    80000450:	52d00e93          	li	t4,1325
    80000454:	ab300213          	li	tp,-1357
    80000458:	0132d83b          	srlw	a6,t0,s3
    8000045c:	fff00a13          	li	s4,-1
    80000460:	4064d73b          	sraw	a4,s1,t1
    80000464:	01ea0fbb          	addw	t6,s4,t5
    80000468:	0042513b          	srlw	sp,tp,tp
    8000046c:	000c0b93          	mv	s7,s8
    80000470:	b7800e13          	li	t3,-1160
    80000474:	00100993          	li	s3,1
    80000478:	00000913          	li	s2,0
    8000047c:	d12dece3          	bltu	s11,s2,80000194 <crash_backward>
    80000480:	90500313          	li	t1,-1787
    80000484:	000b8813          	mv	a6,s7
    80000488:	d3500713          	li	a4,-715
    8000048c:	02e344b3          	div	s1,t1,a4
    80000490:	0316e5bb          	remw	a1,a3,a7
    80000494:	03f99993          	slli	s3,s3,0x3f
    80000498:	570bce63          	blt	s7,a6,80000a14 <crash_forward>
    8000049c:	99000413          	li	s0,-1648
    800004a0:	019be2b3          	or	t0,s7,s9
    800004a4:	019a4a33          	xor	s4,s4,s9
    800004a8:	01dea3b3          	slt	t2,t4,t4
    800004ac:	0147fb33          	and	s6,a5,s4
    800004b0:	019eef33          	or	t5,t4,s9
    800004b4:	02862533          	mulhsu	a0,a2,s0
    800004b8:	00070b93          	mv	s7,a4
    800004bc:	9e200d93          	li	s11,-1566
    800004c0:	000b8813          	mv	a6,s7
    800004c4:	d6a00893          	li	a7,-662
    800004c8:	01bd82bb          	addw	t0,s11,s11
    800004cc:	ba9e0193          	addi	gp,t3,-1111
    800004d0:	cd0b92e3          	bne	s7,a6,80000194 <crash_backward>
    800004d4:	f5400413          	li	s0,-172
    800004d8:	48400c13          	li	s8,1156
    800004dc:	fff00a93          	li	s5,-1
    800004e0:	14300393          	li	t2,323
    800004e4:	46000713          	li	a4,1120
    800004e8:	53c1f663          	bgeu	gp,t3,80000a14 <crash_forward>
    800004ec:	418c06b3          	sub	a3,s8,s8
    800004f0:	fdd88093          	addi	ra,a7,-35
    800004f4:	00002b97          	auipc	s7,0x2
    800004f8:	55bb8b93          	addi	s7,s7,1371 # 80002a4f <_end+0x43f>
    800004fc:	0000013b          	addw	sp,zero,zero
    80000500:	c96f6ae3          	bltu	t5,s6,80000194 <crash_backward>
    80000504:	013acab3          	xor	s5,s5,s3
    80000508:	d5c00f93          	li	t6,-676
    8000050c:	00100193          	li	gp,1
    80000510:	11f00e93          	li	t4,287
    80000514:	74d00493          	li	s1,1869
    80000518:	2d300a13          	li	s4,723
    8000051c:	01df85bb          	addw	a1,t6,t4
    80000520:	0273893b          	mulw	s2,t2,t2
    80000524:	c4300813          	li	a6,-957
    80000528:	b26ba8a3          	sw	t1,-1231(s7)
    8000052c:	03f19193          	slli	gp,gp,0x3f
    80000530:	00000c93          	li	s9,0
    80000534:	fff00693          	li	a3,-1
    80000538:	0036c6b3          	xor	a3,a3,gp
    8000053c:	10b00613          	li	a2,267
    80000540:	5e870213          	addi	tp,a4,1512
    80000544:	015dfd33          	and	s10,s11,s5
    80000548:	4c470663          	beq	a4,tp,80000a14 <crash_forward>
    8000054c:	ecca7b37          	lui	s6,0xecca7
    80000550:	014a2133          	slt	sp,s4,s4
    80000554:	c5ef10e3          	bne	t5,t5,80000194 <crash_backward>
    80000558:	00000f13          	li	t5,0
    8000055c:	0294e33b          	remw	t1,s1,s1
    80000560:	00d7fc33          	and	s8,a5,a3
    80000564:	02347b3b          	remuw	s6,s0,gp
    80000568:	4a18c663          	blt	a7,ra,80000a14 <crash_forward>
    8000056c:	03700d93          	li	s11,55
    80000570:	93700b93          	li	s7,-1737
    80000574:	0030ee33          	or	t3,ra,gp
    80000578:	00100393          	li	t2,1
    8000057c:	00c44533          	xor	a0,s0,a2
    80000580:	017bd233          	srl	tp,s7,s7
    80000584:	03f39393          	slli	t2,t2,0x3f
    80000588:	013d67b3          	or	a5,s10,s3
    8000058c:	00000593          	li	a1,0
    80000590:	fff00913          	li	s2,-1
    80000594:	498e5063          	bge	t3,s8,80000a14 <crash_forward>
    80000598:	47ecee63          	bltu	s9,t5,80000a14 <crash_forward>
    8000059c:	7d74ca13          	xori	s4,s1,2007
    800005a0:	01b862b3          	or	t0,a6,s11
    800005a4:	00000f93          	li	t6,0
    800005a8:	00794933          	xor	s2,s2,t2
    800005ac:	47f5c463          	blt	a1,t6,80000a14 <crash_forward>
    800005b0:	417b863b          	subw	a2,s7,s7
    800005b4:	cd700f93          	li	t6,-809
    800005b8:	00100e93          	li	t4,1
    800005bc:	c9b00993          	li	s3,-869
    800005c0:	00001a97          	auipc	s5,0x1
    800005c4:	7cba8a93          	addi	s5,s5,1995 # 80001d8b <fromhost+0xd4b>
    800005c8:	2a000813          	li	a6,672
    800005cc:	0073d7b3          	srl	a5,t2,t2
    800005d0:	0125f133          	and	sp,a1,s2
    800005d4:	00716733          	or	a4,sp,t2
    800005d8:	9bb27437          	lui	s0,0x9bb27
    800005dc:	00000613          	li	a2,0
    800005e0:	8b000213          	li	tp,-1872
    800005e4:	42275863          	bge	a4,sp,80000a14 <crash_forward>
    800005e8:	7d5ab883          	ld	a7,2005(s5)
    800005ec:	19000e13          	li	t3,400
    800005f0:	51100c93          	li	s9,1297
    800005f4:	7b300693          	li	a3,1971
    800005f8:	03fe9e93          	slli	t4,t4,0x3f
    800005fc:	5df00193          	li	gp,1503
    80000600:	a8c00293          	li	t0,-1396
    80000604:	00d21bbb          	sllw	s7,tp,a3
    80000608:	01ce0f33          	add	t5,t3,t3
    8000060c:	0239edb3          	rem	s11,s3,gp
    80000610:	41698533          	sub	a0,s3,s6
    80000614:	010faa33          	slt	s4,t6,a6
    80000618:	fff00313          	li	t1,-1
    8000061c:	005c80b3          	add	ra,s9,t0
    80000620:	00000d13          	li	s10,0
    80000624:	b7a618e3          	bne	a2,s10,80000194 <crash_backward>
    80000628:	01d34333          	xor	t1,t1,t4
    8000062c:	0064f4b3          	and	s1,s1,t1
    80000630:	01d4eb33          	or	s6,s1,t4
    80000634:	00002c17          	auipc	s8,0x2
    80000638:	ad4c0c13          	addi	s8,s8,-1324 # 80002108 <reg_x1_output>
    8000063c:	144c2583          	lw	a1,324(s8)
    80000640:	f8100c93          	li	s9,-127
    80000644:	e8b5b213          	sltiu	tp,a1,-373
    80000648:	cc900893          	li	a7,-823
    8000064c:	0a600d13          	li	s10,166
    80000650:	0ab00b13          	li	s6,171
    80000654:	f2b00413          	li	s0,-213
    80000658:	028c2f33          	mulhsu	t5,s8,s0
    8000065c:	4073d1bb          	sraw	gp,t2,t2
    80000660:	0318ebb3          	rem	s7,a7,a7
    80000664:	57c00713          	li	a4,1404
    80000668:	7a700113          	li	sp,1959
    8000066c:	02b5ce3b          	divw	t3,a1,a1
    80000670:	94900a13          	li	s4,-1719
    80000674:	dbe00613          	li	a2,-578
    80000678:	49e00313          	li	t1,1182
    8000067c:	034efc3b          	remuw	s8,t4,s4
    80000680:	016b43b3          	xor	t2,s6,s6
    80000684:	561d0493          	addi	s1,s10,1377
    80000688:	00100893          	li	a7,1
    8000068c:	03f89893          	slli	a7,a7,0x3f
    80000690:	006635b3          	sltu	a1,a2,t1
    80000694:	020077bb          	remuw	a5,zero,zero
    80000698:	c7d00913          	li	s2,-899
    8000069c:	00eccfb3          	xor	t6,s9,a4
    800006a0:	03808b3b          	mulw	s6,ra,s8
    800006a4:	00100e13          	li	t3,1
    800006a8:	fff00a93          	li	s5,-1
    800006ac:	00f792bb          	sllw	t0,a5,a5
    800006b0:	03ff81b3          	mul	gp,t6,t6
    800006b4:	002406b3          	add	a3,s0,sp
    800006b8:	03fe1e13          	slli	t3,t3,0x3f
    800006bc:	011acab3          	xor	s5,s5,a7
    800006c0:	034a7eb3          	remu	t4,s4,s4
    800006c4:	14100d93          	li	s11,321
    800006c8:	03b9753b          	remuw	a0,s2,s11
    800006cc:	fff00393          	li	t2,-1
    800006d0:	015b7f33          	and	t5,s6,s5
    800006d4:	01c3c3b3          	xor	t2,t2,t3
    800006d8:	011f6bb3          	or	s7,t5,a7
    800006dc:	0075fc33          	and	s8,a1,t2
    800006e0:	01cc6233          	or	tp,s8,t3
    800006e4:	48b00893          	li	a7,1163
    800006e8:	00002297          	auipc	t0,0x2
    800006ec:	d4928293          	addi	t0,t0,-695 # 80002431 <test_memory+0x231>
    800006f0:	72900913          	li	s2,1833
    800006f4:	00100e93          	li	t4,1
    800006f8:	00000113          	li	sp,0
    800006fc:	00002e17          	auipc	t3,0x2
    80000700:	d25e0e13          	addi	t3,t3,-731 # 80002421 <test_memory+0x221>
    80000704:	03ad45b3          	div	a1,s10,s10
    80000708:	c4d00d13          	li	s10,-947
    8000070c:	858d0513          	addi	a0,s10,-1960
    80000710:	cf800f13          	li	t5,-776
    80000714:	cd600093          	li	ra,-810
    80000718:	a6ad4ee3          	blt	s10,a0,80000194 <crash_backward>
    8000071c:	02006dbb          	remw	s11,zero,zero
    80000720:	0382b7a3          	sd	s8,47(t0)
    80000724:	00002b97          	auipc	s7,0x2
    80000728:	d6ab8b93          	addi	s7,s7,-662 # 8000248e <test_memory+0x28e>
    8000072c:	017e6a83          	lwu	s5,23(t3)
    80000730:	00100c93          	li	s9,1
    80000734:	f5fb9423          	sh	t6,-184(s7)
    80000738:	39690493          	addi	s1,s2,918
    8000073c:	03fe9e93          	slli	t4,t4,0x3f
    80000740:	000cd43b          	srlw	s0,s9,zero
    80000744:	0247563b          	divuw	a2,a4,tp
    80000748:	016541b3          	xor	gp,a0,s6
    8000074c:	fff00713          	li	a4,-1
    80000750:	86500813          	li	a6,-1947
    80000754:	0308bc33          	mulhu	s8,a7,a6
    80000758:	03fc9c93          	slli	s9,s9,0x3f
    8000075c:	00000313          	li	t1,0
    80000760:	fff00a13          	li	s4,-1
    80000764:	03ef73bb          	remuw	t2,t5,t5
    80000768:	00001c17          	auipc	s8,0x1
    8000076c:	594c0c13          	addi	s8,s8,1428 # 80001cfc <fromhost+0xcbc>
    80000770:	ef9b0593          	addi	a1,s6,-263 # ffffffffecca6ef9 <__global_pointer$+0xffffffff6cca40e9>
    80000774:	00002d97          	auipc	s11,0x2
    80000778:	170d8d93          	addi	s11,s11,368 # 800028e4 <_end+0x2d4>
    8000077c:	00002e17          	auipc	t3,0x2
    80000780:	216e0e13          	addi	t3,t3,534 # 80002992 <_end+0x382>
    80000784:	0054d2b3          	srl	t0,s1,t0
    80000788:	01d74733          	xor	a4,a4,t4
    8000078c:	773c0183          	lb	gp,1907(s8)
    80000790:	32200393          	li	t2,802
    80000794:	001087bb          	addw	a5,ra,ra
    80000798:	00e7f233          	and	tp,a5,a4
    8000079c:	00002817          	auipc	a6,0x2
    800007a0:	a5b80813          	addi	a6,a6,-1445 # 800021f7 <reg_x30_output+0x7>
    800007a4:	414a063b          	subw	a2,s4,s4
    800007a8:	01d26b33          	or	s6,tp,t4
    800007ac:	26990463          	beq	s2,s1,80000a14 <crash_forward>
    800007b0:	26614263          	blt	sp,t1,80000a14 <crash_forward>
    800007b4:	bd2e5883          	lhu	a7,-1070(t3)
    800007b8:	b8bdb223          	sd	a1,-1148(s11)
    800007bc:	00002b97          	auipc	s7,0x2
    800007c0:	041b8b93          	addi	s7,s7,65 # 800027fd <_end+0x1ed>
    800007c4:	036b6fbb          	remw	t6,s6,s6
    800007c8:	3c9820a3          	sw	s1,961(a6)
    800007cc:	00000a93          	li	s5,0
    800007d0:	00001297          	auipc	t0,0x1
    800007d4:	5f428293          	addi	t0,t0,1524 # 80001dc4 <fromhost+0xd84>
    800007d8:	76c2b083          	ld	ra,1900(t0)
    800007dc:	00000613          	li	a2,0
    800007e0:	019a4a33          	xor	s4,s4,s9
    800007e4:	94200593          	li	a1,-1726
    800007e8:	cb158793          	addi	a5,a1,-847
    800007ec:	0140f9b3          	and	s3,ra,s4
    800007f0:	00002d17          	auipc	s10,0x2
    800007f4:	923d0d13          	addi	s10,s10,-1757 # 80002113 <reg_x2_output+0x3>
    800007f8:	d73ba503          	lw	a0,-653(s7)
    800007fc:	0199e6b3          	or	a3,s3,s9
    80000800:	20d98a63          	beq	s3,a3,80000a14 <crash_forward>
    80000804:	87400f13          	li	t5,-1932
    80000808:	46ed20a3          	sw	a4,1121(s10)
    8000080c:	01e3c433          	xor	s0,t2,t5
    80000810:	2e800c13          	li	s8,744
    80000814:	00002d17          	auipc	s10,0x2
    80000818:	2f8d0d13          	addi	s10,s10,760 # 80002b0c <_end+0x4fc>
    8000081c:	02d6a133          	mulhsu	sp,a3,a3
    80000820:	00002197          	auipc	gp,0x2
    80000824:	1c618193          	addi	gp,gp,454 # 800029e6 <_end+0x3d6>
    80000828:	01b85fb3          	srl	t6,a6,s11
    8000082c:	ff100a13          	li	s4,-15
    80000830:	bec1cc83          	lbu	s9,-1044(gp) # 800029fc <_end+0x3ec>
    80000834:	00018293          	mv	t0,gp
    80000838:	418c59bb          	sraw	s3,s8,s8
    8000083c:	01567e33          	and	t3,a2,s5
    80000840:	ce800c93          	li	s9,-792
    80000844:	40635c33          	sra	s8,t1,t1
    80000848:	0231ce3b          	divw	t3,gp,gp
    8000084c:	2a000f93          	li	t6,672
    80000850:	00847bb3          	and	s7,s0,s0
    80000854:	00028413          	mv	s0,t0
    80000858:	01ffd133          	srl	sp,t6,t6
    8000085c:	00002897          	auipc	a7,0x2
    80000860:	ea088893          	addi	a7,a7,-352 # 800026fc <_end+0xec>
    80000864:	419c81bb          	subw	gp,s9,s9
    80000868:	c91a0093          	addi	ra,s4,-879
    8000086c:	0346d63b          	divuw	a2,a3,s4
    80000870:	4115df33          	sra	t5,a1,a7
    80000874:	897d0683          	lb	a3,-1897(s10)
    80000878:	b2e00b13          	li	s6,-1234
    8000087c:	75a00393          	li	t2,1882
    80000880:	03189733          	mulh	a4,a7,a7
    80000884:	02dc9913          	slli	s2,s9,0x2d
    80000888:	92300e93          	li	t4,-1757
    8000088c:	0273ddbb          	divuw	s11,t2,t2
    80000890:	40eb5ab3          	sra	s5,s6,a4
    80000894:	cb589323          	sh	s5,-858(a7)
    80000898:	fcbe8313          	addi	t1,t4,-53
    8000089c:	00002f17          	auipc	t5,0x2
    800008a0:	02ff0f13          	addi	t5,t5,47 # 800028cb <_end+0x2bb>
    800008a4:	00001117          	auipc	sp,0x1
    800008a8:	4fe10113          	addi	sp,sp,1278 # 80001da2 <fromhost+0xd62>
    800008ac:	016b4233          	xor	tp,s6,s6
    800008b0:	38b00d93          	li	s11,907
    800008b4:	d3700493          	li	s1,-713
    800008b8:	000a0713          	mv	a4,s4
    800008bc:	03bdb9b3          	mulhu	s3,s11,s11
    800008c0:	00c00593          	li	a1,12
    800008c4:	40a306b3          	sub	a3,t1,a0
    800008c8:	2d200513          	li	a0,722
    800008cc:	00100c93          	li	s9,1
    800008d0:	03fc9c93          	slli	s9,s9,0x3f
    800008d4:	76000a13          	li	s4,1888
    800008d8:	6b7a0093          	addi	ra,s4,1719
    800008dc:	0008d89b          	srliw	a7,a7,0x0
    800008e0:	00100913          	li	s2,1
    800008e4:	126ec863          	blt	t4,t1,80000a14 <crash_forward>
    800008e8:	00070193          	mv	gp,a4
    800008ec:	bfe00213          	li	tp,-1026
    800008f0:	03f91913          	slli	s2,s2,0x3f
    800008f4:	121a7063          	bgeu	s4,ra,80000a14 <crash_forward>
    800008f8:	029a5c33          	divu	s8,s4,s1
    800008fc:	fff00d13          	li	s10,-1
    80000900:	fff00293          	li	t0,-1
    80000904:	0192c2b3          	xor	t0,t0,s9
    80000908:	005d7ab3          	and	s5,s10,t0
    8000090c:	00a587b3          	add	a5,a1,a0
    80000910:	012d4d33          	xor	s10,s10,s2
    80000914:	5e012723          	sw	zero,1518(sp)
    80000918:	b12f0f83          	lb	t6,-1262(t5)
    8000091c:	71e5b113          	sltiu	sp,a1,1822
    80000920:	0252f333          	remu	t1,t0,t0
    80000924:	40420b33          	sub	s6,tp,tp
    80000928:	0075b3b3          	sltu	t2,a1,t2
    8000092c:	019ae633          	or	a2,s5,s9
    80000930:	a5e00e93          	li	t4,-1442
    80000934:	c2d48813          	addi	a6,s1,-979
    80000938:	82400893          	li	a7,-2012
    8000093c:	c5400c13          	li	s8,-940
    80000940:	84006ae3          	bltu	zero,zero,80000194 <crash_backward>
    80000944:	01a4fe33          	and	t3,s1,s10
    80000948:	44b00793          	li	a5,1099
    8000094c:	012c6bb3          	or	s7,s8,s2
    80000950:	850482e3          	beq	s1,a6,80000194 <crash_backward>
    80000954:	cd500413          	li	s0,-811
    80000958:	0b800993          	li	s3,184
    8000095c:	bd800a13          	li	s4,-1064
    80000960:	011eddb3          	srl	s11,t4,a7
    80000964:	43100513          	li	a0,1073
    80000968:	013456b3          	srl	a3,s0,s3
    8000096c:	414780b3          	sub	ra,a5,s4
    80000970:	00ac75b3          	and	a1,s8,a0
    80000974:	0040006f          	j	80000978 <reg_dump>

0000000080000978 <reg_dump>:
    80000978:	00002097          	auipc	ra,0x2
    8000097c:	c8808093          	addi	ra,ra,-888 # 80002600 <loop_count>
    80000980:	0000a103          	lw	sp,0(ra)
    80000984:	fff10193          	addi	gp,sp,-1
    80000988:	0030a023          	sw	gp,0(ra)
    8000098c:	8a0118e3          	bnez	sp,8000023c <pseg_0>
    80000990:	00001097          	auipc	ra,0x1
    80000994:	77008093          	addi	ra,ra,1904 # 80002100 <begin_signature>
    80000998:	0000b023          	sd	zero,0(ra)
    8000099c:	0020b823          	sd	sp,16(ra)
    800009a0:	0030bc23          	sd	gp,24(ra)
    800009a4:	0240b023          	sd	tp,32(ra)
    800009a8:	0250b423          	sd	t0,40(ra)
    800009ac:	0260b823          	sd	t1,48(ra)
    800009b0:	0270bc23          	sd	t2,56(ra)
    800009b4:	0480b023          	sd	s0,64(ra)
    800009b8:	0490b423          	sd	s1,72(ra)
    800009bc:	04a0b823          	sd	a0,80(ra)
    800009c0:	04b0bc23          	sd	a1,88(ra)
    800009c4:	06c0b023          	sd	a2,96(ra)
    800009c8:	06d0b423          	sd	a3,104(ra)
    800009cc:	06e0b823          	sd	a4,112(ra)
    800009d0:	06f0bc23          	sd	a5,120(ra)
    800009d4:	0900b023          	sd	a6,128(ra)
    800009d8:	0910b423          	sd	a7,136(ra)
    800009dc:	0920b823          	sd	s2,144(ra)
    800009e0:	0930bc23          	sd	s3,152(ra)
    800009e4:	0b40b023          	sd	s4,160(ra)
    800009e8:	0b50b423          	sd	s5,168(ra)
    800009ec:	0b60b823          	sd	s6,176(ra)
    800009f0:	0b70bc23          	sd	s7,184(ra)
    800009f4:	0d80b023          	sd	s8,192(ra)
    800009f8:	0d90b423          	sd	s9,200(ra)
    800009fc:	0da0b823          	sd	s10,208(ra)
    80000a00:	0db0bc23          	sd	s11,216(ra)
    80000a04:	0fc0b023          	sd	t3,224(ra)
    80000a08:	0fd0b423          	sd	t4,232(ra)
    80000a0c:	0ff0bc23          	sd	t6,248(ra)
    80000a10:	0200006f          	j	80000a30 <test_end>

0000000080000a14 <crash_forward>:
    80000a14:	0ff0000f          	fence
    80000a18:	00018063          	beqz	gp,80000a18 <crash_forward+0x4>
    80000a1c:	00119193          	slli	gp,gp,0x1
    80000a20:	0011e193          	ori	gp,gp,1
    80000a24:	05d00893          	li	a7,93
    80000a28:	00018513          	mv	a0,gp
    80000a2c:	00000073          	ecall

0000000080000a30 <test_end>:
    80000a30:	0ff0000f          	fence
    80000a34:	00100193          	li	gp,1
    80000a38:	05d00893          	li	a7,93
    80000a3c:	00000513          	li	a0,0
    80000a40:	00000073          	ecall
    80000a44:	c0001073          	unimp
	...

Disassembly of section .tohost:

0000000080001000 <tohost>:
	...

0000000080001040 <fromhost>:
	...

Disassembly of section .data:

0000000080002000 <hidden_data>:
	...

0000000080002008 <reg_x1_init>:
    80002008:	1605                	addi	a2,a2,-31
    8000200a:	eaa61e47          	fmsub.d	ft8,fa2,fa0,ft9,rtz
    8000200e:	          	0x971d9b27

0000000080002010 <reg_x2_init>:
    80002010:	971d                	srai	a4,a4,0x27
    80002012:	06d2                	slli	a3,a3,0x14
    80002014:	c598                	sw	a4,8(a1)
    80002016:	863e                	mv	a2,a5

0000000080002018 <reg_x3_init>:
    80002018:	d5bc9453          	0xd5bc9453
    8000201c:	fa7e                	sd	t6,304(sp)
    8000201e:	1678                	addi	a4,sp,812

0000000080002020 <reg_x4_init>:
    80002020:	9d8e                	add	s11,s11,gp
    80002022:	1e635903          	lhu	s2,486(t1) # ffffffff993161e6 <__global_pointer$+0xffffffff193133d6>
    80002026:	868e                	mv	a3,gp

0000000080002028 <reg_x5_init>:
    80002028:	0001                	nop
    8000202a:	8000                	0x8000
    8000202c:	ffff                	0xffff
    8000202e:	ffff                	0xffff

0000000080002030 <reg_x6_init>:
    80002030:	0240b88b          	0x240b88b
    80002034:	22fb3cb3          	0x22fb3cb3

0000000080002038 <reg_x7_init>:
    80002038:	c9d73b97          	auipc	s7,0xc9d73
    8000203c:	bcfa                	fsd	ft10,120(sp)
    8000203e:	c8e6                	sw	s9,80(sp)

0000000080002040 <reg_x8_init>:
    80002040:	115f 18f7 1c73      	0x1c7318f7115f
    80002046:	6ab6                	ld	s5,328(sp)

0000000080002048 <reg_x9_init>:
    80002048:	28aa                	fld	fa7,136(sp)
    8000204a:	795c0d37          	lui	s10,0x795c0
    8000204e:	9b30                	0x9b30

0000000080002050 <reg_x10_init>:
	...

0000000080002058 <reg_x11_init>:
    80002058:	eb3f57c7          	fmsub.d	fa5,ft10,fs3,ft9,unknown
    8000205c:	c9d2                	sw	s4,208(sp)
    8000205e:	          	fmsub.q	ft10,fs6,ft3,fs0,rdn

0000000080002060 <reg_x12_init>:
    80002060:	2a71463b          	0x2a71463b
    80002064:	ead0                	sd	a2,144(a3)
    80002066:	b558                	fsd	fa4,168(a0)

0000000080002068 <reg_x13_init>:
    80002068:	ffff                	0xffff
    8000206a:	ffff                	0xffff
    8000206c:	ffff                	0xffff
    8000206e:	ffff                	0xffff

0000000080002070 <reg_x14_init>:
    80002070:	d969                	beqz	a0,80002042 <reg_x8_init+0x2>
    80002072:	731f 6a3f 1b4e      	0x1b4e6a3f731f

0000000080002078 <reg_x15_init>:
    80002078:	0005                	c.nop	1
    8000207a:	8000                	0x8000
    8000207c:	ffff                	0xffff
    8000207e:	ffff                	0xffff

0000000080002080 <reg_x16_init>:
    80002080:	1478                	addi	a4,sp,556
    80002082:	d11d                	beqz	a0,80001fa8 <fromhost+0xf68>
    80002084:	1deb9a93          	0x1deb9a93

0000000080002088 <reg_x17_init>:
	...

0000000080002090 <reg_x18_init>:
	...

0000000080002098 <reg_x19_init>:
    80002098:	b940db0b          	0xb940db0b
    8000209c:	277a                	fld	fa4,408(sp)
    8000209e:	527e                	lw	tp,252(sp)

00000000800020a0 <reg_x20_init>:
    800020a0:	f452                	sd	s4,40(sp)
    800020a2:	8974                	0x8974
    800020a4:	7378                	ld	a4,224(a4)
    800020a6:	1d5f        	0xffffffff1d5f

00000000800020a8 <reg_x21_init>:
    800020a8:	ffff                	0xffff
    800020aa:	ffff                	0xffff
    800020ac:	ffff                	0xffff
    800020ae:	ffff                	0xffff

00000000800020b0 <reg_x22_init>:
    800020b0:	94aa                	add	s1,s1,a0
    800020b2:	2d7f                	0x2d7f
    800020b4:	c5b9                	beqz	a1,80002102 <begin_signature+0x2>
    800020b6:	568d                	li	a3,-29

00000000800020b8 <reg_x23_init>:
    800020b8:	8000                	0x8000
    800020ba:	ffff                	0xffff
    800020bc:	ffff                	0xffff
    800020be:	ffff                	0xffff

00000000800020c0 <reg_x24_init>:
    800020c0:	8664                	0x8664
    800020c2:	d1c0                	sw	s0,36(a1)
    800020c4:	630bab6b          	0x630bab6b

00000000800020c8 <reg_x25_init>:
    800020c8:	b7b7ac97          	auipc	s9,0xb7b7a
    800020cc:	64d2                	ld	s1,272(sp)
    800020ce:	eed6                	sd	s5,344(sp)

00000000800020d0 <reg_x26_init>:
    800020d0:	04ec                	addi	a1,sp,588
    800020d2:	b8c1                	j	800019a2 <fromhost+0x962>
    800020d4:	85b4                	0x85b4
    800020d6:	f560                	sd	s0,232(a0)

00000000800020d8 <reg_x27_init>:
	...

00000000800020e0 <reg_x28_init>:
	...

00000000800020e8 <reg_x29_init>:
    800020e8:	e27e5eab          	0xe27e5eab
    800020ec:	66bf1a73          	csrrw	s4,0x66b,t5

00000000800020f0 <reg_x30_init>:
    800020f0:	0005                	c.nop	1
    800020f2:	0000                	unimp
    800020f4:	0000                	unimp
	...

00000000800020f8 <reg_x31_init>:
	...

0000000080002100 <begin_signature>:
    80002100:	859e4997          	auipc	s3,0x859e4
    80002104:	b6beb177          	0xb6beb177

0000000080002108 <reg_x1_output>:
    80002108:	946c                	0x946c
    8000210a:	8eda                	mv	t4,s6
    8000210c:	2a98f217          	auipc	tp,0x2a98f

0000000080002110 <reg_x2_output>:
    80002110:	96cf200b          	0x96cf200b
    80002114:	1fb44ec3          	fmadd.q	ft9,fs0,fs11,ft3,rmm

0000000080002118 <reg_x3_output>:
    80002118:	9f0c                	0x9f0c
    8000211a:	32b851bf  	0x25d7a85232b851bf

0000000080002120 <reg_x4_output>:
    80002120:	2e9e25d7          	0x2e9e25d7
    80002124:	9e7e                	add	t3,t3,t6
    80002126:	10c5                	addi	ra,ra,-15

0000000080002128 <reg_x5_output>:
    80002128:	aa2e9987          	0xaa2e9987
    8000212c:	b6dc5f07          	0xb6dc5f07

0000000080002130 <reg_x6_output>:
    80002130:	e5de                	sd	s7,200(sp)
    80002132:	aca89b3f  	0xd6858879aca89b3f

0000000080002138 <reg_x7_output>:
    80002138:	d685                	beqz	a3,80002060 <reg_x12_init>
    8000213a:	bffa                	fsd	ft10,504(sp)
    8000213c:	05ac                	addi	a1,sp,712
    8000213e:	          	bge	s4,t5,80002832 <_end+0x222>

0000000080002140 <reg_x8_output>:
    80002140:	6fea                	ld	t6,152(sp)
    80002142:	c1d1                	beqz	a1,800021c6 <reg_x24_output+0x6>
    80002144:	43dbf1a7          	0x43dbf1a7

0000000080002148 <reg_x9_output>:
    80002148:	3e74                	fld	fa3,248(a2)
    8000214a:	d99f f5af ed15      	0xed15f5afd99f

0000000080002150 <reg_x10_output>:
    80002150:	63ddd6f3          	csrrwi	a3,0x63d,27
    80002154:	60722f17          	auipc	t5,0x60722

0000000080002158 <reg_x11_output>:
    80002158:	406dc167          	0x406dc167
    8000215c:	1970                	addi	a2,sp,188
    8000215e:	0721                	addi	a4,a4,8

0000000080002160 <reg_x12_output>:
    80002160:	cf9f 96c6 c5d6      	0xc5d696c6cf9f
    80002166:	daf2                	sw	t3,116(sp)

0000000080002168 <reg_x13_output>:
    80002168:	9229833b          	0x9229833b
    8000216c:	8cd8                	0x8cd8
    8000216e:	ee52                	sd	s4,280(sp)

0000000080002170 <reg_x14_output>:
    80002170:	330c                	fld	fa1,32(a4)
    80002172:	1f3a                	slli	t5,t5,0x2e
    80002174:	bac1d96b          	0xbac1d96b

0000000080002178 <reg_x15_output>:
    80002178:	b4d525fb          	0xb4d525fb
    8000217c:	62d4                	ld	a3,128(a3)
    8000217e:	          	fnmadd.s	ft10,fs11,ft8,fa3,rtz

0000000080002180 <reg_x16_output>:
    80002180:	69cd                	lui	s3,0x13
    80002182:	b536                	fsd	fa3,168(sp)
    80002184:	d481                	beqz	s1,8000208c <reg_x17_init+0x4>
    80002186:	83cc                	0x83cc

0000000080002188 <reg_x17_output>:
    80002188:	d685                	beqz	a3,800020b0 <reg_x22_init>
    8000218a:	da30                	sw	a2,112(a2)
    8000218c:	ce01                	beqz	a2,800021a4 <reg_x20_output+0x4>
    8000218e:	db4a                	sw	s2,180(sp)

0000000080002190 <reg_x18_output>:
    80002190:	6cbc0333          	0x6cbc0333
    80002194:	22d4                	fld	fa3,128(a3)
    80002196:	d1c1                	beqz	a1,80002116 <reg_x2_output+0x6>

0000000080002198 <reg_x19_output>:
    80002198:	ff6d                	bnez	a4,80002192 <reg_x18_output+0x2>
    8000219a:	e9f9                	bnez	a1,80002270 <test_memory+0x70>
    8000219c:	a0a5                	j	80002204 <test_memory+0x4>
    8000219e:	b43a                	fsd	fa4,40(sp)

00000000800021a0 <reg_x20_output>:
    800021a0:	fccd                	bnez	s1,8000215a <reg_x11_output+0x2>
    800021a2:	2c6a                	fld	fs8,152(sp)
    800021a4:	3430                	fld	fa2,104(s0)
    800021a6:	7214                	ld	a3,32(a2)

00000000800021a8 <reg_x21_output>:
    800021a8:	c620                	sw	s0,72(a2)
    800021aa:	eeb8                	sd	a4,88(a3)
    800021ac:	57de                	lw	a5,244(sp)
    800021ae:	  	0x1cd5922e7e31c1bf

00000000800021b0 <reg_x22_output>:
    800021b0:	7e31                	lui	t3,0xfffec
    800021b2:	922e                	add	tp,tp,a1
    800021b4:	1cd5                	addi	s9,s9,-11
    800021b6:	eb20                	sd	s0,80(a4)

00000000800021b8 <reg_x23_output>:
    800021b8:	b64c                	fsd	fa1,168(a2)
    800021ba:	cf05                	beqz	a4,800021f2 <reg_x30_output+0x2>
    800021bc:	261d                	addiw	a2,a2,7
    800021be:	d9a5                	beqz	a1,8000212e <reg_x5_output+0x6>

00000000800021c0 <reg_x24_output>:
    800021c0:	3f020cfb          	0x3f020cfb
    800021c4:	6701                	0x6701
    800021c6:	aef9                	j	800025a4 <test_memory+0x3a4>

00000000800021c8 <reg_x25_output>:
    800021c8:	3f7f                	0x3f7f
    800021ca:	66f4                	ld	a3,200(a3)
    800021cc:	b0d6                	fsd	fs5,96(sp)
    800021ce:	eb46                	sd	a7,400(sp)

00000000800021d0 <reg_x26_output>:
    800021d0:	7d15                	lui	s10,0xfffe5
    800021d2:	e9c7da07          	0xe9c7da07
    800021d6:	          	0xe90ea5d7

00000000800021d8 <reg_x27_output>:
    800021d8:	e90e                	sd	gp,144(sp)
    800021da:	90f4                	0x90f4
    800021dc:	756e                	ld	a0,248(sp)
    800021de:	7c71                	lui	s8,0xffffc

00000000800021e0 <reg_x28_output>:
    800021e0:	2138                	fld	fa4,64(a0)
    800021e2:	50d5                	li	ra,-11
    800021e4:	b926                	fsd	fs1,176(sp)
    800021e6:	bf35                	j	80002122 <reg_x4_output+0x2>

00000000800021e8 <reg_x29_output>:
    800021e8:	6038                	ld	a4,64(s0)
    800021ea:	954c                	0x954c
    800021ec:	097f                	0x97f
    800021ee:	          	0xffb37bf7

00000000800021f0 <reg_x30_output>:
    800021f0:	d357ffb3          	0xd357ffb3
    800021f4:	8356                	mv	t1,s5
    800021f6:	9f64                	0x9f64

00000000800021f8 <reg_x31_output>:
    800021f8:	c48a                	sw	sp,72(sp)
    800021fa:	e96a                	sd	s10,144(sp)
    800021fc:	aa3c                	fsd	fa5,80(a2)
    800021fe:	5915                	li	s2,-27

0000000080002200 <test_memory>:
    80002200:	ad1e0f6b          	0xad1e0f6b
    80002204:	ef64                	sd	s1,216(a4)
    80002206:	aa8a                	fsd	ft2,336(sp)
    80002208:	d684                	sw	s1,40(a3)
    8000220a:	e740                	sd	s0,136(a4)
    8000220c:	cf2d                	beqz	a4,80002286 <test_memory+0x86>
    8000220e:	f295                	bnez	a3,80002132 <reg_x6_output+0x2>
    80002210:	c122                	sw	s0,128(sp)
    80002212:	9898                	0x9898
    80002214:	d100                	sw	s0,32(a0)
    80002216:	d300                	sw	s0,32(a4)
    80002218:	ec7c                	sd	a5,216(s0)
    8000221a:	d666                	sw	s9,44(sp)
    8000221c:	b421                	j	80001c24 <fromhost+0xbe4>
    8000221e:	5421                	li	s0,-24
    80002220:	2b2858fb          	0x2b2858fb
    80002224:	4596                	lw	a1,68(sp)
    80002226:	f91a                	sd	t1,176(sp)
    80002228:	d1c2                	sw	a6,224(sp)
    8000222a:	0e620fc3          	fmadd.q	ft11,ft4,ft6,ft1,rne
    8000222e:	dc3de737          	lui	a4,0xdc3de
    80002232:	f6c4                	sd	s1,168(a3)
    80002234:	0e9a                	slli	t4,t4,0x6
    80002236:	f2df f404 5e9f      	0x5e9ff404f2df
    8000223c:	6128                	ld	a0,64(a0)
    8000223e:	b662                	fsd	fs8,296(sp)
    80002240:	70219757          	0x70219757
    80002244:	bd28                	fsd	fa0,120(a0)
    80002246:	ac2c                	fsd	fa1,88(s0)
    80002248:	82f4                	0x82f4
    8000224a:	a550d9f3          	csrrwi	s3,0xa55,1
    8000224e:	5876                	lw	a6,124(sp)
    80002250:	4a748023          	sb	t2,1184(s1)
    80002254:	82cc                	0x82cc
    80002256:	66274097          	auipc	ra,0x66274
    8000225a:	fc84                	sd	s1,56(s1)
    8000225c:	3851                	addiw	a6,a6,-12
    8000225e:	f86eb56b          	0xf86eb56b
    80002262:	0cda                	slli	s9,s9,0x16
    80002264:	bb9d                	j	80001fda <fromhost+0xf9a>
    80002266:	9146                	add	sp,sp,a7
    80002268:	2d40                	fld	fs0,152(a0)
    8000226a:	46679c53          	0x46679c53
    8000226e:	f2b5                	bnez	a3,800021d2 <reg_x26_output+0x2>
    80002270:	b4b8                	fsd	fa4,104(s1)
    80002272:	2ce9                	addiw	s9,s9,26
    80002274:	1747858f          	0x1747858f
    80002278:	5e4d                	li	t3,-13
    8000227a:	c824                	sw	s1,80(s0)
    8000227c:	2412                	fld	fs0,256(sp)
    8000227e:	c091                	beqz	s1,80002282 <test_memory+0x82>
    80002280:	fe8dcb37          	lui	s6,0xfe8dc
    80002284:	f908                	sd	a0,48(a0)
    80002286:	8fa0                	0x8fa0
    80002288:	c670                	sw	a2,76(a2)
    8000228a:	66e5                	lui	a3,0x19
    8000228c:	4ac4                	lw	s1,20(a3)
    8000228e:	2f220003          	lb	zero,754(tp) # aa9913fe <__global_pointer$+0x2a98e5ee>
    80002292:	9741                	srai	a4,a4,0x30
    80002294:	d6b4                	sw	a3,104(a3)
    80002296:	6f1a                	ld	t5,384(sp)
    80002298:	b0c1                	j	80001b58 <fromhost+0xb18>
    8000229a:	7e85                	lui	t4,0xfffe1
    8000229c:	ecd4                	sd	a3,152(s1)
    8000229e:	419f 1c2b 29f5      	0x29f51c2b419f
    800022a4:	b960be97          	auipc	t4,0xb960b
    800022a8:	2772                	fld	fa4,280(sp)
    800022aa:	30cc                	fld	fa1,160(s1)
    800022ac:	54b8                	lw	a4,104(s1)
    800022ae:	364c1aa3          	sh	tp,885(s8) # ffffffffffffc375 <__global_pointer$+0xffffffff7fff9565>
    800022b2:	f639                	bnez	a2,80002200 <test_memory>
    800022b4:	4460                	lw	s0,76(s0)
    800022b6:	1f39                	addi	t5,t5,-18
    800022b8:	a334                	fsd	fa3,64(a4)
    800022ba:	1324                	addi	s1,sp,424
    800022bc:	5fd48373          	0x5fd48373
    800022c0:	61c6                	ld	gp,80(sp)
    800022c2:	404e                	0x404e
    800022c4:	7504                	ld	s1,40(a0)
    800022c6:	fb29                	bnez	a4,80002218 <test_memory+0x18>
    800022c8:	ccda                	sw	s6,88(sp)
    800022ca:	7c48                	ld	a0,184(s0)
    800022cc:	4f4ec24b          	fnmsub.q	ft4,ft9,fs4,fs1,rmm
    800022d0:	9766                	add	a4,a4,s9
    800022d2:	c540                	sw	s0,12(a0)
    800022d4:	a189                	j	80002716 <_end+0x106>
    800022d6:	8852                	mv	a6,s4
    800022d8:	8ea3353b          	0x8ea3353b
    800022dc:	1bbe                	slli	s7,s7,0x2f
    800022de:	dae6                	sw	s9,116(sp)
    800022e0:	3909                	addiw	s2,s2,-30
    800022e2:	83221e13          	0x83221e13
    800022e6:	3de1                	addiw	s11,s11,-8
    800022e8:	224b275b          	0x224b275b
    800022ec:	17a5efb7          	lui	t6,0x17a5e
    800022f0:	abbfaa63          	0xabbfaa63
    800022f4:	9f430c7b          	0x9f430c7b
    800022f8:	f8cc                	sd	a1,176(s1)
    800022fa:	9be8                	0x9be8
    800022fc:	16fc                	addi	a5,sp,876
    800022fe:	4328                	lw	a0,64(a4)
    80002300:	1b7e31fb          	0x1b7e31fb
    80002304:	afc47c57          	0xafc47c57
    80002308:	7c52                	ld	s8,304(sp)
    8000230a:	38e4                	fld	fs1,240(s1)
    8000230c:	787649eb          	0x787649eb
    80002310:	6679                	lui	a2,0x1e
    80002312:	c3cd                	beqz	a5,800023b4 <test_memory+0x1b4>
    80002314:	8556                	mv	a0,s5
    80002316:	0489                	addi	s1,s1,2
    80002318:	7ac5                	lui	s5,0xffff1
    8000231a:	4b35                	li	s6,13
    8000231c:	be66                	fsd	fs9,312(sp)
    8000231e:	ab0e                	fsd	ft3,400(sp)
    80002320:	f72cac23          	sw	s2,-136(s9) # 37b7c040 <_start-0x48483fc0>
    80002324:	9f1a                	add	t5,t5,t1
    80002326:	b31c                	fsd	fa5,32(a4)
    80002328:	5248563b          	0x5248563b
    8000232c:	310a                	fld	ft2,160(sp)
    8000232e:	9ac0                	0x9ac0
    80002330:	86a5                	srai	a3,a3,0x9
    80002332:	a5c2                	fsd	fa6,200(sp)
    80002334:	d48d                	beqz	s1,8000225e <test_memory+0x5e>
    80002336:	f28a                	sd	sp,352(sp)
    80002338:	3b65                	addiw	s6,s6,-7
    8000233a:	cda640e7          	0xcda640e7
    8000233e:	6da0                	ld	s0,88(a1)
    80002340:	c310                	sw	a2,0(a4)
    80002342:	a37cfb6f          	jal	s6,7ffd1d78 <_start-0x2e288>
    80002346:	a23d                	j	80002474 <test_memory+0x274>
    80002348:	8539                	srai	a0,a0,0xe
    8000234a:	a43a                	fsd	fa4,8(sp)
    8000234c:	aae9                	j	80002526 <test_memory+0x326>
    8000234e:	69a6                	ld	s3,72(sp)
    80002350:	be24                	fsd	fs1,120(a2)
    80002352:	105c                	addi	a5,sp,36
    80002354:	c16a                	sw	s10,128(sp)
    80002356:	51da                	lw	gp,180(sp)
    80002358:	36d1                	addiw	a3,a3,-12
    8000235a:	bbf9                	j	80002138 <reg_x7_output>
    8000235c:	cd5e                	sw	s7,152(sp)
    8000235e:	cc9f 4ad2 bf1e      	0xbf1e4ad2cc9f
    80002364:	d99e                	sw	t2,240(sp)
    80002366:	319a                	fld	ft3,416(sp)
    80002368:	af92                	fsd	ft4,472(sp)
    8000236a:	020c                	addi	a1,sp,256
    8000236c:	e596                	sd	t0,200(sp)
    8000236e:	1ab2                	slli	s5,s5,0x2c
    80002370:	8963fcfb          	0x8963fcfb
    80002374:	9884                	0x9884
    80002376:	3005                	0x3005
    80002378:	fd91                	bnez	a1,80002294 <test_memory+0x94>
    8000237a:	9e78                	0x9e78
    8000237c:	f8713da3          	sd	t2,-101(sp)
    80002380:	dc7e                	sw	t6,56(sp)
    80002382:	6af9                	lui	s5,0x1e
    80002384:	9836                	add	a6,a6,a3
    80002386:	ba12                	fsd	ft4,304(sp)
    80002388:	7231                	lui	tp,0xfffec
    8000238a:	f58d                	bnez	a1,800022b4 <test_memory+0xb4>
    8000238c:	89cc                	0x89cc
    8000238e:	0915                	addi	s2,s2,5
    80002390:	c471                	beqz	s0,8000245c <test_memory+0x25c>
    80002392:	024f1f03          	lh	t5,36(t5) # e0724178 <__global_pointer$+0x60721368>
    80002396:	2a94                	fld	fa3,16(a3)
    80002398:	5d10                	lw	a2,56(a0)
    8000239a:	907de877          	0x907de877
    8000239e:	8b12                	mv	s6,tp
    800023a0:	f2ad                	bnez	a3,80002302 <test_memory+0x102>
    800023a2:	bcf8                	fsd	fa4,248(s1)
    800023a4:	fb0a                	sd	sp,432(sp)
    800023a6:	1ec8                	addi	a0,sp,884
    800023a8:	ad8b1123          	sh	s8,-1342(s6) # fffffffffe8dbac2 <__global_pointer$+0xffffffff7e8d8cb2>
    800023ac:	dd7f                	0xdd7f
    800023ae:	8b8ff7cf          	fnmadd.d	fa5,ft11,fs8,fa7
    800023b2:	864a                	mv	a2,s2
    800023b4:	298c                	fld	fa1,16(a1)
    800023b6:	981f1d43          	fmadd.s	fs10,ft10,ft1,fs3,rtz
    800023ba:	e435                	bnez	s0,80002426 <test_memory+0x226>
    800023bc:	f46a                	sd	s10,40(sp)
    800023be:	9ea1                	addw	a3,a3,s0
    800023c0:	15fd                	addi	a1,a1,-1
    800023c2:	1b08                	addi	a0,sp,432
    800023c4:	f17c                	sd	a5,224(a0)
    800023c6:	b81a532b          	0xb81a532b
    800023ca:	b657eacb          	fnmsub.q	fs5,fa5,ft5,fs6,unknown
    800023ce:	a1ee                	fsd	fs11,192(sp)
    800023d0:	2f8133a7          	fsd	fs8,743(sp)
    800023d4:	31d4                	fld	fa3,160(a1)
    800023d6:	2f7287ab          	0x2f7287ab
    800023da:	9891                	andi	s1,s1,-28
    800023dc:	eed9                	bnez	a3,8000247a <test_memory+0x27a>
    800023de:	6f45                	lui	t5,0x11
    800023e0:	e714198f          	0xe714198f
    800023e4:	9cfa                	add	s9,s9,t5
    800023e6:	befa                	fsd	ft10,376(sp)
    800023e8:	4aed                	li	s5,27
    800023ea:	8e9d                	sub	a3,a3,a5
    800023ec:	3c2c                	fld	fa1,120(s0)
    800023ee:	7b41                	lui	s6,0xffff0
    800023f0:	8cca                	mv	s9,s2
    800023f2:	8d4c                	0x8d4c
    800023f4:	fe11                	bnez	a2,80002310 <test_memory+0x110>
    800023f6:	abcd                	j	800029e8 <_end+0x3d8>
    800023f8:	3a21                	addiw	s4,s4,-24
    800023fa:	f4f0                	sd	a2,232(s1)
    800023fc:	e77dc6af          	0xe77dc6af
    80002400:	ee6f6787          	0xee6f6787
    80002404:	ff8d                	bnez	a5,8000233e <test_memory+0x13e>
    80002406:	df69                	beqz	a4,800023e0 <test_memory+0x1e0>
    80002408:	c616                	sw	t0,12(sp)
    8000240a:	f05e                	sd	s7,32(sp)
    8000240c:	a7357b8f          	0xa7357b8f
    80002410:	ea50                	sd	a2,144(a2)
    80002412:	b7ca                	fsd	fs2,488(sp)
    80002414:	4705                	li	a4,1
    80002416:	5c48                	lw	a0,60(s0)
    80002418:	4e29                	li	t3,10
    8000241a:	9030                	0x9030
    8000241c:	bec4                	fsd	fs1,184(a3)
    8000241e:	8d24                	0x8d24
    80002420:	5d90                	lw	a2,56(a1)
    80002422:	3ee4                	fld	fs1,248(a3)
    80002424:	fa4e                	sd	s3,304(sp)
    80002426:	8dc0                	0x8dc0
    80002428:	2f32                	fld	ft10,264(sp)
    8000242a:	a9a5                	j	800028a2 <_end+0x292>
    8000242c:	c841                	beqz	s0,800024bc <test_memory+0x2bc>
    8000242e:	76c4                	ld	s1,168(a3)
    80002430:	c754                	sw	a3,12(a4)
    80002432:	c91f 01c2 ce1f      	0xce1f01c2c91f
    80002438:	f8e9                	bnez	s1,8000240a <test_memory+0x20a>
    8000243a:	c259                	beqz	a2,800024c0 <test_memory+0x2c0>
    8000243c:	04b22067          	0x4b22067
    80002440:	b955                	j	800020f4 <reg_x30_init+0x4>
    80002442:	e406                	sd	ra,8(sp)
    80002444:	45059be7          	0x45059be7
    80002448:	1585                	addi	a1,a1,-31
    8000244a:	1ade                	slli	s5,s5,0x37
    8000244c:	3199efbb          	0x3199efbb
    80002450:	7b36                	ld	s6,360(sp)
    80002452:	cd1f 1630 8763      	0x87631630cd1f
    80002458:	c7a5                	beqz	a5,800024c0 <test_memory+0x2c0>
    8000245a:	571a                	lw	a4,164(sp)
    8000245c:	c78015d7          	0xc78015d7
    80002460:	1509                	addi	a0,a0,-30
    80002462:	0f96                	slli	t6,t6,0x5
    80002464:	bf1f 9995 a274      	0xa2749995bf1f
    8000246a:	8491                	srai	s1,s1,0x4
    8000246c:	89db3ba3          	sd	t4,-1897(s6) # fffffffffffef897 <__global_pointer$+0xffffffff7ffeca87>
    80002470:	e20cfe17          	auipc	t3,0xe20cf
    80002474:	b125658b          	0xb125658b
    80002478:	1547e007          	0x1547e007
    8000247c:	54c8                	lw	a0,44(s1)
    8000247e:	73e0b923          	sd	t5,1842(ra) # e6276988 <__global_pointer$+0x66273b78>
    80002482:	f946f803          	0xf946f803
    80002486:	d6c4                	sw	s1,44(a3)
    80002488:	3a08                	fld	fa0,48(a2)
    8000248a:	33a6                	fld	ft7,104(sp)
    8000248c:	445d                	li	s0,23
    8000248e:	dd42                	sw	a6,184(sp)
    80002490:	bd60                	fsd	fs0,248(a0)
    80002492:	20e3349b          	0x20e3349b
    80002496:	a875                	j	80002552 <test_memory+0x352>
    80002498:	2899                	addiw	a7,a7,6
    8000249a:	98e2ddeb          	0x98e2ddeb
    8000249e:	ff1d                	bnez	a4,800023dc <test_memory+0x1dc>
    800024a0:	de94                	sw	a3,56(a3)
    800024a2:	d8cc486b          	0xd8cc486b
    800024a6:	5fd9                	li	t6,-10
    800024a8:	ab72                	fsd	ft8,400(sp)
    800024aa:	9377e947          	fmsub.d	fs2,fa5,fs7,fs2,unknown
    800024ae:	803b516b          	0x803b516b
    800024b2:	6f99d5a7          	0x6f99d5a7
    800024b6:	a762                	fsd	fs8,392(sp)
    800024b8:	339d014b          	fnmsub.d	ft2,fs10,fs9,ft6,rne
    800024bc:	ee46                	sd	a7,280(sp)
    800024be:	dd74                	sw	a3,124(a0)
    800024c0:	0fe1                	addi	t6,t6,24
    800024c2:	559a                	lw	a1,164(sp)
    800024c4:	73a9                	lui	t2,0xfffea
    800024c6:	0304                	addi	s1,sp,384
    800024c8:	f181                	bnez	a1,800023c8 <test_memory+0x1c8>
    800024ca:	163c5953          	fmul.q	fs2,fs8,ft3,unknown
    800024ce:	ec88                	sd	a0,24(s1)
    800024d0:	5c18                	lw	a4,56(s0)
    800024d2:	0454                	addi	a3,sp,516
    800024d4:	65e9                	lui	a1,0x1a
    800024d6:	8bf3c43f cbff912c 	0xcbff912c8bf3c43f
    800024de:	61f9                	lui	gp,0x1e
    800024e0:	3108                	fld	fa0,32(a0)
    800024e2:	6be1                	lui	s7,0x18
    800024e4:	45f1                	li	a1,28
    800024e6:	e628                	sd	a0,72(a2)
    800024e8:	832d                	srli	a4,a4,0xb
    800024ea:	6023546f          	jal	s0,80037aec <__global_pointer$+0x34cdc>
    800024ee:	06da                	slli	a3,a3,0x16
    800024f0:	b92a                	fsd	fa0,176(sp)
    800024f2:	6b88                	ld	a0,16(a5)
    800024f4:	4b5a                	lw	s6,148(sp)
    800024f6:	5299                	li	t0,-26
    800024f8:	84c8                	0x84c8
    800024fa:	14d8                	addi	a4,sp,612
    800024fc:	fe96                	sd	t0,376(sp)
    800024fe:	5745                	li	a4,-15
    80002500:	a650                	fsd	fa2,136(a2)
    80002502:	71e2                	ld	gp,56(sp)
    80002504:	604a                	0x604a
    80002506:	34101693          	0x34101693
    8000250a:	bd5bf523          	0xbd5bf523
    8000250e:	d4a9                	beqz	s1,80002458 <test_memory+0x258>
    80002510:	66e8                	ld	a0,200(a3)
    80002512:	314efdf3          	csrrci	s11,0x314,29
    80002516:	e6a4                	sd	s1,72(a3)
    80002518:	ab9aaae7          	0xab9aaae7
    8000251c:	627f                	0x627f
    8000251e:	4fbe                	lw	t6,204(sp)
    80002520:	eb80                	sd	s0,16(a5)
    80002522:	cc90                	sw	a2,24(s1)
    80002524:	e66c                	sd	a1,200(a2)
    80002526:	0dfc                	addi	a5,sp,732
    80002528:	a4e8                	fsd	fa0,200(s1)
    8000252a:	f1a5                	bnez	a1,8000248a <test_memory+0x28a>
    8000252c:	1548                	addi	a0,sp,676
    8000252e:	5395                	li	t2,-27
    80002530:	c08c                	sw	a1,0(s1)
    80002532:	d978900f          	0xd978900f
    80002536:	d912                	sw	tp,176(sp)
    80002538:	1647b8cf          	fnmadd.q	fa7,fa5,ft4,ft2,rup
    8000253c:	6ead                	lui	t4,0xb
    8000253e:	9821                	andi	s0,s0,-24
    80002540:	e9018067          	jr	-368(gp) # 80002e10 <__global_pointer$>
    80002544:	b064dda7          	0xb064dda7
    80002548:	06324417          	auipc	s0,0x6324
    8000254c:	9d02                	jalr	s10
    8000254e:	e197996f          	jal	s2,7ff7c366 <_start-0x83c9a>
    80002552:	0bd9                	addi	s7,s7,22
    80002554:	ec62                	sd	s8,24(sp)
    80002556:	2e94                	fld	fa3,24(a3)
    80002558:	ece4                	sd	s1,216(s1)
    8000255a:	d885                	beqz	s1,8000248a <test_memory+0x28a>
    8000255c:	8efa                	mv	t4,t5
    8000255e:	886c                	0x886c
    80002560:	e555                	bnez	a0,8000260c <loop_count+0xc>
    80002562:	10df 4b5c 5faf      	0x5faf4b5c10df
    80002568:	460fde23          	0x460fde23
    8000256c:	59d1                	li	s3,-12
    8000256e:	5e11                	li	t3,-28
    80002570:	1e24ea4b          	fnmsub.q	fs4,fs1,ft2,ft3,unknown
    80002574:	7fe5                	lui	t6,0xffff9
    80002576:	3375                	addiw	t1,t1,-3
    80002578:	5fdc21ef          	jal	gp,800c5374 <__global_pointer$+0xc2564>
    8000257c:	4ec0                	lw	s0,28(a3)
    8000257e:	f922                	sd	s0,176(sp)
    80002580:	a79f 3693 a37e      	0xa37e3693a79f
    80002586:	c314                	sw	a3,0(a4)
    80002588:	be36                	fsd	fa3,312(sp)
    8000258a:	03a8                	addi	a0,sp,456
    8000258c:	73b4                	ld	a3,96(a5)
    8000258e:	9cc5                	0x9cc5
    80002590:	5430                	lw	a2,104(s0)
    80002592:	89c5                	andi	a1,a1,17
    80002594:	f113edaf          	0xf113edaf
    80002598:	779c                	ld	a5,40(a5)
    8000259a:	5344775b          	0x5344775b
    8000259e:	7e1e9a3b          	0x7e1e9a3b
    800025a2:	871a366b          	0x871a366b
    800025a6:	c9c1                	beqz	a1,80002636 <_end+0x26>
    800025a8:	5e9e                	lw	t4,228(sp)
    800025aa:	ea56                	sd	s5,272(sp)
    800025ac:	57de                	lw	a5,244(sp)
    800025ae:	5540                	lw	s0,44(a0)
    800025b0:	e101568f          	0xe101568f
    800025b4:	f9c8                	sd	a0,176(a1)
    800025b6:	e030                	sd	a2,64(s0)
    800025b8:	8afa                	mv	s5,t5
    800025ba:	6aa5                	lui	s5,0x9
    800025bc:	2644                	fld	fs1,136(a2)
    800025be:	884c                	0x884c
    800025c0:	75b0                	ld	a2,104(a1)
    800025c2:	a25f d2cb 413f      	0x413fd2cba25f
    800025c8:	a94e                	fsd	fs3,144(sp)
    800025ca:	d6c2                	sw	a6,108(sp)
    800025cc:	ab36                	fsd	fa3,400(sp)
    800025ce:	5afac747          	fmsub.d	fa4,fs5,fa5,fa1,rmm
    800025d2:	41f9                	li	gp,30
    800025d4:	4906                	lw	s2,64(sp)
    800025d6:	e04a                	sd	s2,0(sp)
    800025d8:	3eff                	0x3eff
    800025da:	1151                	addi	sp,sp,-12
    800025dc:	d071                	beqz	s0,800025a0 <test_memory+0x3a0>
    800025de:	c3a9                	beqz	a5,80002620 <_end+0x10>
    800025e0:	2db6                	fld	fs11,328(sp)
    800025e2:	8e3c                	0x8e3c
    800025e4:	fd44                	sd	s1,184(a0)
    800025e6:	1182                	slli	gp,gp,0x20
    800025e8:	c85c                	sw	a5,20(s0)
    800025ea:	f500                	sd	s0,40(a0)
    800025ec:	0cd6                	slli	s9,s9,0x15
    800025ee:	ff76                	sd	t4,440(sp)
    800025f0:	81c2                	mv	gp,a6
    800025f2:	d6fa                	sw	t5,108(sp)
    800025f4:	2792                	fld	fa5,256(sp)
    800025f6:	897e                	mv	s2,t6
    800025f8:	1502                	slli	a0,a0,0x20
    800025fa:	59f0                	lw	a2,116(a1)
    800025fc:	1c9743ef          	jal	t2,80076fc4 <__global_pointer$+0x741b4>

0000000080002600 <loop_count>:
    80002600:	0040                	addi	s0,sp,4
	...

Disassembly of section .riscv.attributes:

0000000000000000 <.riscv.attributes>:
   0:	1e41                	addi	t3,t3,-16
   2:	0000                	unimp
   4:	7200                	ld	s0,32(a2)
   6:	7369                	lui	t1,0xffffa
   8:	01007663          	bgeu	zero,a6,14 <_start-0x7fffffec>
   c:	0014                	0x14
   e:	0000                	unimp
  10:	7205                	lui	tp,0xfffe1
  12:	3676                	fld	fa2,376(sp)
  14:	6934                	ld	a3,80(a0)
  16:	7032                	0x7032
  18:	5f30                	lw	a2,120(a4)
  1a:	326d                	addiw	tp,tp,-5
  1c:	3070                	fld	fa2,224(s0)
	...
