
build/test87:     file format elf64-littleriscv


Disassembly of section .text.init:

0000000080000000 <_start>:
    80000000:	05c0006f          	j	8000005c <reset_vector>

0000000080000004 <trap_vector>:
    80000004:	34202f73          	csrr	t5,mcause
    80000008:	00800f93          	li	t6,8
    8000000c:	03ff0a63          	beq	t5,t6,80000040 <write_tohost>
    80000010:	00900f93          	li	t6,9
    80000014:	03ff0663          	beq	t5,t6,80000040 <write_tohost>
    80000018:	00b00f93          	li	t6,11
    8000001c:	03ff0263          	beq	t5,t6,80000040 <write_tohost>
    80000020:	80000f17          	auipc	t5,0x80000
    80000024:	fe0f0f13          	addi	t5,t5,-32 # 0 <_start-0x80000000>
    80000028:	000f0463          	beqz	t5,80000030 <trap_vector+0x2c>
    8000002c:	000f0067          	jr	t5
    80000030:	34202f73          	csrr	t5,mcause
    80000034:	000f5463          	bgez	t5,8000003c <handle_exception>
    80000038:	0040006f          	j	8000003c <handle_exception>

000000008000003c <handle_exception>:
    8000003c:	5391e193          	ori	gp,gp,1337

0000000080000040 <write_tohost>:
    80000040:	00001f17          	auipc	t5,0x1
    80000044:	fc3f2023          	sw	gp,-64(t5) # 80001000 <tohost>
    80000048:	000902b7          	lui	t0,0x90
    8000004c:	0012829b          	addiw	t0,t0,1
    80000050:	00c29293          	slli	t0,t0,0xc
    80000054:	0002af83          	lw	t6,0(t0) # 90000 <_start-0x7ff70000>
    80000058:	fe9ff06f          	j	80000040 <write_tohost>

000000008000005c <reset_vector>:
    8000005c:	00000093          	li	ra,0
    80000060:	00000113          	li	sp,0
    80000064:	00000193          	li	gp,0
    80000068:	00000213          	li	tp,0
    8000006c:	00000293          	li	t0,0
    80000070:	00000313          	li	t1,0
    80000074:	00000393          	li	t2,0
    80000078:	00000413          	li	s0,0
    8000007c:	00000493          	li	s1,0
    80000080:	00000513          	li	a0,0
    80000084:	00000593          	li	a1,0
    80000088:	00000613          	li	a2,0
    8000008c:	00000693          	li	a3,0
    80000090:	00000713          	li	a4,0
    80000094:	00000793          	li	a5,0
    80000098:	00000813          	li	a6,0
    8000009c:	00000893          	li	a7,0
    800000a0:	00000913          	li	s2,0
    800000a4:	00000993          	li	s3,0
    800000a8:	00000a13          	li	s4,0
    800000ac:	00000a93          	li	s5,0
    800000b0:	00000b13          	li	s6,0
    800000b4:	00000b93          	li	s7,0
    800000b8:	00000c13          	li	s8,0
    800000bc:	00000c93          	li	s9,0
    800000c0:	00000d13          	li	s10,0
    800000c4:	00000d93          	li	s11,0
    800000c8:	00000e13          	li	t3,0
    800000cc:	00000e93          	li	t4,0
    800000d0:	00000f13          	li	t5,0
    800000d4:	00000f93          	li	t6,0
    800000d8:	f1402573          	csrr	a0,mhartid
    800000dc:	00051063          	bnez	a0,800000dc <reset_vector+0x80>
    800000e0:	00000297          	auipc	t0,0x0
    800000e4:	01028293          	addi	t0,t0,16 # 800000f0 <reset_vector+0x94>
    800000e8:	30529073          	csrw	mtvec,t0
    800000ec:	18005073          	csrwi	satp,0
    800000f0:	00000297          	auipc	t0,0x0
    800000f4:	02428293          	addi	t0,t0,36 # 80000114 <reset_vector+0xb8>
    800000f8:	30529073          	csrw	mtvec,t0
    800000fc:	0010029b          	addiw	t0,zero,1
    80000100:	03529293          	slli	t0,t0,0x35
    80000104:	fff28293          	addi	t0,t0,-1
    80000108:	3b029073          	csrw	pmpaddr0,t0
    8000010c:	01f00293          	li	t0,31
    80000110:	3a029073          	csrw	pmpcfg0,t0
    80000114:	30405073          	csrwi	mie,0
    80000118:	00000297          	auipc	t0,0x0
    8000011c:	01428293          	addi	t0,t0,20 # 8000012c <reset_vector+0xd0>
    80000120:	30529073          	csrw	mtvec,t0
    80000124:	30205073          	csrwi	medeleg,0
    80000128:	30305073          	csrwi	mideleg,0
    8000012c:	00000193          	li	gp,0
    80000130:	00000297          	auipc	t0,0x0
    80000134:	ed428293          	addi	t0,t0,-300 # 80000004 <trap_vector>
    80000138:	30529073          	csrw	mtvec,t0
    8000013c:	00100513          	li	a0,1
    80000140:	01f51513          	slli	a0,a0,0x1f
    80000144:	00055c63          	bgez	a0,8000015c <reset_vector+0x100>
    80000148:	0ff0000f          	fence
    8000014c:	00100193          	li	gp,1
    80000150:	05d00893          	li	a7,93
    80000154:	00000513          	li	a0,0
    80000158:	00000073          	ecall
    8000015c:	80000297          	auipc	t0,0x80000
    80000160:	ea428293          	addi	t0,t0,-348 # 0 <_start-0x80000000>
    80000164:	00028a63          	beqz	t0,80000178 <reset_vector+0x11c>
    80000168:	10529073          	csrw	stvec,t0
    8000016c:	0000b2b7          	lui	t0,0xb
    80000170:	1092829b          	addiw	t0,t0,265
    80000174:	30229073          	csrw	medeleg,t0
    80000178:	30005073          	csrwi	mstatus,0
    8000017c:	00000297          	auipc	t0,0x0
    80000180:	01428293          	addi	t0,t0,20 # 80000190 <reset_vector+0x134>
    80000184:	34129073          	csrw	mepc,t0
    80000188:	f1402573          	csrr	a0,mhartid
    8000018c:	30200073          	mret
    80000190:	0200006f          	j	800001b0 <test_start>

0000000080000194 <crash_backward>:
    80000194:	0ff0000f          	fence
    80000198:	00018063          	beqz	gp,80000198 <crash_backward+0x4>
    8000019c:	00119193          	slli	gp,gp,0x1
    800001a0:	0011e193          	ori	gp,gp,1
    800001a4:	05d00893          	li	a7,93
    800001a8:	00018513          	mv	a0,gp
    800001ac:	00000073          	ecall

00000000800001b0 <test_start>:
    800001b0:	00002f97          	auipc	t6,0x2
    800001b4:	e50f8f93          	addi	t6,t6,-432 # 80002000 <hidden_data>
    800001b8:	000fb003          	ld	zero,0(t6)
    800001bc:	008fb083          	ld	ra,8(t6)
    800001c0:	010fb103          	ld	sp,16(t6)
    800001c4:	018fb183          	ld	gp,24(t6)
    800001c8:	020fb203          	ld	tp,32(t6)
    800001cc:	028fb283          	ld	t0,40(t6)
    800001d0:	030fb303          	ld	t1,48(t6)
    800001d4:	038fb383          	ld	t2,56(t6)
    800001d8:	040fb403          	ld	s0,64(t6)
    800001dc:	048fb483          	ld	s1,72(t6)
    800001e0:	050fb503          	ld	a0,80(t6)
    800001e4:	058fb583          	ld	a1,88(t6)
    800001e8:	060fb603          	ld	a2,96(t6)
    800001ec:	068fb683          	ld	a3,104(t6)
    800001f0:	070fb703          	ld	a4,112(t6)
    800001f4:	078fb783          	ld	a5,120(t6)
    800001f8:	080fb803          	ld	a6,128(t6)
    800001fc:	088fb883          	ld	a7,136(t6)
    80000200:	090fb903          	ld	s2,144(t6)
    80000204:	098fb983          	ld	s3,152(t6)
    80000208:	0a0fba03          	ld	s4,160(t6)
    8000020c:	0a8fba83          	ld	s5,168(t6)
    80000210:	0b0fbb03          	ld	s6,176(t6)
    80000214:	0b8fbb83          	ld	s7,184(t6)
    80000218:	0c0fbc03          	ld	s8,192(t6)
    8000021c:	0c8fbc83          	ld	s9,200(t6)
    80000220:	0d0fbd03          	ld	s10,208(t6)
    80000224:	0d8fbd83          	ld	s11,216(t6)
    80000228:	0e0fbe03          	ld	t3,224(t6)
    8000022c:	0e8fbe83          	ld	t4,232(t6)
    80000230:	0f0fbf03          	ld	t5,240(t6)
    80000234:	0f8fbf83          	ld	t6,248(t6)
    80000238:	0040006f          	j	8000023c <pseg_0>

000000008000023c <pseg_0>:
    8000023c:	00ed42b3          	xor	t0,s10,a4
    80000240:	cea00213          	li	tp,-790
    80000244:	1b54ed93          	ori	s11,s1,437
    80000248:	99400513          	li	a0,-1644
    8000024c:	34000c13          	li	s8,832
    80000250:	01853733          	sltu	a4,a0,s8
    80000254:	96900613          	li	a2,-1687
    80000258:	00002697          	auipc	a3,0x2
    8000025c:	a3e68693          	addi	a3,a3,-1474 # 80001c96 <fromhost+0xc56>
    80000260:	00002897          	auipc	a7,0x2
    80000264:	a1188893          	addi	a7,a7,-1519 # 80001c71 <fromhost+0xc31>
    80000268:	00002817          	auipc	a6,0x2
    8000026c:	38980813          	addi	a6,a6,905 # 800025f1 <test_memory+0x3f1>
    80000270:	d9400e93          	li	t4,-620
    80000274:	418c50bb          	sraw	ra,s8,s8
    80000278:	7598a9a3          	sw	s9,1875(a7)
    8000027c:	00002197          	auipc	gp,0x2
    80000280:	2ac18193          	addi	gp,gp,684 # 80002528 <test_memory+0x328>
    80000284:	038c0cb3          	mul	s9,s8,s8
    80000288:	c6920113          	addi	sp,tp,-919 # fffffffffffffc69 <__global_pointer$+0xffffffff7fffce59>
    8000028c:	7a224063          	blt	tp,sp,80000a2c <crash_forward>
    80000290:	03de8b3b          	mulw	s6,t4,t4
    80000294:	fc200c13          	li	s8,-62
    80000298:	a8f00a93          	li	s5,-1393
    8000029c:	de100313          	li	t1,-543
    800002a0:	00100d93          	li	s11,1
    800002a4:	8c400f93          	li	t6,-1852
    800002a8:	00002b97          	auipc	s7,0x2
    800002ac:	12cb8b93          	addi	s7,s7,300 # 800023d4 <test_memory+0x1d4>
    800002b0:	00002097          	auipc	ra,0x2
    800002b4:	d7008093          	addi	ra,ra,-656 # 80002020 <reg_x4_init>
    800002b8:	00002297          	auipc	t0,0x2
    800002bc:	79f28293          	addi	t0,t0,1951 # 80002a57 <_end+0x447>
    800002c0:	65468923          	sb	s4,1618(a3)
    800002c4:	03fd9d93          	slli	s11,s11,0x3f
    800002c8:	f4f80fa3          	sb	a5,-161(a6)
    800002cc:	01dea3b3          	slt	t2,t4,t4
    800002d0:	418c0cbb          	subw	s9,s8,s8
    800002d4:	eac1e903          	lwu	s2,-340(gp) # 80002cbc <_end+0x6ac>
    800002d8:	00100e93          	li	t4,1
    800002dc:	01f60d3b          	addw	s10,a2,t6
    800002e0:	03fe9e93          	slli	t4,t4,0x3f
    800002e4:	fff00113          	li	sp,-1
    800002e8:	c0613a13          	sltiu	s4,sp,-1018
    800002ec:	01d14133          	xor	sp,sp,t4
    800002f0:	006359bb          	srlw	s3,t1,t1
    800002f4:	01fb8023          	sb	t6,0(s7)
    800002f8:	32400493          	li	s1,804
    800002fc:	5da00613          	li	a2,1498
    80000300:	72000593          	li	a1,1824
    80000304:	a6e2b0a3          	sd	a4,-1439(t0)
    80000308:	03be0b33          	mul	s6,t3,s11
    8000030c:	00100213          	li	tp,1
    80000310:	d0c00d13          	li	s10,-756
    80000314:	fff00713          	li	a4,-1
    80000318:	3e10ce03          	lbu	t3,993(ra)
    8000031c:	03f21213          	slli	tp,tp,0x3f
    80000320:	01a66fb3          	or	t6,a2,s10
    80000324:	fff00c93          	li	s9,-1
    80000328:	01b74733          	xor	a4,a4,s11
    8000032c:	00e1f8b3          	and	a7,gp,a4
    80000330:	00247833          	and	a6,s0,sp
    80000334:	02b49f33          	mulh	t5,s1,a1
    80000338:	004cccb3          	xor	s9,s9,tp
    8000033c:	019376b3          	and	a3,t1,s9
    80000340:	03ce3e33          	mulhu	t3,t3,t3
    80000344:	ea000413          	li	s0,-352
    80000348:	00002297          	auipc	t0,0x2
    8000034c:	ee628293          	addi	t0,t0,-282 # 8000222e <test_memory+0x2e>
    80000350:	0046ec33          	or	s8,a3,tp
    80000354:	00002f17          	auipc	t5,0x2
    80000358:	6cef0f13          	addi	t5,t5,1742 # 80002a22 <_end+0x412>
    8000035c:	00002097          	auipc	ra,0x2
    80000360:	50508093          	addi	ra,ra,1285 # 80002861 <_end+0x251>
    80000364:	ab2097a3          	sh	s2,-1361(ra)
    80000368:	14500b93          	li	s7,325
    8000036c:	4d700193          	li	gp,1239
    80000370:	00002997          	auipc	s3,0x2
    80000374:	f7398993          	addi	s3,s3,-141 # 800022e3 <test_memory+0xe3>
    80000378:	25000f93          	li	t6,592
    8000037c:	01b8e533          	or	a0,a7,s11
    80000380:	01ff9d33          	sll	s10,t6,t6
    80000384:	6b156463          	bltu	a0,a7,80000a2c <crash_forward>
    80000388:	00100313          	li	t1,1
    8000038c:	23c988a3          	sb	t3,561(s3)
    80000390:	028ab7b3          	mulhu	a5,s5,s0
    80000394:	03f31313          	slli	t1,t1,0x3f
    80000398:	fff00493          	li	s1,-1
    8000039c:	af300713          	li	a4,-1293
    800003a0:	abaf4583          	lbu	a1,-1350(t5)
    800003a4:	8e570513          	addi	a0,a4,-1819
    800003a8:	40bb8a13          	addi	s4,s7,1035
    800003ac:	74218613          	addi	a2,gp,1858 # 80003552 <__global_pointer$+0x742>
    800003b0:	0e429b03          	lh	s6,228(t0)
    800003b4:	df7a60e3          	bltu	s4,s7,80000194 <crash_backward>
    800003b8:	00100d93          	li	s11,1
    800003bc:	9c000613          	li	a2,-1600
    800003c0:	01d863b3          	or	t2,a6,t4
    800003c4:	0b900193          	li	gp,185
    800003c8:	00000413          	li	s0,0
    800003cc:	dc7844e3          	blt	a6,t2,80000194 <crash_backward>
    800003d0:	0064c4b3          	xor	s1,s1,t1
    800003d4:	bf700c13          	li	s8,-1033
    800003d8:	43725a13          	srai	s4,tp,0x37
    800003dc:	01bc98b3          	sll	a7,s9,s11
    800003e0:	009ffe33          	and	t3,t6,s1
    800003e4:	2ab00813          	li	a6,683
    800003e8:	3cc00093          	li	ra,972
    800003ec:	51600213          	li	tp,1302
    800003f0:	021c6cbb          	remw	s9,s8,ra
    800003f4:	418c05bb          	subw	a1,s8,s8
    800003f8:	00100293          	li	t0,1
    800003fc:	01985793          	srli	a5,a6,0x19
    80000400:	034a3b33          	mulhu	s6,s4,s4
    80000404:	404656b3          	sra	a3,a2,tp
    80000408:	03f29293          	slli	t0,t0,0x3f
    8000040c:	fff00093          	li	ra,-1
    80000410:	d4800393          	li	t2,-696
    80000414:	00606933          	or	s2,zero,t1
    80000418:	0050c0b3          	xor	ra,ra,t0
    8000041c:	03fd9d93          	slli	s11,s11,0x3f
    80000420:	00784133          	xor	sp,a6,t2
    80000424:	fff00993          	li	s3,-1
    80000428:	d6a706e3          	beq	a4,a0,80000194 <crash_backward>
    8000042c:	00000f13          	li	t5,0
    80000430:	5e006e63          	bltu	zero,zero,80000a2c <crash_forward>
    80000434:	e9200893          	li	a7,-366
    80000438:	b7bbb613          	sltiu	a2,s7,-1157
    8000043c:	018c66b3          	or	a3,s8,s8
    80000440:	f3300b93          	li	s7,-205
    80000444:	001e7c33          	and	s8,t3,ra
    80000448:	005c6a33          	or	s4,s8,t0
    8000044c:	03085cb3          	divu	s9,a6,a6
    80000450:	d54c02e3          	beq	s8,s4,80000194 <crash_backward>
    80000454:	0df00393          	li	t2,223
    80000458:	eaa00613          	li	a2,-342
    8000045c:	01b9c9b3          	xor	s3,s3,s11
    80000460:	00100493          	li	s1,1
    80000464:	15600793          	li	a5,342
    80000468:	00738133          	add	sp,t2,t2
    8000046c:	00100293          	li	t0,1
    80000470:	0273debb          	divuw	t4,t2,t2
    80000474:	02f7bb33          	mulhu	s6,a5,a5
    80000478:	03f49493          	slli	s1,s1,0x3f
    8000047c:	fff00513          	li	a0,-1
    80000480:	55a00693          	li	a3,1370
    80000484:	03f29293          	slli	t0,t0,0x3f
    80000488:	f2700213          	li	tp,-217
    8000048c:	fff00413          	li	s0,-1
    80000490:	0048d5bb          	srlw	a1,a7,tp
    80000494:	0134fd33          	and	s10,s1,s3
    80000498:	01bd6fb3          	or	t6,s10,s11
    8000049c:	00002a17          	auipc	s4,0x2
    800004a0:	7dca0a13          	addi	s4,s4,2012 # 80002c78 <_end+0x668>
    800004a4:	00954533          	xor	a0,a0,s1
    800004a8:	02c6773b          	remuw	a4,a2,a2
    800004ac:	59afd063          	bge	t6,s10,80000a2c <crash_forward>
    800004b0:	00002817          	auipc	a6,0x2
    800004b4:	c9180813          	addi	a6,a6,-879 # 80002141 <reg_x8_output+0x1>
    800004b8:	00544433          	xor	s0,s0,t0
    800004bc:	874a1c83          	lh	s9,-1932(s4)
    800004c0:	02601993          	slli	s3,zero,0x26
    800004c4:	03f69133          	mulh	sp,a3,t6
    800004c8:	0088f0b3          	and	ra,a7,s0
    800004cc:	41718ab3          	sub	s5,gp,s7
    800004d0:	4aa00e93          	li	t4,1194
    800004d4:	00002d17          	auipc	s10,0x2
    800004d8:	0bcd0d13          	addi	s10,s10,188 # 80002590 <test_memory+0x390>
    800004dc:	0e168e13          	addi	t3,a3,225
    800004e0:	cbc68ae3          	beq	a3,t3,80000194 <crash_backward>
    800004e4:	00a3f333          	and	t1,t2,a0
    800004e8:	4b900693          	li	a3,1209
    800004ec:	16de8c13          	addi	s8,t4,365
    800004f0:	f37d00a3          	sb	s7,-223(s10)
    800004f4:	afe00d93          	li	s11,-1282
    800004f8:	3a6814a3          	sh	t1,937(a6)
    800004fc:	77800b93          	li	s7,1912
    80000500:	9e500613          	li	a2,-1563
    80000504:	0050ef33          	or	t5,ra,t0
    80000508:	c80066e3          	bltu	zero,zero,80000194 <crash_backward>
    8000050c:	417b8abb          	subw	s5,s7,s7
    80000510:	54500213          	li	tp,1349
    80000514:	64100893          	li	a7,1601
    80000518:	004da5b3          	slt	a1,s11,tp
    8000051c:	034a2fb3          	mulhsu	t6,s4,s4
    80000520:	11800393          	li	t2,280
    80000524:	00936933          	or	s2,t1,s1
    80000528:	0118d133          	srl	sp,a7,a7
    8000052c:	c72304e3          	beq	t1,s2,80000194 <crash_backward>
    80000530:	01c9cfb3          	xor	t6,s3,t3
    80000534:	98f00913          	li	s2,-1649
    80000538:	c5e0cee3          	blt	ra,t5,80000194 <crash_backward>
    8000053c:	70100b13          	li	s6,1793
    80000540:	cab90493          	addi	s1,s2,-853
    80000544:	aaf00a13          	li	s4,-1361
    80000548:	60d00b93          	li	s7,1549
    8000054c:	e1000193          	li	gp,-496
    80000550:	00100813          	li	a6,1
    80000554:	00c63733          	sltu	a4,a2,a2
    80000558:	023689bb          	mulw	s3,a3,gp
    8000055c:	014a3333          	sltu	t1,s4,s4
    80000560:	4c004663          	bltz	zero,80000a2c <crash_forward>
    80000564:	4c994463          	blt	s2,s1,80000a2c <crash_forward>
    80000568:	03f81813          	slli	a6,a6,0x3f
    8000056c:	9d900113          	li	sp,-1575
    80000570:	037bcab3          	div	s5,s7,s7
    80000574:	b5f10593          	addi	a1,sp,-1185
    80000578:	60700613          	li	a2,1543
    8000057c:	0294ea33          	rem	s4,s1,s1
    80000580:	38b00193          	li	gp,907
    80000584:	54800993          	li	s3,1352
    80000588:	023676b3          	remu	a3,a2,gp
    8000058c:	2f4d0b93          	addi	s7,s10,756
    80000590:	00002417          	auipc	s0,0x2
    80000594:	88d40413          	addi	s0,s0,-1907 # 80001e1d <fromhost+0xddd>
    80000598:	fff00e13          	li	t3,-1
    8000059c:	0339dc33          	divu	s8,s3,s3
    800005a0:	a3000d93          	li	s11,-1488
    800005a4:	75b423a3          	sw	s11,1863(s0)
    800005a8:	010e4e33          	xor	t3,t3,a6
    800005ac:	01ffa333          	slt	t1,t6,t6
    800005b0:	07600f13          	li	t5,118
    800005b4:	25900513          	li	a0,601
    800005b8:	01c27d33          	and	s10,tp,t3
    800005bc:	0103ecb3          	or	s9,t2,a6
    800005c0:	00a508bb          	addw	a7,a0,a0
    800005c4:	42000193          	li	gp,1056
    800005c8:	17400313          	li	t1,372
    800005cc:	03bdd233          	divu	tp,s11,s11
    800005d0:	0363c7b3          	div	a5,t2,s6
    800005d4:	03ef70b3          	remu	ra,t5,t5
    800005d8:	bb9d0ee3          	beq	s10,s9,80000194 <crash_backward>
    800005dc:	00002117          	auipc	sp,0x2
    800005e0:	43710113          	addi	sp,sp,1079 # 80002a13 <_end+0x403>
    800005e4:	00002517          	auipc	a0,0x2
    800005e8:	e4350513          	addi	a0,a0,-445 # 80002427 <test_memory+0x227>
    800005ec:	0339d9b3          	divu	s3,s3,s3
    800005f0:	0031f633          	and	a2,gp,gp
    800005f4:	00000a93          	li	s5,0
    800005f8:	00002b17          	auipc	s6,0x2
    800005fc:	1e9b0b13          	addi	s6,s6,489 # 800027e1 <_end+0x1d1>
    80000600:	a6111ba3          	sh	ra,-1417(sp)
    80000604:	00002417          	auipc	s0,0x2
    80000608:	d3640413          	addi	s0,s0,-714 # 8000233a <test_memory+0x13a>
    8000060c:	3a400b93          	li	s7,932
    80000610:	00001117          	auipc	sp,0x1
    80000614:	4f810113          	addi	sp,sp,1272 # 80001b08 <fromhost+0xac8>
    80000618:	00100713          	li	a4,1
    8000061c:	70414983          	lbu	s3,1796(sp)
    80000620:	e0700293          	li	t0,-505
    80000624:	fcf534a3          	sd	a5,-55(a0)
    80000628:	6a200593          	li	a1,1698
    8000062c:	17b42123          	sw	s11,354(s0)
    80000630:	0332fdbb          	remuw	s11,t0,s3
    80000634:	be000813          	li	a6,-1056
    80000638:	02b30c3b          	mulw	s8,t1,a1
    8000063c:	012a979b          	slliw	a5,s5,0x12
    80000640:	00000e93          	li	t4,0
    80000644:	00002217          	auipc	tp,0x2
    80000648:	98920213          	addi	tp,tp,-1655 # 80001fcd <fromhost+0xf8d>
    8000064c:	00100413          	li	s0,1
    80000650:	03f41413          	slli	s0,s0,0x3f
    80000654:	62100893          	li	a7,1569
    80000658:	025bd6b3          	divu	a3,s7,t0
    8000065c:	03f71713          	slli	a4,a4,0x3f
    80000660:	4118da33          	sra	s4,a7,a7
    80000664:	00002e17          	auipc	t3,0x2
    80000668:	a14e0e13          	addi	t3,t3,-1516 # 80002078 <reg_x15_init>
    8000066c:	fff00993          	li	s3,-1
    80000670:	015d539b          	srliw	t2,s10,0x15
    80000674:	00214633          	xor	a2,sp,sp
    80000678:	c63b1d03          	lh	s10,-925(s6)
    8000067c:	fff00913          	li	s2,-1
    80000680:	0252ccbb          	divw	s9,t0,t0
    80000684:	46321ba3          	sh	gp,1143(tp) # 477 <_start-0x7ffffb89>
    80000688:	030870b3          	remu	ra,a6,a6
    8000068c:	0089c9b3          	xor	s3,s3,s0
    80000690:	013e71b3          	and	gp,t3,s3
    80000694:	00e94933          	xor	s2,s2,a4
    80000698:	0081e533          	or	a0,gp,s0
    8000069c:	0123ffb3          	and	t6,t2,s2
    800006a0:	408e6f03          	lwu	t5,1032(t3)
    800006a4:	00eae4b3          	or	s1,s5,a4
    800006a8:	00100193          	li	gp,1
    800006ac:	ae0044e3          	bltz	zero,80000194 <crash_backward>
    800006b0:	00100813          	li	a6,1
    800006b4:	00000c93          	li	s9,0
    800006b8:	00c60c3b          	addw	s8,a2,a2
    800006bc:	1a900793          	li	a5,425
    800006c0:	8b500593          	li	a1,-1867
    800006c4:	00000b13          	li	s6,0
    800006c8:	a2400d93          	li	s11,-1500
    800006cc:	3be00693          	li	a3,958
    800006d0:	f7800513          	li	a0,-136
    800006d4:	ad6ce0e3          	bltu	s9,s6,80000194 <crash_backward>
    800006d8:	01bd90bb          	sllw	ra,s11,s11
    800006dc:	94400313          	li	t1,-1724
    800006e0:	0347c43b          	divw	s0,a5,s4
    800006e4:	03f19193          	slli	gp,gp,0x3f
    800006e8:	fff00213          	li	tp,-1
    800006ec:	40d6d93b          	sraw	s2,a3,a3
    800006f0:	05d78993          	addi	s3,a5,93
    800006f4:	57176393          	ori	t2,a4,1393
    800006f8:	41ce0633          	sub	a2,t3,t3
    800006fc:	02656d33          	rem	s10,a0,t1
    80000700:	03f81813          	slli	a6,a6,0x3f
    80000704:	02b5c733          	div	a4,a1,a1
    80000708:	020068bb          	remw	a7,zero,zero
    8000070c:	8d300f93          	li	t6,-1837
    80000710:	fff00e93          	li	t4,-1
    80000714:	010eceb3          	xor	t4,t4,a6
    80000718:	00324233          	xor	tp,tp,gp
    8000071c:	00048393          	mv	t2,s1
    80000720:	4009d133          	sra	sp,s3,zero
    80000724:	0231ddb3          	divu	s11,gp,gp
    80000728:	73400c93          	li	s9,1844
    8000072c:	0298c633          	div	a2,a7,s1
    80000730:	01de7bb3          	and	s7,t3,t4
    80000734:	0045f2b3          	and	t0,a1,tp
    80000738:	00038c13          	mv	s8,t2
    8000073c:	00100893          	li	a7,1
    80000740:	03ff8a33          	mul	s4,t6,t6
    80000744:	019c873b          	addw	a4,s9,s9
    80000748:	0032ee33          	or	t3,t0,gp
    8000074c:	00000593          	li	a1,0
    80000750:	42e4d093          	srai	ra,s1,0x2e
    80000754:	03a32433          	mulhsu	s0,t1,s10
    80000758:	41290133          	sub	sp,s2,s2
    8000075c:	621369b7          	lui	s3,0x62136
    80000760:	2dc28663          	beq	t0,t3,80000a2c <crash_forward>
    80000764:	23900c93          	li	s9,569
    80000768:	00c64633          	xor	a2,a2,a2
    8000076c:	3e400413          	li	s0,996
    80000770:	03f89893          	slli	a7,a7,0x3f
    80000774:	01ef1db3          	sll	s11,t5,t5
    80000778:	039c8a33          	mul	s4,s9,s9
    8000077c:	00100a93          	li	s5,1
    80000780:	fff00b13          	li	s6,-1
    80000784:	66e00113          	li	sp,1646
    80000788:	03fa9a93          	slli	s5,s5,0x3f
    8000078c:	011b4b33          	xor	s6,s6,a7
    80000790:	18700993          	li	s3,391
    80000794:	01687533          	and	a0,a6,s6
    80000798:	8e000f93          	li	t6,-1824
    8000079c:	022407bb          	mulw	a5,s0,sp
    800007a0:	41ad0dbb          	subw	s11,s10,s10
    800007a4:	87f00193          	li	gp,-1921
    800007a8:	fff00913          	li	s2,-1
    800007ac:	0239823b          	mulw	tp,s3,gp
    800007b0:	2f700a13          	li	s4,759
    800007b4:	03800c93          	li	s9,56
    800007b8:	0107ef33          	or	t5,a5,a6
    800007bc:	468e2793          	slti	a5,t3,1128
    800007c0:	00002417          	auipc	s0,0x2
    800007c4:	1e440413          	addi	s0,s0,484 # 800029a4 <_end+0x394>
    800007c8:	01ad113b          	sllw	sp,s10,s10
    800007cc:	d2e8c213          	xori	tp,a7,-722
    800007d0:	596c8d93          	addi	s11,s9,1430
    800007d4:	9dbcd0e3          	bge	s9,s11,80000194 <crash_backward>
    800007d8:	39ee4793          	xori	a5,t3,926
    800007dc:	1f100613          	li	a2,497
    800007e0:	000017bb          	sllw	a5,zero,zero
    800007e4:	0294ec33          	rem	s8,s1,s1
    800007e8:	03010cbb          	mulw	s9,sp,a6
    800007ec:	01ff973b          	sllw	a4,t6,t6
    800007f0:	40a50f33          	sub	t5,a0,a0
    800007f4:	a0046983          	lwu	s3,-1536(s0)
    800007f8:	0ec00393          	li	t2,236
    800007fc:	7fe00213          	li	tp,2046
    80000800:	a9c00d93          	li	s11,-1380
    80000804:	fa700113          	li	sp,-89
    80000808:	02c64bb3          	div	s7,a2,a2
    8000080c:	00000493          	li	s1,0
    80000810:	016c7e33          	and	t3,s8,s6
    80000814:	018c3733          	sltu	a4,s8,s8
    80000818:	02420833          	mul	a6,tp,tp
    8000081c:	03bd843b          	mulw	s0,s11,s11
    80000820:	01ce6fb3          	or	t6,t3,t3
    80000824:	00018993          	mv	s3,gp
    80000828:	01e9119b          	slliw	gp,s2,0x1e
    8000082c:	01594933          	xor	s2,s2,s5
    80000830:	00100f13          	li	t5,1
    80000834:	01156333          	or	t1,a0,a7
    80000838:	03ff1f13          	slli	t5,t5,0x3f
    8000083c:	40238ebb          	subw	t4,t2,sp
    80000840:	012e7d33          	and	s10,t3,s2
    80000844:	0158e6b3          	or	a3,a7,s5
    80000848:	1edd4263          	blt	s10,a3,80000a2c <crash_forward>
    8000084c:	02ca40b3          	div	ra,s4,a2
    80000850:	15e8f213          	andi	tp,a7,350
    80000854:	d1c00693          	li	a3,-740
    80000858:	31f00393          	li	t2,799
    8000085c:	00098b93          	mv	s7,s3
    80000860:	cac00093          	li	ra,-852
    80000864:	40635fb3          	sra	t6,t1,t1
    80000868:	014a72b3          	and	t0,s4,s4
    8000086c:	bde00713          	li	a4,-1058
    80000870:	c9b00a13          	li	s4,-869
    80000874:	84700493          	li	s1,-1977
    80000878:	00e7113b          	sllw	sp,a4,a4
    8000087c:	02108e33          	mul	t3,ra,ra
    80000880:	cc268d93          	addi	s11,a3,-830
    80000884:	fff00c13          	li	s8,-1
    80000888:	414a5eb3          	sra	t4,s4,s4
    8000088c:	a9a00293          	li	t0,-1382
    80000890:	0052d0bb          	srlw	ra,t0,t0
    80000894:	4b900d13          	li	s10,1209
    80000898:	a8c00213          	li	tp,-1396
    8000089c:	00001f97          	auipc	t6,0x1
    800008a0:	79df8f93          	addi	t6,t6,1949 # 80002039 <reg_x7_init+0x1>
    800008a4:	01ec4c33          	xor	s8,s8,t5
    800008a8:	018ef7b3          	and	a5,t4,s8
    800008ac:	49200313          	li	t1,1170
    800008b0:	00002417          	auipc	s0,0x2
    800008b4:	34940413          	addi	s0,s0,841 # 80002bf9 <_end+0x5e9>
    800008b8:	8c342583          	lw	a1,-1853(s0)
    800008bc:	01ad063b          	addw	a2,s10,s10
    800008c0:	01e7ecb3          	or	s9,a5,t5
    800008c4:	8db688e3          	beq	a3,s11,80000194 <crash_backward>
    800008c8:	0093993b          	sllw	s2,t2,s1
    800008cc:	3ded819b          	addiw	gp,s11,990
    800008d0:	8d79c2e3          	blt	s3,s7,80000194 <crash_backward>
    800008d4:	00001e17          	auipc	t3,0x1
    800008d8:	387e0e13          	addi	t3,t3,903 # 80001c5b <fromhost+0xc1b>
    800008dc:	03decb33          	div	s6,t4,t4
    800008e0:	41b7d0b3          	sra	ra,a5,s11
    800008e4:	15978463          	beq	a5,s9,80000a2c <crash_forward>
    800008e8:	00001d17          	auipc	s10,0x1
    800008ec:	304d0d13          	addi	s10,s10,772 # 80001bec <fromhost+0xbac>
    800008f0:	34500913          	li	s2,837
    800008f4:	6f8d1583          	lh	a1,1784(s10)
    800008f8:	7a5e1103          	lh	sp,1957(t3)
    800008fc:	f976041b          	addiw	s0,a2,-105
    80000900:	77d00993          	li	s3,1917
    80000904:	0273d633          	divu	a2,t2,t2
    80000908:	6c300a93          	li	s5,1731
    8000090c:	00002a17          	auipc	s4,0x2
    80000910:	fcaa0a13          	addi	s4,s4,-54 # 800028d6 <_end+0x2c6>
    80000914:	4e7fb283          	ld	t0,1255(t6)
    80000918:	033991b3          	mulh	gp,s3,s3
    8000091c:	00002f97          	auipc	t6,0x2
    80000920:	8d0f8f93          	addi	t6,t6,-1840 # 800021ec <reg_x29_output+0x4>
    80000924:	011de6b3          	or	a3,s11,a7
    80000928:	03293bb3          	mulhu	s7,s2,s2
    8000092c:	035348b3          	div	a7,t1,s5
    80000930:	8a000e93          	li	t4,-1888
    80000934:	05cfa103          	lw	sp,92(t6)
    80000938:	00f78c3b          	addw	s8,a5,a5
    8000093c:	ec6a6d93          	ori	s11,s4,-314
    80000940:	00100b13          	li	s6,1
    80000944:	ca1a1a23          	sh	ra,-844(s4)
    80000948:	01d2583b          	srlw	a6,tp,t4
    8000094c:	c9400c93          	li	s9,-876
    80000950:	90100d13          	li	s10,-1791
    80000954:	03fb1b13          	slli	s6,s6,0x3f
    80000958:	00002517          	auipc	a0,0x2
    8000095c:	11050513          	addi	a0,a0,272 # 80002a68 <_end+0x458>
    80000960:	96e54703          	lbu	a4,-1682(a0)
    80000964:	00000093          	li	ra,0
    80000968:	03ad463b          	divw	a2,s10,s10
    8000096c:	00000f13          	li	t5,0
    80000970:	47a00493          	li	s1,1146
    80000974:	fff00e13          	li	t3,-1
    80000978:	0294f3b3          	remu	t2,s1,s1
    8000097c:	016e4e33          	xor	t3,t3,s6
    80000980:	81e0eae3          	bltu	ra,t5,80000194 <crash_backward>
    80000984:	01caf5b3          	and	a1,s5,t3
    80000988:	89cc8293          	addi	t0,s9,-1892
    8000098c:	805ce4e3          	bltu	s9,t0,80000194 <crash_backward>
    80000990:	0165e7b3          	or	a5,a1,s6
    80000994:	0040006f          	j	80000998 <reg_dump>

0000000080000998 <reg_dump>:
    80000998:	00002097          	auipc	ra,0x2
    8000099c:	c6808093          	addi	ra,ra,-920 # 80002600 <loop_count>
    800009a0:	0000a103          	lw	sp,0(ra)
    800009a4:	fff10193          	addi	gp,sp,-1
    800009a8:	0030a023          	sw	gp,0(ra)
    800009ac:	880118e3          	bnez	sp,8000023c <pseg_0>
    800009b0:	00001097          	auipc	ra,0x1
    800009b4:	75008093          	addi	ra,ra,1872 # 80002100 <begin_signature>
    800009b8:	0000b023          	sd	zero,0(ra)
    800009bc:	0020b823          	sd	sp,16(ra)
    800009c0:	0030bc23          	sd	gp,24(ra)
    800009c4:	0240b023          	sd	tp,32(ra)
    800009c8:	0250b423          	sd	t0,40(ra)
    800009cc:	0260b823          	sd	t1,48(ra)
    800009d0:	0270bc23          	sd	t2,56(ra)
    800009d4:	0480b023          	sd	s0,64(ra)
    800009d8:	0490b423          	sd	s1,72(ra)
    800009dc:	04b0bc23          	sd	a1,88(ra)
    800009e0:	06c0b023          	sd	a2,96(ra)
    800009e4:	06d0b423          	sd	a3,104(ra)
    800009e8:	06e0b823          	sd	a4,112(ra)
    800009ec:	06f0bc23          	sd	a5,120(ra)
    800009f0:	0900b023          	sd	a6,128(ra)
    800009f4:	0910b423          	sd	a7,136(ra)
    800009f8:	0920b823          	sd	s2,144(ra)
    800009fc:	0930bc23          	sd	s3,152(ra)
    80000a00:	0b50b423          	sd	s5,168(ra)
    80000a04:	0b60b823          	sd	s6,176(ra)
    80000a08:	0b70bc23          	sd	s7,184(ra)
    80000a0c:	0d80b023          	sd	s8,192(ra)
    80000a10:	0d90b423          	sd	s9,200(ra)
    80000a14:	0da0b823          	sd	s10,208(ra)
    80000a18:	0db0bc23          	sd	s11,216(ra)
    80000a1c:	0fc0b023          	sd	t3,224(ra)
    80000a20:	0fd0b423          	sd	t4,232(ra)
    80000a24:	0fe0b823          	sd	t5,240(ra)
    80000a28:	0200006f          	j	80000a48 <test_end>

0000000080000a2c <crash_forward>:
    80000a2c:	0ff0000f          	fence
    80000a30:	00018063          	beqz	gp,80000a30 <crash_forward+0x4>
    80000a34:	00119193          	slli	gp,gp,0x1
    80000a38:	0011e193          	ori	gp,gp,1
    80000a3c:	05d00893          	li	a7,93
    80000a40:	00018513          	mv	a0,gp
    80000a44:	00000073          	ecall

0000000080000a48 <test_end>:
    80000a48:	0ff0000f          	fence
    80000a4c:	00100193          	li	gp,1
    80000a50:	05d00893          	li	a7,93
    80000a54:	00000513          	li	a0,0
    80000a58:	00000073          	ecall
    80000a5c:	c0001073          	unimp
	...

Disassembly of section .tohost:

0000000080001000 <tohost>:
	...

0000000080001040 <fromhost>:
	...

Disassembly of section .data:

0000000080002000 <hidden_data>:
	...

0000000080002008 <reg_x1_init>:
    80002008:	18628f17          	auipc	t5,0x18628
    8000200c:	1e84                	addi	s1,sp,880
    8000200e:	          	0xffff0127

0000000080002010 <reg_x2_init>:
    80002010:	ffff                	0xffff
    80002012:	ffff                	0xffff
    80002014:	ffff                	0xffff
    80002016:	ffff                	0xffff

0000000080002018 <reg_x3_init>:
    80002018:	ee92                	sd	tp,344(sp)
    8000201a:	8eb1                	xor	a3,a3,a2
    8000201c:	8882                	jr	a7
    8000201e:	          	0x90cb75a3

0000000080002020 <reg_x4_init>:
    80002020:	db0690cb          	fnmsub.d	ft1,fa3,fa6,fs11,rtz
    80002024:	f924                	sd	s1,112(a0)
    80002026:	          	fnmsub.s	fa0,ft10,ft10,ft7,rup

0000000080002028 <reg_x5_init>:
    80002028:	964739ef          	jal	s3,7ff7518c <_start-0x8ae74>
    8000202c:	d81e                	sw	t2,48(sp)
    8000202e:	8a96                	mv	s5,t0

0000000080002030 <reg_x6_init>:
    80002030:	3c25                	addiw	s8,s8,-23
    80002032:	40ea                	lw	ra,152(sp)
    80002034:	1548                	addi	a0,sp,676
    80002036:	6755                	lui	a4,0x15

0000000080002038 <reg_x7_init>:
    80002038:	ffff                	0xffff
    8000203a:	ffff                	0xffff
    8000203c:	ffff                	0xffff
    8000203e:	ffff                	0xffff

0000000080002040 <reg_x8_init>:
    80002040:	8004                	0x8004
    80002042:	ffff                	0xffff
    80002044:	ffff                	0xffff
    80002046:	ffff                	0xffff

0000000080002048 <reg_x9_init>:
    80002048:	fead                	bnez	a3,80001fc2 <fromhost+0xf82>
    8000204a:	c6a5                	beqz	a3,800020b2 <reg_x22_init+0x2>
    8000204c:	ee3a                	sd	a4,280(sp)
    8000204e:	5e60                	lw	s0,124(a2)

0000000080002050 <reg_x10_init>:
    80002050:	cf39                	beqz	a4,800020ae <reg_x21_init+0x6>
    80002052:	b874                	fsd	fa3,240(s0)
    80002054:	0962                	slli	s2,s2,0x18
    80002056:	3936                	fld	fs2,360(sp)

0000000080002058 <reg_x11_init>:
    80002058:	a135                	j	80002484 <test_memory+0x284>
    8000205a:	7706                	ld	a4,96(sp)
    8000205c:	1ede                	slli	t4,t4,0x37
    8000205e:	db39                	beqz	a4,80001fb4 <fromhost+0xf74>

0000000080002060 <reg_x12_init>:
    80002060:	33f4                	fld	fa3,224(a5)
    80002062:	8e68                	0x8e68
    80002064:	7b58                	ld	a4,176(a4)
    80002066:	a766                	fsd	fs9,392(sp)

0000000080002068 <reg_x13_init>:
    80002068:	ffffff87          	0xffffff87
    8000206c:	ffff                	0xffff
    8000206e:	ffff                	0xffff

0000000080002070 <reg_x14_init>:
    80002070:	0b90                	addi	a2,sp,464
    80002072:	8ea2                	mv	t4,s0
    80002074:	b0f2                	fsd	ft8,96(sp)
    80002076:	e6a0                	sd	s0,72(a3)

0000000080002078 <reg_x15_init>:
    80002078:	764d                	lui	a2,0xffff3
    8000207a:	eb09                	bnez	a4,8000208c <reg_x17_init+0x4>
    8000207c:	1386                	slli	t2,t2,0x21
    8000207e:	e7d4                	sd	a3,136(a5)

0000000080002080 <reg_x16_init>:
    80002080:	b2b5                	j	800019ec <fromhost+0x9ac>
    80002082:	d801                	beqz	s0,80001f92 <fromhost+0xf52>
    80002084:	20aa08bf  	0x8e3c719e20aa08bf

0000000080002088 <reg_x17_init>:
    80002088:	719e                	ld	gp,480(sp)
    8000208a:	8e3c                	0x8e3c
    8000208c:	5994                	lw	a3,48(a1)
    8000208e:	73dc                	ld	a5,160(a5)

0000000080002090 <reg_x18_init>:
    80002090:	7678                	ld	a4,232(a2)
    80002092:	fe60                	sd	s0,248(a2)
    80002094:	181d                	addi	a6,a6,-25
    80002096:	caf6                	sw	t4,84(sp)

0000000080002098 <reg_x19_init>:
    80002098:	4ad9                	li	s5,22
    8000209a:	4004                	lw	s1,0(s0)
    8000209c:	4685                	li	a3,1
    8000209e:	fccd                	bnez	s1,80002058 <reg_x11_init>

00000000800020a0 <reg_x20_init>:
    800020a0:	0008                	0x8
    800020a2:	0000                	unimp
    800020a4:	0000                	unimp
	...

00000000800020a8 <reg_x21_init>:
	...

00000000800020b0 <reg_x22_init>:
    800020b0:	0c0c                	addi	a1,sp,528
    800020b2:	e264                	sd	s1,192(a2)
    800020b4:	070689af          	0x70689af

00000000800020b8 <reg_x23_init>:
    800020b8:	10901f13          	0x10901f13
    800020bc:	69f1                	lui	s3,0x1c
    800020be:	7bca                	ld	s7,176(sp)

00000000800020c0 <reg_x24_init>:
    800020c0:	582a                	lw	a6,168(sp)
    800020c2:	32f6                	fld	ft5,376(sp)
    800020c4:	7110                	ld	a2,32(a0)
    800020c6:	3f0e                	fld	ft10,224(sp)

00000000800020c8 <reg_x25_init>:
    800020c8:	fffffffb          	0xfffffffb
    800020cc:	ffff                	0xffff
    800020ce:	ffff                	0xffff

00000000800020d0 <reg_x26_init>:
    800020d0:	0000                	unimp
    800020d2:	0000                	unimp
    800020d4:	0000                	unimp
    800020d6:	0800                	addi	s0,sp,16

00000000800020d8 <reg_x27_init>:
	...

00000000800020e0 <reg_x28_init>:
    800020e0:	6bfe                	ld	s7,472(sp)
    800020e2:	d31d                	beqz	a4,80002008 <reg_x1_init>
    800020e4:	b4867567          	0xb4867567

00000000800020e8 <reg_x29_init>:
	...

00000000800020f0 <reg_x30_init>:
    800020f0:	1b04                	addi	s1,sp,432
    800020f2:	bcd9                	j	80001bc8 <fromhost+0xb88>
    800020f4:	3af8                	fld	fa4,240(a3)
    800020f6:	c318                	sw	a4,0(a4)

00000000800020f8 <reg_x31_init>:
    800020f8:	717a                	ld	sp,440(sp)
    800020fa:	2b85                	addiw	s7,s7,1
    800020fc:	5ac9                	li	s5,-14
    800020fe:	77c8                	ld	a0,168(a5)

0000000080002100 <begin_signature>:
    80002100:	ee6a                	sd	s10,280(sp)
    80002102:	a7e9cd87          	flq	fs11,-1410(s3) # 1ba7e <_start-0x7ffe4582>
    80002106:	ccd0                	sw	a2,28(s1)

0000000080002108 <reg_x1_output>:
    80002108:	fe61                	bnez	a2,800020e0 <reg_x28_init>
    8000210a:	7082                	ld	ra,32(sp)
    8000210c:	bb04                	fsd	fs1,48(a4)
    8000210e:	d840                	sw	s0,52(s0)

0000000080002110 <reg_x2_output>:
    80002110:	6b7c                	ld	a5,208(a4)
    80002112:	8f74                	0x8f74
    80002114:	6748                	ld	a0,136(a4)
    80002116:	2d76                	fld	fs10,344(sp)

0000000080002118 <reg_x3_output>:
    80002118:	38e5                	addiw	a7,a7,-7
    8000211a:	b2497c43          	fmadd.d	fs8,fs2,ft4,fs6
    8000211e:	e474                	sd	a3,200(s0)

0000000080002120 <reg_x4_output>:
    80002120:	c719                	beqz	a4,8000212e <reg_x5_output+0x6>
    80002122:	b4bfe123          	0xb4bfe123
    80002126:	e650                	sd	a2,136(a2)

0000000080002128 <reg_x5_output>:
    80002128:	824c                	0x824c
    8000212a:	f458                	sd	a4,168(s0)
    8000212c:	995d                	andi	a0,a0,-9
    8000212e:	fc3c                	sd	a5,120(s0)

0000000080002130 <reg_x6_output>:
    80002130:	431d                	li	t1,7
    80002132:	f685                	bnez	a3,8000205a <reg_x11_init+0x2>
    80002134:	f886                	sd	ra,112(sp)
    80002136:	5ee9                	li	t4,-6

0000000080002138 <reg_x7_output>:
    80002138:	fc80                	sd	s0,56(s1)
    8000213a:	d484                	sw	s1,40(s1)
    8000213c:	e68c                	sd	a1,8(a3)
    8000213e:	7342                	ld	t1,48(sp)

0000000080002140 <reg_x8_output>:
    80002140:	500d                	c.li	zero,-29
    80002142:	7a15                	lui	s4,0xfffe5
    80002144:	1930                	addi	a2,sp,184
    80002146:	          	0x6a17558b

0000000080002148 <reg_x9_output>:
    80002148:	9f9d6a17          	auipc	s4,0x9f9d6
    8000214c:	4a69                	li	s4,26
    8000214e:	          	0x29345bfb

0000000080002150 <reg_x10_output>:
    80002150:	2934                	fld	fa3,80(a0)
    80002152:	c1d46653          	0xc1d46653
    80002156:	01c4                	addi	s1,sp,196

0000000080002158 <reg_x11_output>:
    80002158:	a11d                	j	8000257e <test_memory+0x37e>
    8000215a:	065f 8323 f22e      	0xf22e8323065f

0000000080002160 <reg_x12_output>:
    80002160:	adb18f0f          	0xadb18f0f
    80002164:	578d                	li	a5,-29
    80002166:	8d8a                	mv	s11,sp

0000000080002168 <reg_x13_output>:
    80002168:	e616                	sd	t0,264(sp)
    8000216a:	65f6                	ld	a1,344(sp)
    8000216c:	911c                	0x911c
    8000216e:	f01f        	0x3bee43eaf01f

0000000080002170 <reg_x14_output>:
    80002170:	43ea                	lw	t2,152(sp)
    80002172:	3bee                	fld	fs7,248(sp)
    80002174:	522d                	li	tp,-21
    80002176:	3d02                	fld	fs10,32(sp)

0000000080002178 <reg_x15_output>:
    80002178:	7342                	ld	t1,48(sp)
    8000217a:	cd3c                	sw	a5,88(a0)
    8000217c:	20ba                	fld	ft1,392(sp)
    8000217e:	          	0x2ecad9f7

0000000080002180 <reg_x16_output>:
    80002180:	2eca                	fld	ft9,144(sp)
    80002182:	2c52                	fld	fs8,272(sp)
    80002184:	ec24                	sd	s1,88(s0)
    80002186:	4f36                	lw	t5,76(sp)

0000000080002188 <reg_x17_output>:
    80002188:	b022                	fsd	fs0,32(sp)
    8000218a:	23e2                	fld	ft7,24(sp)
    8000218c:	3d7f                	0x3d7f
    8000218e:	          	0x488d989b

0000000080002190 <reg_x18_output>:
    80002190:	488d                	li	a7,3
    80002192:	2c16                	fld	fs8,320(sp)
    80002194:	5dc5                	li	s11,-15
    80002196:	250d                	addiw	a0,a0,3

0000000080002198 <reg_x19_output>:
    80002198:	b49ddd3b          	0xb49ddd3b
    8000219c:	a256                	fsd	fs5,256(sp)
    8000219e:	e0e6                	sd	s9,64(sp)

00000000800021a0 <reg_x20_output>:
    800021a0:	b750                	fsd	fa2,168(a4)
    800021a2:	17adf547          	fmsub.q	fa0,fs11,fs10,ft2
    800021a6:	ef99                	bnez	a5,800021c4 <reg_x24_output+0x4>

00000000800021a8 <reg_x21_output>:
    800021a8:	3819                	addiw	a6,a6,-26
    800021aa:	1345                	addi	t1,t1,-15
    800021ac:	3b31                	addiw	s6,s6,-20
    800021ae:	6f94                	ld	a3,24(a5)

00000000800021b0 <reg_x22_output>:
    800021b0:	bc10                	fsd	fa2,56(s0)
    800021b2:	b0834f47          	fmsub.s	ft10,ft6,fs0,fs6,rmm
    800021b6:	          	fmadd.d	ft8,fa2,fs9,fs11,rtz

00000000800021b8 <reg_x23_output>:
    800021b8:	db96                	sw	t0,244(sp)
    800021ba:	abcfbe13          	sltiu	t3,t6,-1348
    800021be:	7a68                	ld	a0,240(a2)

00000000800021c0 <reg_x24_output>:
    800021c0:	a4aa5693          	0xa4aa5693
    800021c4:	79dc                	ld	a5,176(a1)
    800021c6:	0799                	addi	a5,a5,6

00000000800021c8 <reg_x25_output>:
    800021c8:	0de0e05b          	0xde0e05b
    800021cc:	efe2                	sd	s8,472(sp)
    800021ce:	556c                	lw	a1,108(a0)

00000000800021d0 <reg_x26_output>:
    800021d0:	c388                	sw	a0,0(a5)
    800021d2:	bd00                	fsd	fs0,56(a0)
    800021d4:	f080                	sd	s0,32(s1)
    800021d6:	1015                	c.nop	-27

00000000800021d8 <reg_x27_output>:
    800021d8:	f09a81a7          	0xf09a81a7
    800021dc:	6850                	ld	a2,144(s0)
    800021de:	fcaa                	sd	a0,120(sp)

00000000800021e0 <reg_x28_output>:
    800021e0:	38ed                	addiw	a7,a7,-5
    800021e2:	7bd3a24b          	fnmsub.d	ft4,ft7,ft9,fa5,rdn
    800021e6:	904a                	c.add	zero,s2

00000000800021e8 <reg_x29_output>:
    800021e8:	6bc84a4f          	fnmadd.d	fs4,fa6,ft8,fa3,rmm
    800021ec:	e9d9                	bnez	a1,80002282 <test_memory+0x82>
    800021ee:	5909                	li	s2,-30

00000000800021f0 <reg_x30_output>:
    800021f0:	84b0                	0x84b0
    800021f2:	ef9f 308d 526d      	0x526d308def9f

00000000800021f8 <reg_x31_output>:
    800021f8:	8e05                	sub	a2,a2,s1
    800021fa:	2e94                	fld	fa3,24(a3)
    800021fc:	a0da                	fsd	fs6,64(sp)
    800021fe:	e6fc                	sd	a5,200(a3)

0000000080002200 <test_memory>:
    80002200:	7199                	lui	gp,0xfffe6
    80002202:	5f48                	lw	a0,60(a4)
    80002204:	8aae                	mv	s5,a1
    80002206:	0604                	addi	s1,sp,768
    80002208:	b2dc                	fsd	fa5,160(a3)
    8000220a:	3c1d                	addiw	s8,s8,-25
    8000220c:	de6e                	sw	s11,60(sp)
    8000220e:	28ae                	fld	fa7,200(sp)
    80002210:	1666                	slli	a2,a2,0x39
    80002212:	347c                	fld	fa5,232(s0)
    80002214:	52ad                	li	t0,-21
    80002216:	0a40                	addi	s0,sp,276
    80002218:	63d40f0b          	0x63d40f0b
    8000221c:	22be                	fld	ft5,456(sp)
    8000221e:	a0f2                	fsd	ft8,64(sp)
    80002220:	3e057337          	lui	t1,0x3e057
    80002224:	21f6                	fld	ft3,344(sp)
    80002226:	6bdf 5ef0 4eb1      	0x4eb15ef06bdf
    8000222c:	f891                	bnez	s1,80002140 <reg_x8_output>
    8000222e:	290c                	fld	fa1,16(a0)
    80002230:	012c                	addi	a1,sp,136
    80002232:	7e20                	ld	s0,120(a2)
    80002234:	3a94                	fld	fa3,48(a3)
    80002236:	17589d83          	lh	s11,373(a7)
    8000223a:	76251963          	bne	a0,sp,800029ac <_end+0x39c>
    8000223e:	4f74                	lw	a3,92(a4)
    80002240:	184c                	addi	a1,sp,52
    80002242:	b68a                	fsd	ft2,360(sp)
    80002244:	f050a62b          	0xf050a62b
    80002248:	17fd                	addi	a5,a5,-1
    8000224a:	0551                	addi	a0,a0,20
    8000224c:	7742                	ld	a4,48(sp)
    8000224e:	295c                	fld	fa5,144(a0)
    80002250:	4fa8                	lw	a0,88(a5)
    80002252:	08bd                	addi	a7,a7,15
    80002254:	d02e                	sw	a1,32(sp)
    80002256:	01d9                	addi	gp,gp,22
    80002258:	c0fe824f          	fnmadd.s	ft4,ft9,fa5,fs8,rne
    8000225c:	e48a                	sd	sp,72(sp)
    8000225e:	0a48                	addi	a0,sp,276
    80002260:	c78a3bbf 82ff0f46 	0x82ff0f46c78a3bbf
    80002268:	2bdab877          	0x2bdab877
    8000226c:	9c16                	add	s8,s8,t0
    8000226e:	2f24ec9b          	0x2f24ec9b
    80002272:	d2196347          	fmsub.d	ft6,fs2,ft1,fs10,unknown
    80002276:	ecb8                	sd	a4,88(s1)
    80002278:	c898                	sw	a4,16(s1)
    8000227a:	9674                	0x9674
    8000227c:	cf3e                	sw	a5,156(sp)
    8000227e:	e15dd1bf 632dca97 	0x632dca97e15dd1bf
    80002286:	c857e30b          	0xc857e30b
    8000228a:	e9b92663          	0xe9b92663
    8000228e:	e94c                	sd	a1,144(a0)
    80002290:	200e                	fld	ft0,192(sp)
    80002292:	99ce                	add	s3,s3,s3
    80002294:	7828                	ld	a0,112(s0)
    80002296:	56de                	lw	a3,244(sp)
    80002298:	e49d                	bnez	s1,800022c6 <test_memory+0xc6>
    8000229a:	c95a                	sw	s6,144(sp)
    8000229c:	55e4                	lw	s1,108(a1)
    8000229e:	2188                	fld	fa0,0(a1)
    800022a0:	5041ee57          	0x5041ee57
    800022a4:	003e                	c.slli	zero,0xf
    800022a6:	8c62                	mv	s8,s8
    800022a8:	9d08299b          	0x9d08299b
    800022ac:	b265                	j	80001c54 <fromhost+0xc14>
    800022ae:	b24e                	fsd	fs3,288(sp)
    800022b0:	b679                	j	80001e3e <fromhost+0xdfe>
    800022b2:	7001                	c.lui	zero,0xfffe0
    800022b4:	584ce5e3          	bltu	s9,tp,8000303e <__global_pointer$+0x22e>
    800022b8:	470e                	lw	a4,192(sp)
    800022ba:	bdc9                	j	8000218c <reg_x17_output+0x4>
    800022bc:	4cf4                	lw	a3,92(s1)
    800022be:	e2e2                	sd	s8,320(sp)
    800022c0:	bf2171bf 71d9b7c6 	0x71d9b7c6bf2171bf
    800022c8:	6d31d4c3          	0x6d31d4c3
    800022cc:	f671                	bnez	a2,80002298 <test_memory+0x98>
    800022ce:	74a5                	lui	s1,0xfffe9
    800022d0:	d4f9ea9b          	0xd4f9ea9b
    800022d4:	6d02                	ld	s10,0(sp)
    800022d6:	1d30                	addi	a2,sp,696
    800022d8:	db5d                	beqz	a4,8000228e <test_memory+0x8e>
    800022da:	9712                	add	a4,a4,tp
    800022dc:	8438                	0x8438
    800022de:	cda8                	sw	a0,88(a1)
    800022e0:	7d0e                	ld	s10,224(sp)
    800022e2:	b88f0f17          	auipc	t5,0xb88f0
    800022e6:	a556a12b          	0xa556a12b
    800022ea:	92be106b          	0x92be106b
    800022ee:	d756                	sw	s5,172(sp)
    800022f0:	f94d                	bnez	a0,800022a2 <test_memory+0xa2>
    800022f2:	fba9                	bnez	a5,80002244 <test_memory+0x44>
    800022f4:	9ff5                	0x9ff5
    800022f6:	1c43975b          	0x1c43975b
    800022fa:	eba8                	sd	a0,80(a5)
    800022fc:	5d52                	lw	s10,52(sp)
    800022fe:	fced                	bnez	s1,800022f8 <test_memory+0xf8>
    80002300:	8ca1                	xor	s1,s1,s0
    80002302:	203d                	0x203d
    80002304:	494d                	li	s2,19
    80002306:	c50e                	sw	gp,136(sp)
    80002308:	d911365b          	0xd911365b
    8000230c:	bf46                	fsd	fa7,440(sp)
    8000230e:	53a2                	lw	t2,40(sp)
    80002310:	d48e                	sw	gp,104(sp)
    80002312:	cd9e                	sw	t2,216(sp)
    80002314:	3460                	fld	fs0,232(s0)
    80002316:	38399b43          	fmadd.s	fs6,fs3,ft3,ft7,rtz
    8000231a:	7598                	ld	a4,40(a1)
    8000231c:	b234                	fsd	fa3,96(a2)
    8000231e:	80379923          	sh	gp,-2030(a5)
    80002322:	db4a                	sw	s2,180(sp)
    80002324:	532e                	lw	t1,232(sp)
    80002326:	f8fc                	sd	a5,240(s1)
    80002328:	cee1                	beqz	a3,80002400 <test_memory+0x200>
    8000232a:	5d6d                	li	s10,-5
    8000232c:	dd99                	beqz	a1,8000224a <test_memory+0x4a>
    8000232e:	2400cd4b          	0x2400cd4b
    80002332:	b597bfeb          	0xb597bfeb
    80002336:	46004aa3          	0x46004aa3
    8000233a:	cf62                	sw	s8,156(sp)
    8000233c:	0ba5                	addi	s7,s7,9
    8000233e:	ff0e                	sd	gp,440(sp)
    80002340:	2375                	addiw	t1,t1,29
    80002342:	7f6e                	ld	t5,248(sp)
    80002344:	bc55                	j	80001df8 <fromhost+0xdb8>
    80002346:	5e778973          	0x5e778973
    8000234a:	2a1c                	fld	fa5,16(a2)
    8000234c:	cbae9757          	0xcbae9757
    80002350:	d56a                	sw	s10,168(sp)
    80002352:	6c62                	ld	s8,24(sp)
    80002354:	0a3b0727          	0xa3b0727
    80002358:	891a                	mv	s2,t1
    8000235a:	d108                	sw	a0,32(a0)
    8000235c:	b7ee27c3          	fmadd.q	fa5,ft8,ft10,fs6,rdn
    80002360:	4662                	lw	a2,24(sp)
    80002362:	3fe5                	addiw	t6,t6,-7
    80002364:	0ab49253          	fsub.d	ft4,fs1,fa1,rtz
    80002368:	89b4                	0x89b4
    8000236a:	5cba                	lw	s9,172(sp)
    8000236c:	4cb6                	lw	s9,76(sp)
    8000236e:	35d4                	fld	fa3,168(a1)
    80002370:	3d34                	fld	fa3,120(a0)
    80002372:	b388                	fsd	fa0,32(a5)
    80002374:	b74c                	fsd	fa1,168(a4)
    80002376:	c64ec33f d07ced97 	0xd07ced97c64ec33f
    8000237e:	ecae                	sd	a1,88(sp)
    80002380:	99c865eb          	0x99c865eb
    80002384:	04b2                	slli	s1,s1,0xc
    80002386:	c6b0a74b          	fnmsub.q	fa4,ft1,fa1,fs8,rdn
    8000238a:	1840                	addi	s0,sp,52
    8000238c:	d300                	sw	s0,32(a4)
    8000238e:	c6eedcd3          	0xc6eedcd3
    80002392:	95cc                	0x95cc
    80002394:	dc80217b          	0xdc80217b
    80002398:	a828                	fsd	fa0,80(s0)
    8000239a:	0594                	addi	a3,sp,704
    8000239c:	0214                	addi	a3,sp,256
    8000239e:	bb02                	fsd	ft0,432(sp)
    800023a0:	e460                	sd	s0,200(s0)
    800023a2:	98d6                	add	a7,a7,s5
    800023a4:	2f70                	fld	fa2,216(a4)
    800023a6:	a6ee                	fsd	fs11,328(sp)
    800023a8:	8989                	andi	a1,a1,2
    800023aa:	dc91                	beqz	s1,800022c6 <test_memory+0xc6>
    800023ac:	8310                	0x8310
    800023ae:	35c9711b          	0x35c9711b
    800023b2:	60db6507          	0x60db6507
    800023b6:	33762a53          	0x33762a53
    800023ba:	7f01                	lui	t5,0xfffe0
    800023bc:	61a2                	ld	gp,8(sp)
    800023be:	f8ad                	bnez	s1,80002330 <test_memory+0x130>
    800023c0:	d1f5                	beqz	a1,800023a4 <test_memory+0x1a4>
    800023c2:	9840                	0x9840
    800023c4:	b57c                	fsd	fa5,232(a0)
    800023c6:	f57d                	bnez	a0,800023b4 <test_memory+0x1b4>
    800023c8:	80e0                	0x80e0
    800023ca:	ab11                	j	800028de <_end+0x2ce>
    800023cc:	97dc                	0x97dc
    800023ce:	b87e                	fsd	ft11,48(sp)
    800023d0:	751c                	ld	a5,40(a0)
    800023d2:	6941                	lui	s2,0x10
    800023d4:	12c4                	addi	s1,sp,356
    800023d6:	0fc6                	slli	t6,t6,0x11
    800023d8:	4bcc                	lw	a1,20(a5)
    800023da:	17ec                	addi	a1,sp,1004
    800023dc:	7e7f0393          	addi	t2,t5,2023 # fffffffffffe07e7 <__global_pointer$+0xffffffff7ffdd9d7>
    800023e0:	4542                	lw	a0,16(sp)
    800023e2:	eab1                	bnez	a3,80002436 <test_memory+0x236>
    800023e4:	e1282b3b          	0xe1282b3b
    800023e8:	e259                	bnez	a2,8000246e <test_memory+0x26e>
    800023ea:	8a5a                	mv	s4,s6
    800023ec:	fc1fdce7          	0xfc1fdce7
    800023f0:	f8e0                	sd	s0,240(s1)
    800023f2:	e945963f 48012eac 	0x48012eace945963f
    800023fa:	d4bd                	beqz	s1,80002368 <test_memory+0x168>
    800023fc:	8224                	0x8224
    800023fe:	09a4                	addi	s1,sp,216
    80002400:	43c4                	lw	s1,4(a5)
    80002402:	51083b1b          	0x51083b1b
    80002406:	5e04                	lw	s1,56(a2)
    80002408:	c71e                	sw	t2,140(sp)
    8000240a:	6b5d                	lui	s6,0x17
    8000240c:	accc                	fsd	fa1,152(s1)
    8000240e:	ae35ae93          	slti	t4,a1,-1309
    80002412:	7964                	ld	s1,240(a0)
    80002414:	0da4                	addi	s1,sp,728
    80002416:	96b04f87          	flq	ft11,-1685(zero) # fffffffffffff96b <__global_pointer$+0xffffffff7fffcb5b>
    8000241a:	9fad                	addw	a5,a5,a1
    8000241c:	1f5e63eb          	0x1f5e63eb
    80002420:	3a5a                	fld	fs4,432(sp)
    80002422:	1dab660b          	0x1dab660b
    80002426:	985ddca7          	0x985ddca7
    8000242a:	aa7f                	0xaa7f
    8000242c:	3fb6                	fld	ft11,360(sp)
    8000242e:	7bdb3bd3          	0x7bdb3bd3
    80002432:	52d319cf          	fnmadd.d	fs3,ft6,fa3,fa0,rtz
    80002436:	9d5a                	add	s10,s10,s6
    80002438:	72b8                	ld	a4,96(a3)
    8000243a:	ab22                	fsd	fs0,400(sp)
    8000243c:	d250                	sw	a2,36(a2)
    8000243e:	2449                	addiw	s0,s0,18
    80002440:	05c8                	addi	a0,sp,708
    80002442:	017f                	0x17f
    80002444:	98e8                	0x98e8
    80002446:	2880                	fld	fs0,16(s1)
    80002448:	8bc5                	andi	a5,a5,17
    8000244a:	49ea678b          	0x49ea678b
    8000244e:	52bacddb          	0x52bacddb
    80002452:	1ede                	slli	t4,t4,0x37
    80002454:	3800                	fld	fs0,48(s0)
    80002456:	a7bdecf3          	csrrsi	s9,0xa7b,27
    8000245a:	6cd8                	ld	a4,152(s1)
    8000245c:	a00e                	fsd	ft3,0(sp)
    8000245e:	05ba                	slli	a1,a1,0xe
    80002460:	c7868b37          	lui	s6,0xc7868
    80002464:	85f1                	srai	a1,a1,0x1c
    80002466:	d209                	beqz	a2,80002368 <test_memory+0x168>
    80002468:	300d                	0x300d
    8000246a:	b786                	fsd	ft1,488(sp)
    8000246c:	ea3a                	sd	a4,272(sp)
    8000246e:	ce5a920f          	0xce5a920f
    80002472:	336e                	fld	ft6,248(sp)
    80002474:	bb08                	fsd	fa0,48(a4)
    80002476:	8a32                	mv	s4,a2
    80002478:	66a4                	ld	s1,72(a3)
    8000247a:	1414                	addi	a3,sp,544
    8000247c:	68df9fb3          	0x68df9fb3
    80002480:	9e2ee0b3          	0x9e2ee0b3
    80002484:	ddf2                	sw	t3,248(sp)
    80002486:	096e600b          	0x96e600b
    8000248a:	43b6                	lw	t2,76(sp)
    8000248c:	e894                	sd	a3,16(s1)
    8000248e:	656bb4bf faff4683 	0xfaff4683656bb4bf
    80002496:	2a1bf153          	0x2a1bf153
    8000249a:	4a24b147          	fmsub.d	ft2,fs1,ft2,fs1,rup
    8000249e:	05ac50ab          	0x5ac50ab
    800024a2:	057a                	slli	a0,a0,0x1e
    800024a4:	e2901a87          	0xe2901a87
    800024a8:	3e24                	fld	fs1,120(a2)
    800024aa:	44714173          	0x44714173
    800024ae:	d961                	beqz	a0,8000247e <test_memory+0x27e>
    800024b0:	fc2e2a3f ed53aaa9 	0xed53aaa9fc2e2a3f
    800024b8:	ab0e                	fsd	ft3,400(sp)
    800024ba:	e1dd                	bnez	a1,80002560 <test_memory+0x360>
    800024bc:	b519                	j	800022c2 <test_memory+0xc2>
    800024be:	90ba                	add	ra,ra,a4
    800024c0:	2b76                	fld	fs6,344(sp)
    800024c2:	4a65                	li	s4,25
    800024c4:	503e                	0x503e
    800024c6:	8939                	andi	a0,a0,14
    800024c8:	52f0                	lw	a2,100(a3)
    800024ca:	ce90                	sw	a2,24(a3)
    800024cc:	1365                	addi	t1,t1,-7
    800024ce:	4f61                	li	t5,24
    800024d0:	5be31b4b          	fnmsub.d	fs6,ft6,ft10,fa1,rtz
    800024d4:	5304                	lw	s1,32(a4)
    800024d6:	e533cfe3          	blt	t2,s3,80002334 <test_memory+0x134>
    800024da:	d99cb727          	fsd	fs9,-626(s9)
    800024de:	30b4                	fld	fa3,96(s1)
    800024e0:	8dc9                	or	a1,a1,a0
    800024e2:	191cfc3f f7998e1a 	0xf7998e1a191cfc3f
    800024ea:	a66d                	j	80002894 <_end+0x284>
    800024ec:	af96                	fsd	ft5,472(sp)
    800024ee:	a4a0                	fsd	fs0,72(s1)
    800024f0:	03aa                	slli	t2,t2,0xa
    800024f2:	8b94                	0x8b94
    800024f4:	65bc                	ld	a5,72(a1)
    800024f6:	da92                	sw	tp,116(sp)
    800024f8:	2b80                	fld	fs0,16(a5)
    800024fa:	bb8d                	j	8000226c <test_memory+0x6c>
    800024fc:	18dc2a8f          	0x18dc2a8f
    80002500:	db41                	beqz	a4,80002490 <test_memory+0x290>
    80002502:	4f1cc7d3          	0x4f1cc7d3
    80002506:	1d4c                	addi	a1,sp,692
    80002508:	e366                	sd	s9,384(sp)
    8000250a:	363dd40b          	0x363dd40b
    8000250e:	7ffa                	ld	t6,440(sp)
    80002510:	eb9a                	sd	t1,464(sp)
    80002512:	1fb63137          	lui	sp,0x1fb63
    80002516:	4caf7c17          	auipc	s8,0x4caf7
    8000251a:	6d7e                	ld	s10,472(sp)
    8000251c:	7b25                	lui	s6,0xfffe9
    8000251e:	fdcc                	sd	a1,184(a1)
    80002520:	2dde                	fld	fs11,464(sp)
    80002522:	0a26                	slli	s4,s4,0x9
    80002524:	e0d596ab          	0xe0d596ab
    80002528:	c1a6                	sw	s1,192(sp)
    8000252a:	7da8                	ld	a0,120(a1)
    8000252c:	5629                	li	a2,-22
    8000252e:	df66                	sw	s9,188(sp)
    80002530:	18fc                	addi	a5,sp,124
    80002532:	e6a0                	sd	s0,72(a3)
    80002534:	3b85                	addiw	s7,s7,-31
    80002536:	b7e1                	j	800024fe <test_memory+0x2fe>
    80002538:	c7c1                	beqz	a5,800025c0 <test_memory+0x3c0>
    8000253a:	356543d7          	0x356543d7
    8000253e:	869f 9386 22c8      	0x22c89386869f
    80002544:	7fa2b927          	fsd	fs10,2034(t0)
    80002548:	2e28                	fld	fa0,88(a2)
    8000254a:	6e3a26c3          	fmadd.q	fa3,fs4,ft3,fa3,rdn
    8000254e:	ee9d                	bnez	a3,8000258c <test_memory+0x38c>
    80002550:	9fd8                	0x9fd8
    80002552:	05bc                	addi	a5,sp,712
    80002554:	73f8                	ld	a4,224(a5)
    80002556:	e960                	sd	s0,208(a0)
    80002558:	1078                	addi	a4,sp,44
    8000255a:	53a6                	lw	t2,104(sp)
    8000255c:	e0a9                	bnez	s1,8000259e <test_memory+0x39e>
    8000255e:	267e15ef          	jal	a1,800e3fc4 <__global_pointer$+0xe11b4>
    80002562:	cc08                	sw	a0,24(s0)
    80002564:	cf64                	sw	s1,92(a4)
    80002566:	c1c3ada3          	sw	t3,-997(t2)
    8000256a:	cd8d                	beqz	a1,800025a4 <test_memory+0x3a4>
    8000256c:	fbe4                	sd	s1,240(a5)
    8000256e:	ac4d                	j	80002820 <_end+0x210>
    80002570:	f5b282d7          	0xf5b282d7
    80002574:	d68a                	sw	sp,108(sp)
    80002576:	17a8                	addi	a0,sp,1000
    80002578:	fb7de3db          	0xfb7de3db
    8000257c:	f822                	sd	s0,48(sp)
    8000257e:	737a                	ld	t1,440(sp)
    80002580:	b5f5                	j	8000246c <test_memory+0x26c>
    80002582:	8574                	0x8574
    80002584:	3c2e                	fld	fs8,232(sp)
    80002586:	2ecf6253          	0x2ecf6253
    8000258a:	1928                	addi	a0,sp,184
    8000258c:	59b5                	li	s3,-19
    8000258e:	7d42                	ld	s10,48(sp)
    80002590:	0b6563c7          	fmsub.d	ft7,fa0,fs6,ft1,unknown
    80002594:	e5f1                	bnez	a1,80002660 <_end+0x50>
    80002596:	395e                	fld	fs2,496(sp)
    80002598:	acb6                	fsd	fa3,88(sp)
    8000259a:	8cda                	mv	s9,s6
    8000259c:	1155                	addi	sp,sp,-11
    8000259e:	d151                	beqz	a0,80002522 <test_memory+0x322>
    800025a0:	fe7a                	sd	t5,312(sp)
    800025a2:	6b84                	ld	s1,16(a5)
    800025a4:	76c0                	ld	s0,168(a3)
    800025a6:	6a31                	lui	s4,0xc
    800025a8:	6daa                	ld	s11,136(sp)
    800025aa:	cdc7662f          	0xcdc7662f
    800025ae:	c41b9e0f          	0xc41b9e0f
    800025b2:	0256                	slli	tp,tp,0x15
    800025b4:	8c90                	0x8c90
    800025b6:	1c15                	addi	s8,s8,-27
    800025b8:	c834f817          	auipc	a6,0xc834f
    800025bc:	5299                	li	t0,-26
    800025be:	4cd8                	lw	a4,28(s1)
    800025c0:	7280                	ld	s0,32(a3)
    800025c2:	ad59                	j	80002c58 <_end+0x648>
    800025c4:	a549                	j	80002c46 <_end+0x636>
    800025c6:	ceff                	0xceff
    800025c8:	f935                	bnez	a0,8000253c <test_memory+0x33c>
    800025ca:	df76                	sw	t4,188(sp)
    800025cc:	e84c                	sd	a1,144(s0)
    800025ce:	1d28                	addi	a0,sp,696
    800025d0:	d568                	sw	a0,108(a0)
    800025d2:	0cfc                	addi	a5,sp,604
    800025d4:	df04                	sw	s1,56(a4)
    800025d6:	f9d21d87          	0xf9d21d87
    800025da:	24c2                	fld	fs1,16(sp)
    800025dc:	3999                	addiw	s3,s3,-26
    800025de:	1916                	slli	s2,s2,0x25
    800025e0:	92e1                	srli	a3,a3,0x38
    800025e2:	2fdf 0771 81c3      	0x81c307712fdf
    800025e8:	1b55                	addi	s6,s6,-11
    800025ea:	f8fd                	bnez	s1,800025e0 <test_memory+0x3e0>
    800025ec:	a86d320b          	0xa86d320b
    800025f0:	d9ea                	sw	s10,240(sp)
    800025f2:	7df2                	ld	s11,312(sp)
    800025f4:	8858ae9b          	0x8858ae9b
    800025f8:	20fe                	fld	ft1,472(sp)
    800025fa:	4915                	li	s2,5
    800025fc:	b1d5                	j	800022e0 <test_memory+0xe0>
    800025fe:	          	0x40f4fb

0000000080002600 <loop_count>:
    80002600:	0040                	addi	s0,sp,4
	...

Disassembly of section .riscv.attributes:

0000000000000000 <.riscv.attributes>:
   0:	1e41                	addi	t3,t3,-16
   2:	0000                	unimp
   4:	7200                	ld	s0,32(a2)
   6:	7369                	lui	t1,0xffffa
   8:	01007663          	bgeu	zero,a6,14 <_start-0x7fffffec>
   c:	0014                	0x14
   e:	0000                	unimp
  10:	7205                	lui	tp,0xfffe1
  12:	3676                	fld	fa2,376(sp)
  14:	6934                	ld	a3,80(a0)
  16:	7032                	0x7032
  18:	5f30                	lw	a2,120(a4)
  1a:	326d                	addiw	tp,tp,-5
  1c:	3070                	fld	fa2,224(s0)
	...
