
build/test24:     file format elf64-littleriscv


Disassembly of section .text.init:

0000000080000000 <_start>:
    80000000:	05c0006f          	j	8000005c <reset_vector>

0000000080000004 <trap_vector>:
    80000004:	34202f73          	csrr	t5,mcause
    80000008:	00800f93          	li	t6,8
    8000000c:	03ff0a63          	beq	t5,t6,80000040 <write_tohost>
    80000010:	00900f93          	li	t6,9
    80000014:	03ff0663          	beq	t5,t6,80000040 <write_tohost>
    80000018:	00b00f93          	li	t6,11
    8000001c:	03ff0263          	beq	t5,t6,80000040 <write_tohost>
    80000020:	80000f17          	auipc	t5,0x80000
    80000024:	fe0f0f13          	addi	t5,t5,-32 # 0 <_start-0x80000000>
    80000028:	000f0463          	beqz	t5,80000030 <trap_vector+0x2c>
    8000002c:	000f0067          	jr	t5
    80000030:	34202f73          	csrr	t5,mcause
    80000034:	000f5463          	bgez	t5,8000003c <handle_exception>
    80000038:	0040006f          	j	8000003c <handle_exception>

000000008000003c <handle_exception>:
    8000003c:	5391e193          	ori	gp,gp,1337

0000000080000040 <write_tohost>:
    80000040:	00001f17          	auipc	t5,0x1
    80000044:	fc3f2023          	sw	gp,-64(t5) # 80001000 <tohost>
    80000048:	000902b7          	lui	t0,0x90
    8000004c:	0012829b          	addiw	t0,t0,1
    80000050:	00c29293          	slli	t0,t0,0xc
    80000054:	0002af83          	lw	t6,0(t0) # 90000 <_start-0x7ff70000>
    80000058:	fe9ff06f          	j	80000040 <write_tohost>

000000008000005c <reset_vector>:
    8000005c:	00000093          	li	ra,0
    80000060:	00000113          	li	sp,0
    80000064:	00000193          	li	gp,0
    80000068:	00000213          	li	tp,0
    8000006c:	00000293          	li	t0,0
    80000070:	00000313          	li	t1,0
    80000074:	00000393          	li	t2,0
    80000078:	00000413          	li	s0,0
    8000007c:	00000493          	li	s1,0
    80000080:	00000513          	li	a0,0
    80000084:	00000593          	li	a1,0
    80000088:	00000613          	li	a2,0
    8000008c:	00000693          	li	a3,0
    80000090:	00000713          	li	a4,0
    80000094:	00000793          	li	a5,0
    80000098:	00000813          	li	a6,0
    8000009c:	00000893          	li	a7,0
    800000a0:	00000913          	li	s2,0
    800000a4:	00000993          	li	s3,0
    800000a8:	00000a13          	li	s4,0
    800000ac:	00000a93          	li	s5,0
    800000b0:	00000b13          	li	s6,0
    800000b4:	00000b93          	li	s7,0
    800000b8:	00000c13          	li	s8,0
    800000bc:	00000c93          	li	s9,0
    800000c0:	00000d13          	li	s10,0
    800000c4:	00000d93          	li	s11,0
    800000c8:	00000e13          	li	t3,0
    800000cc:	00000e93          	li	t4,0
    800000d0:	00000f13          	li	t5,0
    800000d4:	00000f93          	li	t6,0
    800000d8:	f1402573          	csrr	a0,mhartid
    800000dc:	00051063          	bnez	a0,800000dc <reset_vector+0x80>
    800000e0:	00000297          	auipc	t0,0x0
    800000e4:	01028293          	addi	t0,t0,16 # 800000f0 <reset_vector+0x94>
    800000e8:	30529073          	csrw	mtvec,t0
    800000ec:	18005073          	csrwi	satp,0
    800000f0:	00000297          	auipc	t0,0x0
    800000f4:	02428293          	addi	t0,t0,36 # 80000114 <reset_vector+0xb8>
    800000f8:	30529073          	csrw	mtvec,t0
    800000fc:	0010029b          	addiw	t0,zero,1
    80000100:	03529293          	slli	t0,t0,0x35
    80000104:	fff28293          	addi	t0,t0,-1
    80000108:	3b029073          	csrw	pmpaddr0,t0
    8000010c:	01f00293          	li	t0,31
    80000110:	3a029073          	csrw	pmpcfg0,t0
    80000114:	30405073          	csrwi	mie,0
    80000118:	00000297          	auipc	t0,0x0
    8000011c:	01428293          	addi	t0,t0,20 # 8000012c <reset_vector+0xd0>
    80000120:	30529073          	csrw	mtvec,t0
    80000124:	30205073          	csrwi	medeleg,0
    80000128:	30305073          	csrwi	mideleg,0
    8000012c:	00000193          	li	gp,0
    80000130:	00000297          	auipc	t0,0x0
    80000134:	ed428293          	addi	t0,t0,-300 # 80000004 <trap_vector>
    80000138:	30529073          	csrw	mtvec,t0
    8000013c:	00100513          	li	a0,1
    80000140:	01f51513          	slli	a0,a0,0x1f
    80000144:	00055c63          	bgez	a0,8000015c <reset_vector+0x100>
    80000148:	0ff0000f          	fence
    8000014c:	00100193          	li	gp,1
    80000150:	05d00893          	li	a7,93
    80000154:	00000513          	li	a0,0
    80000158:	00000073          	ecall
    8000015c:	80000297          	auipc	t0,0x80000
    80000160:	ea428293          	addi	t0,t0,-348 # 0 <_start-0x80000000>
    80000164:	00028a63          	beqz	t0,80000178 <reset_vector+0x11c>
    80000168:	10529073          	csrw	stvec,t0
    8000016c:	0000b2b7          	lui	t0,0xb
    80000170:	1092829b          	addiw	t0,t0,265
    80000174:	30229073          	csrw	medeleg,t0
    80000178:	30005073          	csrwi	mstatus,0
    8000017c:	00000297          	auipc	t0,0x0
    80000180:	01428293          	addi	t0,t0,20 # 80000190 <reset_vector+0x134>
    80000184:	34129073          	csrw	mepc,t0
    80000188:	f1402573          	csrr	a0,mhartid
    8000018c:	30200073          	mret
    80000190:	0200006f          	j	800001b0 <test_start>

0000000080000194 <crash_backward>:
    80000194:	0ff0000f          	fence
    80000198:	00018063          	beqz	gp,80000198 <crash_backward+0x4>
    8000019c:	00119193          	slli	gp,gp,0x1
    800001a0:	0011e193          	ori	gp,gp,1
    800001a4:	05d00893          	li	a7,93
    800001a8:	00018513          	mv	a0,gp
    800001ac:	00000073          	ecall

00000000800001b0 <test_start>:
    800001b0:	00002f97          	auipc	t6,0x2
    800001b4:	e50f8f93          	addi	t6,t6,-432 # 80002000 <hidden_data>
    800001b8:	000fb003          	ld	zero,0(t6)
    800001bc:	008fb083          	ld	ra,8(t6)
    800001c0:	010fb103          	ld	sp,16(t6)
    800001c4:	018fb183          	ld	gp,24(t6)
    800001c8:	020fb203          	ld	tp,32(t6)
    800001cc:	028fb283          	ld	t0,40(t6)
    800001d0:	030fb303          	ld	t1,48(t6)
    800001d4:	038fb383          	ld	t2,56(t6)
    800001d8:	040fb403          	ld	s0,64(t6)
    800001dc:	048fb483          	ld	s1,72(t6)
    800001e0:	050fb503          	ld	a0,80(t6)
    800001e4:	058fb583          	ld	a1,88(t6)
    800001e8:	060fb603          	ld	a2,96(t6)
    800001ec:	068fb683          	ld	a3,104(t6)
    800001f0:	070fb703          	ld	a4,112(t6)
    800001f4:	078fb783          	ld	a5,120(t6)
    800001f8:	080fb803          	ld	a6,128(t6)
    800001fc:	088fb883          	ld	a7,136(t6)
    80000200:	090fb903          	ld	s2,144(t6)
    80000204:	098fb983          	ld	s3,152(t6)
    80000208:	0a0fba03          	ld	s4,160(t6)
    8000020c:	0a8fba83          	ld	s5,168(t6)
    80000210:	0b0fbb03          	ld	s6,176(t6)
    80000214:	0b8fbb83          	ld	s7,184(t6)
    80000218:	0c0fbc03          	ld	s8,192(t6)
    8000021c:	0c8fbc83          	ld	s9,200(t6)
    80000220:	0d0fbd03          	ld	s10,208(t6)
    80000224:	0d8fbd83          	ld	s11,216(t6)
    80000228:	0e0fbe03          	ld	t3,224(t6)
    8000022c:	0e8fbe83          	ld	t4,232(t6)
    80000230:	0f0fbf03          	ld	t5,240(t6)
    80000234:	0f8fbf83          	ld	t6,248(t6)
    80000238:	0040006f          	j	8000023c <pseg_0>

000000008000023c <pseg_0>:
    8000023c:	0231d633          	divu	a2,gp,gp
    80000240:	79d00593          	li	a1,1949
    80000244:	0374cb3b          	divw	s6,s1,s7
    80000248:	00002297          	auipc	t0,0x2
    8000024c:	4ce28293          	addi	t0,t0,1230 # 80002716 <_end+0x106>
    80000250:	e1a00a13          	li	s4,-486
    80000254:	407a883b          	subw	a6,s5,t2
    80000258:	02b583b3          	mul	t2,a1,a1
    8000025c:	00002f97          	auipc	t6,0x2
    80000260:	57df8f93          	addi	t6,t6,1405 # 800027d9 <_end+0x1c9>
    80000264:	19200493          	li	s1,402
    80000268:	d49f8723          	sb	s1,-690(t6)
    8000026c:	0094f733          	and	a4,s1,s1
    80000270:	00e49333          	sll	t1,s1,a4
    80000274:	00002c17          	auipc	s8,0x2
    80000278:	183c0c13          	addi	s8,s8,387 # 800023f7 <test_memory+0x1f7>
    8000027c:	e1b00f13          	li	t5,-485
    80000280:	9a700a93          	li	s5,-1625
    80000284:	00100213          	li	tp,1
    80000288:	898f0d93          	addi	s11,t5,-1896
    8000028c:	00125413          	srli	s0,tp,0x1
    80000290:	34500b13          	li	s6,837
    80000294:	036b763b          	remuw	a2,s6,s6
    80000298:	034a613b          	remw	sp,s4,s4
    8000029c:	00a53eb3          	sltu	t4,a0,a0
    800002a0:	03f21213          	slli	tp,tp,0x3f
    800002a4:	fff00d13          	li	s10,-1
    800002a8:	01ded6b3          	srl	a3,t4,t4
    800002ac:	b822eb83          	lwu	s7,-1150(t0)
    800002b0:	6d700193          	li	gp,1751
    800002b4:	415a853b          	subw	a0,s5,s5
    800002b8:	7b000593          	li	a1,1968
    800002bc:	93400913          	li	s2,-1740
    800002c0:	0294a8b3          	mulhsu	a7,s1,s1
    800002c4:	5b800813          	li	a6,1464
    800002c8:	004d4d33          	xor	s10,s10,tp
    800002cc:	23000093          	li	ra,560
    800002d0:	01b71cb3          	sll	s9,a4,s11
    800002d4:	115c01a3          	sb	s5,259(s8)
    800002d8:	0101d333          	srl	t1,gp,a6
    800002dc:	01acf9b3          	and	s3,s9,s10
    800002e0:	0049ee33          	or	t3,s3,tp
    800002e4:	001957bb          	srlw	a5,s2,ra
    800002e8:	16158f93          	addi	t6,a1,353
    800002ec:	67c98e63          	beq	s3,t3,80000968 <crash_forward>
    800002f0:	0f100c13          	li	s8,241
    800002f4:	25200613          	li	a2,594
    800002f8:	e9d00393          	li	t2,-355
    800002fc:	6f700093          	li	ra,1783
    80000300:	00100b93          	li	s7,1
    80000304:	ec000d93          	li	s11,-320
    80000308:	65800693          	li	a3,1624
    8000030c:	03fb9b93          	slli	s7,s7,0x3f
    80000310:	02d6b2b3          	mulhu	t0,a3,a3
    80000314:	018c1fbb          	sllw	t6,s8,s8
    80000318:	02109e33          	mulh	t3,ra,ra
    8000031c:	37600193          	li	gp,886
    80000320:	00100d13          	li	s10,1
    80000324:	003d89bb          	addw	s3,s11,gp
    80000328:	fff00713          	li	a4,-1
    8000032c:	01774733          	xor	a4,a4,s7
    80000330:	417b8a33          	sub	s4,s7,s7
    80000334:	24900213          	li	tp,585
    80000338:	b7a00b13          	li	s6,-1158
    8000033c:	036b3cb3          	mulhu	s9,s6,s6
    80000340:	0073bab3          	sltu	s5,t2,t2
    80000344:	42e2dc93          	srai	s9,t0,0x2e
    80000348:	a9c00693          	li	a3,-1380
    8000034c:	01296a33          	or	s4,s2,s2
    80000350:	1e600313          	li	t1,486
    80000354:	2f020813          	addi	a6,tp,752 # 2f0 <_start-0x7ffffd10>
    80000358:	0a000493          	li	s1,160
    8000035c:	fd800393          	li	t2,-40
    80000360:	036aae33          	mulhsu	t3,s5,s6
    80000364:	d9f00893          	li	a7,-609
    80000368:	00100d93          	li	s11,1
    8000036c:	00d68c33          	add	s8,a3,a3
    80000370:	03fd9d93          	slli	s11,s11,0x3f
    80000374:	0114813b          	addw	sp,s1,a7
    80000378:	00100e13          	li	t3,1
    8000037c:	02666433          	rem	s0,a2,t1
    80000380:	03fd1d13          	slli	s10,s10,0x3f
    80000384:	fff00793          	li	a5,-1
    80000388:	fff00b13          	li	s6,-1
    8000038c:	01bb4b33          	xor	s6,s6,s11
    80000390:	01c00513          	li	a0,28
    80000394:	d7400a93          	li	s5,-652
    80000398:	016ff2b3          	and	t0,t6,s6
    8000039c:	01a7c7b3          	xor	a5,a5,s10
    800003a0:	03fe1e13          	slli	t3,t3,0x3f
    800003a4:	027381bb          	mulw	gp,t2,t2
    800003a8:	fff00a13          	li	s4,-1
    800003ac:	01ca4a33          	xor	s4,s4,t3
    800003b0:	00ed7933          	and	s2,s10,a4
    800003b4:	035540b3          	div	ra,a0,s5
    800003b8:	00f17eb3          	and	t4,sp,a5
    800003bc:	01b2e9b3          	or	s3,t0,s11
    800003c0:	5a59d463          	bge	s3,t0,80000968 <crash_forward>
    800003c4:	0146fcb3          	and	s9,a3,s4
    800003c8:	01cce233          	or	tp,s9,t3
    800003cc:	01aee5b3          	or	a1,t4,s10
    800003d0:	0173ef33          	or	t5,t2,s7
    800003d4:	dde970e3          	bgeu	s2,t5,80000194 <crash_backward>
    800003d8:	dabe8ee3          	beq	t4,a1,80000194 <crash_backward>
    800003dc:	00100413          	li	s0,1
    800003e0:	00002517          	auipc	a0,0x2
    800003e4:	a0550513          	addi	a0,a0,-1531 # 80001de5 <fromhost+0xda5>
    800003e8:	32e00f13          	li	t5,814
    800003ec:	b5500e13          	li	t3,-1195
    800003f0:	00002717          	auipc	a4,0x2
    800003f4:	c8570713          	addi	a4,a4,-891 # 80002075 <reg_x14_init+0x5>
    800003f8:	03f41413          	slli	s0,s0,0x3f
    800003fc:	51d00593          	li	a1,1309
    80000400:	33970723          	sb	s9,814(a4)
    80000404:	018c7ab3          	and	s5,s8,s8
    80000408:	3dee0b9b          	addiw	s7,t3,990
    8000040c:	03ef18b3          	mulh	a7,t5,t5
    80000410:	00a30133          	add	sp,t1,a0
    80000414:	03292933          	mulhsu	s2,s2,s2
    80000418:	69e539a3          	sd	t5,1683(a0)
    8000041c:	028471b3          	remu	gp,s0,s0
    80000420:	4197dfbb          	sraw	t6,a5,s9
    80000424:	00002697          	auipc	a3,0x2
    80000428:	63d68693          	addi	a3,a3,1597 # 80002a61 <_end+0x451>
    8000042c:	76300493          	li	s1,1891
    80000430:	030a1cb3          	mulh	s9,s4,a6
    80000434:	0322c53b          	divw	a0,t0,s2
    80000438:	01083cb3          	sltu	s9,a6,a6
    8000043c:	3cf00b13          	li	s6,975
    80000440:	eab00f13          	li	t5,-341
    80000444:	a00693a3          	sh	zero,-1529(a3)
    80000448:	57100393          	li	t2,1393
    8000044c:	00100d93          	li	s11,1
    80000450:	d2a00893          	li	a7,-726
    80000454:	fff00793          	li	a5,-1
    80000458:	03fd9d93          	slli	s11,s11,0x3f
    8000045c:	036e42bb          	divw	t0,t3,s6
    80000460:	fff00b93          	li	s7,-1
    80000464:	011f5933          	srl	s2,t5,a7
    80000468:	01bbcbb3          	xor	s7,s7,s11
    8000046c:	a5b7f737          	lui	a4,0xa5b7f
    80000470:	87c00313          	li	t1,-1924
    80000474:	0087c7b3          	xor	a5,a5,s0
    80000478:	017af1b3          	and	gp,s5,s7
    8000047c:	22200693          	li	a3,546
    80000480:	2da00993          	li	s3,730
    80000484:	0335883b          	mulw	a6,a1,s3
    80000488:	01b2e133          	or	sp,t0,s11
    8000048c:	57300613          	li	a2,1395
    80000490:	d00042e3          	bltz	zero,80000194 <crash_backward>
    80000494:	0036af33          	slt	t5,a3,gp
    80000498:	00100813          	li	a6,1
    8000049c:	03f81813          	slli	a6,a6,0x3f
    800004a0:	02c4aeb3          	mulhsu	t4,s1,a2
    800004a4:	ef464213          	xori	tp,a2,-268
    800004a8:	fff00593          	li	a1,-1
    800004ac:	be100c93          	li	s9,-1055
    800004b0:	45100913          	li	s2,1105
    800004b4:	40100e13          	li	t3,1025
    800004b8:	03ce68bb          	remw	a7,t3,t3
    800004bc:	00fe7d33          	and	s10,t3,a5
    800004c0:	0105c5b3          	xor	a1,a1,a6
    800004c4:	00b3f2b3          	and	t0,t2,a1
    800004c8:	00826a33          	or	s4,tp,s0
    800004cc:	0102e0b3          	or	ra,t0,a6
    800004d0:	0263ec33          	rem	s8,t2,t1
    800004d4:	12000513          	li	a0,288
    800004d8:	032ccabb          	divw	s5,s9,s2
    800004dc:	02a68fb3          	mul	t6,a3,a0
    800004e0:	013d8833          	add	a6,s11,s3
    800004e4:	c0b00993          	li	s3,-1013
    800004e8:	00b15213          	srli	tp,sp,0xb
    800004ec:	0139d433          	srl	s0,s3,s3
    800004f0:	09300393          	li	t2,147
    800004f4:	0263db33          	divu	s6,t2,t1
    800004f8:	003c7533          	and	a0,s8,gp
    800004fc:	48200c93          	li	s9,1154
    80000500:	8e700e93          	li	t4,-1817
    80000504:	00000913          	li	s2,0
    80000508:	51800b93          	li	s7,1304
    8000050c:	b6d00d93          	li	s11,-1171
    80000510:	f7e00793          	li	a5,-130
    80000514:	0066da3b          	srlw	s4,a3,t1
    80000518:	cb900d13          	li	s10,-839
    8000051c:	00000e13          	li	t3,0
    80000520:	01b655bb          	srlw	a1,a2,s11
    80000524:	01aeffb3          	and	t6,t4,s10
    80000528:	59c00613          	li	a2,1436
    8000052c:	01bdf733          	and	a4,s11,s11
    80000530:	00100293          	li	t0,1
    80000534:	018ad113          	srli	sp,s5,0x18
    80000538:	03f29293          	slli	t0,t0,0x3f
    8000053c:	019391bb          	sllw	gp,t2,s9
    80000540:	00002697          	auipc	a3,0x2
    80000544:	87c68693          	addi	a3,a3,-1924 # 80001dbc <fromhost+0xd7c>
    80000548:	02a53333          	mulhu	t1,a0,a0
    8000054c:	77700c13          	li	s8,1911
    80000550:	4496a423          	sw	s1,1096(a3)
    80000554:	a8100593          	li	a1,-1407
    80000558:	16e00713          	li	a4,366
    8000055c:	34800d13          	li	s10,840
    80000560:	00002d97          	auipc	s11,0x2
    80000564:	935d8d93          	addi	s11,s11,-1739 # 80001e95 <fromhost+0xe55>
    80000568:	4d7de403          	lwu	s0,1239(s11)
    8000056c:	00cb88bb          	addw	a7,s7,a2
    80000570:	60a60c9b          	addiw	s9,a2,1546
    80000574:	00e7113b          	sllw	sp,a4,a4
    80000578:	bc958213          	addi	tp,a1,-1079
    8000057c:	a261b113          	sltiu	sp,gp,-1498
    80000580:	0187b0b3          	sltu	ra,a5,s8
    80000584:	e4f00513          	li	a0,-433
    80000588:	00002b17          	auipc	s6,0x2
    8000058c:	b3eb0b13          	addi	s6,s6,-1218 # 800020c6 <reg_x24_init+0x6>
    80000590:	72f00213          	li	tp,1839
    80000594:	98800613          	li	a2,-1656
    80000598:	30cb4f83          	lbu	t6,780(s6)
    8000059c:	a7300d93          	li	s11,-1421
    800005a0:	00a55a33          	srl	s4,a0,a0
    800005a4:	6b000413          	li	s0,1712
    800005a8:	417bd9b3          	sra	s3,s7,s7
    800005ac:	3bc94e63          	blt	s2,t3,80000968 <crash_forward>
    800005b0:	3f800793          	li	a5,1016
    800005b4:	00000893          	li	a7,0
    800005b8:	3ee00c93          	li	s9,1006
    800005bc:	006056b3          	srl	a3,zero,t1
    800005c0:	03b631b3          	mulhu	gp,a2,s11
    800005c4:	e2e00813          	li	a6,-466
    800005c8:	f4a00593          	li	a1,-182
    800005cc:	00000b93          	li	s7,0
    800005d0:	419c8733          	sub	a4,s9,s9
    800005d4:	02f220b3          	mulhsu	ra,tp,a5
    800005d8:	fff00a93          	li	s5,-1
    800005dc:	410d03b3          	sub	t2,s10,a6
    800005e0:	02b46133          	rem	sp,s0,a1
    800005e4:	39789263          	bne	a7,s7,80000968 <crash_forward>
    800005e8:	f8e00313          	li	t1,-114
    800005ec:	00637eb3          	and	t4,t1,t1
    800005f0:	005acab3          	xor	s5,s5,t0
    800005f4:	015af4b3          	and	s1,s5,s5
    800005f8:	00526f33          	or	t5,tp,t0
    800005fc:	37e48663          	beq	s1,t5,80000968 <crash_forward>
    80000600:	20600993          	li	s3,518
    80000604:	d0100893          	li	a7,-767
    80000608:	00000393          	li	t2,0
    8000060c:	02b5cf33          	div	t5,a1,a1
    80000610:	78200113          	li	sp,1922
    80000614:	00000e93          	li	t4,0
    80000618:	28c00d93          	li	s11,652
    8000061c:	00001097          	auipc	ra,0x1
    80000620:	70708093          	addi	ra,ra,1799 # 80001d23 <fromhost+0xce3>
    80000624:	8f300713          	li	a4,-1805
    80000628:	00000313          	li	t1,0
    8000062c:	40300413          	li	s0,1027
    80000630:	02edbe33          	mulhu	t3,s11,a4
    80000634:	08061537          	lui	a0,0x8061
    80000638:	68000193          	li	gp,1664
    8000063c:	6150b683          	ld	a3,1557(ra)
    80000640:	19000c13          	li	s8,400
    80000644:	00528f3b          	addw	t5,t0,t0
    80000648:	00002097          	auipc	ra,0x2
    8000064c:	e4e08093          	addi	ra,ra,-434 # 80002496 <test_memory+0x296>
    80000650:	f5a0a683          	lw	a3,-166(ra)
    80000654:	00000293          	li	t0,0
    80000658:	03ff8cb3          	mul	s9,t6,t6
    8000065c:	40840633          	sub	a2,s0,s0
    80000660:	40388fbb          	subw	t6,a7,gp
    80000664:	47b00513          	li	a0,1147
    80000668:	2f900b93          	li	s7,761
    8000066c:	85200e13          	li	t3,-1966
    80000670:	ac600913          	li	s2,-1338
    80000674:	0329bd33          	mulhu	s10,s3,s2
    80000678:	27900213          	li	tp,633
    8000067c:	96400593          	li	a1,-1692
    80000680:	91d00a93          	li	s5,-1763
    80000684:	03ce2733          	mulhsu	a4,t3,t3
    80000688:	035bb7b3          	mulhu	a5,s7,s5
    8000068c:	00211b3b          	sllw	s6,sp,sp
    80000690:	018c183b          	sllw	a6,s8,s8
    80000694:	40b5d4bb          	sraw	s1,a1,a1
    80000698:	02427a33          	remu	s4,tp,tp
    8000069c:	00a54db3          	xor	s11,a0,a0
    800006a0:	81700313          	li	t1,-2025
    800006a4:	02fb35b3          	mulhu	a1,s6,a5
    800006a8:	00000a13          	li	s4,0
    800006ac:	00002f97          	auipc	t6,0x2
    800006b0:	308f8f93          	addi	t6,t6,776 # 800029b4 <_end+0x3a4>
    800006b4:	034a5e3b          	divuw	t3,s4,s4
    800006b8:	00001397          	auipc	t2,0x1
    800006bc:	5a638393          	addi	t2,t2,1446 # 80001c5e <fromhost+0xc1e>
    800006c0:	41aa0633          	sub	a2,s4,s10
    800006c4:	02a50833          	mul	a6,a0,a0
    800006c8:	02634233          	div	tp,t1,t1
    800006cc:	0139fc33          	and	s8,s3,s3
    800006d0:	00847bb3          	and	s7,s0,s0
    800006d4:	00948dbb          	addw	s11,s1,s1
    800006d8:	4c200d13          	li	s10,1218
    800006dc:	b9e00993          	li	s3,-1122
    800006e0:	010ad933          	srl	s2,s5,a6
    800006e4:	8c8fe183          	lwu	gp,-1848(t6)
    800006e8:	00100b13          	li	s6,1
    800006ec:	02b276b3          	remu	a3,tp,a1
    800006f0:	62939823          	sh	s1,1584(t2)
    800006f4:	419eda9b          	sraiw	s5,t4,0x19
    800006f8:	d6300e93          	li	t4,-669
    800006fc:	03ded0bb          	divuw	ra,t4,t4
    80000700:	f8098493          	addi	s1,s3,-128
    80000704:	4fb00713          	li	a4,1275
    80000708:	01ad07b3          	add	a5,s10,s10
    8000070c:	02e7713b          	remuw	sp,a4,a4
    80000710:	00000513          	li	a0,0
    80000714:	03fb1b13          	slli	s6,s6,0x3f
    80000718:	fff00413          	li	s0,-1
    8000071c:	01644433          	xor	s0,s0,s6
    80000720:	00002897          	auipc	a7,0x2
    80000724:	01e88893          	addi	a7,a7,30 # 8000273e <_end+0x12e>
    80000728:	b9e8d283          	lhu	t0,-1122(a7)
    8000072c:	40518fb3          	sub	t6,gp,t0
    80000730:	41188333          	sub	t1,a7,a7
    80000734:	00002b97          	auipc	s7,0x2
    80000738:	ec1b8b93          	addi	s7,s7,-319 # 800025f5 <test_memory+0x3f5>
    8000073c:	98700813          	li	a6,-1657
    80000740:	02c98fb3          	mul	t6,s3,a2
    80000744:	79788393          	addi	t2,a7,1943
    80000748:	13b00e93          	li	t4,315
    8000074c:	002177b3          	and	a5,sp,sp
    80000750:	00876c33          	or	s8,a4,s0
    80000754:	6ca00713          	li	a4,1738
    80000758:	039587bb          	mulw	a5,a1,s9
    8000075c:	01ad5133          	srl	sp,s10,s10
    80000760:	008f7cb3          	and	s9,t5,s0
    80000764:	ce000393          	li	t2,-800
    80000768:	412a5793          	srai	a5,s4,0x12
    8000076c:	42c00993          	li	s3,1068
    80000770:	76e00113          	li	sp,1902
    80000774:	016b0233          	add	tp,s6,s6
    80000778:	016cef33          	or	t5,s9,s6
    8000077c:	ee200593          	li	a1,-286
    80000780:	b1100e13          	li	t3,-1263
    80000784:	fd7bd503          	lhu	a0,-41(s7)
    80000788:	1f9f5063          	bge	t5,s9,80000968 <crash_forward>
    8000078c:	00e80a33          	add	s4,a6,a4
    80000790:	00068a93          	mv	s5,a3
    80000794:	40b986bb          	subw	a3,s3,a1
    80000798:	038c54b3          	divu	s1,s8,s8
    8000079c:	0073dfbb          	srlw	t6,t2,t2
    800007a0:	00100b93          	li	s7,1
    800007a4:	00001f17          	auipc	t5,0x1
    800007a8:	5ebf0f13          	addi	t5,t5,1515 # 80001d8f <fromhost+0xd4f>
    800007ac:	7bcaacb7          	lui	s9,0x7bcaa
    800007b0:	7fdf0a03          	lb	s4,2045(t5)
    800007b4:	30b00093          	li	ra,779
    800007b8:	03fb9b93          	slli	s7,s7,0x3f
    800007bc:	fff00793          	li	a5,-1
    800007c0:	00100413          	li	s0,1
    800007c4:	017a0fbb          	addw	t6,s4,s7
    800007c8:	05900493          	li	s1,89
    800007cc:	01ded33b          	srlw	t1,t4,t4
    800007d0:	03f41413          	slli	s0,s0,0x3f
    800007d4:	02210c33          	mul	s8,sp,sp
    800007d8:	0177c7b3          	xor	a5,a5,s7
    800007dc:	2a700293          	li	t0,679
    800007e0:	22308613          	addi	a2,ra,547
    800007e4:	01ce03bb          	addw	t2,t3,t3
    800007e8:	8e800193          	li	gp,-1816
    800007ec:	000a8d93          	mv	s11,s5
    800007f0:	1f1e8d13          	addi	s10,t4,497
    800007f4:	bf300593          	li	a1,-1037
    800007f8:	0032a933          	slt	s2,t0,gp
    800007fc:	77800a13          	li	s4,1912
    80000800:	00002317          	auipc	t1,0x2
    80000804:	8c130313          	addi	t1,t1,-1855 # 800020c1 <reg_x24_init+0x1>
    80000808:	fff00813          	li	a6,-1
    8000080c:	00884833          	xor	a6,a6,s0
    80000810:	f16e0893          	addi	a7,t3,-234
    80000814:	15dd6a63          	bltu	s10,t4,80000968 <crash_forward>
    80000818:	15bae863          	bltu	s5,s11,80000968 <crash_forward>
    8000081c:	a0300613          	li	a2,-1533
    80000820:	010af533          	and	a0,s5,a6
    80000824:	10f00393          	li	t2,271
    80000828:	02c65fb3          	divu	t6,a2,a2
    8000082c:	00b5d9bb          	srlw	s3,a1,a1
    80000830:	00000093          	li	ra,0
    80000834:	4b031ca3          	sh	a6,1209(t1)
    80000838:	58c38c93          	addi	s9,t2,1420
    8000083c:	1fe1e937          	lui	s2,0x1fe1e
    80000840:	00000293          	li	t0,0
    80000844:	13ffc263          	blt	t6,t6,80000968 <crash_forward>
    80000848:	028871b3          	remu	gp,a6,s0
    8000084c:	029486b3          	mul	a3,s1,s1
    80000850:	cb700613          	li	a2,-841
    80000854:	00fa7b33          	and	s6,s4,a5
    80000858:	016b59b3          	srl	s3,s6,s6
    8000085c:	96d00f93          	li	t6,-1683
    80000860:	6b300913          	li	s2,1715
    80000864:	00856233          	or	tp,a0,s0
    80000868:	f63f8d93          	addi	s11,t6,-157
    8000086c:	53b83393          	sltiu	t2,a6,1339
    80000870:	16690a93          	addi	s5,s2,358 # 1fe1e166 <_start-0x601e1e9a>
    80000874:	27800c93          	li	s9,632
    80000878:	90450ee3          	beq	a0,tp,80000194 <crash_backward>
    8000087c:	039cf1bb          	remuw	gp,s9,s9
    80000880:	91294ae3          	blt	s2,s2,80000194 <crash_backward>
    80000884:	008b5993          	srli	s3,s6,0x8
    80000888:	00002c17          	auipc	s8,0x2
    8000088c:	e55c0c13          	addi	s8,s8,-427 # 800026dd <_end+0xcd>
    80000890:	02c64eb3          	div	t4,a2,a2
    80000894:	0178e733          	or	a4,a7,s7
    80000898:	f5800893          	li	a7,-168
    8000089c:	a3400d13          	li	s10,-1484
    800008a0:	da800e13          	li	t3,-600
    800008a4:	011884bb          	addw	s1,a7,a7
    800008a8:	e44c2fa3          	sw	tp,-417(s8)
    800008ac:	41295333          	sra	t1,s2,s2
    800008b0:	03ad45bb          	divw	a1,s10,s10
    800008b4:	2a600113          	li	sp,678
    800008b8:	01ce26b3          	slt	a3,t3,t3
    800008bc:	022a3f33          	mulhu	t5,s4,sp
    800008c0:	8a000893          	li	a7,-1888
    800008c4:	0318a3b3          	mulhsu	t2,a7,a7
    800008c8:	0040006f          	j	800008cc <reg_dump>

00000000800008cc <reg_dump>:
    800008cc:	00002097          	auipc	ra,0x2
    800008d0:	d3408093          	addi	ra,ra,-716 # 80002600 <loop_count>
    800008d4:	0000a103          	lw	sp,0(ra)
    800008d8:	fff10193          	addi	gp,sp,-1
    800008dc:	0030a023          	sw	gp,0(ra)
    800008e0:	94011ee3          	bnez	sp,8000023c <pseg_0>
    800008e4:	00002097          	auipc	ra,0x2
    800008e8:	81c08093          	addi	ra,ra,-2020 # 80002100 <begin_signature>
    800008ec:	0000b023          	sd	zero,0(ra)
    800008f0:	0020b823          	sd	sp,16(ra)
    800008f4:	0030bc23          	sd	gp,24(ra)
    800008f8:	0240b023          	sd	tp,32(ra)
    800008fc:	0250b423          	sd	t0,40(ra)
    80000900:	0260b823          	sd	t1,48(ra)
    80000904:	0270bc23          	sd	t2,56(ra)
    80000908:	0480b023          	sd	s0,64(ra)
    8000090c:	0490b423          	sd	s1,72(ra)
    80000910:	04a0b823          	sd	a0,80(ra)
    80000914:	04b0bc23          	sd	a1,88(ra)
    80000918:	06c0b023          	sd	a2,96(ra)
    8000091c:	06d0b423          	sd	a3,104(ra)
    80000920:	06e0b823          	sd	a4,112(ra)
    80000924:	06f0bc23          	sd	a5,120(ra)
    80000928:	0900b023          	sd	a6,128(ra)
    8000092c:	0910b423          	sd	a7,136(ra)
    80000930:	0920b823          	sd	s2,144(ra)
    80000934:	0930bc23          	sd	s3,152(ra)
    80000938:	0b40b023          	sd	s4,160(ra)
    8000093c:	0b50b423          	sd	s5,168(ra)
    80000940:	0b60b823          	sd	s6,176(ra)
    80000944:	0b70bc23          	sd	s7,184(ra)
    80000948:	0d90b423          	sd	s9,200(ra)
    8000094c:	0da0b823          	sd	s10,208(ra)
    80000950:	0db0bc23          	sd	s11,216(ra)
    80000954:	0fc0b023          	sd	t3,224(ra)
    80000958:	0fd0b423          	sd	t4,232(ra)
    8000095c:	0fe0b823          	sd	t5,240(ra)
    80000960:	0ff0bc23          	sd	t6,248(ra)
    80000964:	0200006f          	j	80000984 <test_end>

0000000080000968 <crash_forward>:
    80000968:	0ff0000f          	fence
    8000096c:	00018063          	beqz	gp,8000096c <crash_forward+0x4>
    80000970:	00119193          	slli	gp,gp,0x1
    80000974:	0011e193          	ori	gp,gp,1
    80000978:	05d00893          	li	a7,93
    8000097c:	00018513          	mv	a0,gp
    80000980:	00000073          	ecall

0000000080000984 <test_end>:
    80000984:	0ff0000f          	fence
    80000988:	00100193          	li	gp,1
    8000098c:	05d00893          	li	a7,93
    80000990:	00000513          	li	a0,0
    80000994:	00000073          	ecall
    80000998:	c0001073          	unimp
	...

Disassembly of section .tohost:

0000000080001000 <tohost>:
	...

0000000080001040 <fromhost>:
	...

Disassembly of section .data:

0000000080002000 <hidden_data>:
	...

0000000080002008 <reg_x1_init>:
    80002008:	ffff                	0xffff
    8000200a:	ffff                	0xffff
    8000200c:	ffff                	0xffff
    8000200e:	ffff                	0xffff

0000000080002010 <reg_x2_init>:
    80002010:	8002                	0x8002
    80002012:	ffff                	0xffff
    80002014:	ffff                	0xffff
    80002016:	ffff                	0xffff

0000000080002018 <reg_x3_init>:
    80002018:	99b2                	add	s3,s3,a2
    8000201a:	a142                	fsd	fa6,128(sp)
    8000201c:	1e66                	slli	t3,t3,0x39
    8000201e:	37aa                	fld	fa5,168(sp)

0000000080002020 <reg_x4_init>:
    80002020:	c8cd1fa7          	0xc8cd1fa7
    80002024:	bf11                	j	80001f38 <fromhost+0xef8>
    80002026:	ecf1                	bnez	s1,80002102 <begin_signature+0x2>

0000000080002028 <reg_x5_init>:
    80002028:	7b89                	lui	s7,0xfffe2
    8000202a:	5382                	lw	t2,32(sp)
    8000202c:	c81e                	sw	t2,16(sp)
    8000202e:	          	0xd78b

0000000080002030 <reg_x6_init>:
	...

0000000080002038 <reg_x7_init>:
    80002038:	00000003          	lb	zero,0(zero) # 0 <_start-0x80000000>
    8000203c:	0000                	unimp
    8000203e:	0800                	addi	s0,sp,16

0000000080002040 <reg_x8_init>:
    80002040:	8001                	c.srli64	s0
    80002042:	ffff                	0xffff
    80002044:	ffff                	0xffff
    80002046:	ffff                	0xffff

0000000080002048 <reg_x9_init>:
    80002048:	0009                	c.nop	2
    8000204a:	8000                	0x8000
    8000204c:	ffff                	0xffff
    8000204e:	ffff                	0xffff

0000000080002050 <reg_x10_init>:
    80002050:	4185                	li	gp,1
    80002052:	a114                	fsd	fa3,0(a0)
    80002054:	4a652117          	auipc	sp,0x4a652

0000000080002058 <reg_x11_init>:
    80002058:	ff89                	bnez	a5,80001f72 <fromhost+0xf32>
    8000205a:	ffff                	0xffff
    8000205c:	ffff                	0xffff
    8000205e:	ffff                	0xffff

0000000080002060 <reg_x12_init>:
    80002060:	0002                	c.slli64	zero
    80002062:	8000                	0x8000
    80002064:	ffff                	0xffff
    80002066:	ffff                	0xffff

0000000080002068 <reg_x13_init>:
    80002068:	ff85                	bnez	a5,80001fa0 <fromhost+0xf60>
    8000206a:	ffff                	0xffff
    8000206c:	ffff                	0xffff
    8000206e:	ffff                	0xffff

0000000080002070 <reg_x14_init>:
    80002070:	94d9                	srai	s1,s1,0x36
    80002072:	87cc                	0x87cc
    80002074:	d341                	beqz	a4,80001ff4 <fromhost+0xfb4>
    80002076:	200d                	0x200d

0000000080002078 <reg_x15_init>:
	...

0000000080002080 <reg_x16_init>:
    80002080:	cac13a3f ce3200d5 	0xce3200d5cac13a3f

0000000080002088 <reg_x17_init>:
    80002088:	f2fd                	bnez	a3,8000206e <reg_x13_init+0x6>
    8000208a:	89c8                	0x89c8
    8000208c:	5417a36b          	0x5417a36b

0000000080002090 <reg_x18_init>:
    80002090:	0001                	nop
    80002092:	8000                	0x8000
    80002094:	ffff                	0xffff
    80002096:	ffff                	0xffff

0000000080002098 <reg_x19_init>:
    80002098:	ffffff83          	0xffffff83
    8000209c:	ffff                	0xffff
    8000209e:	ffff                	0xffff

00000000800020a0 <reg_x20_init>:
    800020a0:	ffff                	0xffff
    800020a2:	ffff                	0xffff
    800020a4:	ffff                	0xffff
    800020a6:	ffff                	0xffff

00000000800020a8 <reg_x21_init>:
    800020a8:	ffff                	0xffff
    800020aa:	ffff                	0xffff
    800020ac:	ffff                	0xffff
    800020ae:	ffff                	0xffff

00000000800020b0 <reg_x22_init>:
    800020b0:	151e                	slli	a0,a0,0x27
    800020b2:	3bcc                	fld	fa1,176(a5)
    800020b4:	300d                	0x300d
    800020b6:	09e9                	addi	s3,s3,26

00000000800020b8 <reg_x23_init>:
    800020b8:	ec660697          	auipc	a3,0xec660
    800020bc:	9113f99b          	0x9113f99b

00000000800020c0 <reg_x24_init>:
    800020c0:	ff85                	bnez	a5,80001ff8 <fromhost+0xfb8>
    800020c2:	ffff                	0xffff
    800020c4:	ffff                	0xffff
    800020c6:	ffff                	0xffff

00000000800020c8 <reg_x25_init>:
    800020c8:	8001                	c.srli64	s0
    800020ca:	ffff                	0xffff
    800020cc:	ffff                	0xffff
    800020ce:	ffff                	0xffff

00000000800020d0 <reg_x26_init>:
	...

00000000800020d8 <reg_x27_init>:
	...

00000000800020e0 <reg_x28_init>:
    800020e0:	e433142f          	0xe433142f
    800020e4:	66e6fb63          	bgeu	a3,a4,8000275a <_end+0x14a>

00000000800020e8 <reg_x29_init>:
    800020e8:	0008                	0x8
    800020ea:	0000                	unimp
    800020ec:	0000                	unimp
    800020ee:	0800                	addi	s0,sp,16

00000000800020f0 <reg_x30_init>:
    800020f0:	b348                	fsd	fa0,160(a4)
    800020f2:	2fad                	addiw	t6,t6,11
    800020f4:	4a4d                	li	s4,19
    800020f6:	          	0x8000750f

00000000800020f8 <reg_x31_init>:
    800020f8:	8000                	0x8000
    800020fa:	ffff                	0xffff
    800020fc:	ffff                	0xffff
    800020fe:	ffff                	0xffff

0000000080002100 <begin_signature>:
    80002100:	1ff5                	addi	t6,t6,-3
    80002102:	a73c69ab          	0xa73c69ab
    80002106:	6084                	ld	s1,0(s1)

0000000080002108 <reg_x1_output>:
    80002108:	8641                	srai	a2,a2,0x10
    8000210a:	1b10                	addi	a2,sp,432
    8000210c:	c7d2                	sw	s4,204(sp)
    8000210e:	          	addi	s11,a7,-98

0000000080002110 <reg_x2_output>:
    80002110:	f9e8                	sd	a0,240(a1)
    80002112:	8a10                	0x8a10
    80002114:	0cd4                	addi	a3,sp,596
    80002116:	cf42                	sw	a6,156(sp)

0000000080002118 <reg_x3_output>:
    80002118:	4c99                	li	s9,6
    8000211a:	e42538af          	amomaxu.d.aq	a7,sp,(a0)
    8000211e:	          	csrrc	s5,0x429,s5

0000000080002120 <reg_x4_output>:
    80002120:	429a                	lw	t0,132(sp)
    80002122:	e5e9e88f          	0xe5e9e88f
    80002126:	da85                	beqz	a3,80002056 <reg_x10_init+0x6>

0000000080002128 <reg_x5_output>:
    80002128:	90b5                	srli	s1,s1,0x2d
    8000212a:	389f19a3          	sh	s1,915(t5)
    8000212e:	f4ec                	sd	a1,232(s1)

0000000080002130 <reg_x6_output>:
    80002130:	2145                	addiw	sp,sp,17
    80002132:	4792                	lw	a5,4(sp)
    80002134:	1348                	addi	a0,sp,420
    80002136:	          	0x23201c87

0000000080002138 <reg_x7_output>:
    80002138:	2320                	fld	fs0,64(a4)
    8000213a:	62210203          	lb	tp,1570(sp) # ca654676 <__global_pointer$+0x4a651866>
    8000213e:	dcce                	sw	s3,120(sp)

0000000080002140 <reg_x8_output>:
    80002140:	092e                	slli	s2,s2,0xb
    80002142:	9d7f                	0x9d7f
    80002144:	1f4c                	addi	a1,sp,948
    80002146:	          	csrrwi	s3,0x7fe,21

0000000080002148 <reg_x9_output>:
    80002148:	7fea                	ld	t6,184(sp)
    8000214a:	65b4                	ld	a3,72(a1)
    8000214c:	6040                	ld	s0,128(s0)
    8000214e:	          	amoadd.w.aqrl	s4,sp,(s2)

0000000080002150 <reg_x10_output>:
    80002150:	0629                	addi	a2,a2,10
    80002152:	5b5d                	li	s6,-9
    80002154:	3a02                	fld	fs4,32(sp)
    80002156:	f8ae                	sd	a1,112(sp)

0000000080002158 <reg_x11_output>:
    80002158:	f7f358cf          	fnmadd.q	fa7,ft6,ft11,ft10,unknown
    8000215c:	c17c                	sw	a5,68(a0)
    8000215e:	f6fe                	sd	t6,360(sp)

0000000080002160 <reg_x12_output>:
    80002160:	cd62                	sw	s8,152(sp)
    80002162:	1516                	slli	a0,a0,0x25
    80002164:	626e                	ld	tp,216(sp)
    80002166:	408e                	lw	ra,192(sp)

0000000080002168 <reg_x13_output>:
    80002168:	1d99                	addi	s11,s11,-26
    8000216a:	5c91                	li	s9,-28
    8000216c:	deb9                	beqz	a3,800020ca <reg_x25_init+0x2>
    8000216e:	          	0x96592b67

0000000080002170 <reg_x14_output>:
    80002170:	9659                	srai	a2,a2,0x36
    80002172:	2fc6                	fld	ft11,80(sp)
    80002174:	5129                	li	sp,-22
    80002176:	          	0x26c2428f

0000000080002178 <reg_x15_output>:
    80002178:	26c2                	fld	fa3,16(sp)
    8000217a:	d9e6cd0b          	0xd9e6cd0b
    8000217e:	60c6                	ld	ra,80(sp)

0000000080002180 <reg_x16_output>:
    80002180:	002e                	c.slli	zero,0xb
    80002182:	c2f8                	sw	a4,68(a3)
    80002184:	f82e                	sd	a1,48(sp)
    80002186:	14c1                	addi	s1,s1,-16

0000000080002188 <reg_x17_output>:
    80002188:	665d                	lui	a2,0x17
    8000218a:	d906                	sw	ra,176(sp)
    8000218c:	5402                	lw	s0,32(sp)
    8000218e:	5162                	lw	sp,56(sp)

0000000080002190 <reg_x18_output>:
    80002190:	871e                	mv	a4,t2
    80002192:	05cc                	addi	a1,sp,708
    80002194:	abf6                	fsd	ft9,464(sp)
    80002196:	          	sltiu	tp,a0,-973

0000000080002198 <reg_x19_output>:
    80002198:	c335                	beqz	a4,800021fc <reg_x31_output+0x4>
    8000219a:	785a                	ld	a6,432(sp)
    8000219c:	0e42                	slli	t3,t3,0x10
    8000219e:	e036                	sd	a3,0(sp)

00000000800021a0 <reg_x20_output>:
    800021a0:	4e4d                	li	t3,19
    800021a2:	49c0a4b3          	0x49c0a4b3
    800021a6:	9a36                	add	s4,s4,a3

00000000800021a8 <reg_x21_output>:
    800021a8:	8236                	mv	tp,a3
    800021aa:	dad6                	sw	s5,116(sp)
    800021ac:	ea89                	bnez	a3,800021be <reg_x23_output+0x6>
    800021ae:	b029                	j	800019b8 <fromhost+0x978>

00000000800021b0 <reg_x22_output>:
    800021b0:	41c5                	li	gp,17
    800021b2:	702d                	c.lui	zero,0xfffeb
    800021b4:	ef36                	sd	a3,408(sp)
    800021b6:	          	0x620bb8b3

00000000800021b8 <reg_x23_output>:
    800021b8:	5184620b          	0x5184620b
    800021bc:	97d3ff23          	0x97d3ff23

00000000800021c0 <reg_x24_output>:
    800021c0:	d4be                	sw	a5,104(sp)
    800021c2:	7522                	ld	a0,40(sp)
    800021c4:	172e                	slli	a4,a4,0x2b
    800021c6:	67ce                	ld	a5,208(sp)

00000000800021c8 <reg_x25_output>:
    800021c8:	4d08                	lw	a0,24(a0)
    800021ca:	ccc5                	beqz	s1,80002282 <test_memory+0x82>
    800021cc:	b1ae                	fsd	fa1,224(sp)
    800021ce:	          	0xe01f659b

00000000800021d0 <reg_x26_output>:
    800021d0:	e01f bbe0 2fcb      	0x2fcbbbe0e01f
    800021d6:	6d71                	lui	s10,0x1c

00000000800021d8 <reg_x27_output>:
    800021d8:	c54a                	sw	s2,136(sp)
    800021da:	5438                	lw	a4,104(s0)
    800021dc:	faff0d57          	0xfaff0d57

00000000800021e0 <reg_x28_output>:
    800021e0:	6544                	ld	s1,136(a0)
    800021e2:	6826                	ld	a6,72(sp)
    800021e4:	fdd0                	sd	a2,184(a1)
    800021e6:	4382                	lw	t2,0(sp)

00000000800021e8 <reg_x29_output>:
    800021e8:	6f1d                	lui	t5,0x7
    800021ea:	8f7d                	and	a4,a4,a5
    800021ec:	c846                	sw	a7,16(sp)
    800021ee:	d41a                	sw	t1,40(sp)

00000000800021f0 <reg_x30_output>:
    800021f0:	3902                	fld	fs2,32(sp)
    800021f2:	8b05                	andi	a4,a4,1
    800021f4:	9a63612b          	0x9a63612b

00000000800021f8 <reg_x31_output>:
    800021f8:	5d9d                	li	s11,-25
    800021fa:	9385                	srli	a5,a5,0x21
    800021fc:	ac5a                	fsd	fs6,24(sp)
    800021fe:	5da8                	lw	a0,120(a1)

0000000080002200 <test_memory>:
    80002200:	b2f3dae7          	0xb2f3dae7
    80002204:	61dc4ed7          	0x61dc4ed7
    80002208:	059f 35d0 571a      	0x571a35d0059f
    8000220e:	fcc6beaf          	0xfcc6beaf
    80002212:	b78e                	fsd	ft3,488(sp)
    80002214:	13e1                	addi	t2,t2,-8
    80002216:	fad1eb37          	lui	s6,0xfad1e
    8000221a:	cf95                	beqz	a5,80002256 <test_memory+0x56>
    8000221c:	84e1                	srai	s1,s1,0x18
    8000221e:	df59                	beqz	a4,800021bc <reg_x23_output+0x4>
    80002220:	7e72                	ld	t3,312(sp)
    80002222:	b96d                	j	80001edc <fromhost+0xe9c>
    80002224:	e3fa35c7          	fmsub.d	fa1,fs4,ft11,ft8,rup
    80002228:	db1f ad10 5b64      	0x5b64ad10db1f
    8000222e:	db1a                	sw	t1,180(sp)
    80002230:	e1c8                	sd	a0,128(a1)
    80002232:	2b51                	addiw	s6,s6,20
    80002234:	8409                	srai	s0,s0,0x2
    80002236:	0d34                	addi	a3,sp,664
    80002238:	0c58                	addi	a4,sp,532
    8000223a:	12cc                	addi	a1,sp,356
    8000223c:	c4a76753          	0xc4a76753
    80002240:	7af2                	ld	s5,312(sp)
    80002242:	9530                	0x9530
    80002244:	2ef8                	fld	fa4,216(a3)
    80002246:	3011146f          	jal	s0,80013d46 <__global_pointer$+0x10f36>
    8000224a:	6291                	lui	t0,0x4
    8000224c:	4158                	lw	a4,4(a0)
    8000224e:	b5a8                	fsd	fa0,104(a1)
    80002250:	e0ea                	sd	s10,64(sp)
    80002252:	bb31                	j	80001f6e <fromhost+0xf2e>
    80002254:	f7d4                	sd	a3,168(a5)
    80002256:	4aa9                	li	s5,10
    80002258:	71c9                	lui	gp,0xffff2
    8000225a:	354d                	addiw	a0,a0,-13
    8000225c:	0e49                	addi	t3,t3,18
    8000225e:	623dcd87          	flq	fs11,1571(s11)
    80002262:	cf4d                	beqz	a4,8000231c <test_memory+0x11c>
    80002264:	ce15                	beqz	a2,800022a0 <test_memory+0xa0>
    80002266:	f061                	bnez	s0,80002226 <test_memory+0x26>
    80002268:	134d                	addi	t1,t1,-13
    8000226a:	4e99557b          	0x4e99557b
    8000226e:	b1cc                	fsd	fa1,160(a1)
    80002270:	8211                	srli	a2,a2,0x4
    80002272:	6e093b8f          	0x6e093b8f
    80002276:	db5eccd3          	0xdb5eccd3
    8000227a:	286c                	fld	fa1,208(s0)
    8000227c:	b111                	j	80001e80 <fromhost+0xe40>
    8000227e:	c169ba23          	sd	s6,-1004(s3)
    80002282:	91dc                	0x91dc
    80002284:	d49e                	sw	t2,104(sp)
    80002286:	ffb0                	sd	a2,120(a5)
    80002288:	4a90                	lw	a2,16(a3)
    8000228a:	dcbfea8f          	0xdcbfea8f
    8000228e:	89ce                	mv	s3,s3
    80002290:	38a6                	fld	fa7,104(sp)
    80002292:	f441                	bnez	s0,8000221a <test_memory+0x1a>
    80002294:	9c80                	0x9c80
    80002296:	b899                	j	80001aec <fromhost+0xaac>
    80002298:	ba74                	fsd	fa3,240(a2)
    8000229a:	f58d                	bnez	a1,800021c4 <reg_x24_output+0x4>
    8000229c:	662e                	ld	a2,200(sp)
    8000229e:	fb26                	sd	s1,432(sp)
    800022a0:	c550                	sw	a2,12(a0)
    800022a2:	4ae1                	li	s5,24
    800022a4:	5c139867          	0x5c139867
    800022a8:	caf9                	beqz	a3,8000237e <test_memory+0x17e>
    800022aa:	63d94587          	flq	fa1,1597(s2)
    800022ae:	ef18                	sd	a4,24(a4)
    800022b0:	d016                	sw	t0,32(sp)
    800022b2:	3eaa52ab          	0x3eaa52ab
    800022b6:	cbc2                	sw	a6,212(sp)
    800022b8:	c20e                	sw	gp,4(sp)
    800022ba:	6e65                	lui	t3,0x19
    800022bc:	55d9                	li	a1,-10
    800022be:	ef137d97          	auipc	s11,0xef137
    800022c2:	b62c                	fsd	fa1,104(a2)
    800022c4:	ba16                	fsd	ft5,304(sp)
    800022c6:	0c70                	addi	a2,sp,540
    800022c8:	c18c                	sw	a1,0(a1)
    800022ca:	e220                	sd	s0,64(a2)
    800022cc:	54e4                	lw	s1,108(s1)
    800022ce:	e852d3e3          	bge	t0,t0,80002154 <reg_x10_output+0x4>
    800022d2:	b40538cb          	0xb40538cb
    800022d6:	f753796b          	0xf753796b
    800022da:	a6bd                	j	80002648 <_end+0x38>
    800022dc:	bc79                	j	80001d7a <fromhost+0xd3a>
    800022de:	9dc2                	add	s11,s11,a6
    800022e0:	d894                	sw	a3,48(s1)
    800022e2:	8830                	0x8830
    800022e4:	2ba8                	fld	fa0,80(a5)
    800022e6:	86e5                	srai	a3,a3,0x19
    800022e8:	2bb2                	fld	fs7,264(sp)
    800022ea:	a50a                	fsd	ft2,136(sp)
    800022ec:	765ec457          	0x765ec457
    800022f0:	8250                	0x8250
    800022f2:	9042                	c.add	zero,a6
    800022f4:	c5edeea7          	0xc5edeea7
    800022f8:	520c                	lw	a1,32(a2)
    800022fa:	7215                	lui	tp,0xfffe5
    800022fc:	bd31                	j	80002118 <reg_x3_output>
    800022fe:	08fa8fcb          	fnmsub.s	ft11,fs5,fa5,ft1,rne
    80002302:	86ed7ffb          	0x86ed7ffb
    80002306:	4135                	li	sp,13
    80002308:	a343ffb7          	lui	t6,0xa343f
    8000230c:	e49c                	sd	a5,8(s1)
    8000230e:	9c887c8b          	0x9c887c8b
    80002312:	d8b6                	sw	a3,112(sp)
    80002314:	4b7ab1bb          	0x4b7ab1bb
    80002318:	49c6ed27          	0x49c6ed27
    8000231c:	0450                	addi	a2,sp,516
    8000231e:	d931f7d7          	0xd931f7d7
    80002322:	7ac2                	ld	s5,48(sp)
    80002324:	b4a3b407          	fld	fs0,-1206(t2)
    80002328:	6ca6e54b          	0x6ca6e54b
    8000232c:	508d                	li	ra,-29
    8000232e:	4f60                	lw	s0,92(a4)
    80002330:	411ddf77          	0x411ddf77
    80002334:	2000                	fld	fs0,0(s0)
    80002336:	c736e217          	auipc	tp,0xc736e
    8000233a:	3295                	addiw	t0,t0,-27
    8000233c:	39dd                	addiw	s3,s3,-9
    8000233e:	6867fef7          	0x6867fef7
    80002342:	3fc0                	fld	fs0,184(a5)
    80002344:	1f62dfef          	jal	t6,8002f53a <__global_pointer$+0x2c72a>
    80002348:	7e02                	ld	t3,32(sp)
    8000234a:	25fbbc9b          	0x25fbbc9b
    8000234e:	5a1f6af7          	0x5a1f6af7
    80002352:	7bbe                	ld	s7,488(sp)
    80002354:	9a44                	0x9a44
    80002356:	5ec8                	lw	a0,60(a3)
    80002358:	12f1                	addi	t0,t0,-4
    8000235a:	72c0                	ld	s0,160(a3)
    8000235c:	4414                	lw	a3,8(s0)
    8000235e:	ed45                	bnez	a0,80002416 <test_memory+0x216>
    80002360:	a091                	j	800023a4 <test_memory+0x1a4>
    80002362:	1f3d                	addi	t5,t5,-17
    80002364:	c2f0                	sw	a2,68(a3)
    80002366:	3dd49b23          	sh	t4,982(s1)
    8000236a:	1242                	slli	tp,tp,0x30
    8000236c:	f02d                	bnez	s0,800022ce <test_memory+0xce>
    8000236e:	88da                	mv	a7,s6
    80002370:	4e85                	li	t4,1
    80002372:	edeee4fb          	0xedeee4fb
    80002376:	bf0e                	fsd	ft3,440(sp)
    80002378:	17b0                	addi	a2,sp,1000
    8000237a:	2bfc                	fld	fa5,208(a5)
    8000237c:	59e2                	lw	s3,56(sp)
    8000237e:	34ce                	fld	fs1,240(sp)
    80002380:	4ae4                	lw	s1,84(a3)
    80002382:	37292c13          	slti	s8,s2,882
    80002386:	d39dd573          	csrrwi	a0,0xd39,27
    8000238a:	d78d                	beqz	a5,800022b4 <test_memory+0xb4>
    8000238c:	60b26257          	0x60b26257
    80002390:	0e32                	slli	t3,t3,0xc
    80002392:	d379c53f a1f1df05 	0xa1f1df05d379c53f
    8000239a:	3700                	fld	fs0,40(a4)
    8000239c:	e56c                	sd	a1,200(a0)
    8000239e:	e441                	bnez	s0,80002426 <test_memory+0x226>
    800023a0:	345c                	fld	fa5,168(s0)
    800023a2:	cb04                	sw	s1,16(a4)
    800023a4:	1f0e                	slli	t5,t5,0x23
    800023a6:	d3e5                	beqz	a5,80002386 <test_memory+0x186>
    800023a8:	219e                	fld	ft3,448(sp)
    800023aa:	6d12                	ld	s10,256(sp)
    800023ac:	3ad9e22b          	0x3ad9e22b
    800023b0:	6e93e6b3          	0x6e93e6b3
    800023b4:	89c7bcf3          	csrrc	s9,0x89c,a5
    800023b8:	03d8                	addi	a4,sp,452
    800023ba:	3685f07b          	0x3685f07b
    800023be:	ab89                	j	80002910 <_end+0x300>
    800023c0:	6238                	ld	a4,64(a2)
    800023c2:	8fa8                	0x8fa8
    800023c4:	9be8                	0x9be8
    800023c6:	b345                	j	80002166 <reg_x12_output+0x6>
    800023c8:	c5fa                	sw	t5,200(sp)
    800023ca:	a689                	j	8000270c <_end+0xfc>
    800023cc:	e245                	bnez	a2,8000246c <test_memory+0x26c>
    800023ce:	1e19b7b3          	0x1e19b7b3
    800023d2:	b6be                	fsd	fa5,360(sp)
    800023d4:	f47a                	sd	t5,40(sp)
    800023d6:	a5aa4ceb          	0xa5aa4ceb
    800023da:	0194                	addi	a3,sp,192
    800023dc:	053d                	addi	a0,a0,15
    800023de:	567bf7b3          	0x567bf7b3
    800023e2:	e2da                	sd	s6,320(sp)
    800023e4:	9452                	add	s0,s0,s4
    800023e6:	3e4a                	fld	ft8,176(sp)
    800023e8:	333a                	fld	ft6,424(sp)
    800023ea:	0254                	addi	a3,sp,260
    800023ec:	0cbe                	slli	s9,s9,0xf
    800023ee:	fdba                	sd	a4,248(sp)
    800023f0:	ff7a                	sd	t5,440(sp)
    800023f2:	d6e8                	sw	a0,108(a3)
    800023f4:	f93a0ac7          	fmsub.s	fs5,fs4,fs3,ft11,rne
    800023f8:	2651                	addiw	a2,a2,20
    800023fa:	906a                	c.add	zero,s10
    800023fc:	c44d                	beqz	s0,800024a6 <test_memory+0x2a6>
    800023fe:	2edc                	fld	fa5,152(a3)
    80002400:	646d                	lui	s0,0x1b
    80002402:	bad8                	fsd	fa4,176(a3)
    80002404:	8aba                	mv	s5,a4
    80002406:	8d7f                	0x8d7f
    80002408:	58ca                	lw	a7,176(sp)
    8000240a:	2c6e                	fld	fs8,216(sp)
    8000240c:	3d9a                	fld	fs11,416(sp)
    8000240e:	f799                	bnez	a5,8000231c <test_memory+0x11c>
    80002410:	f76e                	sd	s11,424(sp)
    80002412:	0a38                	addi	a4,sp,280
    80002414:	95a4                	0x95a4
    80002416:	23ec                	fld	fa1,192(a5)
    80002418:	af160bdb          	0xaf160bdb
    8000241c:	c003c3ab          	0xc003c3ab
    80002420:	1519                	addi	a0,a0,-26
    80002422:	c18c                	sw	a1,0(a1)
    80002424:	c3e6                	sw	s9,196(sp)
    80002426:	9f65                	0x9f65
    80002428:	db79                	beqz	a4,800023fe <test_memory+0x1fe>
    8000242a:	4d592ba7          	fsw	fs5,1239(s2)
    8000242e:	6ae2                	ld	s5,24(sp)
    80002430:	c092                	sw	tp,64(sp)
    80002432:	5cd4                	lw	a3,60(s1)
    80002434:	3e6c                	fld	fa1,248(a2)
    80002436:	4d1d                	li	s10,7
    80002438:	523103fb          	0x523103fb
    8000243c:	22fe                	fld	ft5,472(sp)
    8000243e:	8de8                	0x8de8
    80002440:	9bcc                	0x9bcc
    80002442:	a1a9                	j	8000288c <_end+0x27c>
    80002444:	bd6d                	j	800022fe <test_memory+0xfe>
    80002446:	fd02                	sd	zero,184(sp)
    80002448:	ddfd                	beqz	a1,80002446 <test_memory+0x246>
    8000244a:	ee16                	sd	t0,280(sp)
    8000244c:	ab6a                	fsd	fs10,400(sp)
    8000244e:	7719                	lui	a4,0xfffe6
    80002450:	a009                	j	80002452 <test_memory+0x252>
    80002452:	2091fd37          	lui	s10,0x2091f
    80002456:	8934                	0x8934
    80002458:	91e9b487          	fld	fs1,-1762(s3)
    8000245c:	941d                	srai	s0,s0,0x27
    8000245e:	5a9c376b          	0x5a9c376b
    80002462:	d799                	beqz	a5,80002370 <test_memory+0x170>
    80002464:	f439                	bnez	s0,800023b2 <test_memory+0x1b2>
    80002466:	0c56                	slli	s8,s8,0x15
    80002468:	596d                	li	s2,-5
    8000246a:	c80c                	sw	a1,16(s0)
    8000246c:	c8b2                	sw	a2,80(sp)
    8000246e:	b1f67c2f          	0xb1f67c2f
    80002472:	09de                	slli	s3,s3,0x17
    80002474:	ac74781b          	0xac74781b
    80002478:	1bf8                	addi	a4,sp,508
    8000247a:	7b16                	ld	s6,352(sp)
    8000247c:	e315ed9b          	0xe315ed9b
    80002480:	76df 4f5d fb0c      	0xfb0c4f5d76df
    80002486:	a776                	fsd	ft9,392(sp)
    80002488:	05c5                	addi	a1,a1,17
    8000248a:	520bdf0b          	0x520bdf0b
    8000248e:	7eac                	ld	a1,120(a3)
    80002490:	45a34603          	lbu	a2,1114(t1)
    80002494:	a021                	j	8000249c <test_memory+0x29c>
    80002496:	0100                	addi	s0,sp,128
    80002498:	81ed                	srli	a1,a1,0x1b
    8000249a:	3fe0                	fld	fs0,248(a5)
    8000249c:	8d38                	0x8d38
    8000249e:	7ea9                	lui	t4,0xfffea
    800024a0:	4ce57daf          	0x4ce57daf
    800024a4:	e0f8                	sd	a4,192(s1)
    800024a6:	ec40                	sd	s0,152(s0)
    800024a8:	d266                	sw	s9,36(sp)
    800024aa:	6882                	ld	a7,0(sp)
    800024ac:	3ac0                	fld	fs0,176(a3)
    800024ae:	df16                	sw	t0,188(sp)
    800024b0:	4bdd                	li	s7,23
    800024b2:	5554                	lw	a3,44(a0)
    800024b4:	6152                	ld	sp,272(sp)
    800024b6:	f7a880ef          	jal	ra,7ff8ac30 <_start-0x753d0>
    800024ba:	29f1                	addiw	s3,s3,28
    800024bc:	d6f18a6b          	0xd6f18a6b
    800024c0:	186d                	addi	a6,a6,-5
    800024c2:	9882                	jalr	a7
    800024c4:	fde7e7e3          	bltu	a5,t5,80002492 <test_memory+0x292>
    800024c8:	1a52ee93          	ori	t4,t0,421
    800024cc:	9712                	add	a4,a4,tp
    800024ce:	a162                	fsd	fs8,128(sp)
    800024d0:	cfb5                	beqz	a5,8000254c <test_memory+0x34c>
    800024d2:	2960                	fld	fs0,208(a0)
    800024d4:	674c906f          	j	800cbb48 <__global_pointer$+0xc8d38>
    800024d8:	4a3c688f          	0x4a3c688f
    800024dc:	b8df 8733 d13b      	0xd13b8733b8df
    800024e2:	ad6a                	fsd	fs10,152(sp)
    800024e4:	8b0d                	andi	a4,a4,3
    800024e6:	9ed0                	0x9ed0
    800024e8:	61f4                	ld	a3,192(a1)
    800024ea:	2954                	fld	fa3,144(a0)
    800024ec:	46b6                	lw	a3,76(sp)
    800024ee:	9074                	0x9074
    800024f0:	86c0                	0x86c0
    800024f2:	fea5                	bnez	a3,8000246a <test_memory+0x26a>
    800024f4:	fccd                	bnez	s1,800024ae <test_memory+0x2ae>
    800024f6:	ac1e                	fsd	ft7,24(sp)
    800024f8:	3aac                	fld	fa1,112(a3)
    800024fa:	84c6                	mv	s1,a7
    800024fc:	7af1                	lui	s5,0xffffc
    800024fe:	82f0                	0x82f0
    80002500:	e781                	bnez	a5,80002508 <test_memory+0x308>
    80002502:	d582b487          	fld	fs1,-680(t0) # 3d58 <_start-0x7fffc2a8>
    80002506:	1e76                	slli	t3,t3,0x3d
    80002508:	b86f3517          	auipc	a0,0xb86f3
    8000250c:	40f66f53          	0x40f66f53
    80002510:	6bb8                	ld	a4,80(a5)
    80002512:	aed8f1af          	0xaed8f1af
    80002516:	a8cd                	j	80002608 <loop_count+0x8>
    80002518:	7f2e                	ld	t5,232(sp)
    8000251a:	4119                	li	sp,6
    8000251c:	e7da6437          	lui	s0,0xe7da6
    80002520:	3468                	fld	fa0,232(s0)
    80002522:	69f2                	ld	s3,280(sp)
    80002524:	08a9                	addi	a7,a7,10
    80002526:	1459                	addi	s0,s0,-10
    80002528:	29ea                	fld	fs3,152(sp)
    8000252a:	a8fc                	fsd	fa5,208(s1)
    8000252c:	561bc707          	flq	fa4,1377(s7) # fffffffffffe2561 <__global_pointer$+0xffffffff7ffdf751>
    80002530:	6b5a                	ld	s6,400(sp)
    80002532:	7805                	lui	a6,0xfffe1
    80002534:	768d                	lui	a3,0xfffe3
    80002536:	b37e                	fsd	ft11,416(sp)
    80002538:	b2e6                	fsd	fs9,352(sp)
    8000253a:	ba38                	fsd	fa4,112(a2)
    8000253c:	abf5                	j	80002b38 <_end+0x528>
    8000253e:	1f62d92f          	0x1f62d92f
    80002542:	92b5a7db          	0x92b5a7db
    80002546:	c620                	sw	s0,72(a2)
    80002548:	53750443          	fmadd.d	fs0,fa0,fs7,fa0,rne
    8000254c:	aee5                	j	80002944 <_end+0x334>
    8000254e:	720c                	ld	a1,32(a2)
    80002550:	20e6                	fld	ft1,88(sp)
    80002552:	c9fc334b          	fnmsub.s	ft6,fs8,ft11,fs9,rup
    80002556:	0ecbf947          	fmsub.q	fs2,fs7,fa2,ft1
    8000255a:	6fa6a33b          	0x6fa6a33b
    8000255e:	60df a2a0 35ce      	0x35cea2a060df
    80002564:	5536                	lw	a0,108(sp)
    80002566:	6258e483          	lwu	s1,1573(a7)
    8000256a:	cdb5                	beqz	a1,800025e6 <test_memory+0x3e6>
    8000256c:	1d6c                	addi	a1,sp,700
    8000256e:	eb0e                	sd	gp,400(sp)
    80002570:	a2a2                	fsd	fs0,320(sp)
    80002572:	7a4e                	ld	s4,240(sp)
    80002574:	404ff3cb          	fnmsub.s	ft7,ft11,ft4,fs0
    80002578:	6876                	ld	a6,344(sp)
    8000257a:	97f2                	add	a5,a5,t3
    8000257c:	c57a                	sw	t5,136(sp)
    8000257e:	b624                	fsd	fs1,104(a2)
    80002580:	5f9a                	lw	t6,164(sp)
    80002582:	a781                	j	80002cc2 <_end+0x6b2>
    80002584:	3b88                	fld	fa0,48(a5)
    80002586:	25477f97          	auipc	t6,0x25477
    8000258a:	0a4e                	slli	s4,s4,0x13
    8000258c:	b5ab591b          	0xb5ab591b
    80002590:	a4535e57          	0xa4535e57
    80002594:	843391b3          	0x843391b3
    80002598:	9b3ca2a7          	fsw	fs3,-1627(s9) # 7bca99a5 <_start-0x435665b>
    8000259c:	9ed2                	add	t4,t4,s4
    8000259e:	d481                	beqz	s1,800024a6 <test_memory+0x2a6>
    800025a0:	8a9cc38b          	0x8a9cc38b
    800025a4:	2161                	addiw	sp,sp,24
    800025a6:	b092                	fsd	ft4,96(sp)
    800025a8:	4aad698f          	0x4aad698f
    800025ac:	82d9                	srli	a3,a3,0x16
    800025ae:	f36c                	sd	a1,224(a4)
    800025b0:	05d2                	slli	a1,a1,0x14
    800025b2:	9b2c                	0x9b2c
    800025b4:	6305                	lui	t1,0x1
    800025b6:	904d                	srli	s0,s0,0x33
    800025b8:	adbe                	fsd	fa5,216(sp)
    800025ba:	b6e2                	fsd	fs8,360(sp)
    800025bc:	7ac5                	lui	s5,0xffff1
    800025be:	3bf30143          	fmadd.d	ft2,ft6,ft11,ft7,rne
    800025c2:	0948df3b          	0x948df3b
    800025c6:	7c30                	ld	a2,120(s0)
    800025c8:	0f95                	addi	t6,t6,5
    800025ca:	141d                	addi	s0,s0,-25
    800025cc:	f08a                	sd	sp,96(sp)
    800025ce:	8b643ce3          	0x8b643ce3
    800025d2:	78f5                	lui	a7,0xffffd
    800025d4:	6720                	ld	s0,72(a4)
    800025d6:	d4b9                	beqz	s1,80002524 <test_memory+0x324>
    800025d8:	1842                	slli	a6,a6,0x30
    800025da:	e89fab27          	fsw	fs1,-362(t6) # a547941c <__global_pointer$+0x2547660c>
    800025de:	7b13b8fb          	0x7b13b8fb
    800025e2:	db06                	sw	ra,180(sp)
    800025e4:	a319                	j	80002aea <_end+0x4da>
    800025e6:	de39                	beqz	a2,80002544 <test_memory+0x344>
    800025e8:	d421                	beqz	s0,80002530 <test_memory+0x330>
    800025ea:	15d9                	addi	a1,a1,-10
    800025ec:	5781                	li	a5,-32
    800025ee:	0d1c                	addi	a5,sp,656
    800025f0:	fe852e63          	0xfe852e63
    800025f4:	4bf8                	lw	a4,84(a5)
    800025f6:	b42d                	j	80002020 <reg_x4_init>
    800025f8:	2f5e                	fld	ft10,464(sp)
    800025fa:	7e66                	ld	t3,120(sp)
    800025fc:	da5d                	beqz	a2,800025b2 <test_memory+0x3b2>
    800025fe:	8196                	mv	gp,t0

0000000080002600 <loop_count>:
    80002600:	0040                	addi	s0,sp,4
	...

Disassembly of section .riscv.attributes:

0000000000000000 <.riscv.attributes>:
   0:	1e41                	addi	t3,t3,-16
   2:	0000                	unimp
   4:	7200                	ld	s0,32(a2)
   6:	7369                	lui	t1,0xffffa
   8:	01007663          	bgeu	zero,a6,14 <_start-0x7fffffec>
   c:	0014                	0x14
   e:	0000                	unimp
  10:	7205                	lui	tp,0xfffe1
  12:	3676                	fld	fa2,376(sp)
  14:	6934                	ld	a3,80(a0)
  16:	7032                	0x7032
  18:	5f30                	lw	a2,120(a4)
  1a:	326d                	addiw	tp,tp,-5
  1c:	3070                	fld	fa2,224(s0)
	...
