
build/test30:     file format elf64-littleriscv


Disassembly of section .text.init:

0000000080000000 <_start>:
    80000000:	05c0006f          	j	8000005c <reset_vector>

0000000080000004 <trap_vector>:
    80000004:	34202f73          	csrr	t5,mcause
    80000008:	00800f93          	li	t6,8
    8000000c:	03ff0a63          	beq	t5,t6,80000040 <write_tohost>
    80000010:	00900f93          	li	t6,9
    80000014:	03ff0663          	beq	t5,t6,80000040 <write_tohost>
    80000018:	00b00f93          	li	t6,11
    8000001c:	03ff0263          	beq	t5,t6,80000040 <write_tohost>
    80000020:	80000f17          	auipc	t5,0x80000
    80000024:	fe0f0f13          	addi	t5,t5,-32 # 0 <_start-0x80000000>
    80000028:	000f0463          	beqz	t5,80000030 <trap_vector+0x2c>
    8000002c:	000f0067          	jr	t5
    80000030:	34202f73          	csrr	t5,mcause
    80000034:	000f5463          	bgez	t5,8000003c <handle_exception>
    80000038:	0040006f          	j	8000003c <handle_exception>

000000008000003c <handle_exception>:
    8000003c:	5391e193          	ori	gp,gp,1337

0000000080000040 <write_tohost>:
    80000040:	00001f17          	auipc	t5,0x1
    80000044:	fc3f2023          	sw	gp,-64(t5) # 80001000 <tohost>
    80000048:	000902b7          	lui	t0,0x90
    8000004c:	0012829b          	addiw	t0,t0,1
    80000050:	00c29293          	slli	t0,t0,0xc
    80000054:	0002af83          	lw	t6,0(t0) # 90000 <_start-0x7ff70000>
    80000058:	fe9ff06f          	j	80000040 <write_tohost>

000000008000005c <reset_vector>:
    8000005c:	00000093          	li	ra,0
    80000060:	00000113          	li	sp,0
    80000064:	00000193          	li	gp,0
    80000068:	00000213          	li	tp,0
    8000006c:	00000293          	li	t0,0
    80000070:	00000313          	li	t1,0
    80000074:	00000393          	li	t2,0
    80000078:	00000413          	li	s0,0
    8000007c:	00000493          	li	s1,0
    80000080:	00000513          	li	a0,0
    80000084:	00000593          	li	a1,0
    80000088:	00000613          	li	a2,0
    8000008c:	00000693          	li	a3,0
    80000090:	00000713          	li	a4,0
    80000094:	00000793          	li	a5,0
    80000098:	00000813          	li	a6,0
    8000009c:	00000893          	li	a7,0
    800000a0:	00000913          	li	s2,0
    800000a4:	00000993          	li	s3,0
    800000a8:	00000a13          	li	s4,0
    800000ac:	00000a93          	li	s5,0
    800000b0:	00000b13          	li	s6,0
    800000b4:	00000b93          	li	s7,0
    800000b8:	00000c13          	li	s8,0
    800000bc:	00000c93          	li	s9,0
    800000c0:	00000d13          	li	s10,0
    800000c4:	00000d93          	li	s11,0
    800000c8:	00000e13          	li	t3,0
    800000cc:	00000e93          	li	t4,0
    800000d0:	00000f13          	li	t5,0
    800000d4:	00000f93          	li	t6,0
    800000d8:	f1402573          	csrr	a0,mhartid
    800000dc:	00051063          	bnez	a0,800000dc <reset_vector+0x80>
    800000e0:	00000297          	auipc	t0,0x0
    800000e4:	01028293          	addi	t0,t0,16 # 800000f0 <reset_vector+0x94>
    800000e8:	30529073          	csrw	mtvec,t0
    800000ec:	18005073          	csrwi	satp,0
    800000f0:	00000297          	auipc	t0,0x0
    800000f4:	02428293          	addi	t0,t0,36 # 80000114 <reset_vector+0xb8>
    800000f8:	30529073          	csrw	mtvec,t0
    800000fc:	0010029b          	addiw	t0,zero,1
    80000100:	03529293          	slli	t0,t0,0x35
    80000104:	fff28293          	addi	t0,t0,-1
    80000108:	3b029073          	csrw	pmpaddr0,t0
    8000010c:	01f00293          	li	t0,31
    80000110:	3a029073          	csrw	pmpcfg0,t0
    80000114:	30405073          	csrwi	mie,0
    80000118:	00000297          	auipc	t0,0x0
    8000011c:	01428293          	addi	t0,t0,20 # 8000012c <reset_vector+0xd0>
    80000120:	30529073          	csrw	mtvec,t0
    80000124:	30205073          	csrwi	medeleg,0
    80000128:	30305073          	csrwi	mideleg,0
    8000012c:	00000193          	li	gp,0
    80000130:	00000297          	auipc	t0,0x0
    80000134:	ed428293          	addi	t0,t0,-300 # 80000004 <trap_vector>
    80000138:	30529073          	csrw	mtvec,t0
    8000013c:	00100513          	li	a0,1
    80000140:	01f51513          	slli	a0,a0,0x1f
    80000144:	00055c63          	bgez	a0,8000015c <reset_vector+0x100>
    80000148:	0ff0000f          	fence
    8000014c:	00100193          	li	gp,1
    80000150:	05d00893          	li	a7,93
    80000154:	00000513          	li	a0,0
    80000158:	00000073          	ecall
    8000015c:	80000297          	auipc	t0,0x80000
    80000160:	ea428293          	addi	t0,t0,-348 # 0 <_start-0x80000000>
    80000164:	00028a63          	beqz	t0,80000178 <reset_vector+0x11c>
    80000168:	10529073          	csrw	stvec,t0
    8000016c:	0000b2b7          	lui	t0,0xb
    80000170:	1092829b          	addiw	t0,t0,265
    80000174:	30229073          	csrw	medeleg,t0
    80000178:	30005073          	csrwi	mstatus,0
    8000017c:	00000297          	auipc	t0,0x0
    80000180:	01428293          	addi	t0,t0,20 # 80000190 <reset_vector+0x134>
    80000184:	34129073          	csrw	mepc,t0
    80000188:	f1402573          	csrr	a0,mhartid
    8000018c:	30200073          	mret
    80000190:	0200006f          	j	800001b0 <test_start>

0000000080000194 <crash_backward>:
    80000194:	0ff0000f          	fence
    80000198:	00018063          	beqz	gp,80000198 <crash_backward+0x4>
    8000019c:	00119193          	slli	gp,gp,0x1
    800001a0:	0011e193          	ori	gp,gp,1
    800001a4:	05d00893          	li	a7,93
    800001a8:	00018513          	mv	a0,gp
    800001ac:	00000073          	ecall

00000000800001b0 <test_start>:
    800001b0:	00002f97          	auipc	t6,0x2
    800001b4:	e50f8f93          	addi	t6,t6,-432 # 80002000 <hidden_data>
    800001b8:	000fb003          	ld	zero,0(t6)
    800001bc:	008fb083          	ld	ra,8(t6)
    800001c0:	010fb103          	ld	sp,16(t6)
    800001c4:	018fb183          	ld	gp,24(t6)
    800001c8:	020fb203          	ld	tp,32(t6)
    800001cc:	028fb283          	ld	t0,40(t6)
    800001d0:	030fb303          	ld	t1,48(t6)
    800001d4:	038fb383          	ld	t2,56(t6)
    800001d8:	040fb403          	ld	s0,64(t6)
    800001dc:	048fb483          	ld	s1,72(t6)
    800001e0:	050fb503          	ld	a0,80(t6)
    800001e4:	058fb583          	ld	a1,88(t6)
    800001e8:	060fb603          	ld	a2,96(t6)
    800001ec:	068fb683          	ld	a3,104(t6)
    800001f0:	070fb703          	ld	a4,112(t6)
    800001f4:	078fb783          	ld	a5,120(t6)
    800001f8:	080fb803          	ld	a6,128(t6)
    800001fc:	088fb883          	ld	a7,136(t6)
    80000200:	090fb903          	ld	s2,144(t6)
    80000204:	098fb983          	ld	s3,152(t6)
    80000208:	0a0fba03          	ld	s4,160(t6)
    8000020c:	0a8fba83          	ld	s5,168(t6)
    80000210:	0b0fbb03          	ld	s6,176(t6)
    80000214:	0b8fbb83          	ld	s7,184(t6)
    80000218:	0c0fbc03          	ld	s8,192(t6)
    8000021c:	0c8fbc83          	ld	s9,200(t6)
    80000220:	0d0fbd03          	ld	s10,208(t6)
    80000224:	0d8fbd83          	ld	s11,216(t6)
    80000228:	0e0fbe03          	ld	t3,224(t6)
    8000022c:	0e8fbe83          	ld	t4,232(t6)
    80000230:	0f0fbf03          	ld	t5,240(t6)
    80000234:	0f8fbf83          	ld	t6,248(t6)
    80000238:	0040006f          	j	8000023c <pseg_0>

000000008000023c <pseg_0>:
    8000023c:	01292db3          	slt	s11,s2,s2
    80000240:	aec00513          	li	a0,-1300
    80000244:	00211633          	sll	a2,sp,sp
    80000248:	c6fdb813          	sltiu	a6,s11,-913
    8000024c:	0069c4b3          	xor	s1,s3,t1
    80000250:	00010093          	mv	ra,sp
    80000254:	40a50933          	sub	s2,a0,a0
    80000258:	00002417          	auipc	s0,0x2
    8000025c:	24d40413          	addi	s0,s0,589 # 800024a5 <test_memory+0x2a5>
    80000260:	03bdf833          	remu	a6,s11,s11
    80000264:	03290733          	mul	a4,s2,s2
    80000268:	ccd00d13          	li	s10,-819
    8000026c:	97800593          	li	a1,-1672
    80000270:	fed439a3          	sd	a3,-13(s0)
    80000274:	73a00113          	li	sp,1850
    80000278:	f4900f93          	li	t6,-183
    8000027c:	00100213          	li	tp,1
    80000280:	b3600393          	li	t2,-1226
    80000284:	c9300f13          	li	t5,-877
    80000288:	6e400c13          	li	s8,1764
    8000028c:	fa300913          	li	s2,-93
    80000290:	03ad0eb3          	mul	t4,s10,s10
    80000294:	0337e2bb          	remw	t0,a5,s3
    80000298:	0329683b          	remw	a6,s2,s2
    8000029c:	402107bb          	subw	a5,sp,sp
    800002a0:	418c08b3          	sub	a7,s8,s8
    800002a4:	51d00a93          	li	s5,1309
    800002a8:	035ff333          	remu	t1,t6,s5
    800002ac:	03f21213          	slli	tp,tp,0x3f
    800002b0:	00008c93          	mv	s9,ra
    800002b4:	fff00193          	li	gp,-1
    800002b8:	00002d97          	auipc	s11,0x2
    800002bc:	4b9d8d93          	addi	s11,s11,1209 # 80002771 <_end+0x161>
    800002c0:	f0f00693          	li	a3,-241
    800002c4:	00d3fa33          	and	s4,t2,a3
    800002c8:	d59dc603          	lbu	a2,-679(s11)
    800002cc:	01e5b9b3          	sltu	s3,a1,t5
    800002d0:	0205de3b          	divuw	t3,a1,zero
    800002d4:	49100f93          	li	t6,1169
    800002d8:	01cf5733          	srl	a4,t5,t3
    800002dc:	0041c1b3          	xor	gp,gp,tp
    800002e0:	7c200093          	li	ra,1986
    800002e4:	00698abb          	addw	s5,s3,t1
    800002e8:	0035fbb3          	and	s7,a1,gp
    800002ec:	021f96b3          	mulh	a3,t6,ra
    800002f0:	004b6b33          	or	s6,s6,tp
    800002f4:	0052beb3          	sltu	t4,t0,t0
    800002f8:	000053bb          	srlw	t2,zero,zero
    800002fc:	21900d13          	li	s10,537
    80000300:	dbe00c13          	li	s8,-578
    80000304:	a4800c93          	li	s9,-1464
    80000308:	748b2113          	slti	sp,s6,1864
    8000030c:	95200213          	li	tp,-1710
    80000310:	00100d93          	li	s11,1
    80000314:	28800613          	li	a2,648
    80000318:	03fd9d93          	slli	s11,s11,0x3f
    8000031c:	fff00e13          	li	t3,-1
    80000320:	97b00593          	li	a1,-1669
    80000324:	039c4ab3          	div	s5,s8,s9
    80000328:	aa300b93          	li	s7,-1373
    8000032c:	75a00b13          	li	s6,1882
    80000330:	012bc4b3          	xor	s1,s7,s2
    80000334:	40cd5a3b          	sraw	s4,s10,a2
    80000338:	19300193          	li	gp,403
    8000033c:	415a88bb          	subw	a7,s5,s5
    80000340:	036b1eb3          	mulh	t4,s6,s6
    80000344:	e36b8f13          	addi	t5,s7,-458
    80000348:	c88bc393          	xori	t2,s7,-888
    8000034c:	01be4e33          	xor	t3,t3,s11
    80000350:	6de00a93          	li	s5,1758
    80000354:	015ad63b          	srlw	a2,s5,s5
    80000358:	01c6f433          	and	s0,a3,t3
    8000035c:	00080713          	mv	a4,a6
    80000360:	01b462b3          	or	t0,s0,s11
    80000364:	c6700a13          	li	s4,-921
    80000368:	64540c63          	beq	s0,t0,800009c0 <crash_forward>
    8000036c:	0232033b          	mulw	t1,tp,gp
    80000370:	c5900d13          	li	s10,-935
    80000374:	00100893          	li	a7,1
    80000378:	b7f00493          	li	s1,-1153
    8000037c:	033981bb          	mulw	gp,s3,s3
    80000380:	00070c13          	mv	s8,a4
    80000384:	cb100913          	li	s2,-847
    80000388:	0052a433          	slt	s0,t0,t0
    8000038c:	409a5cbb          	sraw	s9,s4,s1
    80000390:	00100f93          	li	t6,1
    80000394:	02700113          	li	sp,39
    80000398:	0125d53b          	srlw	a0,a1,s2
    8000039c:	03ff9f93          	slli	t6,t6,0x3f
    800003a0:	03aac83b          	divw	a6,s5,s10
    800003a4:	fff00793          	li	a5,-1
    800003a8:	08710093          	addi	ra,sp,135
    800003ac:	01f7c7b3          	xor	a5,a5,t6
    800003b0:	00f1f9b3          	and	s3,gp,a5
    800003b4:	01f566b3          	or	a3,a0,t6
    800003b8:	00002d97          	auipc	s11,0x2
    800003bc:	d8ed8d93          	addi	s11,s11,-626 # 80002146 <reg_x8_output+0x6>
    800003c0:	f1a00293          	li	t0,-230
    800003c4:	dc31c8e3          	blt	gp,gp,80000194 <crash_backward>
    800003c8:	00002317          	auipc	t1,0x2
    800003cc:	6ff30313          	addi	t1,t1,1791 # 80002ac7 <_end+0x4b7>
    800003d0:	faf00493          	li	s1,-81
    800003d4:	0252843b          	mulw	s0,t0,t0
    800003d8:	43400213          	li	tp,1076
    800003dc:	02cbc833          	div	a6,s7,a2
    800003e0:	4044d1bb          	sraw	gp,s1,tp
    800003e4:	2a800b93          	li	s7,680
    800003e8:	02108ab3          	mul	s5,ra,ra
    800003ec:	14bd8c23          	sb	a1,344(s11)
    800003f0:	6e500913          	li	s2,1765
    800003f4:	382b8113          	addi	sp,s7,898
    800003f8:	65100f13          	li	t5,1617
    800003fc:	d9716ce3          	bltu	sp,s7,80000194 <crash_backward>
    80000400:	03f89893          	slli	a7,a7,0x3f
    80000404:	011b9cbb          	sllw	s9,s7,a7
    80000408:	bb700813          	li	a6,-1097
    8000040c:	01e93633          	sltu	a2,s2,t5
    80000410:	fff00e93          	li	t4,-1
    80000414:	01ff9cb3          	sll	s9,t6,t6
    80000418:	99735583          	lhu	a1,-1641(t1)
    8000041c:	d6001ce3          	bnez	zero,80000194 <crash_backward>
    80000420:	034a443b          	divw	s0,s4,s4
    80000424:	0142d53b          	srlw	a0,t0,s4
    80000428:	61900d93          	li	s11,1561
    8000042c:	00002217          	auipc	tp,0x2
    80000430:	47120213          	addi	tp,tp,1137 # 8000289d <_end+0x28d>
    80000434:	011eceb3          	xor	t4,t4,a7
    80000438:	45600493          	li	s1,1110
    8000043c:	37bd8113          	addi	sp,s11,891
    80000440:	029482b3          	mul	t0,s1,s1
    80000444:	016b26b3          	slt	a3,s6,s6
    80000448:	03082ab3          	mulhsu	s5,a6,a6
    8000044c:	01c31bb3          	sll	s7,t1,t3
    80000450:	00f57e33          	and	t3,a0,a5
    80000454:	b7323083          	ld	ra,-1165(tp) # fffffffffffffb73 <__global_pointer$+0xffffffff7fffcd63>
    80000458:	74300413          	li	s0,1859
    8000045c:	00000993          	li	s3,0
    80000460:	03700513          	li	a0,55
    80000464:	00000793          	li	a5,0
    80000468:	00002597          	auipc	a1,0x2
    8000046c:	61958593          	addi	a1,a1,1561 # 80002a81 <_end+0x471>
    80000470:	02a41f33          	mulh	t5,s0,a0
    80000474:	2c800913          	li	s2,712
    80000478:	f7200c93          	li	s9,-142
    8000047c:	59900713          	li	a4,1433
    80000480:	00f7fab3          	and	s5,a5,a5
    80000484:	0399533b          	divuw	t1,s2,s9
    80000488:	ab75b603          	ld	a2,-1353(a1)
    8000048c:	032964bb          	remw	s1,s2,s2
    80000490:	00060a13          	mv	s4,a2
    80000494:	415a8dbb          	subw	s11,s5,s5
    80000498:	b0500813          	li	a6,-1275
    8000049c:	20300f93          	li	t6,515
    800004a0:	fa100313          	li	t1,-95
    800004a4:	000a0d13          	mv	s10,s4
    800004a8:	00317c33          	and	s8,sp,gp
    800004ac:	2cc00a93          	li	s5,716
    800004b0:	07700513          	li	a0,119
    800004b4:	ab300413          	li	s0,-1357
    800004b8:	51aa6463          	bltu	s4,s10,800009c0 <crash_forward>
    800004bc:	2bc00093          	li	ra,700
    800004c0:	f9d00593          	li	a1,-99
    800004c4:	02b226b3          	mulhsu	a3,tp,a1
    800004c8:	015ab633          	sltu	a2,s5,s5
    800004cc:	41080d3b          	subw	s10,a6,a6
    800004d0:	02a5413b          	divw	sp,a0,a0
    800004d4:	0210df33          	divu	t5,ra,ra
    800004d8:	13200293          	li	t0,306
    800004dc:	7d600c93          	li	s9,2006
    800004e0:	d7740e13          	addi	t3,s0,-649
    800004e4:	00000a93          	li	s5,0
    800004e8:	031d5993          	srli	s3,s10,0x31
    800004ec:	10a00613          	li	a2,266
    800004f0:	00687db3          	and	s11,a6,t1
    800004f4:	7c900d13          	li	s10,1993
    800004f8:	03f741bb          	divw	gp,a4,t6
    800004fc:	88c00093          	li	ra,-1908
    80000500:	00000513          	li	a0,0
    80000504:	58ac8493          	addi	s1,s9,1418
    80000508:	01d6f3b3          	and	t2,a3,t4
    8000050c:	00109f3b          	sllw	t5,ra,ra
    80000510:	0055b933          	sltu	s2,a1,t0
    80000514:	ad600693          	li	a3,-1322
    80000518:	0273e233          	rem	tp,t2,t2
    8000051c:	02cf07b3          	mul	a5,t5,a2
    80000520:	c794eae3          	bltu	s1,s9,80000194 <crash_backward>
    80000524:	d8b68a13          	addi	s4,a3,-629
    80000528:	013554bb          	srlw	s1,a0,s3
    8000052c:	0331df3b          	divuw	t5,gp,s3
    80000530:	03a6713b          	remuw	sp,a2,s10
    80000534:	68f00313          	li	t1,1679
    80000538:	55ae3b93          	sltiu	s7,t3,1370
    8000053c:	00100293          	li	t0,1
    80000540:	40a7043b          	subw	s0,a4,a0
    80000544:	cf700793          	li	a5,-777
    80000548:	47468c63          	beq	a3,s4,800009c0 <crash_forward>
    8000054c:	15e30e13          	addi	t3,t1,350
    80000550:	41fcdc33          	sra	s8,s9,t6
    80000554:	40600613          	li	a2,1030
    80000558:	d8900193          	li	gp,-631
    8000055c:	03f29293          	slli	t0,t0,0x3f
    80000560:	00100693          	li	a3,1
    80000564:	0237e0bb          	remw	ra,a5,gp
    80000568:	011f6b33          	or	s6,t5,a7
    8000056c:	00100593          	li	a1,1
    80000570:	07500d13          	li	s10,117
    80000574:	00002997          	auipc	s3,0x2
    80000578:	42a98993          	addi	s3,s3,1066 # 8000299e <_end+0x38e>
    8000057c:	03f69693          	slli	a3,a3,0x3f
    80000580:	035fd233          	divu	tp,t6,s5
    80000584:	ade99503          	lh	a0,-1314(s3)
    80000588:	03a65ab3          	divu	s5,a2,s10
    8000058c:	fff00f93          	li	t6,-1
    80000590:	03f59593          	slli	a1,a1,0x3f
    80000594:	005fcfb3          	xor	t6,t6,t0
    80000598:	01f2fdb3          	and	s11,t0,t6
    8000059c:	8f500413          	li	s0,-1803
    800005a0:	71b3011b          	addiw	sp,t1,1819
    800005a4:	fff00713          	li	a4,-1
    800005a8:	00b74733          	xor	a4,a4,a1
    800005ac:	00566933          	or	s2,a2,t0
    800005b0:	00eff833          	and	a6,t6,a4
    800005b4:	fff00f13          	li	t5,-1
    800005b8:	00b2ecb3          	or	s9,t0,a1
    800005bc:	bd2dfce3          	bgeu	s11,s2,80000194 <crash_backward>
    800005c0:	00df4f33          	xor	t5,t5,a3
    800005c4:	bd9878e3          	bgeu	a6,s9,80000194 <crash_backward>
    800005c8:	01e9fbb3          	and	s7,s3,t5
    800005cc:	73100493          	li	s1,1841
    800005d0:	95400793          	li	a5,-1708
    800005d4:	8c478313          	addi	t1,a5,-1852
    800005d8:	00dbea33          	or	s4,s7,a3
    800005dc:	02ae0833          	mul	a6,t3,a0
    800005e0:	00001097          	auipc	ra,0x1
    800005e4:	5c108093          	addi	ra,ra,1473 # 80001ba1 <fromhost+0xb61>
    800005e8:	1fd00613          	li	a2,509
    800005ec:	00002897          	auipc	a7,0x2
    800005f0:	9c188893          	addi	a7,a7,-1599 # 80001fad <fromhost+0xf6d>
    800005f4:	00942c33          	slt	s8,s0,s1
    800005f8:	00100193          	li	gp,1
    800005fc:	33888203          	lb	tp,824(a7)
    80000600:	00002397          	auipc	t2,0x2
    80000604:	0eb38393          	addi	t2,t2,235 # 800026eb <_end+0xdb>
    80000608:	4d200713          	li	a4,1234
    8000060c:	03f19193          	slli	gp,gp,0x3f
    80000610:	02f7dab3          	divu	s5,a5,a5
    80000614:	fff00993          	li	s3,-1
    80000618:	77500593          	li	a1,1909
    8000061c:	a3000d13          	li	s10,-1488
    80000620:	7df0bf83          	ld	t6,2015(ra)
    80000624:	02e75cb3          	divu	s9,a4,a4
    80000628:	03bdcebb          	divw	t4,s11,s11
    8000062c:	bee3ce03          	lbu	t3,-1042(t2)
    80000630:	0039c9b3          	xor	s3,s3,gp
    80000634:	02b5813b          	mulw	sp,a1,a1
    80000638:	73160b13          	addi	s6,a2,1841
    8000063c:	013ef2b3          	and	t0,t4,s3
    80000640:	39660063          	beq	a2,s6,800009c0 <crash_forward>
    80000644:	00356533          	or	a0,a0,gp
    80000648:	03ad0dbb          	mulw	s11,s10,s10
    8000064c:	36004a63          	bltz	zero,800009c0 <crash_forward>
    80000650:	00002f97          	auipc	t6,0x2
    80000654:	fd1f8f93          	addi	t6,t6,-47 # 80002621 <_end+0x11>
    80000658:	0378ab33          	mulhsu	s6,a7,s7
    8000065c:	02840c33          	mul	s8,s0,s0
    80000660:	a0100113          	li	sp,-1535
    80000664:	cdc00c93          	li	s9,-804
    80000668:	00bbce33          	xor	t3,s7,a1
    8000066c:	59900f13          	li	t5,1433
    80000670:	000b8613          	mv	a2,s7
    80000674:	f60f95a3          	sh	zero,-149(t6)
    80000678:	00100213          	li	tp,1
    8000067c:	00002697          	auipc	a3,0x2
    80000680:	a4d68693          	addi	a3,a3,-1459 # 800020c9 <reg_x25_init+0x1>
    80000684:	00100313          	li	t1,1
    80000688:	00100593          	li	a1,1
    8000068c:	03f59593          	slli	a1,a1,0x3f
    80000690:	fff00b93          	li	s7,-1
    80000694:	017d5abb          	srlw	s5,s10,s7
    80000698:	00060413          	mv	s0,a2
    8000069c:	039cf3b3          	remu	t2,s9,s9
    800006a0:	03f31313          	slli	t1,t1,0x3f
    800006a4:	03e14a33          	div	s4,sp,t5
    800006a8:	fff00913          	li	s2,-1
    800006ac:	03f21213          	slli	tp,tp,0x3f
    800006b0:	ab500393          	li	t2,-1355
    800006b4:	000c0793          	mv	a5,s8
    800006b8:	ac861ee3          	bne	a2,s0,80000194 <crash_backward>
    800006bc:	006ad4bb          	srlw	s1,s5,t1
    800006c0:	dd54bd13          	sltiu	s10,s1,-555
    800006c4:	5f400a93          	li	s5,1524
    800006c8:	00002117          	auipc	sp,0x2
    800006cc:	9bf10113          	addi	sp,sp,-1601 # 80002087 <reg_x16_init+0x7>
    800006d0:	00bbcbb3          	xor	s7,s7,a1
    800006d4:	7f700713          	li	a4,2039
    800006d8:	40e70ebb          	subw	t4,a4,a4
    800006dc:	52314f03          	lbu	t5,1315(sp)
    800006e0:	73f00413          	li	s0,1855
    800006e4:	00694933          	xor	s2,s2,t1
    800006e8:	4926a5a3          	sw	s2,1163(a3)
    800006ec:	00078293          	mv	t0,a5
    800006f0:	79b40493          	addi	s1,s0,1947
    800006f4:	01257833          	and	a6,a0,s2
    800006f8:	00100f13          	li	t5,1
    800006fc:	017cf1b3          	and	gp,s9,s7
    80000700:	03ff1f13          	slli	t5,t5,0x3f
    80000704:	00666533          	or	a0,a2,t1
    80000708:	00b1e0b3          	or	ra,gp,a1
    8000070c:	fff00893          	li	a7,-1
    80000710:	0048c8b3          	xor	a7,a7,tp
    80000714:	0353cfb3          	div	t6,t2,s5
    80000718:	fff00e93          	li	t4,-1
    8000071c:	01eeceb3          	xor	t4,t4,t5
    80000720:	011279b3          	and	s3,tp,a7
    80000724:	38b00e13          	li	t3,907
    80000728:	a69476e3          	bgeu	s0,s1,80000194 <crash_backward>
    8000072c:	00446db3          	or	s11,s0,tp
    80000730:	00100693          	li	a3,1
    80000734:	01db7633          	and	a2,s6,t4
    80000738:	00002897          	auipc	a7,0x2
    8000073c:	e2788893          	addi	a7,a7,-473 # 8000255f <test_memory+0x35f>
    80000740:	07100b93          	li	s7,113
    80000744:	2d800993          	li	s3,728
    80000748:	26001c63          	bnez	zero,800009c0 <crash_forward>
    8000074c:	4b800513          	li	a0,1208
    80000750:	01b047b3          	xor	a5,zero,s11
    80000754:	13000593          	li	a1,304
    80000758:	d6100093          	li	ra,-671
    8000075c:	74900d93          	li	s11,1865
    80000760:	40c65b33          	sra	s6,a2,a2
    80000764:	403e8333          	sub	t1,t4,gp
    80000768:	01e66133          	or	sp,a2,t5
    8000076c:	12200c13          	li	s8,290
    80000770:	de900a93          	li	s5,-535
    80000774:	48ab8213          	addi	tp,s7,1162
    80000778:	00b5b933          	sltu	s2,a1,a1
    8000077c:	29f00f93          	li	t6,671
    80000780:	fde00b13          	li	s6,-34
    80000784:	03f69693          	slli	a3,a3,0x3f
    80000788:	01f9f2b3          	and	t0,s3,t6
    8000078c:	015083b3          	add	t2,ra,s5
    80000790:	f0100193          	li	gp,-255
    80000794:	22264663          	blt	a2,sp,800009c0 <crash_forward>
    80000798:	418e5cb3          	sra	s9,t3,s8
    8000079c:	0035083b          	addw	a6,a0,gp
    800007a0:	c8c00313          	li	t1,-884
    800007a4:	006b37b3          	sltu	a5,s6,t1
    800007a8:	d8088623          	sb	zero,-628(a7)
    800007ac:	4ee00413          	li	s0,1262
    800007b0:	49a00893          	li	a7,1178
    800007b4:	02b5d5b3          	divu	a1,a1,a1
    800007b8:	61e00b13          	li	s6,1566
    800007bc:	bd300613          	li	a2,-1069
    800007c0:	00090293          	mv	t0,s2
    800007c4:	01ad29b3          	slt	s3,s10,s10
    800007c8:	fff00a13          	li	s4,-1
    800007cc:	60b00f13          	li	t5,1547
    800007d0:	008d94b3          	sll	s1,s11,s0
    800007d4:	03ef1533          	mulh	a0,t5,t5
    800007d8:	00100393          	li	t2,1
    800007dc:	8c800513          	li	a0,-1848
    800007e0:	00da4a33          	xor	s4,s4,a3
    800007e4:	0147f733          	and	a4,a5,s4
    800007e8:	00636f33          	or	t5,t1,t1
    800007ec:	00d76d33          	or	s10,a4,a3
    800007f0:	016b583b          	srlw	a6,s6,s6
    800007f4:	00028113          	mv	sp,t0
    800007f8:	03f39393          	slli	t2,t2,0x3f
    800007fc:	03ef5ebb          	divuw	t4,t5,t5
    80000800:	01189abb          	sllw	s5,a7,a7
    80000804:	db700493          	li	s1,-585
    80000808:	d3c00793          	li	a5,-708
    8000080c:	fff00213          	li	tp,-1
    80000810:	00001e17          	auipc	t3,0x1
    80000814:	7afe0e13          	addi	t3,t3,1967 # 80001fbf <fromhost+0xf7f>
    80000818:	96ed6ee3          	bltu	s10,a4,80000194 <crash_backward>
    8000081c:	a6900f93          	li	t6,-1431
    80000820:	037bddbb          	divuw	s11,s7,s7
    80000824:	bc900c13          	li	s8,-1079
    80000828:	a5ff8c93          	addi	s9,t6,-1441
    8000082c:	1f000a13          	li	s4,496
    80000830:	ac300b13          	li	s6,-1341
    80000834:	00002997          	auipc	s3,0x2
    80000838:	12298993          	addi	s3,s3,290 # 80002956 <_end+0x346>
    8000083c:	9db9a923          	sw	s11,-1582(s3)
    80000840:	01863bb3          	sltu	s7,a2,s8
    80000844:	00724233          	xor	tp,tp,t2
    80000848:	35800813          	li	a6,856
    8000084c:	59be0923          	sb	s11,1426(t3)
    80000850:	06900313          	li	t1,105
    80000854:	030b5f33          	divu	t5,s6,a6
    80000858:	a2700713          	li	a4,-1497
    8000085c:	4094843b          	subw	s0,s1,s1
    80000860:	f4500d13          	li	s10,-187
    80000864:	79f00f13          	li	t5,1951
    80000868:	13300c13          	li	s8,307
    8000086c:	006791b3          	sll	gp,a5,t1
    80000870:	00ea46b3          	xor	a3,s4,a4
    80000874:	5a900993          	li	s3,1449
    80000878:	2ed00b93          	li	s7,749
    8000087c:	013994b3          	sll	s1,s3,s3
    80000880:	017f543b          	srlw	s0,t5,s7
    80000884:	48f00893          	li	a7,1167
    80000888:	26000d93          	li	s11,608
    8000088c:	031d6ebb          	remw	t4,s10,a7
    80000890:	ff100413          	li	s0,-15
    80000894:	00002117          	auipc	sp,0x2
    80000898:	dc410113          	addi	sp,sp,-572 # 80002658 <_end+0x48>
    8000089c:	f3000293          	li	t0,-208
    800008a0:	40a555bb          	sraw	a1,a0,a0
    800008a4:	01bd8abb          	addw	s5,s11,s11
    800008a8:	3c100f93          	li	t6,961
    800008ac:	00001e97          	auipc	t4,0x1
    800008b0:	6a5e8e93          	addi	t4,t4,1701 # 80001f51 <fromhost+0xf11>
    800008b4:	01fe2bb3          	slt	s7,t3,t6
    800008b8:	008464b3          	or	s1,s0,s0
    800008bc:	0231e6bb          	remw	a3,gp,gp
    800008c0:	a48c079b          	addiw	a5,s8,-1464
    800008c4:	85300b13          	li	s6,-1965
    800008c8:	00407933          	and	s2,zero,tp
    800008cc:	59be91a3          	sh	s11,1411(t4)
    800008d0:	41ff8cb3          	sub	s9,t6,t6
    800008d4:	bca00813          	li	a6,-1078
    800008d8:	07700313          	li	t1,119
    800008dc:	030b0633          	mul	a2,s6,a6
    800008e0:	038c4e3b          	divw	t3,s8,s8
    800008e4:	007b60b3          	or	ra,s6,t2
    800008e8:	c7700f13          	li	t5,-905
    800008ec:	12600593          	li	a1,294
    800008f0:	02d6cebb          	divw	t4,a3,a3
    800008f4:	0284553b          	divuw	a0,s0,s0
    800008f8:	00007a33          	and	s4,zero,zero
    800008fc:	01f598bb          	sllw	a7,a1,t6
    80000900:	03e2e733          	rem	a4,t0,t5
    80000904:	6cf30193          	addi	gp,t1,1743
    80000908:	a9c00413          	li	s0,-1380
    8000090c:	ce114983          	lbu	s3,-799(sp)
    80000910:	34b00793          	li	a5,843
    80000914:	0085fdb3          	and	s11,a1,s0
    80000918:	40f7dab3          	sra	s5,a5,a5
    8000091c:	40b15d3b          	sraw	s10,sp,a1
    80000920:	0040006f          	j	80000924 <reg_dump>

0000000080000924 <reg_dump>:
    80000924:	00002097          	auipc	ra,0x2
    80000928:	cdc08093          	addi	ra,ra,-804 # 80002600 <loop_count>
    8000092c:	0000a103          	lw	sp,0(ra)
    80000930:	fff10193          	addi	gp,sp,-1
    80000934:	0030a023          	sw	gp,0(ra)
    80000938:	900112e3          	bnez	sp,8000023c <pseg_0>
    8000093c:	00001097          	auipc	ra,0x1
    80000940:	7c408093          	addi	ra,ra,1988 # 80002100 <begin_signature>
    80000944:	0000b023          	sd	zero,0(ra)
    80000948:	0030bc23          	sd	gp,24(ra)
    8000094c:	0240b023          	sd	tp,32(ra)
    80000950:	0250b423          	sd	t0,40(ra)
    80000954:	0260b823          	sd	t1,48(ra)
    80000958:	0270bc23          	sd	t2,56(ra)
    8000095c:	0480b023          	sd	s0,64(ra)
    80000960:	0490b423          	sd	s1,72(ra)
    80000964:	04a0b823          	sd	a0,80(ra)
    80000968:	04b0bc23          	sd	a1,88(ra)
    8000096c:	06c0b023          	sd	a2,96(ra)
    80000970:	06d0b423          	sd	a3,104(ra)
    80000974:	06e0b823          	sd	a4,112(ra)
    80000978:	06f0bc23          	sd	a5,120(ra)
    8000097c:	0900b023          	sd	a6,128(ra)
    80000980:	0910b423          	sd	a7,136(ra)
    80000984:	0920b823          	sd	s2,144(ra)
    80000988:	0930bc23          	sd	s3,152(ra)
    8000098c:	0b40b023          	sd	s4,160(ra)
    80000990:	0b50b423          	sd	s5,168(ra)
    80000994:	0b60b823          	sd	s6,176(ra)
    80000998:	0b70bc23          	sd	s7,184(ra)
    8000099c:	0d80b023          	sd	s8,192(ra)
    800009a0:	0d90b423          	sd	s9,200(ra)
    800009a4:	0da0b823          	sd	s10,208(ra)
    800009a8:	0db0bc23          	sd	s11,216(ra)
    800009ac:	0fc0b023          	sd	t3,224(ra)
    800009b0:	0fd0b423          	sd	t4,232(ra)
    800009b4:	0fe0b823          	sd	t5,240(ra)
    800009b8:	0ff0bc23          	sd	t6,248(ra)
    800009bc:	0200006f          	j	800009dc <test_end>

00000000800009c0 <crash_forward>:
    800009c0:	0ff0000f          	fence
    800009c4:	00018063          	beqz	gp,800009c4 <crash_forward+0x4>
    800009c8:	00119193          	slli	gp,gp,0x1
    800009cc:	0011e193          	ori	gp,gp,1
    800009d0:	05d00893          	li	a7,93
    800009d4:	00018513          	mv	a0,gp
    800009d8:	00000073          	ecall

00000000800009dc <test_end>:
    800009dc:	0ff0000f          	fence
    800009e0:	00100193          	li	gp,1
    800009e4:	05d00893          	li	a7,93
    800009e8:	00000513          	li	a0,0
    800009ec:	00000073          	ecall
    800009f0:	c0001073          	unimp
	...

Disassembly of section .tohost:

0000000080001000 <tohost>:
	...

0000000080001040 <fromhost>:
	...

Disassembly of section .data:

0000000080002000 <hidden_data>:
    80002000:	e795ecd7          	0xe795ecd7
    80002004:	3365                	addiw	t1,t1,-7
    80002006:	9dea                	add	s11,s11,s10

0000000080002008 <reg_x1_init>:
    80002008:	ae2e                	fsd	fa1,280(sp)
    8000200a:	13be130f          	0x13be130f
    8000200e:	e439                	bnez	s0,8000205c <reg_x11_init+0x4>

0000000080002010 <reg_x2_init>:
	...

0000000080002018 <reg_x3_init>:
    80002018:	ff82                	sd	zero,504(sp)
    8000201a:	ffff                	0xffff
    8000201c:	ffff                	0xffff
    8000201e:	ffff                	0xffff

0000000080002020 <reg_x4_init>:
    80002020:	09dc                	addi	a5,sp,212
    80002022:	4d55                	li	s10,21
    80002024:	e500                	sd	s0,8(a0)
    80002026:	76e0                	ld	s0,232(a3)

0000000080002028 <reg_x5_init>:
    80002028:	a7f6                	fsd	ft9,456(sp)
    8000202a:	762e                	ld	a2,232(sp)
    8000202c:	57e9                	li	a5,-6
    8000202e:	836a                	mv	t1,s10

0000000080002030 <reg_x6_init>:
    80002030:	9d92                	add	s11,s11,tp
    80002032:	432786c3          	fmadd.d	fa3,fa5,fs2,fs0,rne
    80002036:	          	csrrc	t6,0xedf,t6

0000000080002038 <reg_x7_init>:
    80002038:	edff                	0xedff
    8000203a:	0549                	addi	a0,a0,18
    8000203c:	5951                	li	s2,-12
    8000203e:	3548                	fld	fa0,168(a0)

0000000080002040 <reg_x8_init>:
    80002040:	ffff                	0xffff
    80002042:	ffff                	0xffff
    80002044:	ffff                	0xffff
    80002046:	ffff                	0xffff

0000000080002048 <reg_x9_init>:
    80002048:	ffff                	0xffff
    8000204a:	ffff                	0xffff
    8000204c:	ffff                	0xffff
    8000204e:	ffff                	0xffff

0000000080002050 <reg_x10_init>:
    80002050:	8006                	c.mv	zero,ra
    80002052:	ffff                	0xffff
    80002054:	ffff                	0xffff
    80002056:	ffff                	0xffff

0000000080002058 <reg_x11_init>:
    80002058:	fffe                	sd	t6,504(sp)
    8000205a:	ffff                	0xffff
    8000205c:	ffff                	0xffff
    8000205e:	ffff                	0xffff

0000000080002060 <reg_x12_init>:
    80002060:	4ea4                	lw	s1,88(a3)
    80002062:	30a5                	addiw	ra,ra,-23
    80002064:	bcfe                	fsd	ft11,120(sp)
    80002066:	b349                	j	80001de8 <fromhost+0xda8>

0000000080002068 <reg_x13_init>:
    80002068:	25da                	fld	fa1,400(sp)
    8000206a:	bc09f943          	0xbc09f943
    8000206e:	7395                	lui	t2,0xfffe5

0000000080002070 <reg_x14_init>:
    80002070:	0000                	unimp
    80002072:	0000                	unimp
    80002074:	0000                	unimp
    80002076:	0800                	addi	s0,sp,16

0000000080002078 <reg_x15_init>:
    80002078:	1ab5                	addi	s5,s5,-19
    8000207a:	31b0                	fld	fa2,96(a1)
    8000207c:	2da5                	addiw	s11,s11,9
    8000207e:	4070                	lw	a2,68(s0)

0000000080002080 <reg_x16_init>:
    80002080:	ff71                	bnez	a4,8000205c <reg_x11_init+0x4>
    80002082:	1ec6                	slli	t4,t4,0x31
    80002084:	e346c46b          	0xe346c46b

0000000080002088 <reg_x17_init>:
	...

0000000080002090 <reg_x18_init>:
    80002090:	ff80                	sd	s0,56(a5)
    80002092:	ffff                	0xffff
    80002094:	ffff                	0xffff
    80002096:	ffff                	0xffff

0000000080002098 <reg_x19_init>:
    80002098:	bcce                	fsd	fs3,120(sp)
    8000209a:	ebd9d933          	0xebd9d933
    8000209e:	4152                	lw	sp,20(sp)

00000000800020a0 <reg_x20_init>:
    800020a0:	933c053b          	0x933c053b
    800020a4:	6e65                	lui	t3,0x19
    800020a6:	          	fsd	ft11,-7(t6)

00000000800020a8 <reg_x21_init>:
    800020a8:	ffff                	0xffff
    800020aa:	ffff                	0xffff
    800020ac:	ffff                	0xffff
    800020ae:	ffff                	0xffff

00000000800020b0 <reg_x22_init>:
    800020b0:	8c0a                	mv	s8,sp
    800020b2:	5c6d                	li	s8,-5
    800020b4:	4ed9                	li	t4,22
    800020b6:	2efd                	addiw	t4,t4,31

00000000800020b8 <reg_x23_init>:
    800020b8:	8001                	c.srli64	s0
    800020ba:	ffff                	0xffff
    800020bc:	ffff                	0xffff
    800020be:	ffff                	0xffff

00000000800020c0 <reg_x24_init>:
    800020c0:	f3d4                	sd	a3,160(a5)
    800020c2:	41d2                	lw	gp,20(sp)
    800020c4:	a521                	j	800026cc <_end+0xbc>
    800020c6:	b8fc                	fsd	fa5,240(s1)

00000000800020c8 <reg_x25_init>:
    800020c8:	3ac278ab          	0x3ac278ab
    800020cc:	ba0d                	j	800019fe <fromhost+0x9be>
    800020ce:	855c                	0x855c

00000000800020d0 <reg_x26_init>:
    800020d0:	b82e                	fsd	fa1,48(sp)
    800020d2:	6e8efd73          	csrrci	s10,0x6e8,29
    800020d6:	8c85                	sub	s1,s1,s1

00000000800020d8 <reg_x27_init>:
    800020d8:	2615                	addiw	a2,a2,5
    800020da:	3339c573          	0x3339c573
    800020de:	02fe                	slli	t0,t0,0x1f

00000000800020e0 <reg_x28_init>:
    800020e0:	6e644357          	0x6e644357
    800020e4:	e534829b          	addiw	t0,s1,-429

00000000800020e8 <reg_x29_init>:
    800020e8:	8004                	0x8004
    800020ea:	ffff                	0xffff
    800020ec:	ffff                	0xffff
    800020ee:	ffff                	0xffff

00000000800020f0 <reg_x30_init>:
    800020f0:	8002                	0x8002
    800020f2:	ffff                	0xffff
    800020f4:	ffff                	0xffff
    800020f6:	ffff                	0xffff

00000000800020f8 <reg_x31_init>:
    800020f8:	ffff                	0xffff
    800020fa:	ffff                	0xffff
    800020fc:	ffff                	0xffff
    800020fe:	ffff                	0xffff

0000000080002100 <begin_signature>:
    80002100:	1a9e                	slli	s5,s5,0x27
    80002102:	af49dd53          	0xaf49dd53
    80002106:	6231                	lui	tp,0xc

0000000080002108 <reg_x1_output>:
    80002108:	a2c5                	j	800022e8 <test_memory+0xe8>
    8000210a:	2502                	fld	fa0,0(sp)
    8000210c:	b44c                	fsd	fa1,168(s0)
    8000210e:	          	addi	s6,a0,-1318

0000000080002110 <reg_x2_output>:
    80002110:	ada5                	j	80002788 <_end+0x178>
    80002112:	d0056d17          	auipc	s10,0xd0056
    80002116:	6bf1                	lui	s7,0x1c

0000000080002118 <reg_x3_output>:
    80002118:	dd35                	beqz	a0,80002094 <reg_x18_init+0x4>
    8000211a:	24b9                	addiw	s1,s1,14
    8000211c:	27fd                	addiw	a5,a5,31
    8000211e:	70ac                	ld	a1,96(s1)

0000000080002120 <reg_x4_output>:
    80002120:	02f8                	addi	a4,sp,332
    80002122:	ccc2                	sw	a6,88(sp)
    80002124:	e674                	sd	a3,200(a2)
    80002126:	fb6d                	bnez	a4,80002118 <reg_x3_output>

0000000080002128 <reg_x5_output>:
    80002128:	47d5                	li	a5,21
    8000212a:	9bf0                	0x9bf0
    8000212c:	d166                	sw	s9,160(sp)
    8000212e:	          	lbu	a1,823(a4)

0000000080002130 <reg_x6_output>:
    80002130:	187d3377          	0x187d3377
    80002134:	72c254db          	0x72c254db

0000000080002138 <reg_x7_output>:
    80002138:	3fe9                	addiw	t6,t6,-6
    8000213a:	0374938b          	0x374938b
    8000213e:	          	sw	s8,-1411(a7)

0000000080002140 <reg_x8_output>:
    80002140:	a788                	fsd	fa0,8(a5)
    80002142:	2d0c                	fld	fa1,24(a0)
    80002144:	ce5e                	sw	s7,28(sp)
    80002146:	599f        	0x5a7c1e81599f

0000000080002148 <reg_x9_output>:
    80002148:	1e81                	addi	t4,t4,-32
    8000214a:	5a7c                	lw	a5,116(a2)
    8000214c:	3e02                	fld	ft8,32(sp)
    8000214e:	4168                	lw	a0,68(a0)

0000000080002150 <reg_x10_output>:
    80002150:	fe70                	sd	a2,248(a2)
    80002152:	d72f6f2b          	0xd72f6f2b
    80002156:	6fe8                	ld	a0,216(a5)

0000000080002158 <reg_x11_output>:
    80002158:	61e9                	lui	gp,0x1a
    8000215a:	da9f 249d 2aa3      	0x2aa3249dda9f

0000000080002160 <reg_x12_output>:
    80002160:	96e4                	0x96e4
    80002162:	6e35                	lui	t3,0xd
    80002164:	a2ee                	fsd	fs11,320(sp)
    80002166:	1ee4                	addi	s1,sp,892

0000000080002168 <reg_x13_output>:
    80002168:	7a65                	lui	s4,0xffff9
    8000216a:	17e0                	addi	s0,sp,1004
    8000216c:	9d92                	add	s11,s11,tp
    8000216e:	4ea1                	li	t4,8

0000000080002170 <reg_x14_output>:
    80002170:	8cdf c350 f54b      	0xf54bc3508cdf
    80002176:	9356                	add	t1,t1,s5

0000000080002178 <reg_x15_output>:
    80002178:	2e1d                	addiw	t3,t3,7
    8000217a:	c581                	beqz	a1,80002182 <reg_x16_output+0x2>
    8000217c:	5d20                	lw	s0,120(a0)
    8000217e:	7941                	lui	s2,0xffff0

0000000080002180 <reg_x16_output>:
    80002180:	40b6                	lw	ra,76(sp)
    80002182:	2120                	fld	fs0,64(a0)
    80002184:	e8f0                	sd	a2,208(s1)
    80002186:	2da2                	fld	fs11,8(sp)

0000000080002188 <reg_x17_output>:
    80002188:	c856                	sw	s5,16(sp)
    8000218a:	47de                	lw	a5,212(sp)
    8000218c:	6110                	ld	a2,0(a0)
    8000218e:	9d78                	0x9d78

0000000080002190 <reg_x18_output>:
    80002190:	bb69                	j	80001f2a <fromhost+0xeea>
    80002192:	04fc                	addi	a5,sp,588
    80002194:	c09e                	sw	t2,64(sp)
    80002196:	0718                	addi	a4,sp,896

0000000080002198 <reg_x19_output>:
    80002198:	87e2                	mv	a5,s8
    8000219a:	47fe                	lw	a5,220(sp)
    8000219c:	2068                	fld	fa0,192(s0)
    8000219e:	          	0x843b49eb

00000000800021a0 <reg_x20_output>:
    800021a0:	b35c843b          	0xb35c843b
    800021a4:	2695                	addiw	a3,a3,5
    800021a6:	5aed                	li	s5,-5

00000000800021a8 <reg_x21_output>:
    800021a8:	00da                	slli	ra,ra,0x16
    800021aa:	84ce                	mv	s1,s3
    800021ac:	7379                	lui	t1,0xffffe
    800021ae:	          	fnmadd.d	fs0,ft6,fs8,fs7

00000000800021b0 <reg_x22_output>:
    800021b0:	c28dbb83          	ld	s7,-984(s11)
    800021b4:	7e39                	lui	t3,0xfffee
    800021b6:	a05a                	fsd	fs6,0(sp)

00000000800021b8 <reg_x23_output>:
    800021b8:	6589                	lui	a1,0x2
    800021ba:	7824139b          	0x7824139b
    800021be:	          	fmsub.q	fs7,fs0,fa2,fa7,unknown

00000000800021c0 <reg_x24_output>:
    800021c0:	8ec4                	0x8ec4
    800021c2:	2a65                	addiw	s4,s4,25
    800021c4:	2bf2                	fld	fs7,280(sp)
    800021c6:	          	0xeaaae853

00000000800021c8 <reg_x25_output>:
    800021c8:	eaaa                	sd	a0,336(sp)
    800021ca:	4114                	lw	a3,0(a0)
    800021cc:	f651                	bnez	a2,80002158 <reg_x11_output>
    800021ce:	          	fnmadd.s	ft6,fs7,ft11,fa1,rne

00000000800021d0 <reg_x26_output>:
    800021d0:	aa6a59fb          	0xaa6a59fb
    800021d4:	f752                	sd	s4,424(sp)
    800021d6:	9635                	srai	a2,a2,0x2d

00000000800021d8 <reg_x27_output>:
    800021d8:	bad6                	fsd	fs5,368(sp)
    800021da:	ad5d                	j	80002890 <_end+0x280>
    800021dc:	08c4                	addi	s1,sp,84
    800021de:	fd12                	sd	tp,184(sp)

00000000800021e0 <reg_x28_output>:
    800021e0:	0a38                	addi	a4,sp,280
    800021e2:	fb6e                	sd	s11,432(sp)
    800021e4:	eb7d                	bnez	a4,800022da <test_memory+0xda>
    800021e6:	          	0x2d372e63

00000000800021e8 <reg_x29_output>:
    800021e8:	b3ba2d37          	lui	s10,0xb3ba2
    800021ec:	0e19                	addi	t3,t3,6
    800021ee:	1620                	addi	s0,sp,808

00000000800021f0 <reg_x30_output>:
    800021f0:	9570                	0x9570
    800021f2:	59c622d3          	0x59c622d3
    800021f6:	b9a9                	j	80001e50 <fromhost+0xe10>

00000000800021f8 <reg_x31_output>:
    800021f8:	3381                	addiw	t2,t2,-32
    800021fa:	483c                	lw	a5,80(s0)
    800021fc:	2605                	addiw	a2,a2,1
    800021fe:	3422                	fld	fs0,40(sp)

0000000080002200 <test_memory>:
    80002200:	9b91                	andi	a5,a5,-28
    80002202:	e294e613          	ori	a2,s1,-471
    80002206:	0761                	addi	a4,a4,24
    80002208:	fef43323          	sd	a5,-26(s0)
    8000220c:	bedc                	fsd	fa5,184(a3)
    8000220e:	13f6                	slli	t2,t2,0x3d
    80002210:	84d5                	srai	s1,s1,0x15
    80002212:	a9c1                	j	800026e2 <_end+0xd2>
    80002214:	a88e                	fsd	ft3,80(sp)
    80002216:	f459                	bnez	s0,800021a4 <reg_x20_output+0x4>
    80002218:	bdb9                	j	80002076 <reg_x14_init+0x6>
    8000221a:	27b9                	addiw	a5,a5,14
    8000221c:	f75e                	sd	s7,424(sp)
    8000221e:	b15a258f          	0xb15a258f
    80002222:	11f76993          	ori	s3,a4,287
    80002226:	37ec                	fld	fa1,232(a5)
    80002228:	c2e2dcc3          	fmadd.d	fs9,ft5,fa4,fs8,unknown
    8000222c:	d8a8                	sw	a0,112(s1)
    8000222e:	b69e                	fsd	ft7,360(sp)
    80002230:	8df2                	mv	s11,t3
    80002232:	3406                	fld	fs0,96(sp)
    80002234:	bc52                	fsd	fs4,56(sp)
    80002236:	2602                	fld	fa2,0(sp)
    80002238:	e49c                	sd	a5,8(s1)
    8000223a:	ac8f7577          	0xac8f7577
    8000223e:	2729                	addiw	a4,a4,10
    80002240:	a238                	fsd	fa4,64(a2)
    80002242:	8649055b          	0x8649055b
    80002246:	499d                	li	s3,7
    80002248:	02a4                	addi	s1,sp,328
    8000224a:	a9dd                	j	80002740 <_end+0x130>
    8000224c:	f40d                	bnez	s0,80002176 <reg_x14_output+0x6>
    8000224e:	a13a                	fsd	fa4,128(sp)
    80002250:	b032ebe3          	bltu	t0,gp,80001d66 <fromhost+0xd26>
    80002254:	d3d2                	sw	s4,228(sp)
    80002256:	d2b6                	sw	a3,100(sp)
    80002258:	43c9fabf f3aac21b 	0xf3aac21b43c9fabf
    80002260:	1b5e                	slli	s6,s6,0x37
    80002262:	f70e                	sd	gp,424(sp)
    80002264:	7092                	ld	ra,288(sp)
    80002266:	09e5                	addi	s3,s3,25
    80002268:	fefbc803          	lbu	a6,-17(s7) # 1bfef <_start-0x7ffe4011>
    8000226c:	7ea0                	ld	s0,120(a3)
    8000226e:	87dc                	0x87dc
    80002270:	26f28597          	auipc	a1,0x26f28
    80002274:	b47e                	fsd	ft11,40(sp)
    80002276:	14ac764f          	0x14ac764f
    8000227a:	55c8ee93          	ori	t4,a7,1372
    8000227e:	df177f67          	0xdf177f67
    80002282:	cebf9157          	0xcebf9157
    80002286:	2599                	addiw	a1,a1,6
    80002288:	0acdbd53          	fsub.d	fs10,fs11,fa2,rup
    8000228c:	d77c                	sw	a5,108(a4)
    8000228e:	1452e93f 5adfafdf 	0x5adfafdf1452e93f
    80002296:	d35fbbb3          	0xd35fbbb3
    8000229a:	2af8                	fld	fa4,208(a3)
    8000229c:	8b25                	andi	a4,a4,9
    8000229e:	825d                	srli	a2,a2,0x17
    800022a0:	d340                	sw	s0,36(a4)
    800022a2:	982d                	andi	s0,s0,-21
    800022a4:	a420                	fsd	fs0,72(s0)
    800022a6:	2806                	fld	fa6,64(sp)
    800022a8:	c55bd2bb          	0xc55bd2bb
    800022ac:	7bba                	ld	s7,424(sp)
    800022ae:	9a2b743f 3b2a9700 	0x3b2a97009a2b743f
    800022b6:	48ce                	lw	a7,208(sp)
    800022b8:	fec9                	bnez	a3,80002252 <test_memory+0x52>
    800022ba:	ddb4                	sw	a3,120(a1)
    800022bc:	fffd                	bnez	a5,800022ba <test_memory+0xba>
    800022be:	185e                	slli	a6,a6,0x37
    800022c0:	5fca                	lw	t6,176(sp)
    800022c2:	484e                	lw	a6,208(sp)
    800022c4:	7a7bc1eb          	0x7a7bc1eb
    800022c8:	1a96                	slli	s5,s5,0x25
    800022ca:	67ea                	ld	a5,152(sp)
    800022cc:	4300                	lw	s0,0(a4)
    800022ce:	92d0                	0x92d0
    800022d0:	9c76288f          	0x9c76288f
    800022d4:	11b5                	addi	gp,gp,-19
    800022d6:	4a65                	li	s4,25
    800022d8:	f04e                	sd	s3,32(sp)
    800022da:	50e63f0f          	0x50e63f0f
    800022de:	7c44                	ld	s1,184(s0)
    800022e0:	1d3d                	addi	s10,s10,-17
    800022e2:	d120                	sw	s0,96(a0)
    800022e4:	df9b1fb3          	0xdf9b1fb3
    800022e8:	5bf1                	li	s7,-4
    800022ea:	8c1e                	mv	s8,t2
    800022ec:	abee                	fsd	fs11,464(sp)
    800022ee:	3c98                	fld	fa4,56(s1)
    800022f0:	f6bc                	sd	a5,104(a3)
    800022f2:	2d00                	fld	fs0,24(a0)
    800022f4:	6d20437b          	0x6d20437b
    800022f8:	cd46                	sw	a7,152(sp)
    800022fa:	eacd                	bnez	a3,800023ac <test_memory+0x1ac>
    800022fc:	adb4                	fsd	fa3,88(a1)
    800022fe:	cf5c                	sw	a5,28(a4)
    80002300:	d330                	sw	a2,96(a4)
    80002302:	c3fa1147          	fmsub.d	ft2,fs4,ft11,fs8,rtz
    80002306:	4be9                	li	s7,26
    80002308:	7510                	ld	a2,40(a0)
    8000230a:	d176                	sw	t4,160(sp)
    8000230c:	38b2                	fld	fa7,296(sp)
    8000230e:	a375                	j	800028ba <_end+0x2aa>
    80002310:	cf6bc847          	fmsub.q	fa6,fs7,fs6,fs9,rmm
    80002314:	7b72ce97          	auipc	t4,0x7b72c
    80002318:	917f                	0x917f
    8000231a:	3998                	fld	fa4,48(a1)
    8000231c:	7e06                	ld	t3,96(sp)
    8000231e:	c6d2128b          	0xc6d2128b
    80002322:	3c9c578f          	0x3c9c578f
    80002326:	eb65                	bnez	a4,80002416 <test_memory+0x216>
    80002328:	8de9                	and	a1,a1,a0
    8000232a:	7538                	ld	a4,104(a0)
    8000232c:	847bdb77          	0x847bdb77
    80002330:	c808a397          	auipc	t2,0xc808a
    80002334:	cacd                	beqz	a3,800023e6 <test_memory+0x1e6>
    80002336:	6a3e                	ld	s4,456(sp)
    80002338:	e9b9                	bnez	a1,8000238e <test_memory+0x18e>
    8000233a:	a8b0                	fsd	fa2,80(s1)
    8000233c:	15b8                	addi	a4,sp,744
    8000233e:	f2c6                	sd	a7,352(sp)
    80002340:	5964                	lw	s1,116(a0)
    80002342:	c2fa                	sw	t5,68(sp)
    80002344:	a75e                	fsd	fs7,392(sp)
    80002346:	9a1f 1aa7 e447      	0xe4471aa79a1f
    8000234c:	72ed                	lui	t0,0xffffb
    8000234e:	e850                	sd	a2,144(s0)
    80002350:	20bed867          	0x20bed867
    80002354:	7a05                	lui	s4,0xfffe1
    80002356:	3859                	addiw	a6,a6,-10
    80002358:	de29                	beqz	a2,800022b2 <test_memory+0xb2>
    8000235a:	796f23ef          	jal	t2,800f4af0 <__global_pointer$+0xf1ce0>
    8000235e:	f6bdcee3          	blt	s11,a1,800022da <test_memory+0xda>
    80002362:	9e19                	subw	a2,a2,a4
    80002364:	4a69                	li	s4,26
    80002366:	1424                	addi	s1,sp,552
    80002368:	ae28                	fsd	fa0,88(a2)
    8000236a:	1182                	slli	gp,gp,0x20
    8000236c:	56cc                	lw	a1,44(a3)
    8000236e:	e5dc                	sd	a5,136(a1)
    80002370:	5648                	lw	a0,44(a2)
    80002372:	e8c5d963          	bge	a1,a2,80001a04 <fromhost+0x9c4>
    80002376:	a750                	fsd	fa2,136(a4)
    80002378:	bd634cf7          	0xbd634cf7
    8000237c:	3310                	fld	fa2,32(a4)
    8000237e:	68f0                	ld	a2,208(s1)
    80002380:	53c5                	li	t2,-15
    80002382:	bb08                	fsd	fa0,48(a4)
    80002384:	bcc9                	j	80001e56 <fromhost+0xe16>
    80002386:	a726                	fsd	fs1,392(sp)
    80002388:	9c80                	0x9c80
    8000238a:	f44b46a3          	0xf44b46a3
    8000238e:	8aba                	mv	s5,a4
    80002390:	531c                	lw	a5,32(a4)
    80002392:	0155                	addi	sp,sp,21
    80002394:	7e151ebf bd0f34bf 	0xbd0f34bf7e151ebf
    8000239c:	3649                	addiw	a2,a2,-14
    8000239e:	0978                	addi	a4,sp,156
    800023a0:	fcfa                	sd	t5,120(sp)
    800023a2:	6696                	ld	a3,320(sp)
    800023a4:	3ebe9eef          	jal	t4,800ebf8e <__global_pointer$+0xe917e>
    800023a8:	6d74                	ld	a3,216(a0)
    800023aa:	38b5                	addiw	a7,a7,-19
    800023ac:	64ed7aa7          	0x64ed7aa7
    800023b0:	419c                	lw	a5,0(a1)
    800023b2:	e099                	bnez	s1,800023b8 <test_memory+0x1b8>
    800023b4:	df42                	sw	a6,188(sp)
    800023b6:	b866                	fsd	fs9,48(sp)
    800023b8:	cf14                	sw	a3,24(a4)
    800023ba:	fa9d                	bnez	a3,800022f0 <test_memory+0xf0>
    800023bc:	7778d507          	0x7778d507
    800023c0:	34ee                	fld	fs1,248(sp)
    800023c2:	e32d0293          	addi	t0,s10,-462 # ffffffffb3ba1e32 <__global_pointer$+0xffffffff33b9f022>
    800023c6:	3a31                	addiw	s4,s4,-20
    800023c8:	1f00                	addi	s0,sp,944
    800023ca:	649e                	ld	s1,448(sp)
    800023cc:	97a2                	add	a5,a5,s0
    800023ce:	17d449a7          	fsq	ft9,371(s0)
    800023d2:	23ec                	fld	fa1,192(a5)
    800023d4:	f9c8                	sd	a0,176(a1)
    800023d6:	c02d                	beqz	s0,80002438 <test_memory+0x238>
    800023d8:	7af9                	lui	s5,0xffffe
    800023da:	2208                	fld	fa0,0(a2)
    800023dc:	c3ff                	0xc3ff
    800023de:	0bec                	addi	a1,sp,476
    800023e0:	22c6                	fld	ft5,80(sp)
    800023e2:	a63bb837          	lui	a6,0xa63bb
    800023e6:	37d2990f          	0x37d2990f
    800023ea:	44011b5b          	0x44011b5b
    800023ee:	e5a2dd47          	0xe5a2dd47
    800023f2:	3488                	fld	fa0,40(s1)
    800023f4:	90192a67          	0x90192a67
    800023f8:	7766                	ld	a4,120(sp)
    800023fa:	2f25db83          	lhu	s7,754(a1) # a6f2a562 <__global_pointer$+0x26f27752>
    800023fe:	5424                	lw	s1,104(s0)
    80002400:	50bd                	li	ra,-17
    80002402:	fd22                	sd	s0,184(sp)
    80002404:	97b8                	0x97b8
    80002406:	b21d                	j	80001d2c <fromhost+0xcec>
    80002408:	a9cc                	fsd	fa1,144(a1)
    8000240a:	30de                	fld	ft1,496(sp)
    8000240c:	a00c                	fsd	fa1,0(s0)
    8000240e:	10c9                	addi	ra,ra,-14
    80002410:	bb3a                	fsd	fa4,432(sp)
    80002412:	819a                	mv	gp,t1
    80002414:	8a5e                	mv	s4,s7
    80002416:	6929                	lui	s2,0xa
    80002418:	6dc9                	lui	s11,0x12
    8000241a:	ce36                	sw	a3,28(sp)
    8000241c:	de36                	sw	a3,60(sp)
    8000241e:	2a5a                	fld	fs4,400(sp)
    80002420:	7a9f d673 f2a2      	0xf2a2d6737a9f
    80002426:	d659                	beqz	a2,800023b4 <test_memory+0x1b4>
    80002428:	8485                	srai	s1,s1,0x1
    8000242a:	f3b5                	bnez	a5,8000238e <test_memory+0x18e>
    8000242c:	e011                	bnez	s0,80002430 <test_memory+0x230>
    8000242e:	414e                	lw	sp,208(sp)
    80002430:	dfa4                	sw	s1,120(a5)
    80002432:	8694                	0x8694
    80002434:	9090                	0x9090
    80002436:	cc82970b          	0xcc82970b
    8000243a:	69331c8b          	0x69331c8b
    8000243e:	e83e                	sd	a5,16(sp)
    80002440:	ac4e                	fsd	fs3,24(sp)
    80002442:	dedd                	beqz	a3,80002400 <test_memory+0x200>
    80002444:	05dd                	addi	a1,a1,23
    80002446:	f814                	sd	a3,48(s0)
    80002448:	77c9                	lui	a5,0xffff2
    8000244a:	eee2                	sd	s8,344(sp)
    8000244c:	48e2                	lw	a7,24(sp)
    8000244e:	e67f                	0xe67f
    80002450:	573c                	lw	a5,104(a4)
    80002452:	a204c6eb          	0xa204c6eb
    80002456:	995f f165 4820      	0x4820f165995f
    8000245c:	7cdc                	ld	a5,184(s1)
    8000245e:	5b56                	lw	s6,116(sp)
    80002460:	b041                	j	80001ce0 <fromhost+0xca0>
    80002462:	15d2                	slli	a1,a1,0x34
    80002464:	ac5d4cb3          	0xac5d4cb3
    80002468:	2615                	addiw	a2,a2,5
    8000246a:	fa96                	sd	t0,368(sp)
    8000246c:	c4e33c53          	0xc4e33c53
    80002470:	ba32                	fsd	fa2,304(sp)
    80002472:	cce5                	beqz	s1,8000256a <test_memory+0x36a>
    80002474:	3264                	fld	fs1,224(a2)
    80002476:	ea54                	sd	a3,144(a2)
    80002478:	243c                	fld	fa5,72(s0)
    8000247a:	62a1                	lui	t0,0x8
    8000247c:	2f3a                	fld	ft10,392(sp)
    8000247e:	6f81                	0x6f81
    80002480:	ce00                	sw	s0,24(a2)
    80002482:	671c                	ld	a5,8(a4)
    80002484:	174e                	slli	a4,a4,0x33
    80002486:	a355                	j	80002a2a <_end+0x41a>
    80002488:	471c                	lw	a5,8(a4)
    8000248a:	55bf4baf          	0x55bf4baf
    8000248e:	6980                	ld	s0,16(a1)
    80002490:	5b08                	lw	a0,48(a4)
    80002492:	7686                	ld	a3,96(sp)
    80002494:	747d                	lui	s0,0xfffff
    80002496:	61438533          	0x61438533
    8000249a:	1015                	c.nop	-27
    8000249c:	17f56417          	auipc	s0,0x17f56
    800024a0:	d8a9                	beqz	s1,800023f2 <test_memory+0x1f2>
    800024a2:	ab81                	j	800029f2 <_end+0x3e2>
    800024a4:	c33e                	sw	a5,132(sp)
    800024a6:	0210                	addi	a2,sp,256
    800024a8:	9a44                	0x9a44
    800024aa:	852c                	0x852c
    800024ac:	967f                	0x967f
    800024ae:	4c4d                	li	s8,19
    800024b0:	80bfbd17          	auipc	s10,0x80bfb
    800024b4:	9ac0                	0x9ac0
    800024b6:	41c6                	lw	gp,80(sp)
    800024b8:	f3aa                	sd	a0,480(sp)
    800024ba:	2672                	fld	fa2,280(sp)
    800024bc:	db7d4183          	lbu	gp,-585(s10) # bfd267 <_start-0x7f402d99>
    800024c0:	8d6e                	mv	s10,s11
    800024c2:	9c49                	0x9c49
    800024c4:	83f9                	srli	a5,a5,0x1e
    800024c6:	df22                	sw	s0,188(sp)
    800024c8:	a92a                	fsd	fa0,144(sp)
    800024ca:	49fa                	lw	s3,156(sp)
    800024cc:	a279                	j	8000265a <_end+0x4a>
    800024ce:	5750                	lw	a2,44(a4)
    800024d0:	5b0a                	lw	s6,160(sp)
    800024d2:	4e72                	lw	t3,28(sp)
    800024d4:	13b0a7c7          	fmsub.d	fa5,ft1,fs11,ft2,rdn
    800024d8:	a572e017          	auipc	zero,0xa572e
    800024dc:	8cdab44f          	0x8cdab44f
    800024e0:	4215                	li	tp,5
    800024e2:	d4c1                	beqz	s1,8000246a <test_memory+0x26a>
    800024e4:	bb56                	fsd	fs5,432(sp)
    800024e6:	8100                	0x8100
    800024e8:	5a1a                	lw	s4,164(sp)
    800024ea:	0c8f70c7          	0xc8f70c7
    800024ee:	b876                	fsd	ft9,48(sp)
    800024f0:	bd60                	fsd	fs0,248(a0)
    800024f2:	5dec                	lw	a1,124(a1)
    800024f4:	cec8                	sw	a0,28(a3)
    800024f6:	3f22                	fld	ft10,40(sp)
    800024f8:	1f21                	addi	t5,t5,-24
    800024fa:	58fc                	lw	a5,116(s1)
    800024fc:	0496                	slli	s1,s1,0x5
    800024fe:	2488                	fld	fa0,8(s1)
    80002500:	e376                	sd	t4,384(sp)
    80002502:	8616                	mv	a2,t0
    80002504:	e211                	bnez	a2,80002508 <test_memory+0x308>
    80002506:	5297e3cf          	fnmadd.d	ft7,fa5,fs1,fa0,unknown
    8000250a:	c6c5                	beqz	a3,800025b2 <test_memory+0x3b2>
    8000250c:	b329                	j	80002216 <test_memory+0x16>
    8000250e:	d476                	sw	t4,40(sp)
    80002510:	e0ee                	sd	s11,64(sp)
    80002512:	6423bce7          	0x6423bce7
    80002516:	9e8c                	0x9e8c
    80002518:	a7d6                	fsd	fs5,456(sp)
    8000251a:	b7aa                	fsd	fa0,488(sp)
    8000251c:	7a30                	ld	a2,112(a2)
    8000251e:	6546                	ld	a0,80(sp)
    80002520:	4401                	li	s0,0
    80002522:	f325                	bnez	a4,80002482 <test_memory+0x282>
    80002524:	7a51004b          	fnmsub.d	ft0,ft2,ft5,fa5,rne
    80002528:	29d9                	addiw	s3,s3,22
    8000252a:	4189                	li	gp,2
    8000252c:	2cb9                	addiw	s9,s9,14
    8000252e:	e95c                	sd	a5,144(a0)
    80002530:	1039ed5b          	0x1039ed5b
    80002534:	27285ddb          	0x27285ddb
    80002538:	4a36                	lw	s4,76(sp)
    8000253a:	763d                	lui	a2,0xfffef
    8000253c:	113e                	slli	sp,sp,0x2f
    8000253e:	f12d                	bnez	a0,800024a0 <test_memory+0x2a0>
    80002540:	ba35                	j	80001e7c <fromhost+0xe3c>
    80002542:	b608230b          	0xb608230b
    80002546:	13f6                	slli	t2,t2,0x3d
    80002548:	6b4a                	ld	s6,144(sp)
    8000254a:	9b6a                	add	s6,s6,s10
    8000254c:	6f76442b          	0x6f76442b
    80002550:	71b93ba3          	sd	s11,1815(s2) # a717 <_start-0x7fff58e9>
    80002554:	6414                	ld	a3,8(s0)
    80002556:	f48a                	sd	sp,104(sp)
    80002558:	59b5                	li	s3,-19
    8000255a:	d7f4                	sw	a3,108(a5)
    8000255c:	3ea1                	addiw	t4,t4,-24
    8000255e:	b929                	j	80002178 <reg_x15_output>
    80002560:	0f2a                	slli	t5,t5,0xa
    80002562:	d3af7aab          	0xd3af7aab
    80002566:	5062                	0x5062
    80002568:	6908                	ld	a0,16(a0)
    8000256a:	9912                	add	s2,s2,tp
    8000256c:	8fd38577          	0x8fd38577
    80002570:	ac95                	j	800027e4 <_end+0x1d4>
    80002572:	7c09                	lui	s8,0xfffe2
    80002574:	719a                	ld	gp,416(sp)
    80002576:	458d                	li	a1,3
    80002578:	27bd                	addiw	a5,a5,15
    8000257a:	c482fb2b          	0xc482fb2b
    8000257e:	bd083d23          	sd	a6,-1062(a6) # ffffffffa63babda <__global_pointer$+0xffffffff263b7dca>
    80002582:	1661                	addi	a2,a2,-8
    80002584:	828c                	0x828c
    80002586:	0ece                	slli	t4,t4,0x13
    80002588:	a222de67          	0xa222de67
    8000258c:	da16                	sw	t0,52(sp)
    8000258e:	178e                	slli	a5,a5,0x23
    80002590:	4f55                	li	t5,21
    80002592:	594e                	lw	s2,240(sp)
    80002594:	0459                	addi	s0,s0,22
    80002596:	ff46                	sd	a7,440(sp)
    80002598:	4e2a                	lw	t3,136(sp)
    8000259a:	40b6                	lw	ra,76(sp)
    8000259c:	96cc                	0x96cc
    8000259e:	7d8ee73b          	0x7d8ee73b
    800025a2:	cea1                	beqz	a3,800025fa <test_memory+0x3fa>
    800025a4:	fd50                	sd	a2,184(a0)
    800025a6:	d61e                	sw	t2,44(sp)
    800025a8:	626c                	ld	a1,192(a2)
    800025aa:	ea1e                	sd	t2,272(sp)
    800025ac:	3584                	fld	fs1,40(a1)
    800025ae:	2784                	fld	fs1,8(a5)
    800025b0:	57da                	lw	a5,180(sp)
    800025b2:	8ef9                	and	a3,a3,a4
    800025b4:	dde5                	beqz	a1,800025ac <test_memory+0x3ac>
    800025b6:	7cd9                	lui	s9,0xffff6
    800025b8:	c9cc                	sw	a1,20(a1)
    800025ba:	73d0                	ld	a2,160(a5)
    800025bc:	cfae                	sw	a1,220(sp)
    800025be:	e8c8                	sd	a0,144(s1)
    800025c0:	288c                	fld	fa1,16(s1)
    800025c2:	cb38                	sw	a4,80(a4)
    800025c4:	d890                	sw	a2,48(s1)
    800025c6:	48a8                	lw	a0,80(s1)
    800025c8:	aa52                	fsd	fs4,272(sp)
    800025ca:	21fc                	fld	fa5,192(a1)
    800025cc:	51c4                	lw	s1,36(a1)
    800025ce:	803e                	c.mv	zero,a5
    800025d0:	6571                	lui	a0,0x1c
    800025d2:	8e34                	0x8e34
    800025d4:	53f4                	lw	a3,100(a5)
    800025d6:	ad5f e4e8 87a1      	0x87a1e4e8ad5f
    800025dc:	b419                	j	80001fe2 <fromhost+0xfa2>
    800025de:	6419                	lui	s0,0x6
    800025e0:	e269                	bnez	a2,800026a2 <_end+0x92>
    800025e2:	6a65                	lui	s4,0x19
    800025e4:	54e3db43          	0x54e3db43
    800025e8:	9c09                	subw	s0,s0,a0
    800025ea:	8e14                	0x8e14
    800025ec:	7bd8                	ld	a4,176(a5)
    800025ee:	1938b22f          	sc.d	tp,s3,(a7)
    800025f2:	30dfc59b          	0x30dfc59b
    800025f6:	c326                	sw	s1,132(sp)
    800025f8:	96a5f1b7          	lui	gp,0x96a5f
    800025fc:	c846                	sw	a7,16(sp)
    800025fe:	          	srliw	s4,zero,0x4

0000000080002600 <loop_count>:
    80002600:	0040                	addi	s0,sp,4
	...

Disassembly of section .riscv.attributes:

0000000000000000 <.riscv.attributes>:
   0:	1e41                	addi	t3,t3,-16
   2:	0000                	unimp
   4:	7200                	ld	s0,32(a2)
   6:	7369                	lui	t1,0xffffa
   8:	01007663          	bgeu	zero,a6,14 <_start-0x7fffffec>
   c:	0014                	0x14
   e:	0000                	unimp
  10:	7205                	lui	tp,0xfffe1
  12:	3676                	fld	fa2,376(sp)
  14:	6934                	ld	a3,80(a0)
  16:	7032                	0x7032
  18:	5f30                	lw	a2,120(a4)
  1a:	326d                	addiw	tp,tp,-5
  1c:	3070                	fld	fa2,224(s0)
	...
