
build/test23:     file format elf64-littleriscv


Disassembly of section .text.init:

0000000080000000 <_start>:
    80000000:	05c0006f          	j	8000005c <reset_vector>

0000000080000004 <trap_vector>:
    80000004:	34202f73          	csrr	t5,mcause
    80000008:	00800f93          	li	t6,8
    8000000c:	03ff0a63          	beq	t5,t6,80000040 <write_tohost>
    80000010:	00900f93          	li	t6,9
    80000014:	03ff0663          	beq	t5,t6,80000040 <write_tohost>
    80000018:	00b00f93          	li	t6,11
    8000001c:	03ff0263          	beq	t5,t6,80000040 <write_tohost>
    80000020:	80000f17          	auipc	t5,0x80000
    80000024:	fe0f0f13          	addi	t5,t5,-32 # 0 <_start-0x80000000>
    80000028:	000f0463          	beqz	t5,80000030 <trap_vector+0x2c>
    8000002c:	000f0067          	jr	t5
    80000030:	34202f73          	csrr	t5,mcause
    80000034:	000f5463          	bgez	t5,8000003c <handle_exception>
    80000038:	0040006f          	j	8000003c <handle_exception>

000000008000003c <handle_exception>:
    8000003c:	5391e193          	ori	gp,gp,1337

0000000080000040 <write_tohost>:
    80000040:	00001f17          	auipc	t5,0x1
    80000044:	fc3f2023          	sw	gp,-64(t5) # 80001000 <tohost>
    80000048:	000902b7          	lui	t0,0x90
    8000004c:	0012829b          	addiw	t0,t0,1
    80000050:	00c29293          	slli	t0,t0,0xc
    80000054:	0002af83          	lw	t6,0(t0) # 90000 <_start-0x7ff70000>
    80000058:	fe9ff06f          	j	80000040 <write_tohost>

000000008000005c <reset_vector>:
    8000005c:	00000093          	li	ra,0
    80000060:	00000113          	li	sp,0
    80000064:	00000193          	li	gp,0
    80000068:	00000213          	li	tp,0
    8000006c:	00000293          	li	t0,0
    80000070:	00000313          	li	t1,0
    80000074:	00000393          	li	t2,0
    80000078:	00000413          	li	s0,0
    8000007c:	00000493          	li	s1,0
    80000080:	00000513          	li	a0,0
    80000084:	00000593          	li	a1,0
    80000088:	00000613          	li	a2,0
    8000008c:	00000693          	li	a3,0
    80000090:	00000713          	li	a4,0
    80000094:	00000793          	li	a5,0
    80000098:	00000813          	li	a6,0
    8000009c:	00000893          	li	a7,0
    800000a0:	00000913          	li	s2,0
    800000a4:	00000993          	li	s3,0
    800000a8:	00000a13          	li	s4,0
    800000ac:	00000a93          	li	s5,0
    800000b0:	00000b13          	li	s6,0
    800000b4:	00000b93          	li	s7,0
    800000b8:	00000c13          	li	s8,0
    800000bc:	00000c93          	li	s9,0
    800000c0:	00000d13          	li	s10,0
    800000c4:	00000d93          	li	s11,0
    800000c8:	00000e13          	li	t3,0
    800000cc:	00000e93          	li	t4,0
    800000d0:	00000f13          	li	t5,0
    800000d4:	00000f93          	li	t6,0
    800000d8:	f1402573          	csrr	a0,mhartid
    800000dc:	00051063          	bnez	a0,800000dc <reset_vector+0x80>
    800000e0:	00000297          	auipc	t0,0x0
    800000e4:	01028293          	addi	t0,t0,16 # 800000f0 <reset_vector+0x94>
    800000e8:	30529073          	csrw	mtvec,t0
    800000ec:	18005073          	csrwi	satp,0
    800000f0:	00000297          	auipc	t0,0x0
    800000f4:	02428293          	addi	t0,t0,36 # 80000114 <reset_vector+0xb8>
    800000f8:	30529073          	csrw	mtvec,t0
    800000fc:	0010029b          	addiw	t0,zero,1
    80000100:	03529293          	slli	t0,t0,0x35
    80000104:	fff28293          	addi	t0,t0,-1
    80000108:	3b029073          	csrw	pmpaddr0,t0
    8000010c:	01f00293          	li	t0,31
    80000110:	3a029073          	csrw	pmpcfg0,t0
    80000114:	30405073          	csrwi	mie,0
    80000118:	00000297          	auipc	t0,0x0
    8000011c:	01428293          	addi	t0,t0,20 # 8000012c <reset_vector+0xd0>
    80000120:	30529073          	csrw	mtvec,t0
    80000124:	30205073          	csrwi	medeleg,0
    80000128:	30305073          	csrwi	mideleg,0
    8000012c:	00000193          	li	gp,0
    80000130:	00000297          	auipc	t0,0x0
    80000134:	ed428293          	addi	t0,t0,-300 # 80000004 <trap_vector>
    80000138:	30529073          	csrw	mtvec,t0
    8000013c:	00100513          	li	a0,1
    80000140:	01f51513          	slli	a0,a0,0x1f
    80000144:	00055c63          	bgez	a0,8000015c <reset_vector+0x100>
    80000148:	0ff0000f          	fence
    8000014c:	00100193          	li	gp,1
    80000150:	05d00893          	li	a7,93
    80000154:	00000513          	li	a0,0
    80000158:	00000073          	ecall
    8000015c:	80000297          	auipc	t0,0x80000
    80000160:	ea428293          	addi	t0,t0,-348 # 0 <_start-0x80000000>
    80000164:	00028a63          	beqz	t0,80000178 <reset_vector+0x11c>
    80000168:	10529073          	csrw	stvec,t0
    8000016c:	0000b2b7          	lui	t0,0xb
    80000170:	1092829b          	addiw	t0,t0,265
    80000174:	30229073          	csrw	medeleg,t0
    80000178:	30005073          	csrwi	mstatus,0
    8000017c:	00000297          	auipc	t0,0x0
    80000180:	01428293          	addi	t0,t0,20 # 80000190 <reset_vector+0x134>
    80000184:	34129073          	csrw	mepc,t0
    80000188:	f1402573          	csrr	a0,mhartid
    8000018c:	30200073          	mret
    80000190:	0200006f          	j	800001b0 <test_start>

0000000080000194 <crash_backward>:
    80000194:	0ff0000f          	fence
    80000198:	00018063          	beqz	gp,80000198 <crash_backward+0x4>
    8000019c:	00119193          	slli	gp,gp,0x1
    800001a0:	0011e193          	ori	gp,gp,1
    800001a4:	05d00893          	li	a7,93
    800001a8:	00018513          	mv	a0,gp
    800001ac:	00000073          	ecall

00000000800001b0 <test_start>:
    800001b0:	00002f97          	auipc	t6,0x2
    800001b4:	e50f8f93          	addi	t6,t6,-432 # 80002000 <hidden_data>
    800001b8:	000fb003          	ld	zero,0(t6)
    800001bc:	008fb083          	ld	ra,8(t6)
    800001c0:	010fb103          	ld	sp,16(t6)
    800001c4:	018fb183          	ld	gp,24(t6)
    800001c8:	020fb203          	ld	tp,32(t6)
    800001cc:	028fb283          	ld	t0,40(t6)
    800001d0:	030fb303          	ld	t1,48(t6)
    800001d4:	038fb383          	ld	t2,56(t6)
    800001d8:	040fb403          	ld	s0,64(t6)
    800001dc:	048fb483          	ld	s1,72(t6)
    800001e0:	050fb503          	ld	a0,80(t6)
    800001e4:	058fb583          	ld	a1,88(t6)
    800001e8:	060fb603          	ld	a2,96(t6)
    800001ec:	068fb683          	ld	a3,104(t6)
    800001f0:	070fb703          	ld	a4,112(t6)
    800001f4:	078fb783          	ld	a5,120(t6)
    800001f8:	080fb803          	ld	a6,128(t6)
    800001fc:	088fb883          	ld	a7,136(t6)
    80000200:	090fb903          	ld	s2,144(t6)
    80000204:	098fb983          	ld	s3,152(t6)
    80000208:	0a0fba03          	ld	s4,160(t6)
    8000020c:	0a8fba83          	ld	s5,168(t6)
    80000210:	0b0fbb03          	ld	s6,176(t6)
    80000214:	0b8fbb83          	ld	s7,184(t6)
    80000218:	0c0fbc03          	ld	s8,192(t6)
    8000021c:	0c8fbc83          	ld	s9,200(t6)
    80000220:	0d0fbd03          	ld	s10,208(t6)
    80000224:	0d8fbd83          	ld	s11,216(t6)
    80000228:	0e0fbe03          	ld	t3,224(t6)
    8000022c:	0e8fbe83          	ld	t4,232(t6)
    80000230:	0f0fbf03          	ld	t5,240(t6)
    80000234:	0f8fbf83          	ld	t6,248(t6)
    80000238:	0040006f          	j	8000023c <pseg_0>

000000008000023c <pseg_0>:
    8000023c:	02b0fd33          	remu	s10,ra,a1
    80000240:	13000a93          	li	s5,304
    80000244:	03d0abb3          	mulhsu	s7,ra,t4
    80000248:	07300613          	li	a2,115
    8000024c:	02c623b3          	mulhsu	t2,a2,a2
    80000250:	d1800a13          	li	s4,-744
    80000254:	3bc60293          	addi	t0,a2,956
    80000258:	4155541b          	sraiw	s0,a0,0x15
    8000025c:	414a5fb3          	sra	t6,s4,s4
    80000260:	a7b00893          	li	a7,-1413
    80000264:	008444b3          	xor	s1,s0,s0
    80000268:	8d300913          	li	s2,-1837
    8000026c:	021eae33          	mulhsu	t3,t4,ra
    80000270:	027b3733          	mulhu	a4,s6,t2
    80000274:	2fe00113          	li	sp,766
    80000278:	010d9233          	sll	tp,s11,a6
    8000027c:	0221433b          	divw	t1,sp,sp
    80000280:	40668bbb          	subw	s7,a3,t1
    80000284:	035acdbb          	divw	s11,s5,s5
    80000288:	f0a00093          	li	ra,-246
    8000028c:	00002c17          	auipc	s8,0x2
    80000290:	5dac0c13          	addi	s8,s8,1498 # 80002866 <_end+0x256>
    80000294:	9fbc1523          	sh	s11,-1558(s8)
    80000298:	02450fbb          	mulw	t6,a0,tp
    8000029c:	db600813          	li	a6,-586
    800002a0:	00002b17          	auipc	s6,0x2
    800002a4:	557b0b13          	addi	s6,s6,1367 # 800027f7 <_end+0x1e7>
    800002a8:	bccb24a3          	sw	a2,-1079(s6)
    800002ac:	ff300c13          	li	s8,-13
    800002b0:	00002f17          	auipc	t5,0x2
    800002b4:	c82f0f13          	addi	t5,t5,-894 # 80001f32 <fromhost+0xef2>
    800002b8:	0461f713          	andi	a4,gp,70
    800002bc:	038c4433          	div	s0,s8,s8
    800002c0:	01b8acb3          	slt	s9,a7,s11
    800002c4:	e8e00f93          	li	t6,-370
    800002c8:	dcb00d93          	li	s11,-565
    800002cc:	00100613          	li	a2,1
    800002d0:	00002497          	auipc	s1,0x2
    800002d4:	af448493          	addi	s1,s1,-1292 # 80001dc4 <fromhost+0xd84>
    800002d8:	66c64063          	blt	a2,a2,80000938 <crash_forward>
    800002dc:	03bdeabb          	remw	s5,s11,s11
    800002e0:	af380e93          	addi	t4,a6,-1293
    800002e4:	03f61613          	slli	a2,a2,0x3f
    800002e8:	fff00293          	li	t0,-1
    800002ec:	01ffc333          	xor	t1,t6,t6
    800002f0:	4e84ac23          	sw	s0,1272(s1)
    800002f4:	84800793          	li	a5,-1976
    800002f8:	00c2c2b3          	xor	t0,t0,a2
    800002fc:	fa300d13          	li	s10,-93
    80000300:	0055f3b3          	and	t2,a1,t0
    80000304:	02f0f1b3          	remu	gp,ra,a5
    80000308:	00ca6bb3          	or	s7,s4,a2
    8000030c:	41a906b3          	sub	a3,s2,s10
    80000310:	00002e17          	auipc	t3,0x2
    80000314:	f3be0e13          	addi	t3,t3,-197 # 8000224b <test_memory+0x4b>
    80000318:	3d4f0983          	lb	s3,980(t5)
    8000031c:	70e00593          	li	a1,1806
    80000320:	00b8c533          	xor	a0,a7,a1
    80000324:	1dae0103          	lb	sp,474(t3)
    80000328:	79b00d93          	li	s11,1947
    8000032c:	26300213          	li	tp,611
    80000330:	037e9813          	slli	a6,t4,0x37
    80000334:	0a000113          	li	sp,160
    80000338:	65b00a13          	li	s4,1627
    8000033c:	014249b3          	xor	s3,tp,s4
    80000340:	00002697          	auipc	a3,0x2
    80000344:	11b68693          	addi	a3,a3,283 # 8000245b <test_memory+0x25b>
    80000348:	89900d13          	li	s10,-1895
    8000034c:	c8c00f93          	li	t6,-884
    80000350:	00100c93          	li	s9,1
    80000354:	03ad5c33          	divu	s8,s10,s10
    80000358:	00000b93          	li	s7,0
    8000035c:	5d4df093          	andi	ra,s11,1492
    80000360:	0160d8bb          	srlw	a7,ra,s6
    80000364:	1c900b13          	li	s6,457
    80000368:	01adbab3          	sltu	s5,s11,s10
    8000036c:	8de00193          	li	gp,-1826
    80000370:	00000f13          	li	t5,0
    80000374:	a3100993          	li	s3,-1487
    80000378:	0231853b          	mulw	a0,gp,gp
    8000037c:	03fc9c93          	slli	s9,s9,0x3f
    80000380:	58a00793          	li	a5,1418
    80000384:	01610433          	add	s0,sp,s6
    80000388:	03ff8e3b          	mulw	t3,t6,t6
    8000038c:	02f79933          	mulh	s2,a5,a5
    80000390:	f5e98a13          	addi	s4,s3,-162
    80000394:	79d00213          	li	tp,1949
    80000398:	fff00593          	li	a1,-1
    8000039c:	b7200513          	li	a0,-1166
    800003a0:	013354b3          	srl	s1,t1,s3
    800003a4:	15600293          	li	t0,342
    800003a8:	dc16d703          	lhu	a4,-575(a3)
    800003ac:	0252d33b          	divuw	t1,t0,t0
    800003b0:	59ebc463          	blt	s7,t5,80000938 <crash_forward>
    800003b4:	b4200d13          	li	s10,-1214
    800003b8:	b3f0089b          	addiw	a7,zero,-1217
    800003bc:	14f00c13          	li	s8,335
    800003c0:	02948633          	mul	a2,s1,s1
    800003c4:	0195c5b3          	xor	a1,a1,s9
    800003c8:	01a251b3          	srl	gp,tp,s10
    800003cc:	a0d50d93          	addi	s11,a0,-1523
    800003d0:	b4a00a13          	li	s4,-1206
    800003d4:	0073f733          	and	a4,t2,t2
    800003d8:	00165bbb          	srlw	s7,a2,ra
    800003dc:	0273843b          	mulw	s0,t2,t2
    800003e0:	0358d2bb          	divuw	t0,a7,s5
    800003e4:	03ef50bb          	divuw	ra,t5,t5
    800003e8:	00670e3b          	addw	t3,a4,t1
    800003ec:	a31caf13          	slti	t5,s9,-1487
    800003f0:	00634133          	xor	sp,t1,t1
    800003f4:	ab3de093          	ori	ra,s11,-1357
    800003f8:	08500f93          	li	t6,133
    800003fc:	ce500f13          	li	t5,-795
    80000400:	5e9c0a93          	addi	s5,s8,1513
    80000404:	a0400993          	li	s3,-1532
    80000408:	030877b3          	remu	a5,a6,a6
    8000040c:	00002217          	auipc	tp,0x2
    80000410:	1c020213          	addi	tp,tp,448 # 800025cc <test_memory+0x3cc>
    80000414:	a6af0113          	addi	sp,t5,-1430
    80000418:	6a000893          	li	a7,1696
    8000041c:	c2900293          	li	t0,-983
    80000420:	011884b3          	add	s1,a7,a7
    80000424:	baaa0313          	addi	t1,s4,-1110
    80000428:	18100b13          	li	s6,385
    8000042c:	002126b3          	slt	a3,sp,sp
    80000430:	00002b97          	auipc	s7,0x2
    80000434:	dd0b8b93          	addi	s7,s7,-560 # 80002200 <test_memory>
    80000438:	515c7063          	bgeu	s8,s5,80000938 <crash_forward>
    8000043c:	0339e1b3          	rem	gp,s3,s3
    80000440:	0339c93b          	divw	s2,s3,s3
    80000444:	016f8d33          	add	s10,t6,s6
    80000448:	015adc33          	srl	s8,s5,s5
    8000044c:	fe100193          	li	gp,-31
    80000450:	0200a633          	mulhsu	a2,ra,zero
    80000454:	01122623          	sw	a7,12(tp) # c <_start-0x7ffffff4>
    80000458:	e9400093          	li	ra,-364
    8000045c:	6a300493          	li	s1,1699
    80000460:	0012e433          	or	s0,t0,ra
    80000464:	4c2f6a63          	bltu	t5,sp,80000938 <crash_forward>
    80000468:	f5000d93          	li	s11,-176
    8000046c:	0099d73b          	srlw	a4,s3,s1
    80000470:	0073983b          	sllw	a6,t2,t2
    80000474:	048bde03          	lhu	t3,72(s7)
    80000478:	033982bb          	mulw	t0,s3,s3
    8000047c:	401d5f33          	sra	t5,s10,ra
    80000480:	03bdfab3          	remu	s5,s11,s11
    80000484:	00100093          	li	ra,1
    80000488:	4031d8b3          	sra	a7,gp,gp
    8000048c:	5eb00993          	li	s3,1515
    80000490:	92b00a13          	li	s4,-1749
    80000494:	31748793          	addi	a5,s1,791
    80000498:	00100d93          	li	s11,1
    8000049c:	8bb00c13          	li	s8,-1861
    800004a0:	b1500b13          	li	s6,-1259
    800004a4:	00100893          	li	a7,1
    800004a8:	00002317          	auipc	t1,0x2
    800004ac:	57930313          	addi	t1,t1,1401 # 80002a21 <_end+0x411>
    800004b0:	00002817          	auipc	a6,0x2
    800004b4:	a1e80813          	addi	a6,a6,-1506 # 80001ece <fromhost+0xe8e>
    800004b8:	00b1f3b3          	and	t2,gp,a1
    800004bc:	03fd9d93          	slli	s11,s11,0x3f
    800004c0:	03f09093          	slli	ra,ra,0x3f
    800004c4:	0317b6b3          	mulhu	a3,a5,a7
    800004c8:	019e6eb3          	or	t4,t3,s9
    800004cc:	fff00613          	li	a2,-1
    800004d0:	03f89893          	slli	a7,a7,0x3f
    800004d4:	a4f33903          	ld	s2,-1457(t1)
    800004d8:	01498533          	add	a0,s3,s4
    800004dc:	416c543b          	sraw	s0,s8,s6
    800004e0:	00002717          	auipc	a4,0x2
    800004e4:	c7c70713          	addi	a4,a4,-900 # 8000215c <reg_x11_output+0x4>
    800004e8:	2f571a23          	sh	s5,756(a4)
    800004ec:	fff00113          	li	sp,-1
    800004f0:	00114133          	xor	sp,sp,ra
    800004f4:	59780d03          	lb	s10,1431(a6)
    800004f8:	01b64633          	xor	a2,a2,s11
    800004fc:	fff00193          	li	gp,-1
    80000500:	002ff233          	and	tp,t6,sp
    80000504:	00795e3b          	srlw	t3,s2,t2
    80000508:	0111c1b3          	xor	gp,gp,a7
    8000050c:	0039ff33          	and	t5,s3,gp
    80000510:	00166fb3          	or	t6,a2,ra
    80000514:	00c872b3          	and	t0,a6,a2
    80000518:	4c900e13          	li	t3,1225
    8000051c:	67a00913          	li	s2,1658
    80000520:	011f6bb3          	or	s7,t5,a7
    80000524:	f3d00c13          	li	s8,-195
    80000528:	00002417          	auipc	s0,0x2
    8000052c:	92140413          	addi	s0,s0,-1759 # 80001e49 <fromhost+0xe09>
    80000530:	03ce44bb          	divw	s1,t3,t3
    80000534:	65b42503          	lw	a0,1627(s0)
    80000538:	9b500b13          	li	s6,-1611
    8000053c:	09d00713          	li	a4,157
    80000540:	0052f433          	and	s0,t0,t0
    80000544:	40efdfb3          	sra	t6,t6,a4
    80000548:	00e91133          	sll	sp,s2,a4
    8000054c:	416b0a33          	sub	s4,s6,s6
    80000550:	ec200793          	li	a5,-318
    80000554:	01b2eab3          	or	s5,t0,s11
    80000558:	2fa00d13          	li	s10,762
    8000055c:	3dd3ce63          	blt	t2,t4,80000938 <crash_forward>
    80000560:	018c023b          	addw	tp,s8,s8
    80000564:	02fe56b3          	divu	a3,t3,a5
    80000568:	00002097          	auipc	ra,0x2
    8000056c:	b1008093          	addi	ra,ra,-1264 # 80002078 <reg_x15_init>
    80000570:	58009983          	lh	s3,1408(ra)
    80000574:	27700813          	li	a6,631
    80000578:	410d5333          	sra	t1,s10,a6
    8000057c:	99600293          	li	t0,-1642
    80000580:	cf700d13          	li	s10,-777
    80000584:	00002917          	auipc	s2,0x2
    80000588:	1fe90913          	addi	s2,s2,510 # 80002782 <_end+0x172>
    8000058c:	0052edb3          	or	s11,t0,t0
    80000590:	002ebb33          	sltu	s6,t4,sp
    80000594:	00002e97          	auipc	t4,0x2
    80000598:	81de8e93          	addi	t4,t4,-2019 # 80001db1 <fromhost+0xd71>
    8000059c:	03ad4633          	div	a2,s10,s10
    800005a0:	bf000593          	li	a1,-1040
    800005a4:	408c54b3          	sra	s1,s8,s0
    800005a8:	00940e33          	add	t3,s0,s1
    800005ac:	6a000613          	li	a2,1696
    800005b0:	c5900293          	li	t0,-935
    800005b4:	ac296383          	lwu	t2,-1342(s2)
    800005b8:	035a84bb          	mulw	s1,s5,s5
    800005bc:	0034cd33          	xor	s10,s1,gp
    800005c0:	23d00413          	li	s0,573
    800005c4:	00567b33          	and	s6,a2,t0
    800005c8:	65f00213          	li	tp,1631
    800005cc:	00b58133          	add	sp,a1,a1
    800005d0:	9f000813          	li	a6,-1552
    800005d4:	40845c3b          	sraw	s8,s0,s0
    800005d8:	62debfa3          	sd	a3,1599(t4)
    800005dc:	f6a00713          	li	a4,-150
    800005e0:	6ec00d13          	li	s10,1772
    800005e4:	00fb04b3          	add	s1,s6,a5
    800005e8:	b8e00093          	li	ra,-1138
    800005ec:	038c5b33          	divu	s6,s8,s8
    800005f0:	fd400f93          	li	t6,-44
    800005f4:	03ad1433          	mulh	s0,s10,s10
    800005f8:	00040613          	mv	a2,s0
    800005fc:	03f846b3          	div	a3,a6,t6
    80000600:	00060113          	mv	sp,a2
    80000604:	02141db3          	mulh	s11,s0,ra
    80000608:	00e269b3          	or	s3,tp,a4
    8000060c:	26e00b13          	li	s6,622
    80000610:	400603bb          	subw	t2,a2,zero
    80000614:	00002a97          	auipc	s5,0x2
    80000618:	f3ca8a93          	addi	s5,s5,-196 # 80002550 <test_memory+0x350>
    8000061c:	a2900f13          	li	t5,-1495
    80000620:	9d200493          	li	s1,-1582
    80000624:	2b500b93          	li	s7,693
    80000628:	6fb00813          	li	a6,1787
    8000062c:	df400293          	li	t0,-524
    80000630:	71e00593          	li	a1,1822
    80000634:	cc400913          	li	s2,-828
    80000638:	10c00693          	li	a3,268
    8000063c:	f2e00c13          	li	s8,-210
    80000640:	cf400793          	li	a5,-780
    80000644:	03ef78b3          	remu	a7,t5,t5
    80000648:	a7600a13          	li	s4,-1418
    8000064c:	0294bfb3          	mulhu	t6,s1,s1
    80000650:	4b600413          	li	s0,1206
    80000654:	0064d63b          	srlw	a2,s1,t1
    80000658:	b7c00d93          	li	s11,-1156
    8000065c:	0088573b          	srlw	a4,a6,s0
    80000660:	03895e33          	divu	t3,s2,s8
    80000664:	c5bd8d13          	addi	s10,s11,-933
    80000668:	037bd1bb          	divuw	gp,s7,s7
    8000066c:	d28a9123          	sh	s0,-734(s5)
    80000670:	2e000513          	li	a0,736
    80000674:	00529633          	sll	a2,t0,t0
    80000678:	b8600113          	li	sp,-1146
    8000067c:	00f2ceb3          	xor	t4,t0,a5
    80000680:	10300e13          	li	t3,259
    80000684:	40aa5cbb          	sraw	s9,s4,a0
    80000688:	2cc00213          	li	tp,716
    8000068c:	03e76db3          	rem	s11,a4,t5
    80000690:	3cb00413          	li	s0,971
    80000694:	81800a93          	li	s5,-2024
    80000698:	00db49b3          	xor	s3,s6,a3
    8000069c:	40840d33          	sub	s10,s0,s0
    800006a0:	8f000193          	li	gp,-1808
    800006a4:	00e992b3          	sll	t0,s3,a4
    800006a8:	00634533          	xor	a0,t1,t1
    800006ac:	004113bb          	sllw	t2,sp,tp
    800006b0:	8f100a13          	li	s4,-1807
    800006b4:	189e0493          	addi	s1,t3,393
    800006b8:	011059b3          	srl	s3,zero,a7
    800006bc:	00100913          	li	s2,1
    800006c0:	00b0d33b          	srlw	t1,ra,a1
    800006c4:	014a42b3          	xor	t0,s4,s4
    800006c8:	02f6d733          	divu	a4,a3,a5
    800006cc:	403ad833          	sra	a6,s5,gp
    800006d0:	03f91913          	slli	s2,s2,0x3f
    800006d4:	418c5cbb          	sraw	s9,s8,s8
    800006d8:	a8700593          	li	a1,-1401
    800006dc:	d0a58093          	addi	ra,a1,-758
    800006e0:	d0e00a13          	li	s4,-754
    800006e4:	0374ddb3          	divu	s11,s1,s7
    800006e8:	50a00393          	li	t2,1290
    800006ec:	ca500493          	li	s1,-859
    800006f0:	d3f00313          	li	t1,-705
    800006f4:	ca400813          	li	a6,-860
    800006f8:	01082733          	slt	a4,a6,a6
    800006fc:	28c00993          	li	s3,652
    80000700:	bec00f93          	li	t6,-1044
    80000704:	0294c1b3          	div	gp,s1,s1
    80000708:	40ce023b          	subw	tp,t3,a2
    8000070c:	a1500893          	li	a7,-1515
    80000710:	bc000113          	li	sp,-1088
    80000714:	e3a00c13          	li	s8,-454
    80000718:	c9510513          	addi	a0,sp,-875
    8000071c:	fff00793          	li	a5,-1
    80000720:	018c6bb3          	or	s7,s8,s8
    80000724:	54500813          	li	a6,1349
    80000728:	0127c7b3          	xor	a5,a5,s2
    8000072c:	76000a93          	li	s5,1888
    80000730:	026a62bb          	remw	t0,s4,t1
    80000734:	cfc00d93          	li	s11,-772
    80000738:	24a80513          	addi	a0,a6,586
    8000073c:	4134de33          	sra	t3,s1,s3
    80000740:	0073843b          	addw	s0,t2,t2
    80000744:	030820b3          	mulhsu	ra,a6,a6
    80000748:	18900113          	li	sp,393
    8000074c:	14a00713          	li	a4,330
    80000750:	031fff33          	remu	t5,t6,a7
    80000754:	0139d1b3          	srl	gp,s3,s3
    80000758:	40ea8cbb          	subw	s9,s5,a4
    8000075c:	022d95b3          	mulh	a1,s11,sp
    80000760:	e8500d13          	li	s10,-379
    80000764:	91300b13          	li	s6,-1773
    80000768:	016d06bb          	addw	a3,s10,s6
    8000076c:	00fd7633          	and	a2,s10,a5
    80000770:	0123eeb3          	or	t4,t2,s2
    80000774:	03fb683b          	remw	a6,s6,t6
    80000778:	c1900f93          	li	t6,-999
    8000077c:	5c500c13          	li	s8,1477
    80000780:	034a55b3          	divu	a1,s4,s4
    80000784:	03d66833          	rem	a6,a2,t4
    80000788:	00002217          	auipc	tp,0x2
    8000078c:	f9420213          	addi	tp,tp,-108 # 8000271c <_end+0x10c>
    80000790:	eac21603          	lh	a2,-340(tp) # fffffffffffffeac <__global_pointer$+0xffffffff7fffd09c>
    80000794:	0398cd3b          	divw	s10,a7,s9
    80000798:	030964b3          	rem	s1,s2,a6
    8000079c:	41ffd933          	sra	s2,t6,t6
    800007a0:	76400a13          	li	s4,1892
    800007a4:	00001417          	auipc	s0,0x1
    800007a8:	38240413          	addi	s0,s0,898 # 80001b26 <fromhost+0xae6>
    800007ac:	ba600893          	li	a7,-1114
    800007b0:	41900e93          	li	t4,1049
    800007b4:	6da00393          	li	t2,1754
    800007b8:	91900b93          	li	s7,-1767
    800007bc:	cf500113          	li	sp,-779
    800007c0:	41da0cbb          	subw	s9,s4,t4
    800007c4:	23900f13          	li	t5,569
    800007c8:	02f7b833          	mulhu	a6,a5,a5
    800007cc:	00100d13          	li	s10,1
    800007d0:	03fd1d13          	slli	s10,s10,0x3f
    800007d4:	49d38313          	addi	t1,t2,1181
    800007d8:	fff00613          	li	a2,-1
    800007dc:	011fc2b3          	xor	t0,t6,a7
    800007e0:	03294b33          	div	s6,s2,s2
    800007e4:	00100693          	li	a3,1
    800007e8:	9a0016e3          	bnez	zero,80000194 <crash_backward>
    800007ec:	037c6dbb          	remw	s11,s8,s7
    800007f0:	0125a5b3          	slt	a1,a1,s2
    800007f4:	79c43923          	sd	t3,1938(s0)
    800007f8:	03f69693          	slli	a3,a3,0x3f
    800007fc:	fff00513          	li	a0,-1
    80000800:	83600e13          	li	t3,-1994
    80000804:	01a64633          	xor	a2,a2,s10
    80000808:	00c07233          	and	tp,zero,a2
    8000080c:	00d54533          	xor	a0,a0,a3
    80000810:	03ef39b3          	mulhu	s3,t5,t5
    80000814:	00a4f7b3          	and	a5,s1,a0
    80000818:	022160bb          	remw	ra,sp,sp
    8000081c:	01abe933          	or	s2,s7,s10
    80000820:	5c42a093          	slti	ra,t0,1476
    80000824:	037ba833          	mulhsu	a6,s7,s7
    80000828:	00d7e733          	or	a4,a5,a3
    8000082c:	2e700113          	li	sp,743
    80000830:	02c612b3          	mulh	t0,a2,a2
    80000834:	f3700c93          	li	s9,-201
    80000838:	2af00413          	li	s0,687
    8000083c:	02817333          	remu	t1,sp,s0
    80000840:	02c7b3b3          	mulhu	t2,a5,a2
    80000844:	23300493          	li	s1,563
    80000848:	02b5da3b          	divuw	s4,a1,a1
    8000084c:	b5400f13          	li	t5,-1196
    80000850:	00100913          	li	s2,1
    80000854:	2be48593          	addi	a1,s1,702
    80000858:	03f91913          	slli	s2,s2,0x3f
    8000085c:	60e00b13          	li	s6,1550
    80000860:	fcb00993          	li	s3,-53
    80000864:	03a2dbb3          	divu	s7,t0,s10
    80000868:	df2f0d93          	addi	s11,t5,-526
    8000086c:	036b5c33          	divu	s8,s6,s6
    80000870:	013c88b3          	add	a7,s9,s3
    80000874:	fff00813          	li	a6,-1
    80000878:	01284833          	xor	a6,a6,s2
    8000087c:	0100f633          	and	a2,ra,a6
    80000880:	9ac00a93          	li	s5,-1620
    80000884:	0124e233          	or	tp,s1,s2
    80000888:	13500f93          	li	t6,309
    8000088c:	015e51bb          	srlw	gp,t3,s5
    80000890:	5b3f8e93          	addi	t4,t6,1459
    80000894:	0040006f          	j	80000898 <reg_dump>

0000000080000898 <reg_dump>:
    80000898:	00002097          	auipc	ra,0x2
    8000089c:	d6808093          	addi	ra,ra,-664 # 80002600 <loop_count>
    800008a0:	0000a103          	lw	sp,0(ra)
    800008a4:	fff10193          	addi	gp,sp,-1
    800008a8:	0030a023          	sw	gp,0(ra)
    800008ac:	980118e3          	bnez	sp,8000023c <pseg_0>
    800008b0:	00002097          	auipc	ra,0x2
    800008b4:	85008093          	addi	ra,ra,-1968 # 80002100 <begin_signature>
    800008b8:	0000b023          	sd	zero,0(ra)
    800008bc:	0020b823          	sd	sp,16(ra)
    800008c0:	0030bc23          	sd	gp,24(ra)
    800008c4:	0240b023          	sd	tp,32(ra)
    800008c8:	0250b423          	sd	t0,40(ra)
    800008cc:	0260b823          	sd	t1,48(ra)
    800008d0:	0270bc23          	sd	t2,56(ra)
    800008d4:	0480b023          	sd	s0,64(ra)
    800008d8:	0490b423          	sd	s1,72(ra)
    800008dc:	04a0b823          	sd	a0,80(ra)
    800008e0:	04b0bc23          	sd	a1,88(ra)
    800008e4:	06c0b023          	sd	a2,96(ra)
    800008e8:	06d0b423          	sd	a3,104(ra)
    800008ec:	06e0b823          	sd	a4,112(ra)
    800008f0:	06f0bc23          	sd	a5,120(ra)
    800008f4:	0900b023          	sd	a6,128(ra)
    800008f8:	0910b423          	sd	a7,136(ra)
    800008fc:	0920b823          	sd	s2,144(ra)
    80000900:	0930bc23          	sd	s3,152(ra)
    80000904:	0b40b023          	sd	s4,160(ra)
    80000908:	0b50b423          	sd	s5,168(ra)
    8000090c:	0b60b823          	sd	s6,176(ra)
    80000910:	0b70bc23          	sd	s7,184(ra)
    80000914:	0d80b023          	sd	s8,192(ra)
    80000918:	0d90b423          	sd	s9,200(ra)
    8000091c:	0da0b823          	sd	s10,208(ra)
    80000920:	0db0bc23          	sd	s11,216(ra)
    80000924:	0fc0b023          	sd	t3,224(ra)
    80000928:	0fd0b423          	sd	t4,232(ra)
    8000092c:	0fe0b823          	sd	t5,240(ra)
    80000930:	0ff0bc23          	sd	t6,248(ra)
    80000934:	0200006f          	j	80000954 <test_end>

0000000080000938 <crash_forward>:
    80000938:	0ff0000f          	fence
    8000093c:	00018063          	beqz	gp,8000093c <crash_forward+0x4>
    80000940:	00119193          	slli	gp,gp,0x1
    80000944:	0011e193          	ori	gp,gp,1
    80000948:	05d00893          	li	a7,93
    8000094c:	00018513          	mv	a0,gp
    80000950:	00000073          	ecall

0000000080000954 <test_end>:
    80000954:	0ff0000f          	fence
    80000958:	00100193          	li	gp,1
    8000095c:	05d00893          	li	a7,93
    80000960:	00000513          	li	a0,0
    80000964:	00000073          	ecall
    80000968:	c0001073          	unimp
	...

Disassembly of section .tohost:

0000000080001000 <tohost>:
	...

0000000080001040 <fromhost>:
	...

Disassembly of section .data:

0000000080002000 <hidden_data>:
    80002000:	ddb6                	sw	a3,248(sp)
    80002002:	f69a2613          	slti	a2,s4,-151
    80002006:	c701                	beqz	a4,8000200e <reg_x1_init+0x6>

0000000080002008 <reg_x1_init>:
    80002008:	0008                	0x8
    8000200a:	0000                	unimp
    8000200c:	0000                	unimp
	...

0000000080002010 <reg_x2_init>:
    80002010:	8009                	srli	s0,s0,0x2
    80002012:	ffff                	0xffff
    80002014:	ffff                	0xffff
    80002016:	ffff                	0xffff

0000000080002018 <reg_x3_init>:
    80002018:	09d8526b          	0x9d8526b
    8000201c:	65aa                	ld	a1,136(sp)
    8000201e:	56dc                	lw	a5,44(a3)

0000000080002020 <reg_x4_init>:
    80002020:	0917acd3          	fsub.s	fs9,fa5,fa7,rdn
    80002024:	06d6                	slli	a3,a3,0x15
    80002026:	07a6                	slli	a5,a5,0x9

0000000080002028 <reg_x5_init>:
    80002028:	6965                	lui	s2,0x19
    8000202a:	233a                	fld	ft6,392(sp)
    8000202c:	d1b69487          	0xd1b69487

0000000080002030 <reg_x6_init>:
    80002030:	e86339a3          	sd	t1,-365(t1)
    80002034:	e6a6ac9b          	0xe6a6ac9b

0000000080002038 <reg_x7_init>:
    80002038:	57c4                	lw	s1,44(a5)
    8000203a:	905d                	srli	s0,s0,0x37
    8000203c:	ce0c                	sw	a1,24(a2)
    8000203e:	cd9e                	sw	t2,216(sp)

0000000080002040 <reg_x8_init>:
    80002040:	389d                	addiw	a7,a7,-25
    80002042:	cc08                	sw	a0,24(s0)
    80002044:	16b6                	slli	a3,a3,0x2d
    80002046:	0518                	addi	a4,sp,640

0000000080002048 <reg_x9_init>:
    80002048:	ffff                	0xffff
    8000204a:	ffff                	0xffff
    8000204c:	ffff                	0xffff
    8000204e:	ffff                	0xffff

0000000080002050 <reg_x10_init>:
    80002050:	9c54                	0x9c54
    80002052:	00ad                	addi	ra,ra,11
    80002054:	bab1                	j	800019b0 <fromhost+0x970>
    80002056:	f4b6                	sd	a3,104(sp)

0000000080002058 <reg_x11_init>:
    80002058:	44eadc6b          	0x44eadc6b
    8000205c:	de6e                	sw	s11,60(sp)
    8000205e:	4eee                	lw	t4,216(sp)

0000000080002060 <reg_x12_init>:
    80002060:	0cdc                	addi	a5,sp,596
    80002062:	2e01                	sext.w	t3,t3
    80002064:	fb28                	sd	a0,112(a4)
    80002066:	8fd9                	or	a5,a5,a4

0000000080002068 <reg_x13_init>:
    80002068:	b2ca                	fsd	fs2,352(sp)
    8000206a:	582d006f          	j	800d25ec <__global_pointer$+0xcf7dc>
    8000206e:	          	0x6f322ab3

0000000080002070 <reg_x14_init>:
    80002070:	6f32                	ld	t5,264(sp)
    80002072:	55c1                	li	a1,-16
    80002074:	5e68                	lw	a0,124(a2)
    80002076:	          	0xa7ec73bb

0000000080002078 <reg_x15_init>:
    80002078:	a7ec                	fsd	fa1,200(a5)
    8000207a:	1a436707          	0x1a436707
    8000207e:	          	lh	s9,0(zero) # 0 <_start-0x80000000>

0000000080002080 <reg_x16_init>:
	...

0000000080002088 <reg_x17_init>:
    80002088:	00000003          	lb	zero,0(zero) # 0 <_start-0x80000000>
    8000208c:	0000                	unimp
    8000208e:	0800                	addi	s0,sp,16

0000000080002090 <reg_x18_init>:
    80002090:	c4b12333          	0xc4b12333
    80002094:	1d92642f          	0x1d92642f

0000000080002098 <reg_x19_init>:
    80002098:	2ca7fea3          	0x2ca7fea3
    8000209c:	89ed42c3          	fmadd.s	ft5,fs10,ft10,fa7,rmm

00000000800020a0 <reg_x20_init>:
    800020a0:	d9da472f          	0xd9da472f
    800020a4:	1432                	slli	s0,s0,0x2c
    800020a6:	03f6                	slli	t2,t2,0x1d

00000000800020a8 <reg_x21_init>:
    800020a8:	fffffff7          	0xfffffff7
    800020ac:	ffff                	0xffff
    800020ae:	ffff                	0xffff

00000000800020b0 <reg_x22_init>:
    800020b0:	ff84                	sd	s1,56(a5)
    800020b2:	ffff                	0xffff
    800020b4:	ffff                	0xffff
    800020b6:	ffff                	0xffff

00000000800020b8 <reg_x23_init>:
    800020b8:	9f25                	addw	a4,a4,s1
    800020ba:	da32                	sw	a2,52(sp)
    800020bc:	6f4e                	ld	t5,208(sp)
    800020be:	          	0x2aab

00000000800020c0 <reg_x24_init>:
	...

00000000800020c8 <reg_x25_init>:
    800020c8:	8008                	0x8008
    800020ca:	ffff                	0xffff
    800020cc:	ffff                	0xffff
    800020ce:	ffff                	0xffff

00000000800020d0 <reg_x26_init>:
    800020d0:	1df4                	addi	a3,sp,764
    800020d2:	14514aa3          	0x14514aa3
    800020d6:	2a88                	fld	fa0,16(a3)

00000000800020d8 <reg_x27_init>:
    800020d8:	ffff                	0xffff
    800020da:	ffff                	0xffff
    800020dc:	ffff                	0xffff
    800020de:	ffff                	0xffff

00000000800020e0 <reg_x28_init>:
    800020e0:	fffd                	bnez	a5,800020de <reg_x27_init+0x6>
    800020e2:	ffff                	0xffff
    800020e4:	ffff                	0xffff
    800020e6:	ffff                	0xffff

00000000800020e8 <reg_x29_init>:
    800020e8:	19f1                	addi	s3,s3,-4
    800020ea:	1bfa                	slli	s7,s7,0x3e
    800020ec:	3514                	fld	fa3,40(a0)
    800020ee:	1afe                	slli	s5,s5,0x3f

00000000800020f0 <reg_x30_init>:
    800020f0:	ffff                	0xffff
    800020f2:	ffff                	0xffff
    800020f4:	ffff                	0xffff
    800020f6:	ffff                	0xffff

00000000800020f8 <reg_x31_init>:
    800020f8:	8005                	srli	s0,s0,0x1
    800020fa:	ffff                	0xffff
    800020fc:	ffff                	0xffff
    800020fe:	ffff                	0xffff

0000000080002100 <begin_signature>:
    80002100:	f03d                	bnez	s0,80002066 <reg_x12_init+0x6>
    80002102:	4078                	lw	a4,68(s0)
    80002104:	3904                	fld	fs1,48(a0)
    80002106:	cd5a                	sw	s6,152(sp)

0000000080002108 <reg_x1_output>:
    80002108:	ef20                	sd	s0,88(a4)
    8000210a:	ac5e                	fsd	fs7,24(sp)
    8000210c:	9fe0                	0x9fe0
    8000210e:	010c                	addi	a1,sp,128

0000000080002110 <reg_x2_output>:
    80002110:	61fe                	ld	gp,472(sp)
    80002112:	05e9                	addi	a1,a1,26
    80002114:	f6c0                	sd	s0,168(a3)
    80002116:	d98d                	beqz	a1,80002048 <reg_x9_init>

0000000080002118 <reg_x3_output>:
    80002118:	46df13a3          	sh	a3,1127(t5)
    8000211c:	5d86                	lw	s11,96(sp)
    8000211e:	adec                	fsd	fa1,216(a1)

0000000080002120 <reg_x4_output>:
    80002120:	533d                	li	t1,-17
    80002122:	db7f41d3          	0xdb7f41d3
    80002126:	a5aa                	fsd	fa0,200(sp)

0000000080002128 <reg_x5_output>:
    80002128:	271f 4c8b cd57      	0xcd574c8b271f
    8000212e:	ebca                	sd	s2,464(sp)

0000000080002130 <reg_x6_output>:
    80002130:	18e67f8b          	0x18e67f8b
    80002134:	ea66                	sd	s9,272(sp)
    80002136:	8f91                	sub	a5,a5,a2

0000000080002138 <reg_x7_output>:
    80002138:	442a                	lw	s0,136(sp)
    8000213a:	95ce                	add	a1,a1,s3
    8000213c:	30df 14f3       	0x2dd914f330df

0000000080002140 <reg_x8_output>:
    80002140:	2dd9                	addiw	s11,s11,22
    80002142:	a98a                	fsd	ft2,208(sp)
    80002144:	f4ee                	sd	s11,104(sp)
    80002146:	7a2d                	lui	s4,0xfffeb

0000000080002148 <reg_x9_output>:
    80002148:	67ed                	lui	a5,0x1b
    8000214a:	cf85                	beqz	a5,80002182 <reg_x16_output+0x2>
    8000214c:	b4b9                	j	80001b9a <fromhost+0xb5a>
    8000214e:	135d                	addi	t1,t1,-9

0000000080002150 <reg_x10_output>:
    80002150:	3f2a                	fld	ft10,168(sp)
    80002152:	bf2d                	j	8000208c <reg_x17_init+0x4>
    80002154:	c3ea                	sw	s10,196(sp)
    80002156:	21dc                	fld	fa5,128(a1)

0000000080002158 <reg_x11_output>:
    80002158:	81f5                	srli	a1,a1,0x1d
    8000215a:	3ae8                	fld	fa0,240(a3)
    8000215c:	6b31                	lui	s6,0xc
    8000215e:	          	0xf48a4ceb

0000000080002160 <reg_x12_output>:
    80002160:	f48a                	sd	sp,104(sp)
    80002162:	4cc9a2fb          	0x4cc9a2fb
    80002166:	          	0x2d46a653

0000000080002168 <reg_x13_output>:
    80002168:	2d46                	fld	fs10,80(sp)
    8000216a:	2d54                	fld	fa3,152(a0)
    8000216c:	e594cd27          	fsq	fs9,-422(s1)

0000000080002170 <reg_x14_output>:
    80002170:	a03e                	fsd	fa5,0(sp)
    80002172:	7719de57          	0x7719de57
    80002176:	2639                	addiw	a2,a2,14

0000000080002178 <reg_x15_output>:
    80002178:	66b6                	ld	a3,328(sp)
    8000217a:	83cd                	srli	a5,a5,0x13
    8000217c:	e536                	sd	a3,136(sp)
    8000217e:	8984                	0x8984

0000000080002180 <reg_x16_output>:
    80002180:	b63c                	fsd	fa5,104(a2)
    80002182:	364d307b          	0x364d307b
    80002186:	317e                	fld	ft2,504(sp)

0000000080002188 <reg_x17_output>:
    80002188:	91d9d477          	0x91d9d477
    8000218c:	891c                	0x891c
    8000218e:	1419                	addi	s0,s0,-26

0000000080002190 <reg_x18_output>:
    80002190:	efdd                	bnez	a5,8000224e <test_memory+0x4e>
    80002192:	df7e                	sw	t6,188(sp)
    80002194:	fbbd                	bnez	a5,8000210a <reg_x1_output+0x2>
    80002196:	202c                	fld	fa1,64(s0)

0000000080002198 <reg_x19_output>:
    80002198:	72f4                	ld	a3,224(a3)
    8000219a:	59dc                	lw	a5,52(a1)
    8000219c:	4554                	lw	a3,12(a0)
    8000219e:	          	bne	zero,a3,80002908 <_end+0x2f8>

00000000800021a0 <reg_x20_output>:
    800021a0:	76d0                	ld	a2,168(a3)
    800021a2:	5496                	lw	s1,100(sp)
    800021a4:	c4f6                	sw	t4,72(sp)
    800021a6:	8099                	srli	s1,s1,0x6

00000000800021a8 <reg_x21_output>:
    800021a8:	bae1                	j	80001b80 <fromhost+0xb40>
    800021aa:	deffefcf          	fnmadd.q	ft11,ft11,fa5,fs11,unknown
    800021ae:	e445                	bnez	s0,80002256 <test_memory+0x56>

00000000800021b0 <reg_x22_output>:
    800021b0:	4b52                	lw	s6,20(sp)
    800021b2:	376c                	fld	fa1,232(a4)
    800021b4:	4a2a                	lw	s4,136(sp)
    800021b6:	d149                	beqz	a0,80002138 <reg_x7_output>

00000000800021b8 <reg_x23_output>:
    800021b8:	948d                	srai	s1,s1,0x23
    800021ba:	900df333          	0x900df333
    800021be:	3204                	fld	fs1,32(a2)

00000000800021c0 <reg_x24_output>:
    800021c0:	0bb9599b          	0xbb9599b
    800021c4:	1108                	addi	a0,sp,160
    800021c6:	          	0xac7a5d4f

00000000800021c8 <reg_x25_output>:
    800021c8:	ac7a                	fsd	ft10,24(sp)
    800021ca:	d396                	sw	t0,228(sp)
    800021cc:	6198                	ld	a4,0(a1)
    800021ce:	          	andi	t1,s7,-215

00000000800021d0 <reg_x26_output>:
    800021d0:	7266f29b          	0x7266f29b
    800021d4:	67b2                	ld	a5,264(sp)
    800021d6:	          	0xfd2e1d33

00000000800021d8 <reg_x27_output>:
    800021d8:	fd2e                	sd	a1,184(sp)
    800021da:	488ea987          	flw	fs3,1160(t4)
    800021de:	8ab9                	andi	a3,a3,14

00000000800021e0 <reg_x28_output>:
    800021e0:	9be6                	add	s7,s7,s9
    800021e2:	5382                	lw	t2,32(sp)
    800021e4:	8c0a                	mv	s8,sp
    800021e6:	          	0xa24bff0f

00000000800021e8 <reg_x29_output>:
    800021e8:	7d36a24b          	0x7d36a24b
    800021ec:	e894                	sd	a3,16(s1)
    800021ee:	01a4                	addi	s1,sp,200

00000000800021f0 <reg_x30_output>:
    800021f0:	4b8a6aeb          	0x4b8a6aeb
    800021f4:	8330                	0x8330
    800021f6:	7eae                	ld	t4,232(sp)

00000000800021f8 <reg_x31_output>:
    800021f8:	48dd                	li	a7,23
    800021fa:	2124d9d3          	0x2124d9d3
    800021fe:	5550                	lw	a2,44(a0)

0000000080002200 <test_memory>:
    80002200:	5f6c                	lw	a1,124(a4)
    80002202:	65481c47          	0x65481c47
    80002206:	5665                	li	a2,-7
    80002208:	1a27d0f3          	csrrwi	ra,0x1a2,15
    8000220c:	c900                	sw	s0,16(a0)
    8000220e:	ad2c                	fsd	fa1,88(a0)
    80002210:	712a                	ld	sp,168(sp)
    80002212:	aace                	fsd	fs3,336(sp)
    80002214:	217f                	0x217f
    80002216:	a33e                	fsd	fa5,384(sp)
    80002218:	f470                	sd	a2,232(s0)
    8000221a:	550e                	lw	a0,224(sp)
    8000221c:	2d573bc3          	0x2d573bc3
    80002220:	44df 4898 fe50      	0xfe50489844df
    80002226:	0722b73b          	0x722b73b
    8000222a:	9dd2b0bf bc70cb31 	0xbc70cb319dd2b0bf
    80002232:	e02a                	sd	a0,0(sp)
    80002234:	23315a03          	lhu	s4,563(sp)
    80002238:	f7782413          	slti	s0,a6,-137
    8000223c:	fa7e                	sd	t6,304(sp)
    8000223e:	b114                	fsd	fa3,32(a0)
    80002240:	d662                	sw	s8,44(sp)
    80002242:	cdce                	sw	s3,216(sp)
    80002244:	6f76                	ld	t5,344(sp)
    80002246:	2312                	fld	ft6,256(sp)
    80002248:	5c1f f057 a063      	0xa063f0575c1f
    8000224e:	908d8173          	0x908d8173
    80002252:	1580                	addi	s0,sp,736
    80002254:	2320                	fld	fs0,64(a4)
    80002256:	7429                	lui	s0,0xfffea
    80002258:	b9c6                	fsd	fa7,240(sp)
    8000225a:	7115                	addi	sp,sp,-224
    8000225c:	6012                	0x6012
    8000225e:	e99a                	sd	t1,208(sp)
    80002260:	c210                	sw	a2,0(a2)
    80002262:	9fed                	0x9fed
    80002264:	1c51                	addi	s8,s8,-12
    80002266:	e04a                	sd	s2,0(sp)
    80002268:	a2932e43          	fmadd.d	ft8,ft6,fs1,fs4,rdn
    8000226c:	90ee                	add	ra,ra,s11
    8000226e:	16f4                	addi	a3,sp,876
    80002270:	2085                	addiw	ra,ra,1
    80002272:	bc34                	fsd	fa3,120(s0)
    80002274:	aebe                	fsd	fa5,344(sp)
    80002276:	bbdd246b          	0xbbdd246b
    8000227a:	277a                	fld	fa4,408(sp)
    8000227c:	9191005b          	0x9191005b
    80002280:	e474                	sd	a3,200(s0)
    80002282:	525d                	li	tp,-9
    80002284:	583d                	li	a6,-17
    80002286:	717cc003          	lbu	zero,1815(s9)
    8000228a:	eb4e                	sd	s3,400(sp)
    8000228c:	2f14                	fld	fa3,24(a4)
    8000228e:	e9e4                	sd	s1,208(a1)
    80002290:	c10c                	sw	a1,0(a0)
    80002292:	ae9f d6cb 2596      	0x2596d6cbae9f
    80002298:	0b7e                	slli	s6,s6,0x1f
    8000229a:	5dff                	0x5dff
    8000229c:	80dc                	0x80dc
    8000229e:	60a6                	ld	ra,72(sp)
    800022a0:	3e52230f          	0x3e52230f
    800022a4:	703a1ad7          	0x703a1ad7
    800022a8:	de1c4dcb          	fnmsub.q	fs11,fs8,ft1,fs11,rmm
    800022ac:	4258                	lw	a4,4(a2)
    800022ae:	eb0eec73          	csrrsi	s8,0xeb0,29
    800022b2:	d8ca                	sw	s2,112(sp)
    800022b4:	99b9                	andi	a1,a1,-18
    800022b6:	6b266d83          	lwu	s11,1714(a2)
    800022ba:	7ee8                	ld	a0,248(a3)
    800022bc:	9bb7a93b          	0x9bb7a93b
    800022c0:	16d6                	slli	a3,a3,0x35
    800022c2:	8edc                	0x8edc
    800022c4:	7c14c483          	lbu	s1,1985(s1)
    800022c8:	0dc6                	slli	s11,s11,0x11
    800022ca:	316a                	fld	ft2,184(sp)
    800022cc:	88cf32a3          	sd	a2,-1915(t5)
    800022d0:	0e2a                	slli	t3,t3,0xa
    800022d2:	a6fd7f0f          	0xa6fd7f0f
    800022d6:	7c6c                	ld	a1,248(s0)
    800022d8:	d525                	beqz	a0,80002240 <test_memory+0x40>
    800022da:	753d                	lui	a0,0xfffef
    800022dc:	4c1d03c3          	0x4c1d03c3
    800022e0:	86b1                	srai	a3,a3,0xc
    800022e2:	f2e9c9fb          	0xf2e9c9fb
    800022e6:	2896                	fld	fa7,320(sp)
    800022e8:	00a15d17          	auipc	s10,0xa15
    800022ec:	30c1                	addiw	ra,ra,-16
    800022ee:	d2c8                	sw	a0,36(a3)
    800022f0:	3331                	addiw	t1,t1,-20
    800022f2:	a494                	fsd	fa3,8(s1)
    800022f4:	fb8e                	sd	gp,496(sp)
    800022f6:	67a9                	lui	a5,0xa
    800022f8:	221d                	addiw	tp,tp,7
    800022fa:	0ddf843f b1fdaabb 	0xb1fdaabb0ddf843f
    80002302:	4d32                	lw	s10,12(sp)
    80002304:	6574                	ld	a3,200(a0)
    80002306:	302a                	fld	ft0,168(sp)
    80002308:	d6fa                	sw	t5,108(sp)
    8000230a:	eee09fe3          	bne	ra,a4,80002208 <test_memory+0x8>
    8000230e:	6eac7be3          	bgeu	s8,a0,80003204 <__global_pointer$+0x3f4>
    80002312:	8e6ba6cf          	fnmadd.q	fa3,fs7,ft6,fa7,rdn
    80002316:	ff87e093          	ori	ra,a5,-8
    8000231a:	eeba                	sd	a4,344(sp)
    8000231c:	f8a6                	sd	s1,112(sp)
    8000231e:	6b0b7db7          	lui	s11,0x6b0b7
    80002322:	bb69                	j	800020bc <reg_x23_init+0x4>
    80002324:	f1d1                	bnez	a1,800022a8 <test_memory+0xa8>
    80002326:	e4c37baf          	0xe4c37baf
    8000232a:	7d39                	lui	s10,0xfffee
    8000232c:	e919                	bnez	a0,80002342 <test_memory+0x142>
    8000232e:	14de                	slli	s1,s1,0x37
    80002330:	2354                	fld	fa3,128(a4)
    80002332:	de6d                	beqz	a2,8000232c <test_memory+0x12c>
    80002334:	0d15                	addi	s10,s10,5
    80002336:	4f5d                	li	t5,23
    80002338:	362e                	fld	fa2,232(sp)
    8000233a:	0dbd                	addi	s11,s11,15
    8000233c:	61f8f94b          	fnmsub.s	fs2,fa7,ft11,fa2
    80002340:	019f 8929 8876      	0x88768929019f
    80002346:	5c0a                	lw	s8,160(sp)
    80002348:	ec56                	sd	s5,24(sp)
    8000234a:	ec4e                	sd	s3,24(sp)
    8000234c:	3ddf c5de 1498      	0x1498c5de3ddf
    80002352:	f951                	bnez	a0,800022e6 <test_memory+0xe6>
    80002354:	a810                	fsd	fa2,16(s0)
    80002356:	81fc                	0x81fc
    80002358:	40b1                	li	ra,12
    8000235a:	29a92b4f          	fnmadd.s	fs6,fs2,fs10,ft5,rdn
    8000235e:	3bc9                	addiw	s7,s7,-14
    80002360:	fd71                	bnez	a0,8000233c <test_memory+0x13c>
    80002362:	ab7a                	fsd	ft10,400(sp)
    80002364:	4919                	li	s2,6
    80002366:	7356                	ld	t1,368(sp)
    80002368:	cead                	beqz	a3,800023e2 <test_memory+0x1e2>
    8000236a:	8314                	0x8314
    8000236c:	1691                	addi	a3,a3,-28
    8000236e:	ccd4                	sw	a3,28(s1)
    80002370:	491a                	lw	s2,132(sp)
    80002372:	cc96                	sw	t0,88(sp)
    80002374:	9f6eef67          	0x9f6eef67
    80002378:	3205                	addiw	tp,tp,-31
    8000237a:	9345                	srli	a4,a4,0x31
    8000237c:	f8bc                	sd	a5,112(s1)
    8000237e:	a8af544b          	fnmsub.s	fs0,ft10,fa0,fs5,unknown
    80002382:	ecf4                	sd	a3,216(s1)
    80002384:	a735                	j	80002ab0 <_end+0x4a0>
    80002386:	713d                	addi	sp,sp,-32
    80002388:	b656                	fsd	fs5,296(sp)
    8000238a:	5ee8                	lw	a0,124(a3)
    8000238c:	bfd89fef          	jal	t6,7ff8bf88 <_start-0x74078>
    80002390:	bd32                	fsd	fa2,184(sp)
    80002392:	90b8                	0x90b8
    80002394:	bf25                	j	800022cc <test_memory+0xcc>
    80002396:	07e9                	addi	a5,a5,26
    80002398:	ebf1                	bnez	a5,8000246c <test_memory+0x26c>
    8000239a:	d150                	sw	a2,36(a0)
    8000239c:	2b2a                	fld	fs6,136(sp)
    8000239e:	fb9d                	bnez	a5,800022d4 <test_memory+0xd4>
    800023a0:	6a7a                	ld	s4,408(sp)
    800023a2:	93b9                	srli	a5,a5,0x2e
    800023a4:	9e88                	0x9e88
    800023a6:	021e                	slli	tp,tp,0x7
    800023a8:	35f2                	fld	fa1,312(sp)
    800023aa:	929c4313          	xori	t1,s8,-1751
    800023ae:	c779                	beqz	a4,8000247c <test_memory+0x27c>
    800023b0:	e56a                	sd	s10,136(sp)
    800023b2:	d552                	sw	s4,168(sp)
    800023b4:	3bdd                	addiw	s7,s7,-9
    800023b6:	8ad0                	0x8ad0
    800023b8:	a591                	j	800029fc <_end+0x3ec>
    800023ba:	00d5                	addi	ra,ra,21
    800023bc:	e1c06bb7          	lui	s7,0xe1c06
    800023c0:	f164                	sd	s1,224(a0)
    800023c2:	d27d                	beqz	a2,800023a8 <test_memory+0x1a8>
    800023c4:	d4f1f797          	auipc	a5,0xd4f1f
    800023c8:	b6b8                	fsd	fa4,104(a3)
    800023ca:	02bd                	addi	t0,t0,15
    800023cc:	4ba0                	lw	s0,80(a5)
    800023ce:	c342                	sw	a6,132(sp)
    800023d0:	0100                	addi	s0,sp,128
    800023d2:	fd19                	bnez	a0,800022f0 <test_memory+0xf0>
    800023d4:	e379df23          	0xe379df23
    800023d8:	c1d4                	sw	a3,4(a1)
    800023da:	6835                	lui	a6,0xd
    800023dc:	6bcd                	lui	s7,0x13
    800023de:	bac2                	fsd	fa6,368(sp)
    800023e0:	2df8                	fld	fa4,216(a1)
    800023e2:	f5d6                	sd	s5,232(sp)
    800023e4:	9c29                	addw	s0,s0,a0
    800023e6:	6826                	ld	a6,72(sp)
    800023e8:	11b736ef          	jal	a3,80075d02 <__global_pointer$+0x72ef2>
    800023ec:	74e9                	lui	s1,0xffffa
    800023ee:	90fe                	add	ra,ra,t6
    800023f0:	bdfc3c67          	0xbdfc3c67
    800023f4:	9411                	srai	s0,s0,0x24
    800023f6:	be1e                	fsd	ft7,312(sp)
    800023f8:	f5fe                	sd	t6,232(sp)
    800023fa:	5694                	lw	a3,40(a3)
    800023fc:	93fa                	add	t2,t2,t5
    800023fe:	2cad                	addiw	s9,s9,11
    80002400:	1d32                	slli	s10,s10,0x2c
    80002402:	5e58                	lw	a4,60(a2)
    80002404:	fbc9                	bnez	a5,80002396 <test_memory+0x196>
    80002406:	61e2                	ld	gp,24(sp)
    80002408:	68a25877          	0x68a25877
    8000240c:	3dc5                	addiw	s11,s11,-15
    8000240e:	7d79                	lui	s10,0xffffe
    80002410:	a3c6                	fsd	fa7,448(sp)
    80002412:	f49f e3c3 9e79      	0x9e79e3c3f49f
    80002418:	6048c027          	fsq	ft4,1536(a7)
    8000241c:	4470                	lw	a2,76(s0)
    8000241e:	7834                	ld	a3,112(s0)
    80002420:	1f5d6303          	lwu	t1,501(s10) # ffffffffffffe1f5 <__global_pointer$+0xffffffff7fffb3e5>
    80002424:	8044                	0x8044
    80002426:	945e                	add	s0,s0,s7
    80002428:	bf41                	j	800023b8 <test_memory+0x1b8>
    8000242a:	2266                	fld	ft4,88(sp)
    8000242c:	2369                	addiw	t1,t1,26
    8000242e:	e5773bbb          	0xe5773bbb
    80002432:	1588                	addi	a0,sp,736
    80002434:	31dc                	fld	fa5,160(a1)
    80002436:	2db9e1f7          	0x2db9e1f7
    8000243a:	a371                	j	800029c6 <_end+0x3b6>
    8000243c:	a585                	j	80002a9c <_end+0x48c>
    8000243e:	c732                	sw	a2,140(sp)
    80002440:	896db4cf          	fnmadd.s	fs1,fs11,fs6,fa7,rup
    80002444:	7345122f          	0x7345122f
    80002448:	bfd2                	fsd	fs4,504(sp)
    8000244a:	59ff                	0x59ff
    8000244c:	496e                	lw	s2,216(sp)
    8000244e:	9e08                	0x9e08
    80002450:	e489                	bnez	s1,8000245a <test_memory+0x25a>
    80002452:	a9b6                	fsd	fa3,208(sp)
    80002454:	08fd                	addi	a7,a7,31
    80002456:	bf79                	j	800023f4 <test_memory+0x1f4>
    80002458:	f1f5                	bnez	a1,8000243c <test_memory+0x23c>
    8000245a:	0835b373          	csrrc	t1,0x83,a1
    8000245e:	8e6a                	mv	t3,s10
    80002460:	13ee                	slli	t2,t2,0x3b
    80002462:	fe9c                	sd	a5,56(a3)
    80002464:	ad61                	j	80002afc <_end+0x4ec>
    80002466:	ab56                	fsd	fs5,400(sp)
    80002468:	5dc5                	li	s11,-15
    8000246a:	d902                	sw	zero,176(sp)
    8000246c:	624d                	lui	tp,0x13
    8000246e:	b221                	j	80001d76 <fromhost+0xd36>
    80002470:	8f881b3f 970d7754 	0x970d77548f881b3f
    80002478:	2753cc6f          	jal	s8,8003eeec <__global_pointer$+0x3c0dc>
    8000247c:	d69e                	sw	t2,108(sp)
    8000247e:	d82efa17          	auipc	s4,0xd82ef
    80002482:	2e60                	fld	fs0,216(a2)
    80002484:	0576                	slli	a0,a0,0x1d
    80002486:	c1b5                	beqz	a1,800024ea <test_memory+0x2ea>
    80002488:	9a46                	add	s4,s4,a7
    8000248a:	1874                	addi	a3,sp,60
    8000248c:	d08927eb          	0xd08927eb
    80002490:	2c1acd8f          	0x2c1acd8f
    80002494:	7b0d                	lui	s6,0xfffe3
    80002496:	1c21                	addi	s8,s8,-24
    80002498:	3f8e                	fld	ft11,224(sp)
    8000249a:	8c1e                	mv	s8,t2
    8000249c:	147f                	0x147f
    8000249e:	ef4a                	sd	s2,408(sp)
    800024a0:	3dba8a4f          	0x3dba8a4f
    800024a4:	3a4c                	fld	fa1,176(a2)
    800024a6:	1c91                	addi	s9,s9,-28
    800024a8:	eed01297          	auipc	t0,0xeed01
    800024ac:	6408                	ld	a0,8(s0)
    800024ae:	a4d0                	fsd	fa2,136(s1)
    800024b0:	0ba4                	addi	s1,sp,472
    800024b2:	5491                	li	s1,-28
    800024b4:	e5057ed7          	0xe5057ed7
    800024b8:	970d                	srai	a4,a4,0x23
    800024ba:	a9e9                	j	80002994 <_end+0x384>
    800024bc:	6fc0                	ld	s0,152(a5)
    800024be:	8e86c613          	xori	a2,a3,-1816
    800024c2:	6f9f 9c85 9b2b      	0x9b2b9c856f9f
    800024c8:	ee8e                	sd	gp,344(sp)
    800024ca:	0749                	addi	a4,a4,18
    800024cc:	332a88cf          	fnmadd.d	fa7,fs5,fs2,ft6,rne
    800024d0:	845d                	srai	s0,s0,0x17
    800024d2:	79e2                	ld	s3,56(sp)
    800024d4:	e668                	sd	a0,200(a2)
    800024d6:	b2d4                	fsd	fa3,160(a3)
    800024d8:	3e7d                	addiw	t3,t3,-1
    800024da:	9f1d                	subw	a4,a4,a5
    800024dc:	e0ec                	sd	a1,192(s1)
    800024de:	8300                	0x8300
    800024e0:	990a9efb          	0x990a9efb
    800024e4:	8209                	srli	a2,a2,0x2
    800024e6:	1f15ef57          	0x1f15ef57
    800024ea:	e7ba                	sd	a4,456(sp)
    800024ec:	d94a                	sw	s2,176(sp)
    800024ee:	65cc                	ld	a1,136(a1)
    800024f0:	8d2627cb          	0x8d2627cb
    800024f4:	aaf8                	fsd	fa4,208(a3)
    800024f6:	5512                	lw	a0,36(sp)
    800024f8:	67c1                	lui	a5,0x10
    800024fa:	52fe                	lw	t0,252(sp)
    800024fc:	dbb2                	sw	a2,244(sp)
    800024fe:	0072                	c.slli	zero,0x1c
    80002500:	164a                	slli	a2,a2,0x32
    80002502:	0b2c                	addi	a1,sp,408
    80002504:	2a86                	fld	fs5,64(sp)
    80002506:	3ef5                	addiw	t4,t4,-3
    80002508:	eca9                	bnez	s1,80002562 <test_memory+0x362>
    8000250a:	21eadbbb          	0x21eadbbb
    8000250e:	bada                	fsd	fs6,368(sp)
    80002510:	257d99b7          	lui	s3,0x257d9
    80002514:	07c9                	addi	a5,a5,18
    80002516:	648d                	lui	s1,0x3
    80002518:	0190                	addi	a2,sp,192
    8000251a:	0f6025bb          	0xf6025bb
    8000251e:	2abc                	fld	fa5,80(a3)
    80002520:	0a06                	slli	s4,s4,0x1
    80002522:	a58a                	fsd	ft2,200(sp)
    80002524:	b3e6                	fsd	fs9,480(sp)
    80002526:	d5dc3013          	sltiu	zero,s8,-675
    8000252a:	94e1                	srai	s1,s1,0x38
    8000252c:	41dd0103          	lb	sp,1053(s10)
    80002530:	7419                	lui	s0,0xfffe6
    80002532:	ac0c                	fsd	fa1,24(s0)
    80002534:	3695                	addiw	a3,a3,-27
    80002536:	315a                	fld	ft2,432(sp)
    80002538:	fdf6                	sd	t4,248(sp)
    8000253a:	916c                	0x916c
    8000253c:	2c27b76f          	jal	a4,8007d7fe <__global_pointer$+0x7a9ee>
    80002540:	3532                	fld	fa0,296(sp)
    80002542:	7119                	addi	sp,sp,-128
    80002544:	1ee1                	addi	t4,t4,-8
    80002546:	66ad                	lui	a3,0xb
    80002548:	bdd4                	fsd	fa3,184(a1)
    8000254a:	b116                	fsd	ft5,160(sp)
    8000254c:	bf4d                	j	800024fe <test_memory+0x2fe>
    8000254e:	3612                	fld	fa2,288(sp)
    80002550:	59a2                	lw	s3,40(sp)
    80002552:	b5a5                	j	800023ba <test_memory+0x1ba>
    80002554:	28003c27          	fsd	ft0,664(zero) # 298 <_start-0x7ffffd68>
    80002558:	a4cfe8d3          	0xa4cfe8d3
    8000255c:	7bf9                	lui	s7,0xffffe
    8000255e:	2849                	addiw	a6,a6,18
    80002560:	b2c6                	fsd	fa7,352(sp)
    80002562:	7c98                	ld	a4,56(s1)
    80002564:	a72e636b          	0xa72e636b
    80002568:	6ac9                	lui	s5,0x12
    8000256a:	a186                	fsd	ft1,192(sp)
    8000256c:	b864                	fsd	fs1,240(s0)
    8000256e:	2908                	fld	fa0,16(a0)
    80002570:	3d16d833          	0x3d16d833
    80002574:	a219c4c7          	fmsub.d	fs1,fs3,ft1,fs4,rmm
    80002578:	ce5a                	sw	s6,28(sp)
    8000257a:	dda2                	sw	s0,248(sp)
    8000257c:	e23c                	sd	a5,64(a2)
    8000257e:	f038                	sd	a4,96(s0)
    80002580:	8830                	0x8830
    80002582:	b1ba                	fsd	fa4,224(sp)
    80002584:	953e                	add	a0,a0,a5
    80002586:	453d                	li	a0,15
    80002588:	548a                	lw	s1,160(sp)
    8000258a:	53499da7          	0x53499da7
    8000258e:	df4e                	sw	s3,188(sp)
    80002590:	1b64                	addi	s1,sp,444
    80002592:	2442                	fld	fs0,16(sp)
    80002594:	8f0a10bf edf07194 	0xedf071948f0a10bf
    8000259c:	4d1a                	lw	s10,132(sp)
    8000259e:	eb9a                	sd	t1,464(sp)
    800025a0:	ffd0                	sd	a2,184(a5)
    800025a2:	01e2                	slli	gp,gp,0x18
    800025a4:	185e                	slli	a6,a6,0x37
    800025a6:	4270                	lw	a2,68(a2)
    800025a8:	c2f9                	beqz	a3,8000266e <_end+0x5e>
    800025aa:	8ae1673f 6efeb73d 	0x6efeb73d8ae1673f
    800025b2:	3d65                	addiw	s10,s10,-7
    800025b4:	a191f0e3          	bgeu	gp,s9,80001fb4 <fromhost+0xf74>
    800025b8:	64b7d2db          	0x64b7d2db
    800025bc:	8d9a                	mv	s11,t1
    800025be:	d37a4c97          	auipc	s9,0xd37a4
    800025c2:	9888                	0x9888
    800025c4:	e589                	bnez	a1,800025ce <test_memory+0x3ce>
    800025c6:	84e2                	mv	s1,s8
    800025c8:	3c8a                	fld	fs9,160(sp)
    800025ca:	a580                	fsd	fs0,8(a1)
    800025cc:	0670                	addi	a2,sp,780
    800025ce:	b01c                	fsd	fa5,32(s0)
    800025d0:	9181                	srli	a1,a1,0x20
    800025d2:	2144                	fld	fs1,128(a0)
    800025d4:	b757d307          	0xb757d307
    800025d8:	065f 07af 0364      	0x36407af065f
    800025de:	872a                	mv	a4,a0
    800025e0:	26f8                	fld	fa4,200(a3)
    800025e2:	b880                	fsd	fs0,48(s1)
    800025e4:	deca                	sw	s2,124(sp)
    800025e6:	d9e6                	sw	s9,240(sp)
    800025e8:	44c9                	li	s1,18
    800025ea:	868d                	srai	a3,a3,0x3
    800025ec:	c226                	sw	s1,4(sp)
    800025ee:	ee16                	sd	t0,280(sp)
    800025f0:	d69f 4218 de85      	0xde854218d69f
    800025f6:	ffb4                	sd	a3,120(a5)
    800025f8:	5aa4                	lw	s1,112(a3)
    800025fa:	e91a                	sd	t1,144(sp)
    800025fc:	4d46                	lw	s10,80(sp)
    800025fe:	ee58                	sd	a4,152(a2)

0000000080002600 <loop_count>:
    80002600:	0040                	addi	s0,sp,4
	...

Disassembly of section .riscv.attributes:

0000000000000000 <.riscv.attributes>:
   0:	1e41                	addi	t3,t3,-16
   2:	0000                	unimp
   4:	7200                	ld	s0,32(a2)
   6:	7369                	lui	t1,0xffffa
   8:	01007663          	bgeu	zero,a6,14 <_start-0x7fffffec>
   c:	0014                	0x14
   e:	0000                	unimp
  10:	7205                	lui	tp,0xfffe1
  12:	3676                	fld	fa2,376(sp)
  14:	6934                	ld	a3,80(a0)
  16:	7032                	0x7032
  18:	5f30                	lw	a2,120(a4)
  1a:	326d                	addiw	tp,tp,-5
  1c:	3070                	fld	fa2,224(s0)
	...
