
build/test59:     file format elf64-littleriscv


Disassembly of section .text.init:

0000000080000000 <_start>:
    80000000:	05c0006f          	j	8000005c <reset_vector>

0000000080000004 <trap_vector>:
    80000004:	34202f73          	csrr	t5,mcause
    80000008:	00800f93          	li	t6,8
    8000000c:	03ff0a63          	beq	t5,t6,80000040 <write_tohost>
    80000010:	00900f93          	li	t6,9
    80000014:	03ff0663          	beq	t5,t6,80000040 <write_tohost>
    80000018:	00b00f93          	li	t6,11
    8000001c:	03ff0263          	beq	t5,t6,80000040 <write_tohost>
    80000020:	80000f17          	auipc	t5,0x80000
    80000024:	fe0f0f13          	addi	t5,t5,-32 # 0 <_start-0x80000000>
    80000028:	000f0463          	beqz	t5,80000030 <trap_vector+0x2c>
    8000002c:	000f0067          	jr	t5
    80000030:	34202f73          	csrr	t5,mcause
    80000034:	000f5463          	bgez	t5,8000003c <handle_exception>
    80000038:	0040006f          	j	8000003c <handle_exception>

000000008000003c <handle_exception>:
    8000003c:	5391e193          	ori	gp,gp,1337

0000000080000040 <write_tohost>:
    80000040:	00001f17          	auipc	t5,0x1
    80000044:	fc3f2023          	sw	gp,-64(t5) # 80001000 <tohost>
    80000048:	000902b7          	lui	t0,0x90
    8000004c:	0012829b          	addiw	t0,t0,1
    80000050:	00c29293          	slli	t0,t0,0xc
    80000054:	0002af83          	lw	t6,0(t0) # 90000 <_start-0x7ff70000>
    80000058:	fe9ff06f          	j	80000040 <write_tohost>

000000008000005c <reset_vector>:
    8000005c:	00000093          	li	ra,0
    80000060:	00000113          	li	sp,0
    80000064:	00000193          	li	gp,0
    80000068:	00000213          	li	tp,0
    8000006c:	00000293          	li	t0,0
    80000070:	00000313          	li	t1,0
    80000074:	00000393          	li	t2,0
    80000078:	00000413          	li	s0,0
    8000007c:	00000493          	li	s1,0
    80000080:	00000513          	li	a0,0
    80000084:	00000593          	li	a1,0
    80000088:	00000613          	li	a2,0
    8000008c:	00000693          	li	a3,0
    80000090:	00000713          	li	a4,0
    80000094:	00000793          	li	a5,0
    80000098:	00000813          	li	a6,0
    8000009c:	00000893          	li	a7,0
    800000a0:	00000913          	li	s2,0
    800000a4:	00000993          	li	s3,0
    800000a8:	00000a13          	li	s4,0
    800000ac:	00000a93          	li	s5,0
    800000b0:	00000b13          	li	s6,0
    800000b4:	00000b93          	li	s7,0
    800000b8:	00000c13          	li	s8,0
    800000bc:	00000c93          	li	s9,0
    800000c0:	00000d13          	li	s10,0
    800000c4:	00000d93          	li	s11,0
    800000c8:	00000e13          	li	t3,0
    800000cc:	00000e93          	li	t4,0
    800000d0:	00000f13          	li	t5,0
    800000d4:	00000f93          	li	t6,0
    800000d8:	f1402573          	csrr	a0,mhartid
    800000dc:	00051063          	bnez	a0,800000dc <reset_vector+0x80>
    800000e0:	00000297          	auipc	t0,0x0
    800000e4:	01028293          	addi	t0,t0,16 # 800000f0 <reset_vector+0x94>
    800000e8:	30529073          	csrw	mtvec,t0
    800000ec:	18005073          	csrwi	satp,0
    800000f0:	00000297          	auipc	t0,0x0
    800000f4:	02428293          	addi	t0,t0,36 # 80000114 <reset_vector+0xb8>
    800000f8:	30529073          	csrw	mtvec,t0
    800000fc:	0010029b          	addiw	t0,zero,1
    80000100:	03529293          	slli	t0,t0,0x35
    80000104:	fff28293          	addi	t0,t0,-1
    80000108:	3b029073          	csrw	pmpaddr0,t0
    8000010c:	01f00293          	li	t0,31
    80000110:	3a029073          	csrw	pmpcfg0,t0
    80000114:	30405073          	csrwi	mie,0
    80000118:	00000297          	auipc	t0,0x0
    8000011c:	01428293          	addi	t0,t0,20 # 8000012c <reset_vector+0xd0>
    80000120:	30529073          	csrw	mtvec,t0
    80000124:	30205073          	csrwi	medeleg,0
    80000128:	30305073          	csrwi	mideleg,0
    8000012c:	00000193          	li	gp,0
    80000130:	00000297          	auipc	t0,0x0
    80000134:	ed428293          	addi	t0,t0,-300 # 80000004 <trap_vector>
    80000138:	30529073          	csrw	mtvec,t0
    8000013c:	00100513          	li	a0,1
    80000140:	01f51513          	slli	a0,a0,0x1f
    80000144:	00055c63          	bgez	a0,8000015c <reset_vector+0x100>
    80000148:	0ff0000f          	fence
    8000014c:	00100193          	li	gp,1
    80000150:	05d00893          	li	a7,93
    80000154:	00000513          	li	a0,0
    80000158:	00000073          	ecall
    8000015c:	80000297          	auipc	t0,0x80000
    80000160:	ea428293          	addi	t0,t0,-348 # 0 <_start-0x80000000>
    80000164:	00028a63          	beqz	t0,80000178 <reset_vector+0x11c>
    80000168:	10529073          	csrw	stvec,t0
    8000016c:	0000b2b7          	lui	t0,0xb
    80000170:	1092829b          	addiw	t0,t0,265
    80000174:	30229073          	csrw	medeleg,t0
    80000178:	30005073          	csrwi	mstatus,0
    8000017c:	00000297          	auipc	t0,0x0
    80000180:	01428293          	addi	t0,t0,20 # 80000190 <reset_vector+0x134>
    80000184:	34129073          	csrw	mepc,t0
    80000188:	f1402573          	csrr	a0,mhartid
    8000018c:	30200073          	mret
    80000190:	0200006f          	j	800001b0 <test_start>

0000000080000194 <crash_backward>:
    80000194:	0ff0000f          	fence
    80000198:	00018063          	beqz	gp,80000198 <crash_backward+0x4>
    8000019c:	00119193          	slli	gp,gp,0x1
    800001a0:	0011e193          	ori	gp,gp,1
    800001a4:	05d00893          	li	a7,93
    800001a8:	00018513          	mv	a0,gp
    800001ac:	00000073          	ecall

00000000800001b0 <test_start>:
    800001b0:	00002f97          	auipc	t6,0x2
    800001b4:	e50f8f93          	addi	t6,t6,-432 # 80002000 <hidden_data>
    800001b8:	000fb003          	ld	zero,0(t6)
    800001bc:	008fb083          	ld	ra,8(t6)
    800001c0:	010fb103          	ld	sp,16(t6)
    800001c4:	018fb183          	ld	gp,24(t6)
    800001c8:	020fb203          	ld	tp,32(t6)
    800001cc:	028fb283          	ld	t0,40(t6)
    800001d0:	030fb303          	ld	t1,48(t6)
    800001d4:	038fb383          	ld	t2,56(t6)
    800001d8:	040fb403          	ld	s0,64(t6)
    800001dc:	048fb483          	ld	s1,72(t6)
    800001e0:	050fb503          	ld	a0,80(t6)
    800001e4:	058fb583          	ld	a1,88(t6)
    800001e8:	060fb603          	ld	a2,96(t6)
    800001ec:	068fb683          	ld	a3,104(t6)
    800001f0:	070fb703          	ld	a4,112(t6)
    800001f4:	078fb783          	ld	a5,120(t6)
    800001f8:	080fb803          	ld	a6,128(t6)
    800001fc:	088fb883          	ld	a7,136(t6)
    80000200:	090fb903          	ld	s2,144(t6)
    80000204:	098fb983          	ld	s3,152(t6)
    80000208:	0a0fba03          	ld	s4,160(t6)
    8000020c:	0a8fba83          	ld	s5,168(t6)
    80000210:	0b0fbb03          	ld	s6,176(t6)
    80000214:	0b8fbb83          	ld	s7,184(t6)
    80000218:	0c0fbc03          	ld	s8,192(t6)
    8000021c:	0c8fbc83          	ld	s9,200(t6)
    80000220:	0d0fbd03          	ld	s10,208(t6)
    80000224:	0d8fbd83          	ld	s11,216(t6)
    80000228:	0e0fbe03          	ld	t3,224(t6)
    8000022c:	0e8fbe83          	ld	t4,232(t6)
    80000230:	0f0fbf03          	ld	t5,240(t6)
    80000234:	0f8fbf83          	ld	t6,248(t6)
    80000238:	0040006f          	j	8000023c <pseg_0>

000000008000023c <pseg_0>:
    8000023c:	00006fb3          	or	t6,zero,zero
    80000240:	018c07bb          	addw	a5,s8,s8
    80000244:	06600993          	li	s3,102
    80000248:	034a76bb          	remuw	a3,s4,s4
    8000024c:	00002597          	auipc	a1,0x2
    80000250:	1b858593          	addi	a1,a1,440 # 80002404 <test_memory+0x204>
    80000254:	63300d13          	li	s10,1587
    80000258:	00000293          	li	t0,0
    8000025c:	40b1db9b          	sraiw	s7,gp,0xb
    80000260:	57600e13          	li	t3,1398
    80000264:	00846533          	or	a0,s0,s0
    80000268:	00000e93          	li	t4,0
    8000026c:	00100813          	li	a6,1
    80000270:	00c5543b          	srlw	s0,a0,a2
    80000274:	004241b3          	xor	gp,tp,tp
    80000278:	78c00913          	li	s2,1932
    8000027c:	00002397          	auipc	t2,0x2
    80000280:	47a38393          	addi	t2,t2,1146 # 800026f6 <_end+0xe6>
    80000284:	c4039b03          	lh	s6,-960(t2)
    80000288:	0985ec83          	lwu	s9,152(a1)
    8000028c:	b2500c13          	li	s8,-1243
    80000290:	03be763b          	remuw	a2,t3,s11
    80000294:	69100313          	li	t1,1681
    80000298:	412984b3          	sub	s1,s3,s2
    8000029c:	418d0f3b          	subw	t5,s10,s8
    800002a0:	03f81813          	slli	a6,a6,0x3f
    800002a4:	fff00713          	li	a4,-1
    800002a8:	03ce36b3          	mulhu	a3,t3,t3
    800002ac:	00100113          	li	sp,1
    800002b0:	03f11113          	slli	sp,sp,0x3f
    800002b4:	fff00d93          	li	s11,-1
    800002b8:	002dcdb3          	xor	s11,s11,sp
    800002bc:	01074733          	xor	a4,a4,a6
    800002c0:	00ed70b3          	and	ra,s10,a4
    800002c4:	00632a33          	slt	s4,t1,t1
    800002c8:	01b7f233          	and	tp,a5,s11
    800002cc:	00226ab3          	or	s5,tp,sp
    800002d0:	010768b3          	or	a7,a4,a6
    800002d4:	ec18e0e3          	bltu	a7,ra,80000194 <crash_backward>
    800002d8:	ea4aeee3          	bltu	s5,tp,80000194 <crash_backward>
    800002dc:	00100893          	li	a7,1
    800002e0:	9b800c13          	li	s8,-1608
    800002e4:	00e7ffb3          	and	t6,a5,a4
    800002e8:	00078393          	mv	t2,a5
    800002ec:	01c95793          	srli	a5,s2,0x1c
    800002f0:	0278d733          	divu	a4,a7,t2
    800002f4:	25600193          	li	gp,598
    800002f8:	fcae3913          	sltiu	s2,t3,-54
    800002fc:	022c59b3          	divu	s3,s8,sp
    80000300:	f8900b13          	li	s6,-119
    80000304:	00002617          	auipc	a2,0x2
    80000308:	e6060613          	addi	a2,a2,-416 # 80002164 <reg_x12_output+0x4>
    8000030c:	03f89893          	slli	a7,a7,0x3f
    80000310:	fff00513          	li	a0,-1
    80000314:	25265f03          	lhu	t5,594(a2)
    80000318:	00002a97          	auipc	s5,0x2
    8000031c:	74fa8a93          	addi	s5,s5,1871 # 80002a67 <_end+0x457>
    80000320:	038a4433          	div	s0,s4,s8
    80000324:	02fde333          	rem	t1,s11,a5
    80000328:	a91a86a3          	sb	a7,-1395(s5)
    8000032c:	9f800f93          	li	t6,-1544
    80000330:	00003d97          	auipc	s11,0x3
    80000334:	817d8d93          	addi	s11,s11,-2025 # 80002b47 <_end+0x537>
    80000338:	69d00813          	li	a6,1693
    8000033c:	18100613          	li	a2,385
    80000340:	e6f00493          	li	s1,-401
    80000344:	cb800313          	li	t1,-840
    80000348:	02cfdf3b          	divuw	t5,t6,a2
    8000034c:	00100793          	li	a5,1
    80000350:	03f79793          	slli	a5,a5,0x3f
    80000354:	28c00093          	li	ra,652
    80000358:	02633433          	mulhu	s0,t1,t1
    8000035c:	fff00713          	li	a4,-1
    80000360:	1e600e93          	li	t4,486
    80000364:	029c6cb3          	rem	s9,s8,s1
    80000368:	6d500e13          	li	t3,1749
    8000036c:	0231e6bb          	remw	a3,gp,gp
    80000370:	9a1d8ca3          	sb	ra,-1607(s11)
    80000374:	01154533          	xor	a0,a0,a7
    80000378:	00528333          	add	t1,t0,t0
    8000037c:	00038293          	mv	t0,t2
    80000380:	41085a33          	sra	s4,a6,a6
    80000384:	0357c13b          	divw	sp,a5,s5
    80000388:	c2000d93          	li	s11,-992
    8000038c:	021b0d33          	mul	s10,s6,ra
    80000390:	0071f1b3          	and	gp,gp,t2
    80000394:	a14d8693          	addi	a3,s11,-1516
    80000398:	00af7233          	and	tp,t5,a0
    8000039c:	01cedbbb          	srlw	s7,t4,t3
    800003a0:	00f74733          	xor	a4,a4,a5
    800003a4:	de53e8e3          	bltu	t2,t0,80000194 <crash_backward>
    800003a8:	00e3f933          	and	s2,t2,a4
    800003ac:	00ffe9b3          	or	s3,t6,a5
    800003b0:	0115e5b3          	or	a1,a1,a7
    800003b4:	00100f93          	li	t6,1
    800003b8:	00100a13          	li	s4,1
    800003bc:	03ff9f93          	slli	t6,t6,0x3f
    800003c0:	8a000393          	li	t2,-1888
    800003c4:	03ffdb3b          	divuw	s6,t6,t6
    800003c8:	e0d00093          	li	ra,-499
    800003cc:	03fa1a13          	slli	s4,s4,0x3f
    800003d0:	8cd00c93          	li	s9,-1843
    800003d4:	fff00a93          	li	s5,-1
    800003d8:	daddcee3          	blt	s11,a3,80000194 <crash_backward>
    800003dc:	03dd433b          	divw	t1,s10,t4
    800003e0:	033b4133          	div	sp,s6,s3
    800003e4:	01facab3          	xor	s5,s5,t6
    800003e8:	0210883b          	mulw	a6,ra,ra
    800003ec:	b5f00b13          	li	s6,-1185
    800003f0:	2df00213          	li	tp,735
    800003f4:	0d000593          	li	a1,208
    800003f8:	01587633          	and	a2,a6,s5
    800003fc:	02b248bb          	divw	a7,tp,a1
    80000400:	fff00293          	li	t0,-1
    80000404:	28400d13          	li	s10,644
    80000408:	63200493          	li	s1,1586
    8000040c:	2d500313          	li	t1,725
    80000410:	44200793          	li	a5,1090
    80000414:	03a3fe3b          	remuw	t3,t2,s10
    80000418:	6e800693          	li	a3,1768
    8000041c:	01f66f33          	or	t5,a2,t6
    80000420:	00002b97          	auipc	s7,0x2
    80000424:	0bab8b93          	addi	s7,s7,186 # 800024da <test_memory+0x2da>
    80000428:	1e100713          	li	a4,481
    8000042c:	00f7a8b3          	slt	a7,a5,a5
    80000430:	0039b133          	sltu	sp,s3,gp
    80000434:	de200d93          	li	s11,-542
    80000438:	00424c33          	xor	s8,tp,tp
    8000043c:	40830093          	addi	ra,t1,1032
    80000440:	0142c2b3          	xor	t0,t0,s4
    80000444:	f64b8903          	lb	s2,-156(s7)
    80000448:	0057f1b3          	and	gp,a5,t0
    8000044c:	014a6eb3          	or	t4,s4,s4
    80000450:	036b1533          	mulh	a0,s6,s6
    80000454:	00d6c9b3          	xor	s3,a3,a3
    80000458:	ab000813          	li	a6,-1360
    8000045c:	2c600d13          	li	s10,710
    80000460:	01bd95bb          	sllw	a1,s11,s11
    80000464:	41070233          	sub	tp,a4,a6
    80000468:	4161de33          	sra	t3,gp,s6
    8000046c:	383d0393          	addi	t2,s10,899
    80000470:	57e67263          	bgeu	a2,t5,800009d4 <crash_forward>
    80000474:	029cd433          	divu	s0,s9,s1
    80000478:	d1a3cee3          	blt	t2,s10,80000194 <crash_backward>
    8000047c:	57e00993          	li	s3,1406
    80000480:	00100e13          	li	t3,1
    80000484:	02c676bb          	remuw	a3,a2,a2
    80000488:	03fe1e13          	slli	t3,t3,0x3f
    8000048c:	401a561b          	sraiw	a2,s4,0x1
    80000490:	03bda8b3          	mulhsu	a7,s11,s11
    80000494:	025f8ab3          	mul	s5,t6,t0
    80000498:	fff00b13          	li	s6,-1
    8000049c:	a5400093          	li	ra,-1452
    800004a0:	4010d1bb          	sraw	gp,ra,ra
    800004a4:	3b800a13          	li	s4,952
    800004a8:	75500813          	li	a6,1877
    800004ac:	4109d933          	sra	s2,s3,a6
    800004b0:	f9800313          	li	t1,-104
    800004b4:	c1200493          	li	s1,-1006
    800004b8:	98348113          	addi	sp,s1,-1661
    800004bc:	406a55b3          	sra	a1,s4,t1
    800004c0:	008d921b          	slliw	tp,s11,0x8
    800004c4:	0ef00a13          	li	s4,239
    800004c8:	00d0c633          	xor	a2,ra,a3
    800004cc:	0118bf33          	sltu	t5,a7,a7
    800004d0:	cc0012e3          	bnez	zero,80000194 <crash_backward>
    800004d4:	edf00c13          	li	s8,-289
    800004d8:	00100693          	li	a3,1
    800004dc:	08b00d13          	li	s10,139
    800004e0:	cd400c93          	li	s9,-812
    800004e4:	00003e97          	auipc	t4,0x3
    800004e8:	83de8e93          	addi	t4,t4,-1987 # 80002d21 <_end+0x711>
    800004ec:	79b00793          	li	a5,1947
    800004f0:	f3700293          	li	t0,-201
    800004f4:	03f69693          	slli	a3,a3,0x3f
    800004f8:	025c5833          	divu	a6,s8,t0
    800004fc:	2b100f93          	li	t6,689
    80000500:	fff00313          	li	t1,-1
    80000504:	035ab8b3          	mulhu	a7,s5,s5
    80000508:	034a723b          	remuw	tp,s4,s4
    8000050c:	00f7b533          	sltu	a0,a5,a5
    80000510:	54d00393          	li	t2,1357
    80000514:	df500193          	li	gp,-523
    80000518:	03fcdbb3          	divu	s7,s9,t6
    8000051c:	01cb4b33          	xor	s6,s6,t3
    80000520:	01b789b3          	add	s3,a5,s11
    80000524:	027d743b          	remuw	s0,s10,t2
    80000528:	0162f733          	and	a4,t0,s6
    8000052c:	86de9a83          	lh	s5,-1939(t4)
    80000530:	01c76db3          	or	s11,a4,t3
    80000534:	fd218593          	addi	a1,gp,-46 # 80002de2 <_end+0x7d2>
    80000538:	00d34333          	xor	t1,t1,a3
    8000053c:	23700513          	li	a0,567
    80000540:	02a53d33          	mulhu	s10,a0,a0
    80000544:	006370b3          	and	ra,t1,t1
    80000548:	49b74663          	blt	a4,s11,800009d4 <crash_forward>
    8000054c:	00dd6933          	or	s2,s10,a3
    80000550:	c520c2e3          	blt	ra,s2,80000194 <crash_backward>
    80000554:	d2100693          	li	a3,-735
    80000558:	5e700213          	li	tp,1511
    8000055c:	15020593          	addi	a1,tp,336 # 150 <_start-0x7ffffeb0>
    80000560:	00100513          	li	a0,1
    80000564:	00a55133          	srl	sp,a0,a0
    80000568:	00010c13          	mv	s8,sp
    8000056c:	03f51513          	slli	a0,a0,0x3f
    80000570:	02ff793b          	remuw	s2,t5,a5
    80000574:	45600e13          	li	t3,1110
    80000578:	44004e63          	bltz	zero,800009d4 <crash_forward>
    8000057c:	013c0333          	add	t1,s8,s3
    80000580:	41dd5193          	srai	gp,s10,0x1d
    80000584:	03ce4eb3          	div	t4,t3,t3
    80000588:	01ea88bb          	addw	a7,s5,t5
    8000058c:	02d6c73b          	divw	a4,a3,a3
    80000590:	44b25263          	bge	tp,a1,800009d4 <crash_forward>
    80000594:	fff00f93          	li	t6,-1
    80000598:	53a4c413          	xori	s0,s1,1338
    8000059c:	00002397          	auipc	t2,0x2
    800005a0:	2b638393          	addi	t2,t2,694 # 80002852 <_end+0x242>
    800005a4:	00002297          	auipc	t0,0x2
    800005a8:	4e628293          	addi	t0,t0,1254 # 80002a8a <_end+0x47a>
    800005ac:	000c0a93          	mv	s5,s8
    800005b0:	b423cb83          	lbu	s7,-1214(t2)
    800005b4:	a6329c23          	sh	gp,-1416(t0)
    800005b8:	039cca3b          	divw	s4,s9,s9
    800005bc:	00afcfb3          	xor	t6,t6,a0
    800005c0:	01f5fb33          	and	s6,a1,t6
    800005c4:	037badb3          	mulhsu	s11,s7,s7
    800005c8:	00ac6d33          	or	s10,s8,a0
    800005cc:	5a000793          	li	a5,1440
    800005d0:	0031a333          	slt	t1,gp,gp
    800005d4:	00b59fb3          	sll	t6,a1,a1
    800005d8:	00100893          	li	a7,1
    800005dc:	00100d13          	li	s10,1
    800005e0:	00002297          	auipc	t0,0x2
    800005e4:	46c28293          	addi	t0,t0,1132 # 80002a4c <_end+0x43c>
    800005e8:	03f89893          	slli	a7,a7,0x3f
    800005ec:	36100393          	li	t2,865
    800005f0:	0bb00c13          	li	s8,187
    800005f4:	03fd1d13          	slli	s10,s10,0x3f
    800005f8:	038c5cbb          	divuw	s9,s8,s8
    800005fc:	fff00193          	li	gp,-1
    80000600:	00100f93          	li	t6,1
    80000604:	418c5db3          	sra	s11,s8,s8
    80000608:	ac02e483          	lwu	s1,-1344(t0)
    8000060c:	02dbd0b3          	divu	ra,s7,a3
    80000610:	b4400b13          	li	s6,-1212
    80000614:	f3900b93          	li	s7,-199
    80000618:	036b4433          	div	s0,s6,s6
    8000061c:	fff00213          	li	tp,-1
    80000620:	0111c1b3          	xor	gp,gp,a7
    80000624:	47778993          	addi	s3,a5,1143
    80000628:	01a24233          	xor	tp,tp,s10
    8000062c:	03ff9f93          	slli	t6,t6,0x3f
    80000630:	02de1913          	slli	s2,t3,0x2d
    80000634:	00427533          	and	a0,tp,tp
    80000638:	01a566b3          	or	a3,a0,s10
    8000063c:	40700a13          	li	s4,1031
    80000640:	fff00313          	li	t1,-1
    80000644:	0143f133          	and	sp,t2,s4
    80000648:	3c000c93          	li	s9,960
    8000064c:	e8900913          	li	s2,-375
    80000650:	02b5c4b3          	div	s1,a1,a1
    80000654:	1e400413          	li	s0,484
    80000658:	b2a6dee3          	bge	a3,a0,80000194 <crash_backward>
    8000065c:	83300993          	li	s3,-1997
    80000660:	02844a3b          	divw	s4,s0,s0
    80000664:	02be92b3          	mulh	t0,t4,a1
    80000668:	033c8b33          	mul	s6,s9,s3
    8000066c:	f3800d93          	li	s11,-200
    80000670:	87690093          	addi	ra,s2,-1930
    80000674:	b320d0e3          	bge	ra,s2,80000194 <crash_backward>
    80000678:	cbfd8793          	addi	a5,s11,-833
    8000067c:	74400593          	li	a1,1860
    80000680:	00397f33          	and	t5,s2,gp
    80000684:	1ad00693          	li	a3,429
    80000688:	419ed51b          	sraiw	a0,t4,0x19
    8000068c:	011f6633          	or	a2,t5,a7
    80000690:	df500993          	li	s3,-523
    80000694:	8f800413          	li	s0,-1800
    80000698:	00b58abb          	addw	s5,a1,a1
    8000069c:	33e66c63          	bltu	a2,t5,800009d4 <crash_forward>
    800006a0:	9f200c93          	li	s9,-1550
    800006a4:	4a100293          	li	t0,1185
    800006a8:	0136e933          	or	s2,a3,s3
    800006ac:	d7b00813          	li	a6,-645
    800006b0:	025444b3          	div	s1,s0,t0
    800006b4:	01f34333          	xor	t1,t1,t6
    800006b8:	01400113          	li	sp,20
    800006bc:	03400b13          	li	s6,52
    800006c0:	77b00993          	li	s3,1915
    800006c4:	036b60bb          	remw	ra,s6,s6
    800006c8:	c3900693          	li	a3,-967
    800006cc:	a5c00d13          	li	s10,-1444
    800006d0:	000d0913          	mv	s2,s10
    800006d4:	00090613          	mv	a2,s2
    800006d8:	00002517          	auipc	a0,0x2
    800006dc:	33e50513          	addi	a0,a0,830 # 80002a16 <_end+0x406>
    800006e0:	f4a00413          	li	s0,-182
    800006e4:	00cca5b3          	slt	a1,s9,a2
    800006e8:	025f2f33          	mulhsu	t5,t5,t0
    800006ec:	030ba733          	mulhsu	a4,s7,a6
    800006f0:	034a31b3          	mulhu	gp,s4,s4
    800006f4:	01beca33          	xor	s4,t4,s11
    800006f8:	2cc96e63          	bltu	s2,a2,800009d4 <crash_forward>
    800006fc:	0068feb3          	and	t4,a7,t1
    80000700:	01feee33          	or	t3,t4,t6
    80000704:	00d982b3          	add	t0,s3,a3
    80000708:	03acc23b          	divw	tp,s9,s10
    8000070c:	95e2ba93          	sltiu	s5,t0,-1698
    80000710:	cbd40493          	addi	s1,s0,-835
    80000714:	00002317          	auipc	t1,0x2
    80000718:	12d30313          	addi	t1,t1,301 # 80002841 <_end+0x231>
    8000071c:	3f000f13          	li	t5,1008
    80000720:	00319d3b          	sllw	s10,gp,gp
    80000724:	0132de13          	srli	t3,t0,0x13
    80000728:	03ce7abb          	remuw	s5,t3,t3
    8000072c:	fdb00c13          	li	s8,-37
    80000730:	b2e00293          	li	t0,-1234
    80000734:	35300a13          	li	s4,851
    80000738:	24300c93          	li	s9,579
    8000073c:	c7200213          	li	tp,-910
    80000740:	91253883          	ld	a7,-1774(a0)
    80000744:	7c800d13          	li	s10,1992
    80000748:	00001717          	auipc	a4,0x1
    8000074c:	3f570713          	addi	a4,a4,1013 # 80001b3d <fromhost+0xafd>
    80000750:	7d774903          	lbu	s2,2007(a4)
    80000754:	419f05b3          	sub	a1,t5,s9
    80000758:	2ce00093          	li	ra,718
    8000075c:	03aa4e33          	div	t3,s4,s10
    80000760:	038133b3          	mulhu	t2,sp,s8
    80000764:	9c332f83          	lw	t6,-1597(t1)
    80000768:	0242eb3b          	remw	s6,t0,tp
    8000076c:	0e784993          	xori	s3,a6,231
    80000770:	11a00b93          	li	s7,282
    80000774:	81400793          	li	a5,-2028
    80000778:	00f0c1b3          	xor	gp,ra,a5
    8000077c:	40f7ddbb          	sraw	s11,a5,a5
    80000780:	bc800e93          	li	t4,-1080
    80000784:	3e900693          	li	a3,1001
    80000788:	037b8833          	mul	a6,s7,s7
    8000078c:	40de8633          	sub	a2,t4,a3
    80000790:	00aa57b3          	srl	a5,s4,a0
    80000794:	0261cfbb          	divw	t6,gp,t1
    80000798:	d9000813          	li	a6,-624
    8000079c:	fafecb93          	xori	s7,t4,-81
    800007a0:	bd600213          	li	tp,-1066
    800007a4:	c2400293          	li	t0,-988
    800007a8:	00002197          	auipc	gp,0x2
    800007ac:	ab018193          	addi	gp,gp,-1360 # 80002258 <test_memory+0x58>
    800007b0:	a4900c93          	li	s9,-1463
    800007b4:	78500d93          	li	s11,1925
    800007b8:	4e300713          	li	a4,1251
    800007bc:	03bda8b3          	mulhsu	a7,s11,s11
    800007c0:	01924133          	xor	sp,tp,s9
    800007c4:	58800913          	li	s2,1416
    800007c8:	89700a13          	li	s4,-1897
    800007cc:	025849b3          	div	s3,a6,t0
    800007d0:	c3300293          	li	t0,-973
    800007d4:	fdb00093          	li	ra,-37
    800007d8:	05500813          	li	a6,85
    800007dc:	00002897          	auipc	a7,0x2
    800007e0:	84588893          	addi	a7,a7,-1979 # 80002021 <reg_x4_init+0x1>
    800007e4:	034905bb          	mulw	a1,s2,s4
    800007e8:	00002697          	auipc	a3,0x2
    800007ec:	da668693          	addi	a3,a3,-602 # 8000258e <test_memory+0x38e>
    800007f0:	ae89b793          	sltiu	a5,s3,-1304
    800007f4:	01819e03          	lh	t3,24(gp) # 80002e28 <__global_pointer$+0x18>
    800007f8:	12500313          	li	t1,293
    800007fc:	49f8dc83          	lhu	s9,1183(a7)
    80000800:	00100b93          	li	s7,1
    80000804:	03fb9b93          	slli	s7,s7,0x3f
    80000808:	00002517          	auipc	a0,0x2
    8000080c:	a0550513          	addi	a0,a0,-1531 # 8000220d <test_memory+0xd>
    80000810:	0302e9b3          	rem	s3,t0,a6
    80000814:	fff00113          	li	sp,-1
    80000818:	f1a00c13          	li	s8,-230
    8000081c:	7c200f13          	li	t5,1986
    80000820:	0259cfbb          	divw	t6,s3,t0
    80000824:	01871eb3          	sll	t4,a4,s8
    80000828:	0283e23b          	remw	tp,t2,s0
    8000082c:	01e31d33          	sll	s10,t1,t5
    80000830:	01714133          	xor	sp,sp,s7
    80000834:	014525a3          	sw	s4,11(a0)
    80000838:	0f100b13          	li	s6,241
    8000083c:	416b063b          	subw	a2,s6,s6
    80000840:	c8d6ca83          	lbu	s5,-883(a3)
    80000844:	cf500393          	li	t2,-779
    80000848:	00267db3          	and	s11,a2,sp
    8000084c:	017de4b3          	or	s1,s11,s7
    80000850:	19b4e263          	bltu	s1,s11,800009d4 <crash_forward>
    80000854:	4070843b          	subw	s0,ra,t2
    80000858:	6f200e93          	li	t4,1778
    8000085c:	88233493          	sltiu	s1,t1,-1918
    80000860:	03cd8833          	mul	a6,s11,t3
    80000864:	02a55a3b          	divuw	s4,a0,a0
    80000868:	da900e13          	li	t3,-599
    8000086c:	02ff2cb3          	mulhsu	s9,t5,a5
    80000870:	00e77333          	and	t1,a4,a4
    80000874:	8f200a13          	li	s4,-1806
    80000878:	1fd00c13          	li	s8,509
    8000087c:	476e8393          	addi	t2,t4,1142
    80000880:	00000613          	li	a2,0
    80000884:	028ec2b3          	div	t0,t4,s0
    80000888:	00002597          	auipc	a1,0x2
    8000088c:	eaa58593          	addi	a1,a1,-342 # 80002732 <_end+0x122>
    80000890:	02215133          	divu	sp,sp,sp
    80000894:	45800693          	li	a3,1112
    80000898:	00000713          	li	a4,0
    8000089c:	f4800f93          	li	t6,-184
    800008a0:	000d0913          	mv	s2,s10
    800008a4:	8ee618e3          	bne	a2,a4,80000194 <crash_backward>
    800008a8:	af858203          	lb	tp,-1288(a1)
    800008ac:	014a14b3          	sll	s1,s4,s4
    800008b0:	03fe78bb          	remuw	a7,t3,t6
    800008b4:	403f50b3          	sra	ra,t5,gp
    800008b8:	9db00813          	li	a6,-1573
    800008bc:	f319e293          	ori	t0,s3,-207
    800008c0:	00100713          	li	a4,1
    800008c4:	00100a93          	li	s5,1
    800008c8:	00090413          	mv	s0,s2
    800008cc:	03f71713          	slli	a4,a4,0x3f
    800008d0:	03fa9a93          	slli	s5,s5,0x3f
    800008d4:	01d16db3          	or	s11,sp,t4
    800008d8:	43805993          	srai	s3,zero,0x38
    800008dc:	17000a13          	li	s4,368
    800008e0:	8a891ae3          	bne	s2,s0,80000194 <crash_backward>
    800008e4:	014a4233          	xor	tp,s4,s4
    800008e8:	02d68533          	mul	a0,a3,a3
    800008ec:	fff00113          	li	sp,-1
    800008f0:	00001397          	auipc	t2,0x1
    800008f4:	4ab38393          	addi	t2,t2,1195 # 80001d9b <fromhost+0xd5b>
    800008f8:	fff00193          	li	gp,-1
    800008fc:	a3600f13          	li	t5,-1482
    80000900:	0151c1b3          	xor	gp,gp,s5
    80000904:	01ec4bb3          	xor	s7,s8,t5
    80000908:	00347b33          	and	s6,s0,gp
    8000090c:	18c00793          	li	a5,396
    80000910:	0151ed33          	or	s10,gp,s5
    80000914:	00e14133          	xor	sp,sp,a4
    80000918:	0bab7e63          	bgeu	s6,s10,800009d4 <crash_forward>
    8000091c:	00227333          	and	t1,tp,sp
    80000920:	00e36633          	or	a2,t1,a4
    80000924:	860018e3          	bnez	zero,80000194 <crash_backward>
    80000928:	00f80cb3          	add	s9,a6,a5
    8000092c:	00002e97          	auipc	t4,0x2
    80000930:	21ce8e93          	addi	t4,t4,540 # 80002b48 <_end+0x538>
    80000934:	75238283          	lb	t0,1874(t2)
    80000938:	9b9e83a3          	sb	s9,-1625(t4)
    8000093c:	0040006f          	j	80000940 <reg_dump>

0000000080000940 <reg_dump>:
    80000940:	00002097          	auipc	ra,0x2
    80000944:	cc008093          	addi	ra,ra,-832 # 80002600 <loop_count>
    80000948:	0000a103          	lw	sp,0(ra)
    8000094c:	fff10193          	addi	gp,sp,-1
    80000950:	0030a023          	sw	gp,0(ra)
    80000954:	8e0114e3          	bnez	sp,8000023c <pseg_0>
    80000958:	00001097          	auipc	ra,0x1
    8000095c:	7a808093          	addi	ra,ra,1960 # 80002100 <begin_signature>
    80000960:	0000b023          	sd	zero,0(ra)
    80000964:	0020b823          	sd	sp,16(ra)
    80000968:	0030bc23          	sd	gp,24(ra)
    8000096c:	0240b023          	sd	tp,32(ra)
    80000970:	0250b423          	sd	t0,40(ra)
    80000974:	0260b823          	sd	t1,48(ra)
    80000978:	0480b023          	sd	s0,64(ra)
    8000097c:	0490b423          	sd	s1,72(ra)
    80000980:	04a0b823          	sd	a0,80(ra)
    80000984:	06c0b023          	sd	a2,96(ra)
    80000988:	06d0b423          	sd	a3,104(ra)
    8000098c:	06e0b823          	sd	a4,112(ra)
    80000990:	06f0bc23          	sd	a5,120(ra)
    80000994:	0900b023          	sd	a6,128(ra)
    80000998:	0910b423          	sd	a7,136(ra)
    8000099c:	0920b823          	sd	s2,144(ra)
    800009a0:	0930bc23          	sd	s3,152(ra)
    800009a4:	0b40b023          	sd	s4,160(ra)
    800009a8:	0b50b423          	sd	s5,168(ra)
    800009ac:	0b60b823          	sd	s6,176(ra)
    800009b0:	0b70bc23          	sd	s7,184(ra)
    800009b4:	0d80b023          	sd	s8,192(ra)
    800009b8:	0d90b423          	sd	s9,200(ra)
    800009bc:	0da0b823          	sd	s10,208(ra)
    800009c0:	0db0bc23          	sd	s11,216(ra)
    800009c4:	0fc0b023          	sd	t3,224(ra)
    800009c8:	0fe0b823          	sd	t5,240(ra)
    800009cc:	0ff0bc23          	sd	t6,248(ra)
    800009d0:	0200006f          	j	800009f0 <test_end>

00000000800009d4 <crash_forward>:
    800009d4:	0ff0000f          	fence
    800009d8:	00018063          	beqz	gp,800009d8 <crash_forward+0x4>
    800009dc:	00119193          	slli	gp,gp,0x1
    800009e0:	0011e193          	ori	gp,gp,1
    800009e4:	05d00893          	li	a7,93
    800009e8:	00018513          	mv	a0,gp
    800009ec:	00000073          	ecall

00000000800009f0 <test_end>:
    800009f0:	0ff0000f          	fence
    800009f4:	00100193          	li	gp,1
    800009f8:	05d00893          	li	a7,93
    800009fc:	00000513          	li	a0,0
    80000a00:	00000073          	ecall
    80000a04:	c0001073          	unimp
	...

Disassembly of section .tohost:

0000000080001000 <tohost>:
	...

0000000080001040 <fromhost>:
	...

Disassembly of section .data:

0000000080002000 <hidden_data>:
    80002000:	0002                	c.slli64	zero
    80002002:	8000                	0x8000
    80002004:	ffff                	0xffff
    80002006:	ffff                	0xffff

0000000080002008 <reg_x1_init>:
    80002008:	ffff                	0xffff
    8000200a:	ffff                	0xffff
    8000200c:	ffff                	0xffff
    8000200e:	ffff                	0xffff

0000000080002010 <reg_x2_init>:
    80002010:	f9e8                	sd	a0,240(a1)
    80002012:	65c8                	ld	a0,136(a1)
    80002014:	7778                	ld	a4,232(a4)
    80002016:	1be9                	addi	s7,s7,-6

0000000080002018 <reg_x3_init>:
    80002018:	14c91c37          	lui	s8,0x14c91
    8000201c:	b6e6                	fsd	fs9,360(sp)
    8000201e:	94ed                	srai	s1,s1,0x3b

0000000080002020 <reg_x4_init>:
    80002020:	4e62                	lw	t3,24(sp)
    80002022:	5a55                	li	s4,-11
    80002024:	20f4                	fld	fa3,192(s1)
    80002026:	e20e                	sd	gp,256(sp)

0000000080002028 <reg_x5_init>:
	...

0000000080002030 <reg_x6_init>:
	...

0000000080002038 <reg_x7_init>:
    80002038:	17a0                	addi	s0,sp,1000
    8000203a:	80f8                	0x80f8
    8000203c:	5815                	li	a6,-27
    8000203e:	cc1f        	0xa1797553cc1f

0000000080002040 <reg_x8_init>:
    80002040:	a1797553          	0xa1797553
    80002044:	c62d                	beqz	a2,800020ae <reg_x21_init+0x6>
    80002046:	1609                	addi	a2,a2,-30

0000000080002048 <reg_x9_init>:
    80002048:	54f2                	lw	s1,60(sp)
    8000204a:	be00                	fsd	fs0,56(a2)
    8000204c:	a962                	fsd	fs8,144(sp)
    8000204e:	          	0xd6de2d8f

0000000080002050 <reg_x10_init>:
    80002050:	d6de                	sw	s7,108(sp)
    80002052:	77da8b9b          	addiw	s7,s5,1917
    80002056:	1f69                	addi	t5,t5,-6

0000000080002058 <reg_x11_init>:
    80002058:	d33868c3          	fmadd.d	fa7,fa6,fs3,fs10,unknown
    8000205c:	19f57d4b          	fnmsub.s	fs10,fa0,ft11,ft3

0000000080002060 <reg_x12_init>:
	...

0000000080002068 <reg_x13_init>:
    80002068:	ffff                	0xffff
    8000206a:	ffff                	0xffff
    8000206c:	ffff                	0xffff
    8000206e:	ffff                	0xffff

0000000080002070 <reg_x14_init>:
    80002070:	6b60                	ld	s0,208(a4)
    80002072:	d60c                	sw	a1,40(a2)
    80002074:	480e                	lw	a6,192(sp)
    80002076:	0554                	addi	a3,sp,644

0000000080002078 <reg_x15_init>:
    80002078:	42f8                	lw	a4,68(a3)
    8000207a:	2274                	fld	fa3,192(a2)
    8000207c:	58e2                	lw	a7,56(sp)
    8000207e:	          	lui	t6,0x60d2a

0000000080002080 <reg_x16_init>:
    80002080:	60d2                	ld	ra,272(sp)
    80002082:	09e6f35b          	0x9e6f35b
    80002086:	3534                	fld	fa3,104(a0)

0000000080002088 <reg_x17_init>:
    80002088:	4259                	li	tp,22
    8000208a:	3eca                	fld	ft9,176(sp)
    8000208c:	c21a                	sw	t1,4(sp)
    8000208e:	40d6                	lw	ra,84(sp)

0000000080002090 <reg_x18_init>:
    80002090:	00000003          	lb	zero,0(zero) # 0 <_start-0x80000000>
    80002094:	0000                	unimp
	...

0000000080002098 <reg_x19_init>:
    80002098:	0004                	0x4
    8000209a:	0000                	unimp
    8000209c:	0000                	unimp
	...

00000000800020a0 <reg_x20_init>:
	...

00000000800020a8 <reg_x21_init>:
    800020a8:	0008                	0x8
    800020aa:	0000                	unimp
    800020ac:	0000                	unimp
    800020ae:	0800                	addi	s0,sp,16

00000000800020b0 <reg_x22_init>:
    800020b0:	800c                	0x800c
    800020b2:	801d                	srli	s0,s0,0x7
    800020b4:	f9aa                	sd	a0,240(sp)
    800020b6:	8b20                	0x8b20

00000000800020b8 <reg_x23_init>:
    800020b8:	0004                	0x4
    800020ba:	0000                	unimp
    800020bc:	0000                	unimp
	...

00000000800020c0 <reg_x24_init>:
    800020c0:	0002                	c.slli64	zero
    800020c2:	0000                	unimp
    800020c4:	0000                	unimp
	...

00000000800020c8 <reg_x25_init>:
    800020c8:	ffff                	0xffff
    800020ca:	ffff                	0xffff
    800020cc:	ffff                	0xffff
    800020ce:	ffff                	0xffff

00000000800020d0 <reg_x26_init>:
    800020d0:	62b5da23          	0x62b5da23
    800020d4:	34feeeeb          	0x34feeeeb

00000000800020d8 <reg_x27_init>:
    800020d8:	4fe7fd37          	lui	s10,0x4fe7f
    800020dc:	a8d01523          	sh	a3,-1398(zero) # fffffffffffffa8a <__global_pointer$+0xffffffff7fffcc7a>

00000000800020e0 <reg_x28_init>:
	...

00000000800020e8 <reg_x29_init>:
    800020e8:	81a8f047          	fmsub.s	ft0,fa7,fs10,fa6
    800020ec:	d976                	sw	t4,176(sp)
    800020ee:	0d9d                	addi	s11,s11,7

00000000800020f0 <reg_x30_init>:
    800020f0:	ffff                	0xffff
    800020f2:	ffff                	0xffff
    800020f4:	ffff                	0xffff
    800020f6:	ffff                	0xffff

00000000800020f8 <reg_x31_init>:
    800020f8:	8001                	c.srli64	s0
    800020fa:	ffff                	0xffff
    800020fc:	ffff                	0xffff
    800020fe:	ffff                	0xffff

0000000080002100 <begin_signature>:
    80002100:	ab28                	fsd	fa0,80(a4)
    80002102:	30b2                	fld	ft1,296(sp)
    80002104:	b795                	j	80002068 <reg_x13_init>
    80002106:	899d                	andi	a1,a1,7

0000000080002108 <reg_x1_output>:
    80002108:	f1e5                	bnez	a1,800020e8 <reg_x29_init>
    8000210a:	ff06b9ab          	0xff06b9ab
    8000210e:	46be                	lw	a3,204(sp)

0000000080002110 <reg_x2_output>:
    80002110:	9115                	srli	a0,a0,0x25
    80002112:	c408                	sw	a0,8(s0)
    80002114:	bf8ffcab          	0xbf8ffcab

0000000080002118 <reg_x3_output>:
    80002118:	195e                	slli	s2,s2,0x37
    8000211a:	f6d5                	bnez	a3,800020c6 <reg_x24_init+0x6>
    8000211c:	b22d                	j	80001a46 <fromhost+0xa06>
    8000211e:	aa1d                	j	80002254 <test_memory+0x54>

0000000080002120 <reg_x4_output>:
    80002120:	ca1f 8dca a87b      	0xa87b8dcaca1f
    80002126:	5701                	li	a4,-32

0000000080002128 <reg_x5_output>:
    80002128:	4fe0                	lw	s0,92(a5)
    8000212a:	0080384f          	fnmadd.s	fa6,ft0,fs0,ft0,rup
    8000212e:	446d                	li	s0,27

0000000080002130 <reg_x6_output>:
    80002130:	1d19                	addi	s10,s10,-26
    80002132:	5706                	lw	a4,96(sp)
    80002134:	9f26                	add	t5,t5,s1
    80002136:	b505                	j	80001f56 <fromhost+0xf16>

0000000080002138 <reg_x7_output>:
    80002138:	ded1                	beqz	a3,800020d4 <reg_x26_init+0x4>
    8000213a:	cb81                	beqz	a5,8000214a <reg_x9_output+0x2>
    8000213c:	3aa0                	fld	fs0,112(a3)
    8000213e:	cae1                	beqz	a3,8000220e <test_memory+0xe>

0000000080002140 <reg_x8_output>:
    80002140:	30a0                	fld	fs0,96(s1)
    80002142:	d254b797          	auipc	a5,0xd254b
    80002146:	9e6e                	add	t3,t3,s11

0000000080002148 <reg_x9_output>:
    80002148:	10acc00f          	0x10acc00f
    8000214c:	afd0                	fsd	fa2,152(a5)
    8000214e:	          	0x957eb633

0000000080002150 <reg_x10_output>:
    80002150:	957e                	add	a0,a0,t6
    80002152:	c6b361b7          	lui	gp,0xc6b36
    80002156:	4786                	lw	a5,64(sp)

0000000080002158 <reg_x11_output>:
    80002158:	c8ed                	beqz	s1,8000224a <test_memory+0x4a>
    8000215a:	2fa9                	addiw	t6,t6,10
    8000215c:	f27f                	0xf27f
    8000215e:	7135                	addi	sp,sp,-160

0000000080002160 <reg_x12_output>:
    80002160:	c2669353          	0xc2669353
    80002164:	7c9d                	lui	s9,0xfffe7
    80002166:	f6a2                	sd	s0,360(sp)

0000000080002168 <reg_x13_output>:
    80002168:	0867017b          	0x867017b
    8000216c:	5224                	lw	s1,96(a2)
    8000216e:	ac7c                	fsd	fa5,216(s0)

0000000080002170 <reg_x14_output>:
    80002170:	9b72                	add	s6,s6,t3
    80002172:	f47f                	0xf47f
    80002174:	b01a                	fsd	ft6,32(sp)
    80002176:	bd50                	fsd	fa2,184(a0)

0000000080002178 <reg_x15_output>:
    80002178:	ac0a                	fsd	ft2,24(sp)
    8000217a:	2d18                	fld	fa4,24(a0)
    8000217c:	9e51                	0x9e51
    8000217e:	ac55                	j	80002432 <test_memory+0x232>

0000000080002180 <reg_x16_output>:
    80002180:	8608                	0x8608
    80002182:	f50a                	sd	sp,168(sp)
    80002184:	a409                	j	80002386 <test_memory+0x186>
    80002186:	          	auipc	a6,0xc0ee5

0000000080002188 <reg_x17_output>:
    80002188:	c0ee                	sw	s11,64(sp)
    8000218a:	b705                	j	800020aa <reg_x21_init+0x2>
    8000218c:	8701                	c.srai64	a4
    8000218e:	          	sltiu	s6,t1,-40

0000000080002190 <reg_x18_output>:
    80002190:	216ffd83          	0x216ffd83
    80002194:	9167ec9b          	0x9167ec9b

0000000080002198 <reg_x19_output>:
    80002198:	e285                	bnez	a3,800021b8 <reg_x23_output>
    8000219a:	abb9                	j	800026f8 <_end+0xe8>
    8000219c:	2e34                	fld	fa3,88(a2)
    8000219e:	3608                	fld	fa0,40(a2)

00000000800021a0 <reg_x20_output>:
    800021a0:	bc30                	fsd	fa2,120(s0)
    800021a2:	fdfe                	sd	t6,248(sp)
    800021a4:	ecff                	0xecff
    800021a6:	a4cc                	fsd	fa1,136(s1)

00000000800021a8 <reg_x21_output>:
    800021a8:	0d78                	addi	a4,sp,668
    800021aa:	0b94                	addi	a3,sp,464
    800021ac:	bec0                	fsd	fs0,184(a3)
    800021ae:	d4d2                	sw	s4,104(sp)

00000000800021b0 <reg_x22_output>:
    800021b0:	8026                	c.mv	zero,s1
    800021b2:	aad4                	fsd	fa3,144(a3)
    800021b4:	fc62                	sd	s8,56(sp)
    800021b6:	1aba                	slli	s5,s5,0x2e

00000000800021b8 <reg_x23_output>:
    800021b8:	8940                	0x8940
    800021ba:	a459                	j	80002440 <test_memory+0x240>
    800021bc:	1c5d                	addi	s8,s8,-9
    800021be:	49de                	lw	s3,212(sp)

00000000800021c0 <reg_x24_output>:
    800021c0:	d962                	sw	s8,176(sp)
    800021c2:	661a0107          	0x661a0107
    800021c6:	a6e6                	fsd	fs9,328(sp)

00000000800021c8 <reg_x25_output>:
    800021c8:	dcec                	sw	a1,124(s1)
    800021ca:	46e8                	lw	a0,76(a3)
    800021cc:	010a                	slli	sp,sp,0x2
    800021ce:	fd92                	sd	tp,248(sp)

00000000800021d0 <reg_x26_output>:
    800021d0:	301e3633          	0x301e3633
    800021d4:	b919                	j	80001dea <fromhost+0xdaa>
    800021d6:	6a0d                	lui	s4,0x3

00000000800021d8 <reg_x27_output>:
    800021d8:	cc20                	sw	s0,88(s0)
    800021da:	eea0                	sd	s0,88(a3)
    800021dc:	cce81b8f          	0xcce81b8f

00000000800021e0 <reg_x28_output>:
    800021e0:	d1d8                	sw	a4,36(a1)
    800021e2:	1aa79eab          	0x1aa79eab
    800021e6:	f7d5                	bnez	a5,80002192 <reg_x18_output+0x2>

00000000800021e8 <reg_x29_output>:
    800021e8:	a060                	fsd	fs0,192(s0)
    800021ea:	035fefcb          	fnmsub.d	ft11,ft11,fs5,ft0,unknown
    800021ee:	951c                	0x951c

00000000800021f0 <reg_x30_output>:
    800021f0:	6eb16967          	0x6eb16967
    800021f4:	9055                	srli	s0,s0,0x35
    800021f6:	          	0x428e00f7

00000000800021f8 <reg_x31_output>:
    800021f8:	428e                	lw	t0,192(sp)
    800021fa:	109f 15a5 3a46      	0x3a4615a5109f

0000000080002200 <test_memory>:
    80002200:	2125daef          	jal	s5,8005f412 <__global_pointer$+0x5c602>
    80002204:	0cee752b          	0xcee752b
    80002208:	e8b1                	bnez	s1,8000225c <test_memory+0x5c>
    8000220a:	fa66                	sd	s9,304(sp)
    8000220c:	8f94                	0x8f94
    8000220e:	db1e                	sw	t2,180(sp)
    80002210:	12e0                	addi	s0,sp,364
    80002212:	9a58                	0x9a58
    80002214:	8e22                	mv	t3,s0
    80002216:	437e                	lw	t1,220(sp)
    80002218:	2e735bf7          	0x2e735bf7
    8000221c:	7a0a                	ld	s4,160(sp)
    8000221e:	ebab3a27          	fsd	fs10,-332(s6)
    80002222:	71da0cb7          	lui	s9,0x71da0
    80002226:	999d                	andi	a1,a1,-25
    80002228:	1afc                	addi	a5,sp,380
    8000222a:	3a5158bb          	0x3a5158bb
    8000222e:	9151                	srli	a0,a0,0x34
    80002230:	e3a5                	bnez	a5,80002290 <test_memory+0x90>
    80002232:	c75a                	sw	s6,140(sp)
    80002234:	6d193783          	ld	a5,1745(s2)
    80002238:	dc4c                	sw	a1,60(s0)
    8000223a:	dc41b8e3          	0xdc41b8e3
    8000223e:	2216                	fld	ft4,320(sp)
    80002240:	cd30                	sw	a2,88(a0)
    80002242:	a1206b7b          	0xa1206b7b
    80002246:	35269297          	auipc	t0,0x35269
    8000224a:	69906e03          	lwu	t3,1689(zero) # 699 <_start-0x7ffff967>
    8000224e:	4e4c                	lw	a1,28(a2)
    80002250:	dd1c                	sw	a5,56(a0)
    80002252:	de82                	sw	zero,124(sp)
    80002254:	612134eb          	0x612134eb
    80002258:	c1fc6883          	lwu	a7,-993(s8) # 14c90c1f <_start-0x6b36f3e1>
    8000225c:	e261                	bnez	a2,8000231c <test_memory+0x11c>
    8000225e:	deaa                	sw	a0,124(sp)
    80002260:	bb4a                	fsd	fs2,432(sp)
    80002262:	4f15                	li	t5,5
    80002264:	60bffa1b          	0x60bffa1b
    80002268:	a256                	fsd	fs5,256(sp)
    8000226a:	6b3d                	lui	s6,0xf
    8000226c:	ab22                	fsd	fs0,400(sp)
    8000226e:	28ca                	fld	fa7,144(sp)
    80002270:	7992                	ld	s3,288(sp)
    80002272:	9985                	andi	a1,a1,-31
    80002274:	ccc4                	sw	s1,28(s1)
    80002276:	e600                	sd	s0,8(a2)
    80002278:	2314                	fld	fa3,0(a4)
    8000227a:	eeff                	0xeeff
    8000227c:	8392                	mv	t2,tp
    8000227e:	eff6                	sd	t4,472(sp)
    80002280:	94e6                	add	s1,s1,s9
    80002282:	2cea                	fld	fs9,152(sp)
    80002284:	7d1f 3da1 1f75      	0x1f753da17d1f
    8000228a:	5b296f4b          	fnmsub.d	ft10,fs2,fs2,fa1,unknown
    8000228e:	604e                	0x604e
    80002290:	949d64b7          	lui	s1,0x949d6
    80002294:	2dea                	fld	fs11,152(sp)
    80002296:	b9a5                	j	80001f0e <fromhost+0xece>
    80002298:	587c                	lw	a5,116(s0)
    8000229a:	d73d                	beqz	a4,80002208 <test_memory+0x8>
    8000229c:	33529693          	0x33529693
    800022a0:	ebbb9c97          	auipc	s9,0xebbb9
    800022a4:	a630                	fsd	fa2,72(a2)
    800022a6:	afb546ab          	0xafb546ab
    800022aa:	6155                	addi	sp,sp,304
    800022ac:	9a9d                	andi	a3,a3,-25
    800022ae:	8d65                	and	a0,a0,s1
    800022b0:	c41f 9851 8a2e      	0x8a2e9851c41f
    800022b6:	74ff                	0x74ff
    800022b8:	3bbd                	addiw	s7,s7,-17
    800022ba:	3fa9                	addiw	t6,t6,-22
    800022bc:	b036                	fsd	fa3,32(sp)
    800022be:	2e5a                	fld	ft8,400(sp)
    800022c0:	c912                	sw	tp,144(sp)
    800022c2:	b3c9                	j	80002084 <reg_x16_init+0x4>
    800022c4:	af8c                	fsd	fa1,24(a5)
    800022c6:	8f9a                	mv	t6,t1
    800022c8:	e071a107          	flw	ft2,-505(gp) # ffffffffc6b35e07 <__global_pointer$+0xffffffff46b32ff7>
    800022cc:	95ca                	add	a1,a1,s2
    800022ce:	3106                	fld	ft2,96(sp)
    800022d0:	0fc2                	slli	t6,t6,0x10
    800022d2:	dcae                	sw	a1,120(sp)
    800022d4:	00d4                	addi	a3,sp,68
    800022d6:	639f b2dc 0b32      	0xb32b2dc639f
    800022dc:	51de                	lw	gp,244(sp)
    800022de:	a5b27037          	lui	zero,0xa5b27
    800022e2:	d4e2                	sw	s8,104(sp)
    800022e4:	a420                	fsd	fs0,72(s0)
    800022e6:	5fb5                	li	t6,-19
    800022e8:	4faaa0a3          	sw	s10,1249(s5)
    800022ec:	1ad2                	slli	s5,s5,0x34
    800022ee:	2fbe                	fld	ft11,456(sp)
    800022f0:	7a7c                	ld	a5,240(a2)
    800022f2:	2d6c                	fld	fa1,216(a0)
    800022f4:	5915                	li	s2,-27
    800022f6:	4bad                	li	s7,11
    800022f8:	3362                	fld	ft6,56(sp)
    800022fa:	e841                	bnez	s0,8000238a <test_memory+0x18a>
    800022fc:	6805                	lui	a6,0x1
    800022fe:	c2f5678f          	0xc2f5678f
    80002302:	5ff8                	lw	a4,124(a5)
    80002304:	d0cc420f          	0xd0cc420f
    80002308:	df84                	sw	s1,56(a5)
    8000230a:	f9ee                	sd	s11,240(sp)
    8000230c:	8024                	0x8024
    8000230e:	e2aa                	sd	a0,320(sp)
    80002310:	ea8e                	sd	gp,336(sp)
    80002312:	84d4                	0x84d4
    80002314:	8c9c                	0x8c9c
    80002316:	a1d8                	fsd	fa4,128(a1)
    80002318:	aedc                	fsd	fa5,152(a3)
    8000231a:	bbdc                	fsd	fa5,176(a5)
    8000231c:	18ba                	slli	a7,a7,0x2e
    8000231e:	b6fcbcbb          	0xb6fcbcbb
    80002322:	6429                	lui	s0,0xa
    80002324:	3a1ead2f          	0x3a1ead2f
    80002328:	46e9                	li	a3,26
    8000232a:	858a                	mv	a1,sp
    8000232c:	ed7cdb0b          	0xed7cdb0b
    80002330:	e952821b          	addiw	tp,t0,-363
    80002334:	220c                	fld	fa1,0(a2)
    80002336:	8f5bcbf3          	0x8f5bcbf3
    8000233a:	e21f8b57          	0xe21f8b57
    8000233e:	d911                	beqz	a0,80002252 <test_memory+0x52>
    80002340:	1953ae0f          	0x1953ae0f
    80002344:	f18a                	sd	sp,224(sp)
    80002346:	2c98                	fld	fa4,24(s1)
    80002348:	bcd6                	fsd	fs5,120(sp)
    8000234a:	86227323          	0x86227323
    8000234e:	f5fa                	sd	t5,232(sp)
    80002350:	b7ac                	fsd	fa1,104(a5)
    80002352:	1801                	addi	a6,a6,-32
    80002354:	5779                	li	a4,-2
    80002356:	e455                	bnez	s0,80002402 <test_memory+0x202>
    80002358:	c3f5                	beqz	a5,8000243c <test_memory+0x23c>
    8000235a:	08eb2d8b          	0x8eb2d8b
    8000235e:	c56e                	sw	s11,136(sp)
    80002360:	a49c8b17          	auipc	s6,0xa49c8
    80002364:	55df 490c 7891      	0x7891490c55df
    8000236a:	306e                	fld	ft0,248(sp)
    8000236c:	f7d8                	sd	a4,168(a5)
    8000236e:	aeb8                	fsd	fa4,88(a3)
    80002370:	fead                	bnez	a3,800022ea <test_memory+0xea>
    80002372:	ccb8                	sw	a4,88(s1)
    80002374:	1cea                	slli	s9,s9,0x3a
    80002376:	e749                	bnez	a4,80002400 <test_memory+0x200>
    80002378:	dd42                	sw	a6,184(sp)
    8000237a:	5cfc                	lw	a5,124(s1)
    8000237c:	f33f56e3          	bge	t5,s3,800022a8 <test_memory+0xa8>
    80002380:	8d8c9823          	sh	s8,-1840(s9) # 6bbbab70 <_start-0x14445490>
    80002384:	7e22                	ld	t3,40(sp)
    80002386:	e450                	sd	a2,136(s0)
    80002388:	6725                	lui	a4,0x9
    8000238a:	5b01                	li	s6,-32
    8000238c:	e8f1                	bnez	s1,80002460 <test_memory+0x260>
    8000238e:	640d                	lui	s0,0x3
    80002390:	ffed                	bnez	a5,8000238a <test_memory+0x18a>
    80002392:	464d                	li	a2,19
    80002394:	dedf 530a 39df      	0x39df530adedf
    8000239a:	dc71                	beqz	s0,80002376 <test_memory+0x176>
    8000239c:	d4c72967          	0xd4c72967
    800023a0:	6c9ec6e3          	blt	t4,s1,8000326c <__global_pointer$+0x45c>
    800023a4:	5dfa                	lw	s11,188(sp)
    800023a6:	4076                	0x4076
    800023a8:	9fe2                	add	t6,t6,s8
    800023aa:	2c06                	fld	fs8,64(sp)
    800023ac:	cb04                	sw	s1,16(a4)
    800023ae:	5f6d                	li	t5,-5
    800023b0:	6222                	ld	tp,8(sp)
    800023b2:	fc19                	bnez	s0,800022d0 <test_memory+0xd0>
    800023b4:	20c5                	addiw	ra,ra,17
    800023b6:	0a29                	addi	s4,s4,10
    800023b8:	3fd442ef          	jal	t0,80046fb4 <__global_pointer$+0x441a4>
    800023bc:	6257cfeb          	0x6257cfeb
    800023c0:	8130                	0x8130
    800023c2:	d668                	sw	a0,108(a2)
    800023c4:	fb3e                	sd	a5,432(sp)
    800023c6:	1d76                	slli	s10,s10,0x3d
    800023c8:	a9b4e8db          	0xa9b4e8db
    800023cc:	8efd                	and	a3,a3,a5
    800023ce:	02b2                	slli	t0,t0,0xc
    800023d0:	57fb2263          	0x57fb2263
    800023d4:	b74ce783          	lwu	a5,-1164(s9)
    800023d8:	b895                	j	80001c4c <fromhost+0xc0c>
    800023da:	3a709373          	csrrw	t1,0x3a7,ra
    800023de:	cbb1                	beqz	a5,80002432 <test_memory+0x232>
    800023e0:	0982                	c.slli64	s3
    800023e2:	008108bb          	addw	a7,sp,s0
    800023e6:	8708                	0x8708
    800023e8:	4b66                	lw	s6,88(sp)
    800023ea:	27c5                	addiw	a5,a5,17
    800023ec:	bb9d                	j	80002162 <reg_x12_output+0x2>
    800023ee:	7204                	ld	s1,32(a2)
    800023f0:	7cac                	ld	a1,120(s1)
    800023f2:	ae61                	j	8000278a <_end+0x17a>
    800023f4:	f3f0                	sd	a2,224(a5)
    800023f6:	08b4                	addi	a3,sp,88
    800023f8:	8bea0e7b          	0x8bea0e7b
    800023fc:	9dd4f813          	andi	a6,s1,-1571
    80002400:	6b78                	ld	a4,208(a4)
    80002402:	6960                	ld	s0,208(a0)
    80002404:	10801f83          	lh	t6,264(zero) # 108 <_start-0x7ffffef8>
    80002408:	b8a0                	fsd	fs0,112(s1)
    8000240a:	d456                	sw	s5,40(sp)
    8000240c:	d3f4                	sw	a3,100(a5)
    8000240e:	0060                	addi	s0,sp,12
    80002410:	645d                	lui	s0,0x17
    80002412:	9c14                	0x9c14
    80002414:	cd59                	beqz	a0,800024b2 <test_memory+0x2b2>
    80002416:	d8ed                	beqz	s1,80002408 <test_memory+0x208>
    80002418:	d84e                	sw	s3,48(sp)
    8000241a:	85822147          	0x85822147
    8000241e:	fc5496eb          	0xfc5496eb
    80002422:	7855                	lui	a6,0xffff5
    80002424:	22f543bb          	0x22f543bb
    80002428:	8af1bde7          	0x8af1bde7
    8000242c:	0dee                	slli	s11,s11,0x1b
    8000242e:	8cbb57f3          	csrrwi	a5,0x8cb,22
    80002432:	9c0167c7          	0x9c0167c7
    80002436:	c190                	sw	a2,0(a1)
    80002438:	784e463f 3b14eb7c 	0x3b14eb7c784e463f
    80002440:	6b7c                	ld	a5,208(a4)
    80002442:	71a6                	ld	gp,104(sp)
    80002444:	94d4                	0x94d4
    80002446:	9cfe                	add	s9,s9,t6
    80002448:	495e                	lw	s2,212(sp)
    8000244a:	eb9e                	sd	t2,464(sp)
    8000244c:	58c4                	lw	s1,52(s1)
    8000244e:	016e84c3          	fmadd.s	fs1,ft9,fs6,ft0,rne
    80002452:	03b5                	addi	t2,t2,13
    80002454:	d39a                	sw	t1,228(sp)
    80002456:	a412                	fsd	ft4,8(sp)
    80002458:	c4ccb183          	ld	gp,-948(s9)
    8000245c:	fe3ead57          	0xfe3ead57
    80002460:	7d4562fb          	0x7d4562fb
    80002464:	492c                	lw	a1,80(a0)
    80002466:	c6c4                	sw	s1,12(a3)
    80002468:	7e6c                	ld	a1,248(a2)
    8000246a:	c03d                	beqz	s0,800024d0 <test_memory+0x2d0>
    8000246c:	9d6bb387          	fld	ft7,-1578(s7)
    80002470:	4f02                	lw	t5,0(sp)
    80002472:	d1c2                	sw	a6,224(sp)
    80002474:	adcc                	fsd	fa1,152(a1)
    80002476:	6bf0                	ld	a2,208(a5)
    80002478:	38d4                	fld	fa3,176(s1)
    8000247a:	07806073          	csrsi	0x78,0
    8000247e:	8059                	srli	s0,s0,0x16
    80002480:	b7fd                	j	8000246e <test_memory+0x26e>
    80002482:	f58e                	sd	gp,232(sp)
    80002484:	4856                	lw	a6,84(sp)
    80002486:	9a3d8847          	fmsub.d	fa6,fs11,ft3,fs3,rne
    8000248a:	0e99                	addi	t4,t4,6
    8000248c:	d39a                	sw	t1,228(sp)
    8000248e:	c2d2                	sw	s4,68(sp)
    80002490:	3b66                	fld	fs6,120(sp)
    80002492:	5af2                	lw	s5,60(sp)
    80002494:	74b6                	ld	s1,360(sp)
    80002496:	acbc                	fsd	fa5,88(s1)
    80002498:	a9ac6cef          	jal	s9,7ffc8732 <_start-0x378ce>
    8000249c:	7df0                	ld	a2,248(a1)
    8000249e:	ea85                	bnez	a3,800024ce <test_memory+0x2ce>
    800024a0:	2b56                	fld	fs6,336(sp)
    800024a2:	9d99ff4b          	0x9d99ff4b
    800024a6:	e30a                	sd	sp,384(sp)
    800024a8:	d1dde83f 95251b33 	0x95251b33d1dde83f
    800024b0:	c1250e6f          	jal	t3,7ff528c2 <_start-0xad73e>
    800024b4:	c5dc9d67          	0xc5dc9d67
    800024b8:	0d14                	addi	a3,sp,656
    800024ba:	5e50                	lw	a2,60(a2)
    800024bc:	babd                	j	80001e3a <fromhost+0xdfa>
    800024be:	f518                	sd	a4,40(a0)
    800024c0:	b9fc                	fsd	fa5,240(a1)
    800024c2:	685c                	ld	a5,144(s0)
    800024c4:	ba71                	j	80001e60 <fromhost+0xe20>
    800024c6:	eb88                	sd	a0,16(a5)
    800024c8:	3a68c6a7          	fsq	ft6,941(a7)
    800024cc:	dfe1                	beqz	a5,800024a4 <test_memory+0x2a4>
    800024ce:	0985                	addi	s3,s3,1
    800024d0:	6a56                	ld	s4,336(sp)
    800024d2:	d069                	beqz	s0,80002494 <test_memory+0x294>
    800024d4:	b264                	fsd	fs1,224(a2)
    800024d6:	e502                	sd	zero,136(sp)
    800024d8:	d389                	beqz	a5,800023da <test_memory+0x1da>
    800024da:	0e40                	addi	s0,sp,788
    800024dc:	bc89                	j	80001f2e <fromhost+0xeee>
    800024de:	7f89                	lui	t6,0xfffe2
    800024e0:	7d89                	lui	s11,0xfffe2
    800024e2:	8474                	0x8474
    800024e4:	8908                	0x8908
    800024e6:	e21e                	sd	t2,256(sp)
    800024e8:	baea                	fsd	fs10,368(sp)
    800024ea:	7f29                	lui	t5,0xfffea
    800024ec:	0101                	addi	sp,sp,0
    800024ee:	b436c133          	0xb436c133
    800024f2:	3b5f 0e27 97a5      	0x97a50e273b5f
    800024f8:	f2475217          	auipc	tp,0xf2475
    800024fc:	eca8550f          	0xeca8550f
    80002500:	1cba                	slli	s9,s9,0x2e
    80002502:	8974                	0x8974
    80002504:	4ec5                	li	t4,17
    80002506:	9656                	add	a2,a2,s5
    80002508:	9644                	0x9644
    8000250a:	bffd                	j	80002508 <test_memory+0x308>
    8000250c:	a014ce47          	fmsub.s	ft8,fs1,ft1,fs4,rmm
    80002510:	bc720c8f          	0xbc720c8f
    80002514:	659a                	ld	a1,384(sp)
    80002516:	9b05                	andi	a4,a4,-31
    80002518:	ebbbde8b          	0xebbbde8b
    8000251c:	f79d                	bnez	a5,8000244a <test_memory+0x24a>
    8000251e:	a6b4                	fsd	fa3,72(a3)
    80002520:	cbf2                	sw	t3,212(sp)
    80002522:	bf5c                	fsd	fa5,184(a4)
    80002524:	5ebe                	lw	t4,236(sp)
    80002526:	f2bc                	sd	a5,96(a3)
    80002528:	aa34                	fsd	fa3,80(a2)
    8000252a:	34ba                	fld	fs1,424(sp)
    8000252c:	3e3c                	fld	fa5,120(a2)
    8000252e:	65f4                	ld	a3,200(a1)
    80002530:	d7c6                	sw	a7,236(sp)
    80002532:	8be2                	mv	s7,s8
    80002534:	22a0                	fld	fs0,64(a3)
    80002536:	418e                	lw	gp,192(sp)
    80002538:	8f36                	mv	t5,a3
    8000253a:	b1d1                	j	800021fe <reg_x31_output+0x6>
    8000253c:	d794                	sw	a3,40(a5)
    8000253e:	ddb84833          	0xddb84833
    80002542:	b1ed                	j	8000222c <test_memory+0x2c>
    80002544:	9c3c                	0x9c3c
    80002546:	0cfe6aa7          	0xcfe6aa7
    8000254a:	e8df 74b9 7ad1      	0x7ad174b9e8df
    80002550:	d6a2                	sw	s0,108(sp)
    80002552:	8e8cd8f3          	csrrwi	a7,0x8e8,25
    80002556:	1390                	addi	a2,sp,480
    80002558:	476e                	lw	a4,216(sp)
    8000255a:	3994                	fld	fa3,48(a1)
    8000255c:	e79556eb          	0xe79556eb
    80002560:	e334                	sd	a3,64(a4)
    80002562:	7454                	ld	a3,168(s0)
    80002564:	cd40                	sw	s0,28(a0)
    80002566:	069f ee28 9012      	0x9012ee28069f
    8000256c:	9970                	0x9970
    8000256e:	f414                	sd	a3,40(s0)
    80002570:	ced1                	beqz	a3,8000260c <loop_count+0xc>
    80002572:	cca8baa7          	fsd	fa0,-811(a7)
    80002576:	48ad                	li	a7,11
    80002578:	35ebd40b          	0x35ebd40b
    8000257c:	c4aa                	sw	a0,72(sp)
    8000257e:	ed0d                	bnez	a0,800025b8 <test_memory+0x3b8>
    80002580:	5cb6                	lw	s9,108(sp)
    80002582:	f191                	bnez	a1,80002486 <test_memory+0x286>
    80002584:	bcf9                	j	80002062 <reg_x12_init+0x2>
    80002586:	fafdf74b          	fnmsub.d	fa4,fs11,fa5,ft11
    8000258a:	93f0                	0x93f0
    8000258c:	fe64                	sd	s1,248(a2)
    8000258e:	1592                	slli	a1,a1,0x24
    80002590:	c361                	beqz	a4,80002650 <_end+0x40>
    80002592:	5ae0                	lw	s0,116(a3)
    80002594:	a4b1                	j	800027e0 <_end+0x1d0>
    80002596:	5674                	lw	a3,108(a2)
    80002598:	253617eb          	0x253617eb
    8000259c:	6b70                	ld	a2,208(a4)
    8000259e:	ab36                	fsd	fa3,400(sp)
    800025a0:	366dfa2f          	0x366dfa2f
    800025a4:	2e51                	addiw	t3,t3,20
    800025a6:	ea11                	bnez	a2,800025ba <test_memory+0x3ba>
    800025a8:	d30d                	beqz	a4,800024ca <test_memory+0x2ca>
    800025aa:	57c6                	lw	a5,112(sp)
    800025ac:	966e                	add	a2,a2,s11
    800025ae:	36a2                	fld	fa3,40(sp)
    800025b0:	f4dcbd47          	0xf4dcbd47
    800025b4:	1d54                	addi	a3,sp,692
    800025b6:	17fe                	slli	a5,a5,0x3f
    800025b8:	486e                	lw	a6,216(sp)
    800025ba:	c24a                	sw	s2,4(sp)
    800025bc:	efec                	sd	a1,216(a5)
    800025be:	ac51                	j	80002852 <_end+0x242>
    800025c0:	9c316bb7          	lui	s7,0x9c316
    800025c4:	9e60                	0x9e60
    800025c6:	d5d0                	sw	a2,44(a1)
    800025c8:	d33f8cab          	0xd33f8cab
    800025cc:	bbb5                	j	80002348 <test_memory+0x148>
    800025ce:	00b5                	addi	ra,ra,13
    800025d0:	9e5323db          	0x9e5323db
    800025d4:	e6b9                	bnez	a3,80002622 <_end+0x12>
    800025d6:	0192                	slli	gp,gp,0x4
    800025d8:	39fa                	fld	fs3,440(sp)
    800025da:	ff66d6f7          	0xff66d6f7
    800025de:	474d                	li	a4,19
    800025e0:	c205                	beqz	a2,80002600 <loop_count>
    800025e2:	bd68                	fsd	fa0,248(a0)
    800025e4:	9966d6f7          	0x9966d6f7
    800025e8:	496e                	lw	s2,216(sp)
    800025ea:	112a                	slli	sp,sp,0x2a
    800025ec:	7239463f b8b4a55a 	0xb8b4a55a7239463f
    800025f4:	94f9                	srai	s1,s1,0x3e
    800025f6:	bc786aa3          	0xbc786aa3
    800025fa:	5e4e                	lw	t3,240(sp)
    800025fc:	4e38                	lw	a4,88(a2)
    800025fe:	98dc                	0x98dc

0000000080002600 <loop_count>:
    80002600:	0040                	addi	s0,sp,4
	...

Disassembly of section .riscv.attributes:

0000000000000000 <.riscv.attributes>:
   0:	1e41                	addi	t3,t3,-16
   2:	0000                	unimp
   4:	7200                	ld	s0,32(a2)
   6:	7369                	lui	t1,0xffffa
   8:	01007663          	bgeu	zero,a6,14 <_start-0x7fffffec>
   c:	0014                	0x14
   e:	0000                	unimp
  10:	7205                	lui	tp,0xfffe1
  12:	3676                	fld	fa2,376(sp)
  14:	6934                	ld	a3,80(a0)
  16:	7032                	0x7032
  18:	5f30                	lw	a2,120(a4)
  1a:	326d                	addiw	tp,tp,-5
  1c:	3070                	fld	fa2,224(s0)
	...
