
build/test97:     file format elf64-littleriscv


Disassembly of section .text.init:

0000000080000000 <_start>:
    80000000:	05c0006f          	j	8000005c <reset_vector>

0000000080000004 <trap_vector>:
    80000004:	34202f73          	csrr	t5,mcause
    80000008:	00800f93          	li	t6,8
    8000000c:	03ff0a63          	beq	t5,t6,80000040 <write_tohost>
    80000010:	00900f93          	li	t6,9
    80000014:	03ff0663          	beq	t5,t6,80000040 <write_tohost>
    80000018:	00b00f93          	li	t6,11
    8000001c:	03ff0263          	beq	t5,t6,80000040 <write_tohost>
    80000020:	80000f17          	auipc	t5,0x80000
    80000024:	fe0f0f13          	addi	t5,t5,-32 # 0 <_start-0x80000000>
    80000028:	000f0463          	beqz	t5,80000030 <trap_vector+0x2c>
    8000002c:	000f0067          	jr	t5
    80000030:	34202f73          	csrr	t5,mcause
    80000034:	000f5463          	bgez	t5,8000003c <handle_exception>
    80000038:	0040006f          	j	8000003c <handle_exception>

000000008000003c <handle_exception>:
    8000003c:	5391e193          	ori	gp,gp,1337

0000000080000040 <write_tohost>:
    80000040:	00001f17          	auipc	t5,0x1
    80000044:	fc3f2023          	sw	gp,-64(t5) # 80001000 <tohost>
    80000048:	000902b7          	lui	t0,0x90
    8000004c:	0012829b          	addiw	t0,t0,1
    80000050:	00c29293          	slli	t0,t0,0xc
    80000054:	0002af83          	lw	t6,0(t0) # 90000 <_start-0x7ff70000>
    80000058:	fe9ff06f          	j	80000040 <write_tohost>

000000008000005c <reset_vector>:
    8000005c:	00000093          	li	ra,0
    80000060:	00000113          	li	sp,0
    80000064:	00000193          	li	gp,0
    80000068:	00000213          	li	tp,0
    8000006c:	00000293          	li	t0,0
    80000070:	00000313          	li	t1,0
    80000074:	00000393          	li	t2,0
    80000078:	00000413          	li	s0,0
    8000007c:	00000493          	li	s1,0
    80000080:	00000513          	li	a0,0
    80000084:	00000593          	li	a1,0
    80000088:	00000613          	li	a2,0
    8000008c:	00000693          	li	a3,0
    80000090:	00000713          	li	a4,0
    80000094:	00000793          	li	a5,0
    80000098:	00000813          	li	a6,0
    8000009c:	00000893          	li	a7,0
    800000a0:	00000913          	li	s2,0
    800000a4:	00000993          	li	s3,0
    800000a8:	00000a13          	li	s4,0
    800000ac:	00000a93          	li	s5,0
    800000b0:	00000b13          	li	s6,0
    800000b4:	00000b93          	li	s7,0
    800000b8:	00000c13          	li	s8,0
    800000bc:	00000c93          	li	s9,0
    800000c0:	00000d13          	li	s10,0
    800000c4:	00000d93          	li	s11,0
    800000c8:	00000e13          	li	t3,0
    800000cc:	00000e93          	li	t4,0
    800000d0:	00000f13          	li	t5,0
    800000d4:	00000f93          	li	t6,0
    800000d8:	f1402573          	csrr	a0,mhartid
    800000dc:	00051063          	bnez	a0,800000dc <reset_vector+0x80>
    800000e0:	00000297          	auipc	t0,0x0
    800000e4:	01028293          	addi	t0,t0,16 # 800000f0 <reset_vector+0x94>
    800000e8:	30529073          	csrw	mtvec,t0
    800000ec:	18005073          	csrwi	satp,0
    800000f0:	00000297          	auipc	t0,0x0
    800000f4:	02428293          	addi	t0,t0,36 # 80000114 <reset_vector+0xb8>
    800000f8:	30529073          	csrw	mtvec,t0
    800000fc:	0010029b          	addiw	t0,zero,1
    80000100:	03529293          	slli	t0,t0,0x35
    80000104:	fff28293          	addi	t0,t0,-1
    80000108:	3b029073          	csrw	pmpaddr0,t0
    8000010c:	01f00293          	li	t0,31
    80000110:	3a029073          	csrw	pmpcfg0,t0
    80000114:	30405073          	csrwi	mie,0
    80000118:	00000297          	auipc	t0,0x0
    8000011c:	01428293          	addi	t0,t0,20 # 8000012c <reset_vector+0xd0>
    80000120:	30529073          	csrw	mtvec,t0
    80000124:	30205073          	csrwi	medeleg,0
    80000128:	30305073          	csrwi	mideleg,0
    8000012c:	00000193          	li	gp,0
    80000130:	00000297          	auipc	t0,0x0
    80000134:	ed428293          	addi	t0,t0,-300 # 80000004 <trap_vector>
    80000138:	30529073          	csrw	mtvec,t0
    8000013c:	00100513          	li	a0,1
    80000140:	01f51513          	slli	a0,a0,0x1f
    80000144:	00055c63          	bgez	a0,8000015c <reset_vector+0x100>
    80000148:	0ff0000f          	fence
    8000014c:	00100193          	li	gp,1
    80000150:	05d00893          	li	a7,93
    80000154:	00000513          	li	a0,0
    80000158:	00000073          	ecall
    8000015c:	80000297          	auipc	t0,0x80000
    80000160:	ea428293          	addi	t0,t0,-348 # 0 <_start-0x80000000>
    80000164:	00028a63          	beqz	t0,80000178 <reset_vector+0x11c>
    80000168:	10529073          	csrw	stvec,t0
    8000016c:	0000b2b7          	lui	t0,0xb
    80000170:	1092829b          	addiw	t0,t0,265
    80000174:	30229073          	csrw	medeleg,t0
    80000178:	30005073          	csrwi	mstatus,0
    8000017c:	00000297          	auipc	t0,0x0
    80000180:	01428293          	addi	t0,t0,20 # 80000190 <reset_vector+0x134>
    80000184:	34129073          	csrw	mepc,t0
    80000188:	f1402573          	csrr	a0,mhartid
    8000018c:	30200073          	mret
    80000190:	0200006f          	j	800001b0 <test_start>

0000000080000194 <crash_backward>:
    80000194:	0ff0000f          	fence
    80000198:	00018063          	beqz	gp,80000198 <crash_backward+0x4>
    8000019c:	00119193          	slli	gp,gp,0x1
    800001a0:	0011e193          	ori	gp,gp,1
    800001a4:	05d00893          	li	a7,93
    800001a8:	00018513          	mv	a0,gp
    800001ac:	00000073          	ecall

00000000800001b0 <test_start>:
    800001b0:	00002f97          	auipc	t6,0x2
    800001b4:	e50f8f93          	addi	t6,t6,-432 # 80002000 <hidden_data>
    800001b8:	000fb003          	ld	zero,0(t6)
    800001bc:	008fb083          	ld	ra,8(t6)
    800001c0:	010fb103          	ld	sp,16(t6)
    800001c4:	018fb183          	ld	gp,24(t6)
    800001c8:	020fb203          	ld	tp,32(t6)
    800001cc:	028fb283          	ld	t0,40(t6)
    800001d0:	030fb303          	ld	t1,48(t6)
    800001d4:	038fb383          	ld	t2,56(t6)
    800001d8:	040fb403          	ld	s0,64(t6)
    800001dc:	048fb483          	ld	s1,72(t6)
    800001e0:	050fb503          	ld	a0,80(t6)
    800001e4:	058fb583          	ld	a1,88(t6)
    800001e8:	060fb603          	ld	a2,96(t6)
    800001ec:	068fb683          	ld	a3,104(t6)
    800001f0:	070fb703          	ld	a4,112(t6)
    800001f4:	078fb783          	ld	a5,120(t6)
    800001f8:	080fb803          	ld	a6,128(t6)
    800001fc:	088fb883          	ld	a7,136(t6)
    80000200:	090fb903          	ld	s2,144(t6)
    80000204:	098fb983          	ld	s3,152(t6)
    80000208:	0a0fba03          	ld	s4,160(t6)
    8000020c:	0a8fba83          	ld	s5,168(t6)
    80000210:	0b0fbb03          	ld	s6,176(t6)
    80000214:	0b8fbb83          	ld	s7,184(t6)
    80000218:	0c0fbc03          	ld	s8,192(t6)
    8000021c:	0c8fbc83          	ld	s9,200(t6)
    80000220:	0d0fbd03          	ld	s10,208(t6)
    80000224:	0d8fbd83          	ld	s11,216(t6)
    80000228:	0e0fbe03          	ld	t3,224(t6)
    8000022c:	0e8fbe83          	ld	t4,232(t6)
    80000230:	0f0fbf03          	ld	t5,240(t6)
    80000234:	0f8fbf83          	ld	t6,248(t6)
    80000238:	0040006f          	j	8000023c <pseg_0>

000000008000023c <pseg_0>:
    8000023c:	014123b3          	slt	t2,sp,s4
    80000240:	000e8f93          	mv	t6,t4
    80000244:	44337c93          	andi	s9,t1,1091
    80000248:	000f8113          	mv	sp,t6
    8000024c:	03fff1b3          	remu	gp,t6,t6
    80000250:	40630ebb          	subw	t4,t1,t1
    80000254:	01903433          	snez	s0,s9
    80000258:	00100f13          	li	t5,1
    8000025c:	03ef0ebb          	mulw	t4,t5,t5
    80000260:	03ff1f13          	slli	t5,t5,0x3f
    80000264:	40738c3b          	subw	s8,t2,t2
    80000268:	722fc263          	blt	t6,sp,8000098c <crash_forward>
    8000026c:	00003697          	auipc	a3,0x3
    80000270:	8ae68693          	addi	a3,a3,-1874 # 80002b1a <_end+0x50a>
    80000274:	026221b3          	mulhsu	gp,tp,t1
    80000278:	cd400293          	li	t0,-812
    8000027c:	fff00e13          	li	t3,-1
    80000280:	41efd913          	srai	s2,t6,0x1e
    80000284:	ef600413          	li	s0,-266
    80000288:	0252ba33          	mulhu	s4,t0,t0
    8000028c:	da600393          	li	t2,-602
    80000290:	02f3a533          	mulhsu	a0,t2,a5
    80000294:	035ac7bb          	divw	a5,s5,s5
    80000298:	ed300193          	li	gp,-301
    8000029c:	99d00313          	li	t1,-1635
    800002a0:	4031d533          	sra	a0,gp,gp
    800002a4:	0073acb3          	slt	s9,t2,t2
    800002a8:	be300613          	li	a2,-1053
    800002ac:	29b00893          	li	a7,667
    800002b0:	02844db3          	div	s11,s0,s0
    800002b4:	a9000913          	li	s2,-1392
    800002b8:	00002b17          	auipc	s6,0x2
    800002bc:	f75b0b13          	addi	s6,s6,-139 # 8000222d <test_memory+0x2d>
    800002c0:	d2500093          	li	ra,-731
    800002c4:	0063113b          	sllw	sp,t1,t1
    800002c8:	30fdc493          	xori	s1,s11,783
    800002cc:	cd630713          	addi	a4,t1,-810
    800002d0:	f9800393          	li	t2,-104
    800002d4:	37c00f93          	li	t6,892
    800002d8:	6a675a63          	bge	a4,t1,8000098c <crash_forward>
    800002dc:	02160bb3          	mul	s7,a2,ra
    800002e0:	01ee4e33          	xor	t3,t3,t5
    800002e4:	e6600113          	li	sp,-410
    800002e8:	0ad00e93          	li	t4,173
    800002ec:	0273e53b          	remw	a0,t2,t2
    800002f0:	00002497          	auipc	s1,0x2
    800002f4:	be148493          	addi	s1,s1,-1055 # 80001ed1 <fromhost+0xe91>
    800002f8:	03fa0dbb          	mulw	s11,s4,t6
    800002fc:	01c27833          	and	a6,tp,t3
    80000300:	00000993          	li	s3,0
    80000304:	93a6ca83          	lbu	s5,-1734(a3)
    80000308:	83d00713          	li	a4,-1987
    8000030c:	41f952bb          	sraw	t0,s2,t6
    80000310:	00000d13          	li	s10,0
    80000314:	03dedc33          	divu	s8,t4,t4
    80000318:	00003197          	auipc	gp,0x3
    8000031c:	8cb18193          	addi	gp,gp,-1845 # 80002be3 <_end+0x5d3>
    80000320:	4ae4c403          	lbu	s0,1198(s1)
    80000324:	03ac6633          	rem	a2,s8,s10
    80000328:	00002517          	auipc	a0,0x2
    8000032c:	54250513          	addi	a0,a0,1346 # 8000286a <_end+0x25a>
    80000330:	03de87b3          	mul	a5,t4,t4
    80000334:	05500a13          	li	s4,85
    80000338:	bad00293          	li	t0,-1107
    8000033c:	01e7e5b3          	or	a1,a5,t5
    80000340:	41410cb3          	sub	s9,sp,s4
    80000344:	41dedeb3          	sra	t4,t4,t4
    80000348:	8f21aaa3          	sw	s2,-1803(gp) # 80002705 <_end+0xf5>
    8000034c:	0252b933          	mulhu	s2,t0,t0
    80000350:	0139b0b3          	sltu	ra,s3,s3
    80000354:	a7853f23          	sd	s8,-1410(a0)
    80000358:	0252cc3b          	divw	s8,t0,t0
    8000035c:	cdf00613          	li	a2,-801
    80000360:	9ef00793          	li	a5,-1553
    80000364:	0118923b          	sllw	tp,a7,a7
    80000368:	039cd1bb          	divuw	gp,s9,s9
    8000036c:	03d21e13          	slli	t3,tp,0x3d
    80000370:	e1500093          	li	ra,-491
    80000374:	00178cb3          	add	s9,a5,ra
    80000378:	00424233          	xor	tp,tp,tp
    8000037c:	00e71333          	sll	t1,a4,a4
    80000380:	f2000813          	li	a6,-224
    80000384:	00002917          	auipc	s2,0x2
    80000388:	a1390913          	addi	s2,s2,-1517 # 80001d97 <fromhost+0xd57>
    8000038c:	225b31a3          	sd	t0,547(s6)
    80000390:	29e00593          	li	a1,670
    80000394:	03189733          	mulh	a4,a7,a7
    80000398:	00100513          	li	a0,1
    8000039c:	00002897          	auipc	a7,0x2
    800003a0:	7ed88893          	addi	a7,a7,2029 # 80002b89 <_end+0x579>
    800003a4:	ee500b93          	li	s7,-283
    800003a8:	80488123          	sb	tp,-2046(a7)
    800003ac:	00100193          	li	gp,1
    800003b0:	97100213          	li	tp,-1679
    800003b4:	5ab95103          	lhu	sp,1451(s2)
    800003b8:	06600c93          	li	s9,102
    800003bc:	03f51513          	slli	a0,a0,0x3f
    800003c0:	03f19193          	slli	gp,gp,0x3f
    800003c4:	fff00f93          	li	t6,-1
    800003c8:	82800c13          	li	s8,-2008
    800003cc:	6f700393          	li	t2,1783
    800003d0:	42500d13          	li	s10,1061
    800003d4:	00afcfb3          	xor	t6,t6,a0
    800003d8:	01f37f33          	and	t5,t1,t6
    800003dc:	97600e93          	li	t4,-1674
    800003e0:	01ad09b3          	add	s3,s10,s10
    800003e4:	11c00693          	li	a3,284
    800003e8:	01926333          	or	t1,tp,s9
    800003ec:	fff00793          	li	a5,-1
    800003f0:	02b5e43b          	remw	s0,a1,a1
    800003f4:	00c604b3          	add	s1,a2,a2
    800003f8:	02dc00b3          	mul	ra,s8,a3
    800003fc:	03d86a3b          	remw	s4,a6,t4
    80000400:	007b9dbb          	sllw	s11,s7,t2
    80000404:	03b13933          	mulhu	s2,sp,s11
    80000408:	017b973b          	sllw	a4,s7,s7
    8000040c:	0037c7b3          	xor	a5,a5,gp
    80000410:	002b79b3          	and	s3,s6,sp
    80000414:	32400493          	li	s1,804
    80000418:	82800c93          	li	s9,-2008
    8000041c:	00af62b3          	or	t0,t5,a0
    80000420:	00088b93          	mv	s7,a7
    80000424:	000b8893          	mv	a7,s7
    80000428:	00f2fb33          	and	s6,t0,a5
    8000042c:	00100213          	li	tp,1
    80000430:	0394b5b3          	mulhu	a1,s1,s9
    80000434:	00000113          	li	sp,0
    80000438:	00002a97          	auipc	s5,0x2
    8000043c:	86da8a93          	addi	s5,s5,-1939 # 80001ca5 <fromhost+0xc65>
    80000440:	6fbab1a3          	sd	s11,1763(s5)
    80000444:	d8000293          	li	t0,-640
    80000448:	037bccb3          	div	s9,s7,s7
    8000044c:	00000413          	li	s0,0
    80000450:	03ff9fb3          	mulh	t6,t6,t6
    80000454:	00002517          	auipc	a0,0x2
    80000458:	a1b50513          	addi	a0,a0,-1509 # 80001e6f <fromhost+0xe2f>
    8000045c:	9c400f13          	li	t5,-1596
    80000460:	a4300a13          	li	s4,-1469
    80000464:	003b6e33          	or	t3,s6,gp
    80000468:	00002c17          	auipc	s8,0x2
    8000046c:	be6c0c13          	addi	s8,s8,-1050 # 8000204e <reg_x9_init+0x6>
    80000470:	034a59bb          	divuw	s3,s4,s4
    80000474:	f1900d13          	li	s10,-231
    80000478:	e3400593          	li	a1,-460
    8000047c:	81a00813          	li	a6,-2022
    80000480:	bf4d0e93          	addi	t4,s10,-1036
    80000484:	43e45f93          	srai	t6,s0,0x3e
    80000488:	010800b3          	add	ra,a6,a6
    8000048c:	03ef3ab3          	mulhu	s5,t5,t5
    80000490:	4cbc0603          	lb	a2,1227(s8)
    80000494:	bbeb6c93          	ori	s9,s6,-1090
    80000498:	036ea733          	mulhsu	a4,t4,s6
    8000049c:	cfdd6ce3          	bltu	s10,t4,80000194 <crash_backward>
    800004a0:	8d900093          	li	ra,-1831
    800004a4:	01545d1b          	srliw	s10,s0,0x15
    800004a8:	00002617          	auipc	a2,0x2
    800004ac:	59060613          	addi	a2,a2,1424 # 80002a38 <_end+0x428>
    800004b0:	00000833          	add	a6,zero,zero
    800004b4:	00001397          	auipc	t2,0x1
    800004b8:	76038393          	addi	t2,t2,1888 # 80001c14 <fromhost+0xbd4>
    800004bc:	00b2d4b3          	srl	s1,t0,a1
    800004c0:	1d100c13          	li	s8,465
    800004c4:	61738303          	lb	t1,1559(t2)
    800004c8:	a7c00c93          	li	s9,-1412
    800004cc:	00002417          	auipc	s0,0x2
    800004d0:	b7640413          	addi	s0,s0,-1162 # 80002042 <reg_x8_init+0x2>
    800004d4:	6a2528a3          	sw	sp,1713(a0)
    800004d8:	019c571b          	srliw	a4,s8,0x19
    800004dc:	b9861983          	lh	s3,-1128(a2)
    800004e0:	03f21213          	slli	tp,tp,0x3f
    800004e4:	00211a3b          	sllw	s4,sp,sp
    800004e8:	fff00913          	li	s2,-1
    800004ec:	34c40103          	lb	sp,844(s0)
    800004f0:	039c5f3b          	divuw	t5,s8,s9
    800004f4:	023b7bb3          	remu	s7,s6,gp
    800004f8:	663b2f93          	slti	t6,s6,1635
    800004fc:	07c00a93          	li	s5,124
    80000500:	0150e8b3          	or	a7,ra,s5
    80000504:	00494933          	xor	s2,s2,tp
    80000508:	012976b3          	and	a3,s2,s2
    8000050c:	0046edb3          	or	s11,a3,tp
    80000510:	1ec00213          	li	tp,492
    80000514:	00002617          	auipc	a2,0x2
    80000518:	d9560613          	addi	a2,a2,-619 # 800022a9 <test_memory+0xa9>
    8000051c:	05900393          	li	t2,89
    80000520:	03df1713          	slli	a4,t5,0x3d
    80000524:	00d684bb          	addw	s1,a3,a3
    80000528:	00100d93          	li	s11,1
    8000052c:	65000c93          	li	s9,1616
    80000530:	00108e3b          	addw	t3,ra,ra
    80000534:	01bd953b          	sllw	a0,s11,s11
    80000538:	02724ebb          	divw	t4,tp,t2
    8000053c:	00002417          	auipc	s0,0x2
    80000540:	db640413          	addi	s0,s0,-586 # 800022f2 <test_memory+0xf2>
    80000544:	004200bb          	addw	ra,tp,tp
    80000548:	00002717          	auipc	a4,0x2
    8000054c:	f1970713          	addi	a4,a4,-231 # 80002461 <test_memory+0x261>
    80000550:	d2fceb93          	ori	s7,s9,-721
    80000554:	00002297          	auipc	t0,0x2
    80000558:	8f028293          	addi	t0,t0,-1808 # 80001e44 <fromhost+0xe04>
    8000055c:	41a5d99b          	sraiw	s3,a1,0x1a
    80000560:	019cb8b3          	sltu	a7,s9,s9
    80000564:	03fd9d93          	slli	s11,s11,0x3f
    80000568:	23041a83          	lh	s5,560(s0)
    8000056c:	0b800213          	li	tp,184
    80000570:	feb66183          	lwu	gp,-21(a2)
    80000574:	004214b3          	sll	s1,tp,tp
    80000578:	00002797          	auipc	a5,0x2
    8000057c:	1b478793          	addi	a5,a5,436 # 8000272c <_end+0x11c>
    80000580:	fff00c13          	li	s8,-1
    80000584:	0f175503          	lhu	a0,241(a4)
    80000588:	01445313          	srli	t1,s0,0x14
    8000058c:	00002417          	auipc	s0,0x2
    80000590:	07740413          	addi	s0,s0,119 # 80002603 <loop_count+0x3>
    80000594:	00002197          	auipc	gp,0x2
    80000598:	93a18193          	addi	gp,gp,-1734 # 80001ece <fromhost+0xe8e>
    8000059c:	0265db13          	srli	s6,a1,0x26
    800005a0:	0242593b          	divuw	s2,tp,tp
    800005a4:	01bc4c33          	xor	s8,s8,s11
    800005a8:	04a00593          	li	a1,74
    800005ac:	00e70333          	add	t1,a4,a4
    800005b0:	eb145983          	lhu	s3,-335(s0)
    800005b4:	00002d17          	auipc	s10,0x2
    800005b8:	2c9d0d13          	addi	s10,s10,713 # 8000287d <_end+0x26d>
    800005bc:	00000a93          	li	s5,0
    800005c0:	d73d3103          	ld	sp,-653(s10)
    800005c4:	00b5bfb3          	sltu	t6,a1,a1
    800005c8:	ed800493          	li	s1,-296
    800005cc:	3d400713          	li	a4,980
    800005d0:	8af00c93          	li	s9,-1873
    800005d4:	00000893          	li	a7,0
    800005d8:	5d029a03          	lh	s4,1488(t0)
    800005dc:	00000f93          	li	t6,0
    800005e0:	7b600e93          	li	t4,1974
    800005e4:	3b1ac463          	blt	s5,a7,8000098c <crash_forward>
    800005e8:	4eb1a523          	sw	a1,1258(gp) # 800032fa <__global_pointer$+0x4ea>
    800005ec:	00000593          	li	a1,0
    800005f0:	020239b3          	mulhu	s3,tp,zero
    800005f4:	a6d00393          	li	t2,-1427
    800005f8:	018c1933          	sll	s2,s8,s8
    800005fc:	f6938e13          	addi	t3,t2,-151
    80000600:	64c00093          	li	ra,1612
    80000604:	41948bbb          	subw	s7,s1,s9
    80000608:	0184ff33          	and	t5,s1,s8
    8000060c:	4052863b          	subw	a2,t0,t0
    80000610:	cb600d13          	li	s10,-842
    80000614:	7f670513          	addi	a0,a4,2038
    80000618:	e9e00b13          	li	s6,-354
    8000061c:	b2a7d683          	lhu	a3,-1238(a5)
    80000620:	036d4433          	div	s0,s10,s6
    80000624:	8a000f93          	li	t6,-1888
    80000628:	b7c3e6e3          	bltu	t2,t3,80000194 <crash_backward>
    8000062c:	00000b93          	li	s7,0
    80000630:	0031b2b3          	sltu	t0,gp,gp
    80000634:	00001597          	auipc	a1,0x1
    80000638:	71a58593          	addi	a1,a1,1818 # 80001d4e <fromhost+0xd0e>
    8000063c:	030c813b          	mulw	sp,s9,a6
    80000640:	b4a70ae3          	beq	a4,a0,80000194 <crash_backward>
    80000644:	97a00d13          	li	s10,-1670
    80000648:	01ad0b33          	add	s6,s10,s10
    8000064c:	026369b3          	rem	s3,t1,t1
    80000650:	021ea233          	mulhsu	tp,t4,ra
    80000654:	00100413          	li	s0,1
    80000658:	7de59a83          	lh	s5,2014(a1)
    8000065c:	00000913          	li	s2,0
    80000660:	01b8e833          	or	a6,a7,s11
    80000664:	00002317          	auipc	t1,0x2
    80000668:	0fe30313          	addi	t1,t1,254 # 80002762 <_end+0x152>
    8000066c:	03f41413          	slli	s0,s0,0x3f
    80000670:	c9534a03          	lbu	s4,-875(t1)
    80000674:	d0f84213          	xori	tp,a6,-753
    80000678:	fff00793          	li	a5,-1
    8000067c:	6c900c93          	li	s9,1737
    80000680:	8b400a93          	li	s5,-1868
    80000684:	035ad633          	divu	a2,s5,s5
    80000688:	91800393          	li	t2,-1768
    8000068c:	02f02eb3          	mulhsu	t4,zero,a5
    80000690:	78300e13          	li	t3,1923
    80000694:	e8d00593          	li	a1,-371
    80000698:	2f0f4a63          	blt	t5,a6,8000098c <crash_forward>
    8000069c:	01ccfb33          	and	s6,s9,t3
    800006a0:	2e001663          	bnez	zero,8000098c <crash_forward>
    800006a4:	75b00993          	li	s3,1883
    800006a8:	0087c7b3          	xor	a5,a5,s0
    800006ac:	02b5e733          	rem	a4,a1,a1
    800006b0:	f5a00713          	li	a4,-166
    800006b4:	28a00513          	li	a0,650
    800006b8:	41188833          	sub	a6,a7,a7
    800006bc:	38a00d13          	li	s10,906
    800006c0:	f1f00f13          	li	t5,-225
    800006c4:	d8a70b13          	addi	s6,a4,-630
    800006c8:	9d600a93          	li	s5,-1578
    800006cc:	2ceb7063          	bgeu	s6,a4,8000098c <crash_forward>
    800006d0:	00fcf8b3          	and	a7,s9,a5
    800006d4:	ad2b90e3          	bne	s7,s2,80000194 <crash_backward>
    800006d8:	3b600193          	li	gp,950
    800006dc:	0088e4b3          	or	s1,a7,s0
    800006e0:	02c675b3          	remu	a1,a2,a2
    800006e4:	00636133          	or	sp,t1,t1
    800006e8:	7f700c93          	li	s9,2039
    800006ec:	e9900d93          	li	s11,-359
    800006f0:	41bc8c33          	sub	s8,s9,s11
    800006f4:	0333f2b3          	remu	t0,t2,s3
    800006f8:	00212eb3          	slt	t4,sp,sp
    800006fc:	01bd983b          	sllw	a6,s11,s11
    80000700:	01a520b3          	slt	ra,a0,s10
    80000704:	00216cb3          	or	s9,sp,sp
    80000708:	14c00993          	li	s3,332
    8000070c:	00002a17          	auipc	s4,0x2
    80000710:	071a0a13          	addi	s4,s4,113 # 8000277d <_end+0x16d>
    80000714:	41ce523b          	sraw	tp,t3,t3
    80000718:	415f5333          	sra	t1,t5,s5
    8000071c:	b8700293          	li	t0,-1145
    80000720:	0252c933          	div	s2,t0,t0
    80000724:	403fd6b3          	sra	a3,t6,gp
    80000728:	0339ebb3          	rem	s7,s3,s3
    8000072c:	f3b00b13          	li	s6,-197
    80000730:	f1a00493          	li	s1,-230
    80000734:	42000093          	li	ra,1056
    80000738:	6c800b93          	li	s7,1736
    8000073c:	55dba913          	slti	s2,s7,1373
    80000740:	d6200193          	li	gp,-670
    80000744:	016b2db3          	slt	s11,s6,s6
    80000748:	03dee833          	rem	a6,t4,t4
    8000074c:	00002e17          	auipc	t3,0x2
    80000750:	8ade0e13          	addi	t3,t3,-1875 # 80001ff9 <fromhost+0xfb9>
    80000754:	00002a97          	auipc	s5,0x2
    80000758:	194a8a93          	addi	s5,s5,404 # 800028e8 <_end+0x2d8>
    8000075c:	e6c18f13          	addi	t5,gp,-404 # 80002c7c <_end+0x66c>
    80000760:	2ece1fa3          	sh	a2,767(t3)
    80000764:	b81a1603          	lh	a2,-1151(s4)
    80000768:	00002b17          	auipc	s6,0x2
    8000076c:	220b0b13          	addi	s6,s6,544 # 80002988 <_end+0x378>
    80000770:	a3e1e2e3          	bltu	gp,t5,80000194 <crash_backward>
    80000774:	00100593          	li	a1,1
    80000778:	03f59593          	slli	a1,a1,0x3f
    8000077c:	0031e833          	or	a6,gp,gp
    80000780:	ad0abc83          	ld	s9,-1328(s5)
    80000784:	0170fd33          	and	s10,ra,s7
    80000788:	004209bb          	addw	s3,tp,tp
    8000078c:	01aa1dbb          	sllw	s11,s4,s10
    80000790:	00100a13          	li	s4,1
    80000794:	00002e17          	auipc	t3,0x2
    80000798:	aace0e13          	addi	t3,t3,-1364 # 80002240 <test_memory+0x40>
    8000079c:	fff00c13          	li	s8,-1
    800007a0:	00100e93          	li	t4,1
    800007a4:	9ca00b93          	li	s7,-1590
    800007a8:	024201b3          	mul	gp,tp,tp
    800007ac:	fd8e0e23          	sb	s8,-36(t3)
    800007b0:	fa500f13          	li	t5,-91
    800007b4:	0294b433          	mulhu	s0,s1,s1
    800007b8:	03ef4933          	div	s2,t5,t5
    800007bc:	02cdecbb          	remw	s9,s11,a2
    800007c0:	39900993          	li	s3,921
    800007c4:	03ef0db3          	mul	s11,t5,t5
    800007c8:	017bdab3          	srl	s5,s7,s7
    800007cc:	0139cd33          	xor	s10,s3,s3
    800007d0:	00bc4c33          	xor	s8,s8,a1
    800007d4:	0188f7b3          	and	a5,a7,s8
    800007d8:	56800413          	li	s0,1384
    800007dc:	bc2b5603          	lhu	a2,-1086(s6)
    800007e0:	00b7e133          	or	sp,a5,a1
    800007e4:	00028e13          	mv	t3,t0
    800007e8:	13c00893          	li	a7,316
    800007ec:	13340d93          	addi	s11,s0,307
    800007f0:	00001817          	auipc	a6,0x1
    800007f4:	5fb80813          	addi	a6,a6,1531 # 80001deb <fromhost+0xdab>
    800007f8:	5a583083          	ld	ra,1445(a6)
    800007fc:	c6a00993          	li	s3,-918
    80000800:	0339eabb          	remw	s5,s3,s3
    80000804:	000e0493          	mv	s1,t3
    80000808:	00842f33          	slt	t5,s0,s0
    8000080c:	f5600613          	li	a2,-170
    80000810:	00c6113b          	sllw	sp,a2,a2
    80000814:	169e4c63          	blt	t3,s1,8000098c <crash_forward>
    80000818:	00fe7933          	and	s2,t3,a5
    8000081c:	c7300793          	li	a5,-909
    80000820:	02e769bb          	remw	s3,a4,a4
    80000824:	03fe9e93          	slli	t4,t4,0x3f
    80000828:	01e1139b          	slliw	t2,sp,0x1e
    8000082c:	03dec63b          	divw	a2,t4,t4
    80000830:	00100e13          	li	t3,1
    80000834:	baf00093          	li	ra,-1105
    80000838:	3a700c13          	li	s8,935
    8000083c:	0217c833          	div	a6,a5,ra
    80000840:	02fcc1b3          	div	gp,s9,a5
    80000844:	3c300113          	li	sp,963
    80000848:	fff00513          	li	a0,-1
    8000084c:	46f88713          	addi	a4,a7,1135
    80000850:	03fe1e13          	slli	t3,t3,0x3f
    80000854:	022164b3          	rem	s1,sp,sp
    80000858:	01d54533          	xor	a0,a0,t4
    8000085c:	00002597          	auipc	a1,0x2
    80000860:	b2758593          	addi	a1,a1,-1241 # 80002383 <test_memory+0x183>
    80000864:	ec200c93          	li	s9,-318
    80000868:	41f481b3          	sub	gp,s1,t6
    8000086c:	e9200813          	li	a6,-366
    80000870:	fff00f13          	li	t5,-1
    80000874:	07600d13          	li	s10,118
    80000878:	41ac8bbb          	subw	s7,s9,s10
    8000087c:	085c0b13          	addi	s6,s8,133
    80000880:	09c00793          	li	a5,156
    80000884:	03fa1a13          	slli	s4,s4,0x3f
    80000888:	fff00f93          	li	t6,-1
    8000088c:	49100a93          	li	s5,1169
    80000890:	1bf586a3          	sb	t6,429(a1)
    80000894:	01cf4f33          	xor	t5,t5,t3
    80000898:	014fcfb3          	xor	t6,t6,s4
    8000089c:	7a700113          	li	sp,1959
    800008a0:	019cb633          	sltu	a2,s9,s9
    800008a4:	00001b97          	auipc	s7,0x1
    800008a8:	453b8b93          	addi	s7,s7,1107 # 80001cf7 <fromhost+0xcb7>
    800008ac:	00001d97          	auipc	s11,0x1
    800008b0:	459d8d93          	addi	s11,s11,1113 # 80001d05 <fromhost+0xcc5>
    800008b4:	00a372b3          	and	t0,t1,a0
    800008b8:	108a8913          	addi	s2,s5,264
    800008bc:	40738d3b          	subw	s10,t2,t2
    800008c0:	01e0f3b3          	and	t2,ra,t5
    800008c4:	01f2f6b3          	and	a3,t0,t6
    800008c8:	01f7d8bb          	srlw	a7,a5,t6
    800008cc:	01d2e333          	or	t1,t0,t4
    800008d0:	592b8b03          	lb	s6,1426(s7)
    800008d4:	0b2a8c63          	beq	s5,s2,8000098c <crash_forward>
    800008d8:	59ada1a3          	sw	s10,1411(s11)
    800008dc:	0146e233          	or	tp,a3,s4
    800008e0:	8a46fae3          	bgeu	a3,tp,80000194 <crash_backward>
    800008e4:	00f820b3          	slt	ra,a6,a5
    800008e8:	01ce69b3          	or	s3,t3,t3
    800008ec:	0221573b          	divuw	a4,sp,sp
    800008f0:	8b33f2e3          	bgeu	t2,s3,80000194 <crash_backward>
    800008f4:	0040006f          	j	800008f8 <reg_dump>

00000000800008f8 <reg_dump>:
    800008f8:	00002097          	auipc	ra,0x2
    800008fc:	d0808093          	addi	ra,ra,-760 # 80002600 <loop_count>
    80000900:	0000a103          	lw	sp,0(ra)
    80000904:	fff10193          	addi	gp,sp,-1
    80000908:	0030a023          	sw	gp,0(ra)
    8000090c:	920118e3          	bnez	sp,8000023c <pseg_0>
    80000910:	00001097          	auipc	ra,0x1
    80000914:	7f008093          	addi	ra,ra,2032 # 80002100 <begin_signature>
    80000918:	0000b023          	sd	zero,0(ra)
    8000091c:	0020b823          	sd	sp,16(ra)
    80000920:	0030bc23          	sd	gp,24(ra)
    80000924:	0240b023          	sd	tp,32(ra)
    80000928:	0250b423          	sd	t0,40(ra)
    8000092c:	0260b823          	sd	t1,48(ra)
    80000930:	0270bc23          	sd	t2,56(ra)
    80000934:	0480b023          	sd	s0,64(ra)
    80000938:	0490b423          	sd	s1,72(ra)
    8000093c:	04a0b823          	sd	a0,80(ra)
    80000940:	06c0b023          	sd	a2,96(ra)
    80000944:	06d0b423          	sd	a3,104(ra)
    80000948:	06e0b823          	sd	a4,112(ra)
    8000094c:	06f0bc23          	sd	a5,120(ra)
    80000950:	0900b023          	sd	a6,128(ra)
    80000954:	0910b423          	sd	a7,136(ra)
    80000958:	0920b823          	sd	s2,144(ra)
    8000095c:	0930bc23          	sd	s3,152(ra)
    80000960:	0b40b023          	sd	s4,160(ra)
    80000964:	0b50b423          	sd	s5,168(ra)
    80000968:	0b60b823          	sd	s6,176(ra)
    8000096c:	0d80b023          	sd	s8,192(ra)
    80000970:	0d90b423          	sd	s9,200(ra)
    80000974:	0da0b823          	sd	s10,208(ra)
    80000978:	0fc0b023          	sd	t3,224(ra)
    8000097c:	0fd0b423          	sd	t4,232(ra)
    80000980:	0fe0b823          	sd	t5,240(ra)
    80000984:	0ff0bc23          	sd	t6,248(ra)
    80000988:	0200006f          	j	800009a8 <test_end>

000000008000098c <crash_forward>:
    8000098c:	0ff0000f          	fence
    80000990:	00018063          	beqz	gp,80000990 <crash_forward+0x4>
    80000994:	00119193          	slli	gp,gp,0x1
    80000998:	0011e193          	ori	gp,gp,1
    8000099c:	05d00893          	li	a7,93
    800009a0:	00018513          	mv	a0,gp
    800009a4:	00000073          	ecall

00000000800009a8 <test_end>:
    800009a8:	0ff0000f          	fence
    800009ac:	00100193          	li	gp,1
    800009b0:	05d00893          	li	a7,93
    800009b4:	00000513          	li	a0,0
    800009b8:	00000073          	ecall
    800009bc:	c0001073          	unimp
    800009c0:	0000                	unimp
	...

Disassembly of section .tohost:

0000000080001000 <tohost>:
	...

0000000080001040 <fromhost>:
	...

Disassembly of section .data:

0000000080002000 <hidden_data>:
    80002000:	de9c                	sw	a5,56(a3)
    80002002:	1e9d                	addi	t4,t4,-25
    80002004:	0e68                	addi	a0,sp,796
    80002006:	f9ec                	sd	a1,240(a1)

0000000080002008 <reg_x1_init>:
    80002008:	0000                	unimp
    8000200a:	8000                	0x8000
    8000200c:	ffff                	0xffff
    8000200e:	ffff                	0xffff

0000000080002010 <reg_x2_init>:
    80002010:	05bd                	addi	a1,a1,15
    80002012:	92aa                	add	t0,t0,a0
    80002014:	23dbc613          	xori	a2,s7,573

0000000080002018 <reg_x3_init>:
    80002018:	2f34                	fld	fa3,88(a4)
    8000201a:	ff5e                	sd	s7,440(sp)
    8000201c:	346a                	fld	fs0,184(sp)
    8000201e:	          	fmsub.s	ft2,ft0,ft0,ft0,rmm

0000000080002020 <reg_x4_init>:
	...

0000000080002028 <reg_x5_init>:
	...

0000000080002030 <reg_x6_init>:
	...

0000000080002038 <reg_x7_init>:
    80002038:	00000003          	lb	zero,0(zero) # 0 <_start-0x80000000>
    8000203c:	0000                	unimp
	...

0000000080002040 <reg_x8_init>:
    80002040:	1881                	addi	a7,a7,-32
    80002042:	1e80                	addi	s0,sp,880
    80002044:	f231                	bnez	a2,80001f88 <fromhost+0xf48>
    80002046:	          	0xdbd323ab

0000000080002048 <reg_x9_init>:
    80002048:	15e8dbd3          	0x15e8dbd3
    8000204c:	7bb6                	ld	s7,360(sp)
    8000204e:	bb5e                	fsd	fs7,432(sp)

0000000080002050 <reg_x10_init>:
    80002050:	8005                	srli	s0,s0,0x1
    80002052:	ffff                	0xffff
    80002054:	ffff                	0xffff
    80002056:	ffff                	0xffff

0000000080002058 <reg_x11_init>:
    80002058:	ffff                	0xffff
    8000205a:	ffff                	0xffff
    8000205c:	ffff                	0xffff
    8000205e:	ffff                	0xffff

0000000080002060 <reg_x12_init>:
    80002060:	0005                	c.nop	1
    80002062:	0000                	unimp
    80002064:	0000                	unimp
    80002066:	0800                	addi	s0,sp,16

0000000080002068 <reg_x13_init>:
    80002068:	30c4                	fld	fs1,160(s1)
    8000206a:	7484                	ld	s1,40(s1)
    8000206c:	0031                	c.nop	12
    8000206e:	          	0x77c9b

0000000080002070 <reg_x14_init>:
    80002070:	80000007          	0x80000007
    80002074:	ffff                	0xffff
    80002076:	ffff                	0xffff

0000000080002078 <reg_x15_init>:
    80002078:	4bf6                	lw	s7,92(sp)
    8000207a:	4c91                	li	s9,4
    8000207c:	e205                	bnez	a2,8000209c <reg_x19_init+0x4>
    8000207e:	5cfc                	lw	a5,124(s1)

0000000080002080 <reg_x16_init>:
    80002080:	ffffff83          	0xffffff83
    80002084:	ffff                	0xffff
    80002086:	ffff                	0xffff

0000000080002088 <reg_x17_init>:
	...

0000000080002090 <reg_x18_init>:
    80002090:	522c                	lw	a1,96(a2)
    80002092:	8c929803          	lh	a6,-1847(t0)
    80002096:	          	0x815b58d3

0000000080002098 <reg_x19_init>:
    80002098:	29f4815b          	0x29f4815b
    8000209c:	6488                	ld	a0,8(s1)
    8000209e:	          	0xe7a3

00000000800020a0 <reg_x20_init>:
	...

00000000800020a8 <reg_x21_init>:
    800020a8:	d0bc8d43          	fmadd.s	fs10,fs9,fa1,fs10,rne
    800020ac:	27f2                	fld	fa5,280(sp)
    800020ae:	32da                	fld	ft5,432(sp)

00000000800020b0 <reg_x22_init>:
    800020b0:	6e5a                	ld	t3,400(sp)
    800020b2:	51b5456f          	jal	a0,80056dcc <__global_pointer$+0x53fbc>
    800020b6:	          	0x63c47553

00000000800020b8 <reg_x23_init>:
    800020b8:	63c4                	ld	s1,128(a5)
    800020ba:	a3c5                	j	8000269a <_end+0x8a>
    800020bc:	0b313f0f          	0xb313f0f

00000000800020c0 <reg_x24_init>:
    800020c0:	25a8                	fld	fa0,72(a1)
    800020c2:	12c8                	addi	a0,sp,356
    800020c4:	2546                	fld	fa0,80(sp)
    800020c6:	a4cd                	j	800023a8 <test_memory+0x1a8>

00000000800020c8 <reg_x25_init>:
    800020c8:	0000                	unimp
    800020ca:	8000                	0x8000
    800020cc:	ffff                	0xffff
    800020ce:	ffff                	0xffff

00000000800020d0 <reg_x26_init>:
    800020d0:	87f2                	mv	a5,t3
    800020d2:	f3aa                	sd	a0,480(sp)
    800020d4:	48cd                	li	a7,19
    800020d6:	7ad9                	lui	s5,0xffff6

00000000800020d8 <reg_x27_init>:
	...

00000000800020e0 <reg_x28_init>:
    800020e0:	00bc1c57          	0xbc1c57
    800020e4:	e958                	sd	a4,144(a0)
    800020e6:	dfaa                	sw	a0,252(sp)

00000000800020e8 <reg_x29_init>:
    800020e8:	24fe                	fld	fs1,472(sp)
    800020ea:	1ef9                	addi	t4,t4,-2
    800020ec:	e634                	sd	a3,72(a2)
    800020ee:	2045                	0x2045

00000000800020f0 <reg_x30_init>:
    800020f0:	0cee                	slli	s9,s9,0x1b
    800020f2:	4121                	li	sp,8
    800020f4:	3bdf 2c3d       	0xffff2c3d3bdf

00000000800020f8 <reg_x31_init>:
    800020f8:	ffff                	0xffff
    800020fa:	ffff                	0xffff
    800020fc:	ffff                	0xffff
    800020fe:	ffff                	0xffff

0000000080002100 <begin_signature>:
    80002100:	7e78                	ld	a4,248(a2)
    80002102:	832e                	mv	t1,a1
    80002104:	de8c                	sw	a1,56(a3)
    80002106:	c094                	sw	a3,0(s1)

0000000080002108 <reg_x1_output>:
    80002108:	a9f2                	fsd	ft8,208(sp)
    8000210a:	b32a                	fsd	fa0,416(sp)
    8000210c:	bdc2                	fsd	fa6,248(sp)
    8000210e:	2344                	fld	fs1,128(a4)

0000000080002110 <reg_x2_output>:
    80002110:	6304                	ld	s1,0(a4)
    80002112:	212a                	fld	ft2,136(sp)
    80002114:	2ea6                	fld	ft9,72(sp)
    80002116:	29c2                	fld	fs3,16(sp)

0000000080002118 <reg_x3_output>:
    80002118:	240984e7          	jalr	s1,576(s3)
    8000211c:	605c                	ld	a5,128(s0)
    8000211e:	d525                	beqz	a0,80002086 <reg_x16_init+0x6>

0000000080002120 <reg_x4_output>:
    80002120:	a7d4                	fsd	fa3,136(a5)
    80002122:	ce7a                	sw	t5,28(sp)
    80002124:	5338                	lw	a4,96(a4)
    80002126:	5956                	lw	s2,116(sp)

0000000080002128 <reg_x5_output>:
    80002128:	62ad                	lui	t0,0xb
    8000212a:	242693bb          	0x242693bb
    8000212e:	7aa1                	lui	s5,0xfffe8

0000000080002130 <reg_x6_output>:
    80002130:	cf62                	sw	s8,156(sp)
    80002132:	01320fcf          	fnmadd.s	ft11,ft4,fs3,ft0,rne
    80002136:	          	0xfa8c83a7

0000000080002138 <reg_x7_output>:
    80002138:	fa8c                	sd	a1,48(a3)
    8000213a:	f03f6733          	0xf03f6733
    8000213e:	          	fnmsub.s	fs3,fa7,fa2,fa2,rmm

0000000080002140 <reg_x8_output>:
    80002140:	60c8                	ld	a0,128(s1)
    80002142:	647a                	ld	s0,408(sp)
    80002144:	f7ec8c3f  	0xe10f40d9f7ec8c3f

0000000080002148 <reg_x9_output>:
    80002148:	40d9                	li	ra,22
    8000214a:	6a52e10f          	0x6a52e10f
    8000214e:	2c18                	fld	fa4,24(s0)

0000000080002150 <reg_x10_output>:
    80002150:	67a6                	ld	a5,72(sp)
    80002152:	49c6                	lw	s3,80(sp)
    80002154:	47c5                	li	a5,17
    80002156:	b3a5                	j	80001ebe <fromhost+0xe7e>

0000000080002158 <reg_x11_output>:
    80002158:	5a97c37b          	0x5a97c37b
    8000215c:	42bd                	li	t0,15
    8000215e:	ff64                	sd	s1,248(a4)

0000000080002160 <reg_x12_output>:
    80002160:	5fb48e47          	fmsub.q	ft8,fs1,fs11,fa1,rne
    80002164:	23198317          	auipc	t1,0x23198

0000000080002168 <reg_x13_output>:
    80002168:	caaa                	sw	a0,84(sp)
    8000216a:	add1ac37          	lui	s8,0xadd1a
    8000216e:	d774                	sw	a3,108(a4)

0000000080002170 <reg_x14_output>:
    80002170:	3606                	fld	fa2,96(sp)
    80002172:	c428                	sw	a0,72(s0)
    80002174:	94e4                	0x94e4
    80002176:	69a6                	ld	s3,72(sp)

0000000080002178 <reg_x15_output>:
    80002178:	41fa                	lw	gp,156(sp)
    8000217a:	d5d5                	beqz	a1,80002126 <reg_x4_output+0x6>
    8000217c:	9e7a                	add	t3,t3,t5
    8000217e:	eeb0                	sd	a2,88(a3)

0000000080002180 <reg_x16_output>:
    80002180:	31ee                	fld	ft3,248(sp)
    80002182:	e934                	sd	a3,80(a0)
    80002184:	a9f1                	j	80002660 <_end+0x50>
    80002186:	ebea                	sd	s10,464(sp)

0000000080002188 <reg_x17_output>:
    80002188:	ad98                	fsd	fa4,24(a1)
    8000218a:	3114                	fld	fa3,32(a0)
    8000218c:	9604                	0x9604
    8000218e:	          	0x7a09bab

0000000080002190 <reg_x18_output>:
    80002190:	07a0                	addi	s0,sp,968
    80002192:	99a6                	add	s3,s3,s1
    80002194:	4b08                	lw	a0,16(a4)
    80002196:	f152                	sd	s4,160(sp)

0000000080002198 <reg_x19_output>:
    80002198:	afd2                	fsd	fs4,472(sp)
    8000219a:	647f                	0x647f
    8000219c:	1d34                	addi	a3,sp,696
    8000219e:	e6ed                	bnez	a3,80002288 <test_memory+0x88>

00000000800021a0 <reg_x20_output>:
    800021a0:	da79                	beqz	a2,80002176 <reg_x14_output+0x6>
    800021a2:	1689                	addi	a3,a3,-30
    800021a4:	ce31                	beqz	a2,80002200 <test_memory>
    800021a6:	          	0xe2dc5523

00000000800021a8 <reg_x21_output>:
    800021a8:	e2dc                	sd	a5,128(a3)
    800021aa:	3a9d234f          	fnmadd.d	ft6,fs10,fs1,ft7,rdn
    800021ae:	9e8e                	add	t4,t4,gp

00000000800021b0 <reg_x22_output>:
    800021b0:	275f64f3          	csrrsi	s1,0x275,30
    800021b4:	271f 2834       	0xad02834271f

00000000800021b8 <reg_x23_output>:
    800021b8:	0ad0                	addi	a2,sp,340
    800021ba:	7a33ba67          	0x7a33ba67
    800021be:	          	0xa44b7507

00000000800021c0 <reg_x24_output>:
    800021c0:	2f5aa44b          	fnmsub.q	fs0,fs5,fs5,ft5,rdn
    800021c4:	4733caeb          	0x4733caeb

00000000800021c8 <reg_x25_output>:
    800021c8:	e3f6                	sd	t4,448(sp)
    800021ca:	fc09                	bnez	s0,800020e4 <reg_x28_init+0x4>
    800021cc:	5a22                	lw	s4,40(sp)
    800021ce:	9b1f        	0x52911a649b1f

00000000800021d0 <reg_x26_output>:
    800021d0:	1a64                	addi	s1,sp,316
    800021d2:	5291                	li	t0,-28
    800021d4:	9b06                	add	s6,s6,ra
    800021d6:	ad39                	j	800027f4 <_end+0x1e4>

00000000800021d8 <reg_x27_output>:
    800021d8:	1145                	addi	sp,sp,-15
    800021da:	30dd4983          	lbu	s3,781(s10)
    800021de:	b392                	fsd	ft4,480(sp)

00000000800021e0 <reg_x28_output>:
    800021e0:	089ec9eb          	0x89ec9eb
    800021e4:	0b6c                	addi	a1,sp,412
    800021e6:	4a1d                	li	s4,7

00000000800021e8 <reg_x29_output>:
    800021e8:	ef2a                	sd	a0,408(sp)
    800021ea:	e0730827          	0xe0730827
    800021ee:	2709                	addiw	a4,a4,2

00000000800021f0 <reg_x30_output>:
    800021f0:	255c50bb          	0x255c50bb
    800021f4:	f815                	bnez	s0,80002128 <reg_x5_output>
    800021f6:	          	0x4e876f8f

00000000800021f8 <reg_x31_output>:
    800021f8:	86914e87          	flq	ft9,-1943(sp)
    800021fc:	eb25                	bnez	a4,8000226c <test_memory+0x6c>
    800021fe:	818c                	0x818c

0000000080002200 <test_memory>:
    80002200:	c481                	beqz	s1,80002208 <test_memory+0x8>
    80002202:	05f1                	addi	a1,a1,28
    80002204:	ddb0                	sw	a2,120(a1)
    80002206:	5bfd41fb          	0x5bfd41fb
    8000220a:	4376                	lw	t1,92(sp)
    8000220c:	bd3c                	fsd	fa5,120(a0)
    8000220e:	34f1                	addiw	s1,s1,-4
    80002210:	b72835a3          	sd	s2,-1173(a6)
    80002214:	6992                	ld	s3,256(sp)
    80002216:	ba2d                	j	80001b50 <fromhost+0xb10>
    80002218:	376e                	fld	fa4,248(sp)
    8000221a:	39b8                	fld	fa4,112(a1)
    8000221c:	4016                	0x4016
    8000221e:	875c                	0x875c
    80002220:	fc5d                	bnez	s0,800021de <reg_x27_output+0x6>
    80002222:	3b95                	addiw	s7,s7,-27
    80002224:	94ec                	0x94ec
    80002226:	9614                	0x9614
    80002228:	ffbd                	bnez	a5,800021a6 <reg_x20_output+0x6>
    8000222a:	a110                	fsd	fa2,0(a0)
    8000222c:	0a81                	addi	s5,s5,0
    8000222e:	9699                	srai	a3,a3,0x26
    80002230:	342d                	addiw	s0,s0,-21
    80002232:	a360                	fsd	fs0,192(a4)
    80002234:	788ebf3b          	0x788ebf3b
    80002238:	d0c156d7          	0xd0c156d7
    8000223c:	c24d                	beqz	a2,800022de <test_memory+0xde>
    8000223e:	c28a                	sw	sp,68(sp)
    80002240:	0971                	addi	s2,s2,28
    80002242:	1e0e                	slli	t3,t3,0x23
    80002244:	7c06                	ld	s8,96(sp)
    80002246:	a1f77d93          	andi	s11,a4,-1505
    8000224a:	831d3dc3          	fmadd.d	fs11,fs10,fa7,fa6,rup
    8000224e:	bd4de713          	ori	a4,s11,-1068
    80002252:	2790                	fld	fa2,8(a5)
    80002254:	b87407c3          	fmadd.s	fa5,fs0,ft7,fs7,rne
    80002258:	8a25                	andi	a2,a2,9
    8000225a:	08bc                	addi	a5,sp,88
    8000225c:	5e7d                	li	t3,-1
    8000225e:	0a2d                	addi	s4,s4,11
    80002260:	83d2                	mv	t2,s4
    80002262:	266d                	addiw	a2,a2,27
    80002264:	9818                	0x9818
    80002266:	a868                	fsd	fa0,208(s0)
    80002268:	80ff                	0x80ff
    8000226a:	1d54                	addi	a3,sp,692
    8000226c:	52824937          	lui	s2,0x52824
    80002270:	a05c                	fsd	fa5,128(s0)
    80002272:	6024                	ld	s1,64(s0)
    80002274:	fb4a                	sd	s2,432(sp)
    80002276:	5ba5                	li	s7,-23
    80002278:	6d1e4dbb          	0x6d1e4dbb
    8000227c:	09e9                	addi	s3,s3,26
    8000227e:	9f05                	subw	a4,a4,s1
    80002280:	d4c3643b          	0xd4c3643b
    80002284:	3af0                	fld	fa2,240(a3)
    80002286:	1de9                	addi	s11,s11,-6
    80002288:	7feae66b          	0x7feae66b
    8000228c:	fcd2                	sd	s4,120(sp)
    8000228e:	2611                	addiw	a2,a2,4
    80002290:	f394                	sd	a3,32(a5)
    80002292:	0144                	addi	s1,sp,132
    80002294:	840e35eb          	0x840e35eb
    80002298:	1aab1983          	lh	s3,426(s6)
    8000229c:	c0ed                	beqz	s1,8000237e <test_memory+0x17e>
    8000229e:	f48963b7          	lui	t2,0xf4896
    800022a2:	6592843f cb98f621 	0xcb98f6216592843f
    800022aa:	223f9103          	lh	sp,547(t6)
    800022ae:	f035                	bnez	s0,80002212 <test_memory+0x12>
    800022b0:	579d8c97          	auipc	s9,0x579d8
    800022b4:	83ac4233          	0x83ac4233
    800022b8:	cd6a                	sw	s10,152(sp)
    800022ba:	ecc1                	bnez	s1,80002352 <test_memory+0x152>
    800022bc:	d574                	sw	a3,108(a0)
    800022be:	caba                	sw	a4,84(sp)
    800022c0:	5040                	lw	s0,36(s0)
    800022c2:	96f8                	0x96f8
    800022c4:	fab5                	bnez	a3,80002238 <test_memory+0x38>
    800022c6:	85fe                	mv	a1,t6
    800022c8:	8e24                	0x8e24
    800022ca:	2da6                	fld	fs11,72(sp)
    800022cc:	d8a9                	beqz	s1,8000221e <test_memory+0x1e>
    800022ce:	3e54                	fld	fa3,184(a2)
    800022d0:	08e9                	addi	a7,a7,26
    800022d2:	5308                	lw	a0,32(a4)
    800022d4:	73a1                	lui	t2,0xfffe8
    800022d6:	0131                	addi	sp,sp,12
    800022d8:	2de1                	addiw	s11,s11,24
    800022da:	8d82bbd7          	0x8d82bbd7
    800022de:	e0c8                	sd	a0,128(s1)
    800022e0:	7504                	ld	s1,40(a0)
    800022e2:	9969                	andi	a0,a0,-6
    800022e4:	b1c0c143          	fmadd.s	ft2,ft1,ft8,fs6,rmm
    800022e8:	b472                	fsd	ft8,40(sp)
    800022ea:	e087c3cb          	fnmsub.s	ft7,fa5,fs0,ft8,rmm
    800022ee:	b271                	j	80001c7a <fromhost+0xc3a>
    800022f0:	6671                	lui	a2,0x1c
    800022f2:	db5f 912b 914d      	0x914d912bdb5f
    800022f8:	705e                	0x705e
    800022fa:	9c34                	0x9c34
    800022fc:	11ad                	addi	gp,gp,-21
    800022fe:	e3211bfb          	0xe3211bfb
    80002302:	201c                	fld	fa5,0(s0)
    80002304:	5c5336db          	0x5c5336db
    80002308:	c229                	beqz	a2,8000234a <test_memory+0x14a>
    8000230a:	f22dd927          	0xf22dd927
    8000230e:	2bfc406f          	j	800c6dcc <__global_pointer$+0xc3fbc>
    80002312:	b5fe                	fsd	ft11,232(sp)
    80002314:	4fb9                	li	t6,14
    80002316:	3bf6                	fld	fs7,376(sp)
    80002318:	d7d9                	beqz	a5,800022a6 <test_memory+0xa6>
    8000231a:	1c4a                	slli	s8,s8,0x32
    8000231c:	ab9e                	fsd	ft7,464(sp)
    8000231e:	c0e6                	sw	s9,64(sp)
    80002320:	ce05                	beqz	a2,80002358 <test_memory+0x158>
    80002322:	4c10                	lw	a2,24(s0)
    80002324:	324e                	fld	ft4,240(sp)
    80002326:	5585                	li	a1,-31
    80002328:	1cb5                	addi	s9,s9,-19
    8000232a:	9bcc                	0x9bcc
    8000232c:	643d                	lui	s0,0xf
    8000232e:	e005                	bnez	s0,8000234e <test_memory+0x14e>
    80002330:	21ba                	fld	ft3,392(sp)
    80002332:	d0a9                	beqz	s1,80002274 <test_memory+0x74>
    80002334:	9ca9                	addw	s1,s1,a0
    80002336:	614f4433          	0x614f4433
    8000233a:	5a2e                	lw	s4,232(sp)
    8000233c:	5491                	li	s1,-28
    8000233e:	c04d                	beqz	s0,800023e0 <test_memory+0x1e0>
    80002340:	dcc0                	sw	s0,60(s1)
    80002342:	14c5                	addi	s1,s1,-15
    80002344:	5624                	lw	s1,104(a2)
    80002346:	bc3e                	fsd	fa5,56(sp)
    80002348:	ffc5                	bnez	a5,80002300 <test_memory+0x100>
    8000234a:	222efb4f          	fnmadd.d	fs6,ft9,ft2,ft4
    8000234e:	e589                	bnez	a1,80002358 <test_memory+0x158>
    80002350:	dce899bf 103ab84a 	0x103ab84adce899bf
    80002358:	68098043          	fmadd.s	ft0,fs3,ft0,fa3,rne
    8000235c:	93d9                	srli	a5,a5,0x36
    8000235e:	e945                	bnez	a0,8000240e <test_memory+0x20e>
    80002360:	b1147a8b          	0xb1147a8b
    80002364:	85215317          	auipc	t1,0x85215
    80002368:	2d7381cb          	0x2d7381cb
    8000236c:	f2ce                	sd	s3,352(sp)
    8000236e:	8118                	0x8118
    80002370:	c5124883          	lbu	a7,-943(tp) # fffffffffffffc51 <__global_pointer$+0xffffffff7fffce41>
    80002374:	2061                	0x2061
    80002376:	3ee2                	fld	ft9,56(sp)
    80002378:	eb38                	sd	a4,80(a4)
    8000237a:	ad5bdf9b          	0xad5bdf9b
    8000237e:	2cee                	fld	fs9,216(sp)
    80002380:	b73e                	fsd	fa5,424(sp)
    80002382:	fa96ba2b          	0xfa96ba2b
    80002386:	a87fb943          	fmadd.s	fs2,ft11,ft7,fs5,rup
    8000238a:	2d6e                	fld	fs10,216(sp)
    8000238c:	0eb9                	addi	t4,t4,14
    8000238e:	98d2                	add	a7,a7,s4
    80002390:	aa85ad63          	0xaa85ad63
    80002394:	ceb84aa7          	fsq	fa1,-779(a6)
    80002398:	7838                	ld	a4,112(s0)
    8000239a:	b516                	fsd	ft5,168(sp)
    8000239c:	2012                	fld	ft0,256(sp)
    8000239e:	7a0c                	ld	a1,48(a2)
    800023a0:	ee5bb7d7          	0xee5bb7d7
    800023a4:	2144                	fld	fs1,128(a0)
    800023a6:	8d5c0be7          	jalr	s7,-1835(s8) # ffffffffadd198d5 <__global_pointer$+0xffffffff2dd16ac5>
    800023aa:	b95e                	fsd	fs7,176(sp)
    800023ac:	501606e3          	beq	a2,ra,800030b8 <__global_pointer$+0x2a8>
    800023b0:	0b1e                	slli	s6,s6,0x7
    800023b2:	cadd                	beqz	a3,80002468 <test_memory+0x268>
    800023b4:	2f49                	addiw	t5,t5,18
    800023b6:	0950ba47          	fmsub.s	fs4,ft1,fs5,ft1,rup
    800023ba:	51e6                	lw	gp,120(sp)
    800023bc:	6822748b          	0x6822748b
    800023c0:	b6fa                	fsd	ft10,360(sp)
    800023c2:	cb8d                	beqz	a5,800023f4 <test_memory+0x1f4>
    800023c4:	99585177          	0x99585177
    800023c8:	9222                	add	tp,tp,s0
    800023ca:	8d82                	jr	s11
    800023cc:	1315fb17          	auipc	s6,0x1315f
    800023d0:	f058                	sd	a4,160(s0)
    800023d2:	e014                	sd	a3,0(s0)
    800023d4:	944ea367          	0x944ea367
    800023d8:	8911                	andi	a0,a0,4
    800023da:	5b66c03f 956c82ef 	0x956c82ef5b66c03f
    800023e2:	4dba938b          	0x4dba938b
    800023e6:	a552fc67          	0xa552fc67
    800023ea:	206f213b          	0x206f213b
    800023ee:	eb1e                	sd	t2,400(sp)
    800023f0:	501a                	0x501a
    800023f2:	4dec                	lw	a1,92(a1)
    800023f4:	8396                	mv	t2,t0
    800023f6:	7dff                	0x7dff
    800023f8:	f711                	bnez	a4,80002304 <test_memory+0x104>
    800023fa:	387e                	fld	fa6,504(sp)
    800023fc:	88571bdb          	0x88571bdb
    80002400:	ae78fa97          	auipc	s5,0xae78f
    80002404:	634c                	ld	a1,128(a4)
    80002406:	6b19                	lui	s6,0x6
    80002408:	96b5                	srai	a3,a3,0x2d
    8000240a:	f5ff                	0xf5ff
    8000240c:	97d9                	srai	a5,a5,0x36
    8000240e:	2a50355b          	0x2a50355b
    80002412:	b4ff                	0xb4ff
    80002414:	ae5c                	fsd	fa5,152(a2)
    80002416:	4881                	li	a7,0
    80002418:	8468                	0x8468
    8000241a:	5232b1ab          	0x5232b1ab
    8000241e:	5421                	li	s0,-24
    80002420:	050a                	slli	a0,a0,0x2
    80002422:	ca20                	sw	s0,80(a2)
    80002424:	8c9f 3684 7bd6      	0x7bd636848c9f
    8000242a:	9cb2                	add	s9,s9,a2
    8000242c:	949a                	add	s1,s1,t1
    8000242e:	9316                	add	t1,t1,t0
    80002430:	c44a                	sw	s2,8(sp)
    80002432:	525d                	li	tp,-9
    80002434:	b24ecebb          	0xb24ecebb
    80002438:	c034                	sw	a3,64(s0)
    8000243a:	2eb2                	fld	ft9,264(sp)
    8000243c:	fe4a                	sd	s2,312(sp)
    8000243e:	861e                	mv	a2,t2
    80002440:	8af6                	mv	s5,t4
    80002442:	63d986f3          	0x63d986f3
    80002446:	dcfc                	sw	a5,124(s1)
    80002448:	f2182483          	lw	s1,-223(a6)
    8000244c:	d2ca                	sw	s2,100(sp)
    8000244e:	0f9a                	slli	t6,t6,0x6
    80002450:	e8a2713b          	0xe8a2713b
    80002454:	f69e                	sd	t2,360(sp)
    80002456:	d415782b          	0xd415782b
    8000245a:	622c                	ld	a1,64(a2)
    8000245c:	2893e213          	ori	tp,t2,649
    80002460:	eab1                	bnez	a3,800024b4 <test_memory+0x2b4>
    80002462:	fde8                	sd	a0,248(a1)
    80002464:	e556                	sd	s5,136(sp)
    80002466:	d8fa                	sw	t5,112(sp)
    80002468:	9f50                	0x9f50
    8000246a:	5dd4b74f          	0x5dd4b74f
    8000246e:	0548                	addi	a0,sp,644
    80002470:	eabd                	bnez	a3,800024e6 <test_memory+0x2e6>
    80002472:	096dcdc7          	fmsub.s	fs11,fs11,fs6,ft1,rmm
    80002476:	60cc                	ld	a1,128(s1)
    80002478:	d0b1                	beqz	s1,800023bc <test_memory+0x1bc>
    8000247a:	3013eabb          	0x3013eabb
    8000247e:	bdfd                	j	8000237c <test_memory+0x17c>
    80002480:	ec8b6b37          	lui	s6,0xec8b6
    80002484:	7a6f0223          	sb	t1,1956(t5)
    80002488:	978ace13          	xori	t3,s5,-1672
    8000248c:	a6f8                	fsd	fa4,200(a3)
    8000248e:	4086                	lw	ra,64(sp)
    80002490:	394c                	fld	fa1,176(a0)
    80002492:	1f42                	slli	t5,t5,0x30
    80002494:	f681                	bnez	a3,8000239c <test_memory+0x19c>
    80002496:	8164                	0x8164
    80002498:	0a31                	addi	s4,s4,12
    8000249a:	da58                	sw	a4,52(a2)
    8000249c:	89e5                	andi	a1,a1,25
    8000249e:	2ca4268f          	0x2ca4268f
    800024a2:	0285deeb          	0x285deeb
    800024a6:	0a69635b          	0xa69635b
    800024aa:	e074                	sd	a3,192(s0)
    800024ac:	ebc9                	bnez	a5,8000253e <test_memory+0x33e>
    800024ae:	2cc63c93          	sltiu	s9,a2,716
    800024b2:	0c1c                	addi	a5,sp,528
    800024b4:	c3a4                	sw	s1,64(a5)
    800024b6:	b8c1                	j	80001d86 <fromhost+0xd46>
    800024b8:	84c2                	mv	s1,a6
    800024ba:	4eb7731b          	0x4eb7731b
    800024be:	bf06                	fsd	ft1,440(sp)
    800024c0:	4149a8bb          	0x4149a8bb
    800024c4:	b872                	fsd	ft8,48(sp)
    800024c6:	b3ec                	fsd	fa1,224(a5)
    800024c8:	da30                	sw	a2,112(a2)
    800024ca:	ecb0aef3          	csrrs	t4,0xecb,ra
    800024ce:	1b6a                	slli	s6,s6,0x3a
    800024d0:	64f1                	lui	s1,0x1c
    800024d2:	67989b1b          	0x67989b1b
    800024d6:	7116c59b          	0x7116c59b
    800024da:	045e                	slli	s0,s0,0x17
    800024dc:	f39e39c7          	fmsub.d	fs3,ft8,fs9,ft10,rup
    800024e0:	c362                	sw	s8,132(sp)
    800024e2:	dda5                	beqz	a1,8000245a <test_memory+0x25a>
    800024e4:	8211                	srli	a2,a2,0x4
    800024e6:	8d79                	and	a0,a0,a4
    800024e8:	1648b40b          	0x1648b40b
    800024ec:	2738f367          	0x2738f367
    800024f0:	e9f5                	bnez	a1,800025e4 <test_memory+0x3e4>
    800024f2:	512c                	lw	a1,96(a0)
    800024f4:	6c427493          	andi	s1,tp,1732
    800024f8:	b8e0                	fsd	fs0,240(s1)
    800024fa:	9b36                	add	s6,s6,a3
    800024fc:	50ed                	li	ra,-5
    800024fe:	4355                	li	t1,21
    80002500:	6b24                	ld	s1,80(a4)
    80002502:	eb89                	bnez	a5,80002514 <test_memory+0x314>
    80002504:	1c45                	addi	s8,s8,-15
    80002506:	5708                	lw	a0,40(a4)
    80002508:	d3e2                	sw	s8,228(sp)
    8000250a:	d3a2                	sw	s0,228(sp)
    8000250c:	297e                	fld	fs2,472(sp)
    8000250e:	411e                	lw	sp,196(sp)
    80002510:	54de                	lw	s1,244(sp)
    80002512:	a29c                	fsd	fa5,0(a3)
    80002514:	d6e392bb          	0xd6e392bb
    80002518:	9b5c                	0x9b5c
    8000251a:	c9ac                	sw	a1,80(a1)
    8000251c:	2314                	fld	fa3,0(a4)
    8000251e:	58ca                	lw	a7,176(sp)
    80002520:	c9ae                	sw	a1,208(sp)
    80002522:	82ba                	mv	t0,a4
    80002524:	451f 1952 1f5f      	0x1f5f1952451f
    8000252a:	74b6                	ld	s1,360(sp)
    8000252c:	3eda                	fld	ft9,432(sp)
    8000252e:	9e32                	add	t3,t3,a2
    80002530:	27d7881b          	addiw	a6,a5,637
    80002534:	baf0caaf          	0xbaf0caaf
    80002538:	59c4                	lw	s1,52(a1)
    8000253a:	2036                	fld	ft0,328(sp)
    8000253c:	56b8                	lw	a4,104(a3)
    8000253e:	6f54                	ld	a3,152(a4)
    80002540:	0452                	slli	s0,s0,0x14
    80002542:	2e66f3b3          	0x2e66f3b3
    80002546:	5b68                	lw	a0,116(a4)
    80002548:	1a71                	addi	s4,s4,-4
    8000254a:	73f4                	ld	a3,224(a5)
    8000254c:	6030                	ld	a2,64(s0)
    8000254e:	f8029907          	0xf8029907
    80002552:	24c0                	fld	fs0,136(s1)
    80002554:	9ffe                	add	t6,t6,t6
    80002556:	d579                	beqz	a0,80002524 <test_memory+0x324>
    80002558:	f3dc                	sd	a5,160(a5)
    8000255a:	154c                	addi	a1,sp,676
    8000255c:	b430886b          	0xb430886b
    80002560:	42fc8c87          	0x42fc8c87
    80002564:	c015                	beqz	s0,80002588 <test_memory+0x388>
    80002566:	245f ebcd b15f      	0xb15febcd245f
    8000256c:	7d8d                	lui	s11,0xfffe3
    8000256e:	2b25                	addiw	s6,s6,9
    80002570:	834a                	mv	t1,s2
    80002572:	0fd2                	slli	t6,t6,0x14
    80002574:	fbad                	bnez	a5,800024e6 <test_memory+0x2e6>
    80002576:	f467ff7b          	0xf467ff7b
    8000257a:	7951ff2b          	0x7951ff2b
    8000257e:	b4d9                	j	80002044 <reg_x8_init+0x4>
    80002580:	0066                	c.slli	zero,0x19
    80002582:	aad8c6db          	0xaad8c6db
    80002586:	29b9                	addiw	s3,s3,14
    80002588:	7168                	ld	a0,224(a0)
    8000258a:	db2e                	sw	a1,180(sp)
    8000258c:	e0d1                	bnez	s1,80002610 <_end>
    8000258e:	db8fd737          	lui	a4,0xdb8fd
    80002592:	6c92                	ld	s9,256(sp)
    80002594:	e6b5                	bnez	a3,80002600 <loop_count>
    80002596:	4daf7277          	0x4daf7277
    8000259a:	740e                	ld	s0,224(sp)
    8000259c:	34e88da7          	0x34e88da7
    800025a0:	b0de9b2f          	0xb0de9b2f
    800025a4:	4a95                	li	s5,5
    800025a6:	bd66                	fsd	fs9,184(sp)
    800025a8:	64fe                	ld	s1,472(sp)
    800025aa:	cda4                	sw	s1,88(a1)
    800025ac:	1430                	addi	a2,sp,552
    800025ae:	7dd169e7          	0x7dd169e7
    800025b2:	7b1f 1482 d4d0      	0xd4d014827b1f
    800025b8:	4601                	li	a2,0
    800025ba:	dd7a                	sw	t5,184(sp)
    800025bc:	9b36                	add	s6,s6,a3
    800025be:	35c2f717          	auipc	a4,0x35c2f
    800025c2:	1f45                	addi	t5,t5,-15
    800025c4:	58e2                	lw	a7,56(sp)
    800025c6:	c194                	sw	a3,0(a1)
    800025c8:	ade4908f          	0xade4908f
    800025cc:	18b1                	addi	a7,a7,-20
    800025ce:	fc99                	bnez	s1,800024ec <test_memory+0x2ec>
    800025d0:	3af5                	addiw	s5,s5,-3
    800025d2:	f4cd                	bnez	s1,8000257c <test_memory+0x37c>
    800025d4:	3d75                	addiw	s10,s10,-3
    800025d6:	4cc1                	li	s9,16
    800025d8:	742e                	ld	s0,232(sp)
    800025da:	4b6e                	lw	s6,216(sp)
    800025dc:	07e5                	addi	a5,a5,25
    800025de:	1e3e                	slli	t3,t3,0x2f
    800025e0:	2c4ad727          	0x2c4ad727
    800025e4:	6f88                	ld	a0,24(a5)
    800025e6:	12dcc3b3          	0x12dcc3b3
    800025ea:	87a0                	0x87a0
    800025ec:	ecb0                	sd	a2,88(s1)
    800025ee:	1291                	addi	t0,t0,-28
    800025f0:	4c215043          	0x4c215043
    800025f4:	4964                	lw	s1,84(a0)
    800025f6:	27fa                	fld	fa5,408(sp)
    800025f8:	cc0c                	sw	a1,24(s0)
    800025fa:	9c81                	subw	s1,s1,s0
    800025fc:	3825                	addiw	a6,a6,-23
    800025fe:	          	blt	ra,tp,80002616 <_end+0x6>

0000000080002600 <loop_count>:
    80002600:	0040                	addi	s0,sp,4
	...

Disassembly of section .riscv.attributes:

0000000000000000 <.riscv.attributes>:
   0:	1e41                	addi	t3,t3,-16
   2:	0000                	unimp
   4:	7200                	ld	s0,32(a2)
   6:	7369                	lui	t1,0xffffa
   8:	01007663          	bgeu	zero,a6,14 <_start-0x7fffffec>
   c:	0014                	0x14
   e:	0000                	unimp
  10:	7205                	lui	tp,0xfffe1
  12:	3676                	fld	fa2,376(sp)
  14:	6934                	ld	a3,80(a0)
  16:	7032                	0x7032
  18:	5f30                	lw	a2,120(a4)
  1a:	326d                	addiw	tp,tp,-5
  1c:	3070                	fld	fa2,224(s0)
	...
