
build/test61:     file format elf64-littleriscv


Disassembly of section .text.init:

0000000080000000 <_start>:
    80000000:	05c0006f          	j	8000005c <reset_vector>

0000000080000004 <trap_vector>:
    80000004:	34202f73          	csrr	t5,mcause
    80000008:	00800f93          	li	t6,8
    8000000c:	03ff0a63          	beq	t5,t6,80000040 <write_tohost>
    80000010:	00900f93          	li	t6,9
    80000014:	03ff0663          	beq	t5,t6,80000040 <write_tohost>
    80000018:	00b00f93          	li	t6,11
    8000001c:	03ff0263          	beq	t5,t6,80000040 <write_tohost>
    80000020:	80000f17          	auipc	t5,0x80000
    80000024:	fe0f0f13          	addi	t5,t5,-32 # 0 <_start-0x80000000>
    80000028:	000f0463          	beqz	t5,80000030 <trap_vector+0x2c>
    8000002c:	000f0067          	jr	t5
    80000030:	34202f73          	csrr	t5,mcause
    80000034:	000f5463          	bgez	t5,8000003c <handle_exception>
    80000038:	0040006f          	j	8000003c <handle_exception>

000000008000003c <handle_exception>:
    8000003c:	5391e193          	ori	gp,gp,1337

0000000080000040 <write_tohost>:
    80000040:	00001f17          	auipc	t5,0x1
    80000044:	fc3f2023          	sw	gp,-64(t5) # 80001000 <tohost>
    80000048:	000902b7          	lui	t0,0x90
    8000004c:	0012829b          	addiw	t0,t0,1
    80000050:	00c29293          	slli	t0,t0,0xc
    80000054:	0002af83          	lw	t6,0(t0) # 90000 <_start-0x7ff70000>
    80000058:	fe9ff06f          	j	80000040 <write_tohost>

000000008000005c <reset_vector>:
    8000005c:	00000093          	li	ra,0
    80000060:	00000113          	li	sp,0
    80000064:	00000193          	li	gp,0
    80000068:	00000213          	li	tp,0
    8000006c:	00000293          	li	t0,0
    80000070:	00000313          	li	t1,0
    80000074:	00000393          	li	t2,0
    80000078:	00000413          	li	s0,0
    8000007c:	00000493          	li	s1,0
    80000080:	00000513          	li	a0,0
    80000084:	00000593          	li	a1,0
    80000088:	00000613          	li	a2,0
    8000008c:	00000693          	li	a3,0
    80000090:	00000713          	li	a4,0
    80000094:	00000793          	li	a5,0
    80000098:	00000813          	li	a6,0
    8000009c:	00000893          	li	a7,0
    800000a0:	00000913          	li	s2,0
    800000a4:	00000993          	li	s3,0
    800000a8:	00000a13          	li	s4,0
    800000ac:	00000a93          	li	s5,0
    800000b0:	00000b13          	li	s6,0
    800000b4:	00000b93          	li	s7,0
    800000b8:	00000c13          	li	s8,0
    800000bc:	00000c93          	li	s9,0
    800000c0:	00000d13          	li	s10,0
    800000c4:	00000d93          	li	s11,0
    800000c8:	00000e13          	li	t3,0
    800000cc:	00000e93          	li	t4,0
    800000d0:	00000f13          	li	t5,0
    800000d4:	00000f93          	li	t6,0
    800000d8:	f1402573          	csrr	a0,mhartid
    800000dc:	00051063          	bnez	a0,800000dc <reset_vector+0x80>
    800000e0:	00000297          	auipc	t0,0x0
    800000e4:	01028293          	addi	t0,t0,16 # 800000f0 <reset_vector+0x94>
    800000e8:	30529073          	csrw	mtvec,t0
    800000ec:	18005073          	csrwi	satp,0
    800000f0:	00000297          	auipc	t0,0x0
    800000f4:	02428293          	addi	t0,t0,36 # 80000114 <reset_vector+0xb8>
    800000f8:	30529073          	csrw	mtvec,t0
    800000fc:	0010029b          	addiw	t0,zero,1
    80000100:	03529293          	slli	t0,t0,0x35
    80000104:	fff28293          	addi	t0,t0,-1
    80000108:	3b029073          	csrw	pmpaddr0,t0
    8000010c:	01f00293          	li	t0,31
    80000110:	3a029073          	csrw	pmpcfg0,t0
    80000114:	30405073          	csrwi	mie,0
    80000118:	00000297          	auipc	t0,0x0
    8000011c:	01428293          	addi	t0,t0,20 # 8000012c <reset_vector+0xd0>
    80000120:	30529073          	csrw	mtvec,t0
    80000124:	30205073          	csrwi	medeleg,0
    80000128:	30305073          	csrwi	mideleg,0
    8000012c:	00000193          	li	gp,0
    80000130:	00000297          	auipc	t0,0x0
    80000134:	ed428293          	addi	t0,t0,-300 # 80000004 <trap_vector>
    80000138:	30529073          	csrw	mtvec,t0
    8000013c:	00100513          	li	a0,1
    80000140:	01f51513          	slli	a0,a0,0x1f
    80000144:	00055c63          	bgez	a0,8000015c <reset_vector+0x100>
    80000148:	0ff0000f          	fence
    8000014c:	00100193          	li	gp,1
    80000150:	05d00893          	li	a7,93
    80000154:	00000513          	li	a0,0
    80000158:	00000073          	ecall
    8000015c:	80000297          	auipc	t0,0x80000
    80000160:	ea428293          	addi	t0,t0,-348 # 0 <_start-0x80000000>
    80000164:	00028a63          	beqz	t0,80000178 <reset_vector+0x11c>
    80000168:	10529073          	csrw	stvec,t0
    8000016c:	0000b2b7          	lui	t0,0xb
    80000170:	1092829b          	addiw	t0,t0,265
    80000174:	30229073          	csrw	medeleg,t0
    80000178:	30005073          	csrwi	mstatus,0
    8000017c:	00000297          	auipc	t0,0x0
    80000180:	01428293          	addi	t0,t0,20 # 80000190 <reset_vector+0x134>
    80000184:	34129073          	csrw	mepc,t0
    80000188:	f1402573          	csrr	a0,mhartid
    8000018c:	30200073          	mret
    80000190:	0200006f          	j	800001b0 <test_start>

0000000080000194 <crash_backward>:
    80000194:	0ff0000f          	fence
    80000198:	00018063          	beqz	gp,80000198 <crash_backward+0x4>
    8000019c:	00119193          	slli	gp,gp,0x1
    800001a0:	0011e193          	ori	gp,gp,1
    800001a4:	05d00893          	li	a7,93
    800001a8:	00018513          	mv	a0,gp
    800001ac:	00000073          	ecall

00000000800001b0 <test_start>:
    800001b0:	00002f97          	auipc	t6,0x2
    800001b4:	e50f8f93          	addi	t6,t6,-432 # 80002000 <hidden_data>
    800001b8:	000fb003          	ld	zero,0(t6)
    800001bc:	008fb083          	ld	ra,8(t6)
    800001c0:	010fb103          	ld	sp,16(t6)
    800001c4:	018fb183          	ld	gp,24(t6)
    800001c8:	020fb203          	ld	tp,32(t6)
    800001cc:	028fb283          	ld	t0,40(t6)
    800001d0:	030fb303          	ld	t1,48(t6)
    800001d4:	038fb383          	ld	t2,56(t6)
    800001d8:	040fb403          	ld	s0,64(t6)
    800001dc:	048fb483          	ld	s1,72(t6)
    800001e0:	050fb503          	ld	a0,80(t6)
    800001e4:	058fb583          	ld	a1,88(t6)
    800001e8:	060fb603          	ld	a2,96(t6)
    800001ec:	068fb683          	ld	a3,104(t6)
    800001f0:	070fb703          	ld	a4,112(t6)
    800001f4:	078fb783          	ld	a5,120(t6)
    800001f8:	080fb803          	ld	a6,128(t6)
    800001fc:	088fb883          	ld	a7,136(t6)
    80000200:	090fb903          	ld	s2,144(t6)
    80000204:	098fb983          	ld	s3,152(t6)
    80000208:	0a0fba03          	ld	s4,160(t6)
    8000020c:	0a8fba83          	ld	s5,168(t6)
    80000210:	0b0fbb03          	ld	s6,176(t6)
    80000214:	0b8fbb83          	ld	s7,184(t6)
    80000218:	0c0fbc03          	ld	s8,192(t6)
    8000021c:	0c8fbc83          	ld	s9,200(t6)
    80000220:	0d0fbd03          	ld	s10,208(t6)
    80000224:	0d8fbd83          	ld	s11,216(t6)
    80000228:	0e0fbe03          	ld	t3,224(t6)
    8000022c:	0e8fbe83          	ld	t4,232(t6)
    80000230:	0f0fbf03          	ld	t5,240(t6)
    80000234:	0f8fbf83          	ld	t6,248(t6)
    80000238:	0040006f          	j	8000023c <pseg_0>

000000008000023c <pseg_0>:
    8000023c:	3a400a13          	li	s4,932
    80000240:	02b5873b          	mulw	a4,a1,a1
    80000244:	4c300893          	li	a7,1219
    80000248:	92f00693          	li	a3,-1745
    8000024c:	037d4733          	div	a4,s10,s7
    80000250:	00d693bb          	sllw	t2,a3,a3
    80000254:	16500313          	li	t1,357
    80000258:	41d08733          	sub	a4,ra,t4
    8000025c:	01189f33          	sll	t5,a7,a7
    80000260:	026365b3          	rem	a1,t1,t1
    80000264:	5688a793          	slti	a5,a7,1384
    80000268:	018a0eb3          	add	t4,s4,s8
    8000026c:	77600d13          	li	s10,1910
    80000270:	00100c93          	li	s9,1
    80000274:	f8a00b93          	li	s7,-118
    80000278:	02d6e2bb          	remw	t0,a3,a3
    8000027c:	03fc9c93          	slli	s9,s9,0x3f
    80000280:	00002617          	auipc	a2,0x2
    80000284:	50860613          	addi	a2,a2,1288 # 80002788 <_end+0x178>
    80000288:	22700993          	li	s3,551
    8000028c:	007a953b          	sllw	a0,s5,t2
    80000290:	0273b433          	mulhu	s0,t2,t2
    80000294:	01f54c33          	xor	s8,a0,t6
    80000298:	9b900193          	li	gp,-1607
    8000029c:	5a400e13          	li	t3,1444
    800002a0:	0231ddb3          	divu	s11,gp,gp
    800002a4:	017bb4b3          	sltu	s1,s7,s7
    800002a8:	014a7b33          	and	s6,s4,s4
    800002ac:	d5400293          	li	t0,-684
    800002b0:	03ad6833          	rem	a6,s10,s10
    800002b4:	01ce2933          	slt	s2,t3,t3
    800002b8:	00100413          	li	s0,1
    800002bc:	2f400f13          	li	t5,756
    800002c0:	fff00093          	li	ra,-1
    800002c4:	0339b133          	mulhu	sp,s3,s3
    800002c8:	8bd00193          	li	gp,-1859
    800002cc:	03bdb5b3          	mulhu	a1,s11,s11
    800002d0:	030858bb          	divuw	a7,a6,a6
    800002d4:	9ed00493          	li	s1,-1555
    800002d8:	011b9a13          	slli	s4,s7,0x11
    800002dc:	003187b3          	add	a5,gp,gp
    800002e0:	0190c0b3          	xor	ra,ra,s9
    800002e4:	03f41413          	slli	s0,s0,0x3f
    800002e8:	02d68c3b          	mulw	s8,a3,a3
    800002ec:	de160203          	lb	tp,-543(a2)
    800002f0:	0017ffb3          	and	t6,a5,ra
    800002f4:	10100993          	li	s3,257
    800002f8:	019feab3          	or	s5,t6,s9
    800002fc:	635f8863          	beq	t6,s5,8000092c <crash_forward>
    80000300:	02109833          	mulh	a6,ra,ra
    80000304:	dcf00a13          	li	s4,-561
    80000308:	18600693          	li	a3,390
    8000030c:	009f2533          	slt	a0,t5,s1
    80000310:	01ce6bb3          	or	s7,t3,t3
    80000314:	18700213          	li	tp,391
    80000318:	fff00d93          	li	s11,-1
    8000031c:	004a0c33          	add	s8,s4,tp
    80000320:	00d2d33b          	srlw	t1,t0,a3
    80000324:	00673393          	sltiu	t2,a4,6
    80000328:	9f300d13          	li	s10,-1549
    8000032c:	000d0a93          	mv	s5,s10
    80000330:	87b00113          	li	sp,-1925
    80000334:	84200913          	li	s2,-1982
    80000338:	0fb00193          	li	gp,251
    8000033c:	000a8093          	mv	ra,s5
    80000340:	00002c17          	auipc	s8,0x2
    80000344:	fa4c0c13          	addi	s8,s8,-92 # 800022e4 <test_memory+0xe4>
    80000348:	8e800c93          	li	s9,-1816
    8000034c:	0229d8bb          	divuw	a7,s3,sp
    80000350:	e41a92e3          	bne	s5,ra,80000194 <crash_backward>
    80000354:	2cb00393          	li	t2,715
    80000358:	5da00b93          	li	s7,1498
    8000035c:	cf300493          	li	s1,-781
    80000360:	46f00613          	li	a2,1135
    80000364:	8aa00693          	li	a3,-1878
    80000368:	00c187bb          	addw	a5,gp,a2
    8000036c:	177c1723          	sh	s7,366(s8)
    80000370:	00002f17          	auipc	t5,0x2
    80000374:	388f0f13          	addi	t5,t5,904 # 800026f8 <_end+0xe8>
    80000378:	41ad5e3b          	sraw	t3,s10,s10
    8000037c:	02211633          	mulh	a2,sp,sp
    80000380:	b0000793          	li	a5,-1280
    80000384:	6e900f93          	li	t6,1769
    80000388:	008dcdb3          	xor	s11,s11,s0
    8000038c:	52000a93          	li	s5,1312
    80000390:	89500593          	li	a1,-1899
    80000394:	029b9a33          	mulh	s4,s7,s1
    80000398:	bb100313          	li	t1,-1103
    8000039c:	035a89b3          	mul	s3,s5,s5
    800003a0:	03fcf833          	remu	a6,s9,t6
    800003a4:	01ad513b          	srlw	sp,s10,s10
    800003a8:	01b1f733          	and	a4,gp,s11
    800003ac:	00876eb3          	or	t4,a4,s0
    800003b0:	01b8109b          	slliw	ra,a6,0x1b
    800003b4:	40635233          	sra	tp,t1,t1
    800003b8:	c38f2503          	lw	a0,-968(t5)
    800003bc:	03545233          	divu	tp,s0,s5
    800003c0:	fbc00c13          	li	s8,-68
    800003c4:	02b96b3b          	remw	s6,s2,a1
    800003c8:	dc0066e3          	bltu	zero,zero,80000194 <crash_backward>
    800003cc:	00d3c2b3          	xor	t0,t2,a3
    800003d0:	c7300e13          	li	t3,-909
    800003d4:	a8000113          	li	sp,-1408
    800003d8:	016c0f33          	add	t5,s8,s6
    800003dc:	03ce64b3          	rem	s1,t3,t3
    800003e0:	000e8d13          	mv	s10,t4
    800003e4:	01ffd3b3          	srl	t2,t6,t6
    800003e8:	3f800a93          	li	s5,1016
    800003ec:	015ab933          	sltu	s2,s5,s5
    800003f0:	9c600093          	li	ra,-1594
    800003f4:	54600693          	li	a3,1350
    800003f8:	00100b13          	li	s6,1
    800003fc:	41aa8f93          	addi	t6,s5,1050
    80000400:	6f200513          	li	a0,1778
    80000404:	41e00c93          	li	s9,1054
    80000408:	000d0b93          	mv	s7,s10
    8000040c:	537d6063          	bltu	s10,s7,8000092c <crash_forward>
    80000410:	83800893          	li	a7,-1992
    80000414:	01914833          	xor	a6,sp,s9
    80000418:	96200613          	li	a2,-1694
    8000041c:	4187d1bb          	sraw	gp,a5,s8
    80000420:	014f0833          	add	a6,t5,s4
    80000424:	d60048e3          	bltz	zero,80000194 <crash_backward>
    80000428:	1ffbe793          	ori	a5,s7,511
    8000042c:	1fb68293          	addi	t0,a3,507
    80000430:	03fb1b13          	slli	s6,s6,0x3f
    80000434:	00b5cf33          	xor	t5,a1,a1
    80000438:	00a0a333          	slt	t1,ra,a0
    8000043c:	02a51c33          	mulh	s8,a0,a0
    80000440:	00002717          	auipc	a4,0x2
    80000444:	ede70713          	addi	a4,a4,-290 # 8000231e <test_memory+0x11e>
    80000448:	00002a97          	auipc	s5,0x2
    8000044c:	846a8a93          	addi	s5,s5,-1978 # 80001c8e <fromhost+0xc4e>
    80000450:	03afd43b          	divuw	s0,t6,s10
    80000454:	ba800e13          	li	t3,-1112
    80000458:	fdc71183          	lh	gp,-36(a4)
    8000045c:	00c89a33          	sll	s4,a7,a2
    80000460:	021663b3          	rem	t2,a2,ra
    80000464:	fff00593          	li	a1,-1
    80000468:	03ce013b          	mulw	sp,t3,t3
    8000046c:	00000313          	li	t1,0
    80000470:	d2d2e2e3          	bltu	t0,a3,80000194 <crash_backward>
    80000474:	00002817          	auipc	a6,0x2
    80000478:	79680813          	addi	a6,a6,1942 # 80002c0a <_end+0x5fa>
    8000047c:	fec00913          	li	s2,-20
    80000480:	711a9d23          	sh	a7,1818(s5)
    80000484:	40845a3b          	sraw	s4,s0,s0
    80000488:	577c7d93          	andi	s11,s8,1399
    8000048c:	03296bbb          	remw	s7,s2,s2
    80000490:	41400e93          	li	t4,1044
    80000494:	9603ea13          	ori	s4,t2,-1696
    80000498:	00002517          	auipc	a0,0x2
    8000049c:	9bf50513          	addi	a0,a0,-1601 # 80001e57 <fromhost+0xe17>
    800004a0:	0151973b          	sllw	a4,gp,s5
    800004a4:	418c5933          	sra	s2,s8,s8
    800004a8:	3d100193          	li	gp,977
    800004ac:	00002697          	auipc	a3,0x2
    800004b0:	97c68693          	addi	a3,a3,-1668 # 80001e28 <fromhost+0xde8>
    800004b4:	00f7ecb3          	or	s9,a5,a5
    800004b8:	00000e13          	li	t3,0
    800004bc:	01a14733          	xor	a4,sp,s10
    800004c0:	0244dc3b          	divuw	s8,s1,tp
    800004c4:	0165c5b3          	xor	a1,a1,s6
    800004c8:	00002c97          	auipc	s9,0x2
    800004cc:	3dfc8c93          	addi	s9,s9,991 # 800028a7 <_end+0x297>
    800004d0:	4cb00f93          	li	t6,1227
    800004d4:	0318cdbb          	divw	s11,a7,a7
    800004d8:	eb400493          	li	s1,-332
    800004dc:	43fb9a37          	lui	s4,0x43fb9
    800004e0:	991ce703          	lwu	a4,-1647(s9)
    800004e4:	56953783          	ld	a5,1385(a0)
    800004e8:	00ba7233          	and	tp,s4,a1
    800004ec:	6ec6ea83          	lwu	s5,1772(a3)
    800004f0:	9af803a3          	sb	a5,-1625(a6)
    800004f4:	cbc360e3          	bltu	t1,t3,80000194 <crash_backward>
    800004f8:	78a00d93          	li	s11,1930
    800004fc:	d572ca93          	xori	s5,t0,-681
    80000500:	009fa3b3          	slt	t2,t6,s1
    80000504:	00002a97          	auipc	s5,0x2
    80000508:	e25a8a93          	addi	s5,s5,-475 # 80002329 <test_memory+0x129>
    8000050c:	8d900793          	li	a5,-1831
    80000510:	41a00713          	li	a4,1050
    80000514:	88b00f13          	li	t5,-1909
    80000518:	a9600693          	li	a3,-1386
    8000051c:	0234833b          	mulw	t1,s1,gp
    80000520:	19bae383          	lwu	t2,411(s5)
    80000524:	2db00293          	li	t0,731
    80000528:	02edd13b          	divuw	sp,s11,a4
    8000052c:	41f68abb          	subw	s5,a3,t6
    80000530:	03e1d8bb          	divuw	a7,gp,t5
    80000534:	49300d13          	li	s10,1171
    80000538:	0118bfb3          	sltu	t6,a7,a7
    8000053c:	016c69b3          	or	s3,s8,s6
    80000540:	23a53813          	sltiu	a6,a0,570
    80000544:	009273b3          	and	t2,tp,s1
    80000548:	36500e13          	li	t3,869
    8000054c:	02d7cc3b          	divw	s8,a5,a3
    80000550:	9e900a93          	li	s5,-1559
    80000554:	f9b00a13          	li	s4,-101
    80000558:	3eb00f13          	li	t5,1003
    8000055c:	c0b00513          	li	a0,-1013
    80000560:	00400313          	li	t1,4
    80000564:	034a6433          	rem	s0,s4,s4
    80000568:	00b59833          	sll	a6,a1,a1
    8000056c:	00ee15b3          	sll	a1,t3,a4
    80000570:	d4e00c13          	li	s8,-690
    80000574:	012433b3          	sltu	t2,s0,s2
    80000578:	00f6afb3          	slt	t6,a3,a5
    8000057c:	00098c93          	mv	s9,s3
    80000580:	86b00d93          	li	s11,-1941
    80000584:	015ab8b3          	sltu	a7,s5,s5
    80000588:	02400113          	li	sp,36
    8000058c:	02b20233          	mul	tp,tp,a1
    80000590:	66a00693          	li	a3,1642
    80000594:	002ad0bb          	srlw	ra,s5,sp
    80000598:	002f5733          	srl	a4,t5,sp
    8000059c:	57c00a93          	li	s5,1404
    800005a0:	8c600a13          	li	s4,-1850
    800005a4:	015aa7b3          	slt	a5,s5,s5
    800005a8:	02d689b3          	mul	s3,a3,a3
    800005ac:	01b311b3          	sll	gp,t1,s11
    800005b0:	c38c0913          	addi	s2,s8,-968
    800005b4:	0052fbb3          	and	s7,t0,t0
    800005b8:	00d35433          	srl	s0,t1,a3
    800005bc:	41ae8633          	sub	a2,t4,s10
    800005c0:	36004663          	bltz	zero,8000092c <crash_forward>
    800005c4:	00ae24b3          	slt	s1,t3,a0
    800005c8:	031895b3          	mulh	a1,a7,a7
    800005cc:	00100893          	li	a7,1
    800005d0:	03f89893          	slli	a7,a7,0x3f
    800005d4:	fff00213          	li	tp,-1
    800005d8:	01124233          	xor	tp,tp,a7
    800005dc:	00447833          	and	a6,s0,tp
    800005e0:	000c8b13          	mv	s6,s9
    800005e4:	00002097          	auipc	ra,0x2
    800005e8:	e2608093          	addi	ra,ra,-474 # 8000240a <test_memory+0x20a>
    800005ec:	00100293          	li	t0,1
    800005f0:	c38f7593          	andi	a1,t5,-968
    800005f4:	f5a00d13          	li	s10,-166
    800005f8:	011863b3          	or	t2,a6,a7
    800005fc:	4084553b          	sraw	a0,s0,s0
    80000600:	b8780ae3          	beq	a6,t2,80000194 <crash_backward>
    80000604:	01e69613          	slli	a2,a3,0x1e
    80000608:	27900313          	li	t1,633
    8000060c:	b92c64e3          	bltu	s8,s2,80000194 <crash_backward>
    80000610:	0d400d93          	li	s11,212
    80000614:	41bd8abb          	subw	s5,s11,s11
    80000618:	5e000693          	li	a3,1504
    8000061c:	03ad7bbb          	remuw	s7,s10,s10
    80000620:	034039b3          	mulhu	s3,zero,s4
    80000624:	316ce463          	bltu	s9,s6,8000092c <crash_forward>
    80000628:	00000e13          	li	t3,0
    8000062c:	00000793          	li	a5,0
    80000630:	b66312e3          	bne	t1,t1,80000194 <crash_backward>
    80000634:	4ef00893          	li	a7,1263
    80000638:	034a4bbb          	divw	s7,s4,s4
    8000063c:	02f49d33          	mulh	s10,s1,a5
    80000640:	fe500a93          	li	s5,-27
    80000644:	00002f17          	auipc	t5,0x2
    80000648:	5fff0f13          	addi	t5,t5,1535 # 80002c43 <_end+0x633>
    8000064c:	007fac33          	slt	s8,t6,t2
    80000650:	82ca0f93          	addi	t6,s4,-2004 # 43fb882c <_start-0x3c0477d4>
    80000654:	00000393          	li	t2,0
    80000658:	2dfa0a63          	beq	s4,t6,8000092c <crash_forward>
    8000065c:	00d32433          	slt	s0,t1,a3
    80000660:	75300d93          	li	s11,1875
    80000664:	00002c97          	auipc	s9,0x2
    80000668:	dbfc8c93          	addi	s9,s9,-577 # 80002423 <test_memory+0x223>
    8000066c:	1c60b703          	ld	a4,454(ra)
    80000670:	0d400913          	li	s2,212
    80000674:	41288233          	sub	tp,a7,s2
    80000678:	03f29293          	slli	t0,t0,0x3f
    8000067c:	d3900993          	li	s3,-711
    80000680:	035ad4bb          	divuw	s1,s5,s5
    80000684:	fff00193          	li	gp,-1
    80000688:	01399633          	sll	a2,s3,s3
    8000068c:	0cecb2a3          	sd	a4,197(s9)
    80000690:	0051c1b3          	xor	gp,gp,t0
    80000694:	00000b13          	li	s6,0
    80000698:	0037f133          	and	sp,a5,gp
    8000069c:	01ac1313          	slli	t1,s8,0x1a
    800006a0:	00516eb3          	or	t4,sp,t0
    800006a4:	47700513          	li	a0,1143
    800006a8:	038c2cb3          	mulhsu	s9,s8,s8
    800006ac:	db600a13          	li	s4,-586
    800006b0:	41bdd5bb          	sraw	a1,s11,s11
    800006b4:	00002897          	auipc	a7,0x2
    800006b8:	09488893          	addi	a7,a7,148 # 80002748 <_end+0x138>
    800006bc:	00a56833          	or	a6,a0,a0
    800006c0:	02f50bb3          	mul	s7,a0,a5
    800006c4:	262ee463          	bltu	t4,sp,8000092c <crash_forward>
    800006c8:	00001a97          	auipc	s5,0x1
    800006cc:	5c7a8a93          	addi	s5,s5,1479 # 80001c8f <fromhost+0xc4f>
    800006d0:	010d09b3          	add	s3,s10,a6
    800006d4:	749abe03          	ld	t3,1865(s5)
    800006d8:	00420633          	add	a2,tp,tp
    800006dc:	2563e863          	bltu	t2,s6,8000092c <crash_forward>
    800006e0:	983f26a3          	sw	gp,-1651(t5)
    800006e4:	00002f97          	auipc	t6,0x2
    800006e8:	31bf8f93          	addi	t6,t6,795 # 800029ff <_end+0x3ef>
    800006ec:	00002917          	auipc	s2,0x2
    800006f0:	92a90913          	addi	s2,s2,-1750 # 80002016 <reg_x2_init+0x6>
    800006f4:	e408e203          	lwu	tp,-448(a7)
    800006f8:	a8004ee3          	bltz	zero,80000194 <crash_backward>
    800006fc:	69f00813          	li	a6,1695
    80000700:	77080e93          	addi	t4,a6,1904
    80000704:	414057b3          	sra	a5,zero,s4
    80000708:	02426cbb          	remw	s9,tp,tp
    8000070c:	cae00d93          	li	s11,-850
    80000710:	06500b13          	li	s6,101
    80000714:	036b09bb          	mulw	s3,s6,s6
    80000718:	c38d8593          	addi	a1,s11,-968
    8000071c:	5a500413          	li	s0,1445
    80000720:	00001d17          	auipc	s10,0x1
    80000724:	728d0d13          	addi	s10,s10,1832 # 80001e48 <fromhost+0xe08>
    80000728:	03f0f2bb          	remuw	t0,ra,t6
    8000072c:	414e81b3          	sub	gp,t4,s4
    80000730:	00100e13          	li	t3,1
    80000734:	5f4d2a23          	sw	s4,1524(s10)
    80000738:	028a1c33          	mulh	s8,s4,s0
    8000073c:	034041bb          	divw	gp,zero,s4
    80000740:	404288b3          	sub	a7,t0,tp
    80000744:	01925433          	srl	s0,tp,s9
    80000748:	03fe1e13          	slli	t3,t3,0x3f
    8000074c:	b2500293          	li	t0,-1243
    80000750:	fff00b93          	li	s7,-1
    80000754:	31800c13          	li	s8,792
    80000758:	03b41133          	mulh	sp,s0,s11
    8000075c:	1d0ec863          	blt	t4,a6,8000092c <crash_forward>
    80000760:	018c5a3b          	srlw	s4,s8,s8
    80000764:	3ab93523          	sd	a1,938(s2)
    80000768:	21500f13          	li	t5,533
    8000076c:	9c5fe483          	lwu	s1,-1595(t6)
    80000770:	00001317          	auipc	t1,0x1
    80000774:	79830313          	addi	t1,t1,1944 # 80001f08 <fromhost+0xec8>
    80000778:	0318a9b3          	mulhsu	s3,a7,a7
    8000077c:	01398633          	add	a2,s3,s3
    80000780:	00100813          	li	a6,1
    80000784:	00002d17          	auipc	s10,0x2
    80000788:	846d0d13          	addi	s10,s10,-1978 # 80001fca <fromhost+0xf8a>
    8000078c:	00001917          	auipc	s2,0x1
    80000790:	64090913          	addi	s2,s2,1600 # 80001dcc <fromhost+0xd8c>
    80000794:	00300793          	li	a5,3
    80000798:	1d000213          	li	tp,464
    8000079c:	02f29b33          	mulh	s6,t0,a5
    800007a0:	58a91523          	sh	a0,1418(s2)
    800007a4:	22dd3f23          	sd	a3,574(s10)
    800007a8:	50500713          	li	a4,1285
    800007ac:	e1100f93          	li	t6,-495
    800007b0:	17f70513          	addi	a0,a4,383
    800007b4:	eb200493          	li	s1,-334
    800007b8:	9ca75ee3          	bge	a4,a0,80000194 <crash_backward>
    800007bc:	01cbcbb3          	xor	s7,s7,t3
    800007c0:	03f81813          	slli	a6,a6,0x3f
    800007c4:	017576b3          	and	a3,a0,s7
    800007c8:	56d00613          	li	a2,1389
    800007cc:	c4df8c13          	addi	s8,t6,-947
    800007d0:	02c4f9bb          	remuw	s3,s1,a2
    800007d4:	00002397          	auipc	t2,0x2
    800007d8:	8dd38393          	addi	t2,t2,-1827 # 800020b1 <reg_x22_init+0x1>
    800007dc:	87300413          	li	s0,-1933
    800007e0:	a2100193          	li	gp,-1503
    800007e4:	014e3fb3          	sltu	t6,t3,s4
    800007e8:	51033a83          	ld	s5,1296(t1)
    800007ec:	00002917          	auipc	s2,0x2
    800007f0:	c0690913          	addi	s2,s2,-1018 # 800023f2 <test_memory+0x1f2>
    800007f4:	377385a3          	sb	s7,875(t2)
    800007f8:	00b09c3b          	sllw	s8,ra,a1
    800007fc:	4189db1b          	sraiw	s6,s3,0x18
    80000800:	fff00113          	li	sp,-1
    80000804:	1bf00593          	li	a1,447
    80000808:	40c654bb          	sraw	s1,a2,a2
    8000080c:	d1e00613          	li	a2,-738
    80000810:	404f5cbb          	sraw	s9,t5,tp
    80000814:	01014133          	xor	sp,sp,a6
    80000818:	01c6e0b3          	or	ra,a3,t3
    8000081c:	002ffa33          	and	s4,t6,sp
    80000820:	ad000d13          	li	s10,-1328
    80000824:	ffb90023          	sb	s11,-32(s2)
    80000828:	00c657bb          	srlw	a5,a2,a2
    8000082c:	033c3533          	mulhu	a0,s8,s3
    80000830:	5bb00993          	li	s3,1467
    80000834:	0339e2b3          	rem	t0,s3,s3
    80000838:	23358d93          	addi	s11,a1,563
    8000083c:	010a6eb3          	or	t4,s4,a6
    80000840:	023468b3          	rem	a7,s0,gp
    80000844:	41ad573b          	sraw	a4,s10,s10
    80000848:	3d180313          	addi	t1,a6,977
    8000084c:	954ee4e3          	bltu	t4,s4,80000194 <crash_backward>
    80000850:	414a5cb3          	sra	s9,s4,s4
    80000854:	60e00193          	li	gp,1550
    80000858:	0c004a63          	bltz	zero,8000092c <crash_forward>
    8000085c:	baf00d93          	li	s11,-1105
    80000860:	00000893          	li	a7,0
    80000864:	0ac00593          	li	a1,172
    80000868:	25800293          	li	t0,600
    8000086c:	00001b97          	auipc	s7,0x1
    80000870:	6afb8b93          	addi	s7,s7,1711 # 80001f1b <fromhost+0xedb>
    80000874:	5bfbdf03          	lhu	t5,1471(s7)
    80000878:	98900f93          	li	t6,-1655
    8000087c:	01f58e33          	add	t3,a1,t6
    80000880:	00000493          	li	s1,0
    80000884:	a2500093          	li	ra,-1499
    80000888:	405289bb          	subw	s3,t0,t0
    8000088c:	0211c7bb          	divw	a5,gp,ra
    80000890:	03bdeabb          	remw	s5,s11,s11
    80000894:	0040006f          	j	80000898 <reg_dump>

0000000080000898 <reg_dump>:
    80000898:	00002097          	auipc	ra,0x2
    8000089c:	d6808093          	addi	ra,ra,-664 # 80002600 <loop_count>
    800008a0:	0000a103          	lw	sp,0(ra)
    800008a4:	fff10193          	addi	gp,sp,-1
    800008a8:	0030a023          	sw	gp,0(ra)
    800008ac:	980118e3          	bnez	sp,8000023c <pseg_0>
    800008b0:	00002097          	auipc	ra,0x2
    800008b4:	85008093          	addi	ra,ra,-1968 # 80002100 <begin_signature>
    800008b8:	0000b023          	sd	zero,0(ra)
    800008bc:	0020b823          	sd	sp,16(ra)
    800008c0:	0030bc23          	sd	gp,24(ra)
    800008c4:	0240b023          	sd	tp,32(ra)
    800008c8:	0250b423          	sd	t0,40(ra)
    800008cc:	0260b823          	sd	t1,48(ra)
    800008d0:	0480b023          	sd	s0,64(ra)
    800008d4:	0490b423          	sd	s1,72(ra)
    800008d8:	04a0b823          	sd	a0,80(ra)
    800008dc:	04b0bc23          	sd	a1,88(ra)
    800008e0:	06c0b023          	sd	a2,96(ra)
    800008e4:	06d0b423          	sd	a3,104(ra)
    800008e8:	06e0b823          	sd	a4,112(ra)
    800008ec:	06f0bc23          	sd	a5,120(ra)
    800008f0:	0900b023          	sd	a6,128(ra)
    800008f4:	0910b423          	sd	a7,136(ra)
    800008f8:	0930bc23          	sd	s3,152(ra)
    800008fc:	0b40b023          	sd	s4,160(ra)
    80000900:	0b50b423          	sd	s5,168(ra)
    80000904:	0b60b823          	sd	s6,176(ra)
    80000908:	0d80b023          	sd	s8,192(ra)
    8000090c:	0d90b423          	sd	s9,200(ra)
    80000910:	0da0b823          	sd	s10,208(ra)
    80000914:	0db0bc23          	sd	s11,216(ra)
    80000918:	0fc0b023          	sd	t3,224(ra)
    8000091c:	0fd0b423          	sd	t4,232(ra)
    80000920:	0fe0b823          	sd	t5,240(ra)
    80000924:	0ff0bc23          	sd	t6,248(ra)
    80000928:	0200006f          	j	80000948 <test_end>

000000008000092c <crash_forward>:
    8000092c:	0ff0000f          	fence
    80000930:	00018063          	beqz	gp,80000930 <crash_forward+0x4>
    80000934:	00119193          	slli	gp,gp,0x1
    80000938:	0011e193          	ori	gp,gp,1
    8000093c:	05d00893          	li	a7,93
    80000940:	00018513          	mv	a0,gp
    80000944:	00000073          	ecall

0000000080000948 <test_end>:
    80000948:	0ff0000f          	fence
    8000094c:	00100193          	li	gp,1
    80000950:	05d00893          	li	a7,93
    80000954:	00000513          	li	a0,0
    80000958:	00000073          	ecall
    8000095c:	c0001073          	unimp
	...

Disassembly of section .tohost:

0000000080001000 <tohost>:
	...

0000000080001040 <fromhost>:
	...

Disassembly of section .data:

0000000080002000 <hidden_data>:
    80002000:	0005                	c.nop	1
    80002002:	0000                	unimp
    80002004:	0000                	unimp
    80002006:	0800                	addi	s0,sp,16

0000000080002008 <reg_x1_init>:
    80002008:	ffff                	0xffff
    8000200a:	ffff                	0xffff
    8000200c:	ffff                	0xffff
    8000200e:	ffff                	0xffff

0000000080002010 <reg_x2_init>:
    80002010:	ffff8003          	lb	zero,-1(t6)
    80002014:	ffff                	0xffff
    80002016:	ffff                	0xffff

0000000080002018 <reg_x3_init>:
    80002018:	577e                	lw	a4,252(sp)
    8000201a:	0b1fbcb3          	0xb1fbcb3
    8000201e:	bd7c                	fsd	fa5,248(a0)

0000000080002020 <reg_x4_init>:
    80002020:	42d9                	li	t0,22
    80002022:	8151                	srli	a0,a0,0x14
    80002024:	34a2                	fld	fs1,40(sp)
    80002026:	569e                	lw	a3,228(sp)

0000000080002028 <reg_x5_init>:
    80002028:	0000                	unimp
    8000202a:	0000                	unimp
    8000202c:	0000                	unimp
    8000202e:	0800                	addi	s0,sp,16

0000000080002030 <reg_x6_init>:
    80002030:	6be4                	ld	s1,208(a5)
    80002032:	b076                	fsd	ft9,32(sp)
    80002034:	510e34d3          	0x510e34d3

0000000080002038 <reg_x7_init>:
    80002038:	03f5                	addi	t2,t2,29
    8000203a:	f63d                	bnez	a2,80001fa8 <fromhost+0xf68>
    8000203c:	3395                	addiw	t2,t2,-27
    8000203e:	3880                	fld	fs0,48(s1)

0000000080002040 <reg_x8_init>:
    80002040:	ffff                	0xffff
    80002042:	ffff                	0xffff
    80002044:	ffff                	0xffff
    80002046:	ffff                	0xffff

0000000080002048 <reg_x9_init>:
	...

0000000080002050 <reg_x10_init>:
    80002050:	c869                	beqz	s0,80002122 <reg_x4_output+0x2>
    80002052:	826a58bf  	0x9fcd5826a58bf

0000000080002058 <reg_x11_init>:
    80002058:	0009                	c.nop	2
    8000205a:	0000                	unimp
    8000205c:	0000                	unimp
    8000205e:	0800                	addi	s0,sp,16

0000000080002060 <reg_x12_init>:
    80002060:	00000007          	0x7
    80002064:	0000                	unimp
    80002066:	0800                	addi	s0,sp,16

0000000080002068 <reg_x13_init>:
    80002068:	0008                	0x8
    8000206a:	0000                	unimp
    8000206c:	0000                	unimp
	...

0000000080002070 <reg_x14_init>:
    80002070:	ff86                	sd	ra,504(sp)
    80002072:	ffff                	0xffff
    80002074:	ffff                	0xffff
    80002076:	ffff                	0xffff

0000000080002078 <reg_x15_init>:
    80002078:	4011f82b          	0x4011f82b
    8000207c:	c1c8                	sw	a0,4(a1)
    8000207e:	6ff4                	ld	a3,216(a5)

0000000080002080 <reg_x16_init>:
    80002080:	81efa48b          	0x81efa48b
    80002084:	3701                	addiw	a4,a4,-32
    80002086:	31e4                	fld	fs1,224(a1)

0000000080002088 <reg_x17_init>:
    80002088:	e549                	bnez	a0,80002112 <reg_x2_output+0x2>
    8000208a:	97d4                	0x97d4
    8000208c:	5794fb7b          	0x5794fb7b

0000000080002090 <reg_x18_init>:
	...

0000000080002098 <reg_x19_init>:
    80002098:	ff80                	sd	s0,56(a5)
    8000209a:	ffff                	0xffff
    8000209c:	ffff                	0xffff
    8000209e:	ffff                	0xffff

00000000800020a0 <reg_x20_init>:
    800020a0:	13f9                	addi	t2,t2,-2
    800020a2:	827a                	mv	tp,t5
    800020a4:	38f8                	fld	fa4,240(s1)
    800020a6:	a2be                	fsd	fa5,320(sp)

00000000800020a8 <reg_x21_init>:
	...

00000000800020b0 <reg_x22_init>:
    800020b0:	c2031dd7          	0xc2031dd7
    800020b4:	17a1                	addi	a5,a5,-24
    800020b6:	94e2                	add	s1,s1,s8

00000000800020b8 <reg_x23_init>:
    800020b8:	85a1                	srai	a1,a1,0x8
    800020ba:	2250                	fld	fa2,128(a2)
    800020bc:	0936                	slli	s2,s2,0xd
    800020be:	9576                	add	a0,a0,t4

00000000800020c0 <reg_x24_init>:
    800020c0:	fcc5                	bnez	s1,80002078 <reg_x15_init>
    800020c2:	d054                	sw	a3,36(s0)
    800020c4:	56d4cf03          	lbu	t5,1389(s1)

00000000800020c8 <reg_x25_init>:
    800020c8:	515a                	lw	sp,180(sp)
    800020ca:	67f4a5e7          	0x67f4a5e7
    800020ce:	4658                	lw	a4,12(a2)

00000000800020d0 <reg_x26_init>:
    800020d0:	816981d7          	0x816981d7
    800020d4:	b7d0                	fsd	fa2,168(a5)
    800020d6:	ddd0                	sw	a2,60(a1)

00000000800020d8 <reg_x27_init>:
    800020d8:	00000007          	0x7
    800020dc:	0000                	unimp
    800020de:	0800                	addi	s0,sp,16

00000000800020e0 <reg_x28_init>:
	...

00000000800020e8 <reg_x29_init>:
    800020e8:	0005                	c.nop	1
    800020ea:	0000                	unimp
    800020ec:	0000                	unimp
	...

00000000800020f0 <reg_x30_init>:
    800020f0:	ffff                	0xffff
    800020f2:	ffff                	0xffff
    800020f4:	ffff                	0xffff
    800020f6:	ffff                	0xffff

00000000800020f8 <reg_x31_init>:
    800020f8:	8001                	c.srli64	s0
    800020fa:	ffff                	0xffff
    800020fc:	ffff                	0xffff
    800020fe:	ffff                	0xffff

0000000080002100 <begin_signature>:
    80002100:	3d3e                	fld	fs10,488(sp)
    80002102:	b80d                	j	80001934 <fromhost+0x8f4>
    80002104:	d30c                	sw	a1,32(a4)
    80002106:	          	0xfe96deb

0000000080002108 <reg_x1_output>:
    80002108:	0fe9                	addi	t6,t6,26
    8000210a:	0e0bbff7          	0xe0bbff7
    8000210e:	e5c9                	bnez	a1,80002198 <reg_x19_output>

0000000080002110 <reg_x2_output>:
    80002110:	f1928653          	0xf1928653
    80002114:	4232                	lw	tp,12(sp)
    80002116:	2312                	fld	ft6,256(sp)

0000000080002118 <reg_x3_output>:
    80002118:	fbb1                	bnez	a5,8000206c <reg_x13_init+0x4>
    8000211a:	6e29847b          	0x6e29847b
    8000211e:	b6d6                	fsd	fs5,360(sp)

0000000080002120 <reg_x4_output>:
    80002120:	7c6a6e37          	lui	t3,0x7c6a6
    80002124:	d236                	sw	a3,36(sp)
    80002126:	          	0x71bcca3

0000000080002128 <reg_x5_output>:
    80002128:	fef5071b          	addiw	a4,a0,-17
    8000212c:	1f7a                	slli	t5,t5,0x3e
    8000212e:	9a46                	add	s4,s4,a7

0000000080002130 <reg_x6_output>:
    80002130:	3c61                	addiw	s8,s8,-8
    80002132:	4ca4                	lw	s1,88(s1)
    80002134:	a36d                	j	800026de <_end+0xce>
    80002136:	5fcc                	lw	a1,60(a5)

0000000080002138 <reg_x7_output>:
    80002138:	8ccd                	or	s1,s1,a1
    8000213a:	0466                	slli	s0,s0,0x19
    8000213c:	5065                	c.li	zero,-7
    8000213e:	f6d0                	sd	a2,168(a3)

0000000080002140 <reg_x8_output>:
    80002140:	10a6                	slli	ra,ra,0x29
    80002142:	7145                	addi	sp,sp,-464
    80002144:	366f3fb3          	0x366f3fb3

0000000080002148 <reg_x9_output>:
    80002148:	7e36                	ld	t3,360(sp)
    8000214a:	4cf6                	lw	s9,92(sp)
    8000214c:	96a4                	0x96a4
    8000214e:	7c55                	lui	s8,0xffff5

0000000080002150 <reg_x10_output>:
    80002150:	df24                	sw	s1,120(a4)
    80002152:	9b94                	0x9b94
    80002154:	e758                	sd	a4,136(a4)
    80002156:	f101                	bnez	a0,80002056 <reg_x10_init+0x6>

0000000080002158 <reg_x11_output>:
    80002158:	9c1a                	add	s8,s8,t1
    8000215a:	b9d6                	fsd	fs5,240(sp)
    8000215c:	075d                	addi	a4,a4,23
    8000215e:	d825                	beqz	s0,800020ce <reg_x25_init+0x6>

0000000080002160 <reg_x12_output>:
    80002160:	c661                	beqz	a2,80002228 <test_memory+0x28>
    80002162:	f3e4                	sd	s1,224(a5)
    80002164:	395d                	addiw	s2,s2,-9
    80002166:	  	0x3c73f77b334d3bbf

0000000080002168 <reg_x13_output>:
    80002168:	334d                	addiw	t1,t1,-13
    8000216a:	3c73f77b          	0x3c73f77b
    8000216e:	          	lw	zero,571(t1)

0000000080002170 <reg_x14_output>:
    80002170:	5ee223b3          	0x5ee223b3
    80002174:	aadd                	j	8000236a <test_memory+0x16a>
    80002176:	0a3c                	addi	a5,sp,280

0000000080002178 <reg_x15_output>:
    80002178:	61be                	ld	gp,456(sp)
    8000217a:	20fa                	fld	ft1,408(sp)
    8000217c:	db1a                	sw	t1,180(sp)
    8000217e:	          	0x9e17f0b

0000000080002180 <reg_x16_output>:
    80002180:	09e1                	addi	s3,s3,24
    80002182:	e9dc                	sd	a5,144(a1)
    80002184:	81c5                	srli	a1,a1,0x11
    80002186:	d6ac                	sw	a1,104(a3)

0000000080002188 <reg_x17_output>:
    80002188:	acac27b7          	lui	a5,0xacac2
    8000218c:	6fa8                	ld	a0,88(a5)
    8000218e:	4f0c                	lw	a1,24(a4)

0000000080002190 <reg_x18_output>:
    80002190:	fe0a                	sd	sp,312(sp)
    80002192:	6296                	ld	t0,320(sp)
    80002194:	46d0                	lw	a2,12(a3)
    80002196:	1438                	addi	a4,sp,552

0000000080002198 <reg_x19_output>:
    80002198:	c962                	sw	s8,144(sp)
    8000219a:	b2b31ce3          	bne	t1,a1,80001cd2 <fromhost+0xc92>
    8000219e:	d390                	sw	a2,32(a5)

00000000800021a0 <reg_x20_output>:
    800021a0:	1ec5                	addi	t4,t4,-15
    800021a2:	72a5                	lui	t0,0xfffe9
    800021a4:	e2ae                	sd	a1,320(sp)
    800021a6:	          	0x448e593b

00000000800021a8 <reg_x21_output>:
    800021a8:	448e                	lw	s1,192(sp)
    800021aa:	a61f 8b57 5ec5      	0x5ec58b57a61f

00000000800021b0 <reg_x22_output>:
    800021b0:	1989                	addi	s3,s3,-30
    800021b2:	da7f9cf7          	0xda7f9cf7
    800021b6:	4df8                	lw	a4,92(a1)

00000000800021b8 <reg_x23_output>:
    800021b8:	2e91deb3          	0x2e91deb3
    800021bc:	74d962d7          	0x74d962d7

00000000800021c0 <reg_x24_output>:
    800021c0:	88bc924f          	fnmadd.s	ft4,fs9,fa1,fa7,rtz
    800021c4:	59dc5f8b          	0x59dc5f8b

00000000800021c8 <reg_x25_output>:
    800021c8:	f5bb0f33          	0xf5bb0f33
    800021cc:	9d66                	add	s10,s10,s9
    800021ce:	0dd5                	addi	s11,s11,21

00000000800021d0 <reg_x26_output>:
    800021d0:	e175                	bnez	a0,800022b4 <test_memory+0xb4>
    800021d2:	4cf0                	lw	a2,92(s1)
    800021d4:	262d                	addiw	a2,a2,11
    800021d6:	83ea                	mv	t2,s10

00000000800021d8 <reg_x27_output>:
    800021d8:	49e2                	lw	s3,24(sp)
    800021da:	4c46960b          	0x4c46960b
    800021de:	f956                	sd	s5,176(sp)

00000000800021e0 <reg_x28_output>:
    800021e0:	4be5                	li	s7,25
    800021e2:	380b4e5b          	0x380b4e5b
    800021e6:	5d89                	li	s11,-30

00000000800021e8 <reg_x29_output>:
    800021e8:	6dc8                	ld	a0,152(a1)
    800021ea:	72ac                	ld	a1,96(a3)
    800021ec:	6d14                	ld	a3,24(a0)
    800021ee:	9042                	c.add	zero,a6

00000000800021f0 <reg_x30_output>:
    800021f0:	1976                	slli	s2,s2,0x3d
    800021f2:	7498                	ld	a4,40(s1)
    800021f4:	e90f358b          	0xe90f358b

00000000800021f8 <reg_x31_output>:
    800021f8:	dc25                	beqz	s0,80002170 <reg_x14_output>
    800021fa:	4a59889b          	addiw	a7,s3,1189
    800021fe:	cff8                	sw	a4,92(a5)

0000000080002200 <test_memory>:
    80002200:	2d91                	addiw	s11,s11,4
    80002202:	6432                	ld	s0,264(sp)
    80002204:	ba89                	j	80001b56 <fromhost+0xb16>
    80002206:	c239                	beqz	a2,8000224c <test_memory+0x4c>
    80002208:	7bb4                	ld	a3,112(a5)
    8000220a:	d0a0                	sw	s0,96(s1)
    8000220c:	0586d16b          	0x586d16b
    80002210:	522b0617          	auipc	a2,0x522b0
    80002214:	da44                	sw	s1,52(a2)
    80002216:	d58c                	sw	a1,40(a1)
    80002218:	2c34                	fld	fa3,88(s0)
    8000221a:	f1773787          	fld	fa5,-233(a4)
    8000221e:	bfc5                	j	8000220e <test_memory+0xe>
    80002220:	4482                	lw	s1,0(sp)
    80002222:	52c9                	li	t0,-14
    80002224:	e699                	bnez	a3,80002232 <test_memory+0x32>
    80002226:	5788                	lw	a0,40(a5)
    80002228:	bfb46e23          	0xbfb46e23
    8000222c:	57d4                	lw	a3,44(a5)
    8000222e:	91ad                	srli	a1,a1,0x2b
    80002230:	254a                	fld	fa0,144(sp)
    80002232:	8864                	0x8864
    80002234:	8d18f673          	csrrci	a2,0x8d1,17
    80002238:	42cc                	lw	a1,4(a3)
    8000223a:	bac2                	fsd	fa6,368(sp)
    8000223c:	1d9d                	addi	s11,s11,-25
    8000223e:	946a                	add	s0,s0,s10
    80002240:	8989                	andi	a1,a1,2
    80002242:	c164                	sw	s1,68(a0)
    80002244:	df82                	sw	zero,252(sp)
    80002246:	26be                	fld	fa3,456(sp)
    80002248:	8884                	0x8884
    8000224a:	8fcd                	or	a5,a5,a1
    8000224c:	3a84                	fld	fs1,48(a3)
    8000224e:	b7a9                	j	80002198 <reg_x19_output>
    80002250:	76e1                	lui	a3,0xffff8
    80002252:	3d1a                	fld	fs10,416(sp)
    80002254:	3718972b          	0x3718972b
    80002258:	5730                	lw	a2,104(a4)
    8000225a:	1386                	slli	t2,t2,0x21
    8000225c:	d0e0                	sw	s0,100(s1)
    8000225e:	ff95                	bnez	a5,8000219a <reg_x19_output+0x2>
    80002260:	319d                	addiw	gp,gp,-25
    80002262:	ef90                	sd	a2,24(a5)
    80002264:	2ebe                	fld	ft9,456(sp)
    80002266:	26a6                	fld	fa3,72(sp)
    80002268:	2109                	addiw	sp,sp,2
    8000226a:	a707b64b          	fnmsub.q	fa2,fa5,fa6,fs4,rup
    8000226e:	55166067          	0x55166067
    80002272:	9372                	add	t1,t1,t3
    80002274:	deee                	sw	s11,124(sp)
    80002276:	e176                	sd	t4,128(sp)
    80002278:	62ce9ba3          	sh	a2,1591(t4)
    8000227c:	61e2                	ld	gp,24(sp)
    8000227e:	8e57184f          	fnmadd.q	fa6,fa4,ft5,fa7,rtz
    80002282:	a8b6                	fsd	fa3,80(sp)
    80002284:	d67d                	beqz	a2,80002272 <test_memory+0x72>
    80002286:	fad6                	sd	s5,368(sp)
    80002288:	b52a                	fsd	fa0,168(sp)
    8000228a:	c144                	sw	s1,4(a0)
    8000228c:	54bc                	lw	a5,104(s1)
    8000228e:	dd042f53          	0xdd042f53
    80002292:	8d20                	0x8d20
    80002294:	c036                	sw	a3,0(sp)
    80002296:	be7e                	fsd	ft11,312(sp)
    80002298:	201319ef          	jal	s3,80033c98 <__global_pointer$+0x30e88>
    8000229c:	fa5f 2a88 7e77      	0x7e772a88fa5f
    800022a2:	b361                	j	8000202a <reg_x5_init+0x2>
    800022a4:	3420                	fld	fs0,104(s0)
    800022a6:	6961                	lui	s2,0x18
    800022a8:	0e22                	slli	t3,t3,0x8
    800022aa:	b7c6                	fsd	fa7,488(sp)
    800022ac:	6b59                	lui	s6,0x16
    800022ae:	6244                	ld	s1,128(a2)
    800022b0:	8c83e72b          	0x8c83e72b
    800022b4:	87f0                	0x87f0
    800022b6:	cd41                	beqz	a0,8000234e <test_memory+0x14e>
    800022b8:	9fe1                	0x9fe1
    800022ba:	94d2                	add	s1,s1,s4
    800022bc:	65a2                	ld	a1,8(sp)
    800022be:	ba98                	fsd	fa4,48(a3)
    800022c0:	6e5d                	lui	t3,0x17
    800022c2:	9009                	srli	s0,s0,0x22
    800022c4:	b2be                	fsd	fa5,352(sp)
    800022c6:	e502                	sd	zero,136(sp)
    800022c8:	7571                	lui	a0,0xffffc
    800022ca:	b963a2bb          	0xb963a2bb
    800022ce:	8016                	c.mv	zero,t0
    800022d0:	8ff0                	0x8ff0
    800022d2:	6790                	ld	a2,8(a5)
    800022d4:	37fd                	addiw	a5,a5,-1
    800022d6:	c354                	sw	a3,4(a4)
    800022d8:	bbca                	fsd	fs2,496(sp)
    800022da:	21bd                	addiw	gp,gp,15
    800022dc:	2f10                	fld	fa2,24(a4)
    800022de:	b96a                	fsd	fs10,176(sp)
    800022e0:	e890                	sd	a2,16(s1)
    800022e2:	4da43593          	sltiu	a1,s0,1242
    800022e6:	654e                	ld	a0,208(sp)
    800022e8:	f958                	sd	a4,176(a0)
    800022ea:	fe7f                	0xfe7f
    800022ec:	86603ab7          	lui	s5,0x86603
    800022f0:	501a                	0x501a
    800022f2:	39da                	fld	fs3,432(sp)
    800022f4:	5dedb1af          	0x5dedb1af
    800022f8:	c8ff                	0xc8ff
    800022fa:	da94                	sw	a3,48(a3)
    800022fc:	109c                	addi	a5,sp,96
    800022fe:	e78a                	sd	sp,456(sp)
    80002300:	5be3b63b          	0x5be3b63b
    80002304:	e2cc                	sd	a1,128(a3)
    80002306:	c972                	sw	t3,144(sp)
    80002308:	c160                	sw	s0,68(a0)
    8000230a:	ef05213f a5571c01 	0xa5571c01ef05213f
    80002312:	ea34                	sd	a3,80(a2)
    80002314:	b050                	fsd	fa2,160(s0)
    80002316:	0c5a37af          	amoswap.d.aq	a5,t0,(s4)
    8000231a:	b151d60b          	0xb151d60b
    8000231e:	4e5a                	lw	t3,148(sp)
    80002320:	cf1c8fab          	0xcf1c8fab
    80002324:	2d89556b          	0x2d89556b
    80002328:	36a072d3          	0x36a072d3
    8000232c:	8b8d004f          	fnmadd.d	ft0,fs10,fs8,fa7,rne
    80002330:	4ab5                	li	s5,13
    80002332:	a6b1                	j	8000267e <_end+0x6e>
    80002334:	939d                	srli	a5,a5,0x27
    80002336:	dfa4                	sw	s1,120(a5)
    80002338:	e0b8                	sd	a4,64(s1)
    8000233a:	2740                	fld	fs0,136(a4)
    8000233c:	b3cd                	j	8000211e <reg_x3_output+0x6>
    8000233e:	8816                	mv	a6,t0
    80002340:	5cd2                	lw	s9,52(sp)
    80002342:	387c                	fld	fa5,240(s0)
    80002344:	806a                	c.mv	zero,s10
    80002346:	ed94                	sd	a3,24(a1)
    80002348:	a541                	j	800029c8 <_end+0x3b8>
    8000234a:	4d61                	li	s10,24
    8000234c:	396e                	fld	fs2,248(sp)
    8000234e:	edb6                	sd	a3,216(sp)
    80002350:	0129                	addi	sp,sp,10
    80002352:	6ffd                	lui	t6,0x1f
    80002354:	fa49                	bnez	a2,800022e6 <test_memory+0xe6>
    80002356:	f379353b          	0xf379353b
    8000235a:	d6a6                	sw	s1,108(sp)
    8000235c:	487514bf c3ec05c7 	0xc3ec05c7487514bf
    80002364:	f8df 8c9c 66fd      	0x66fd8c9cf8df
    8000236a:	cc8d17e7          	0xcc8d17e7
    8000236e:	f951                	bnez	a0,80002302 <test_memory+0x102>
    80002370:	2b5ce80b          	0x2b5ce80b
    80002374:	2c74                	fld	fa3,216(s0)
    80002376:	fc50                	sd	a2,184(s0)
    80002378:	585c9103          	lh	sp,1413(s9)
    8000237c:	d970                	sw	a2,116(a0)
    8000237e:	390a                	fld	fs2,160(sp)
    80002380:	d344                	sw	s1,36(a4)
    80002382:	0ba9                	addi	s7,s7,10
    80002384:	a09d                	j	800023ea <test_memory+0x1ea>
    80002386:	5992                	lw	s3,36(sp)
    80002388:	d19e                	sw	t2,224(sp)
    8000238a:	6ce0                	ld	s0,216(s1)
    8000238c:	639169ab          	0x639169ab
    80002390:	6598                	ld	a4,8(a1)
    80002392:	98ce                	add	a7,a7,s3
    80002394:	5638                	lw	a4,104(a2)
    80002396:	337e                	fld	ft6,504(sp)
    80002398:	ee5b013f c5c40e37 	0xc5c40e37ee5b013f
    800023a0:	bdaf5f27          	0xbdaf5f27
    800023a4:	08a2                	slli	a7,a7,0x8
    800023a6:	76de                	ld	a3,496(sp)
    800023a8:	ae7f                	0xae7f
    800023aa:	497c                	lw	a5,84(a0)
    800023ac:	a51d                	j	800029d2 <_end+0x3c2>
    800023ae:	987e                	add	a6,a6,t6
    800023b0:	f90b9f6f          	jal	t5,7ffbbb40 <_start-0x444c0>
    800023b4:	9224                	0x9224
    800023b6:	f41bf65b          	0xf41bf65b
    800023ba:	1cff                	0x1cff
    800023bc:	1504                	addi	s1,sp,672
    800023be:	e70e                	sd	gp,392(sp)
    800023c0:	14f1                	addi	s1,s1,-4
    800023c2:	80b5                	srli	s1,s1,0xd
    800023c4:	a3a9                	j	8000290e <_end+0x2fe>
    800023c6:	2b3edccb          	fnmsub.d	fs9,ft9,fs3,ft5,unknown
    800023ca:	12de                	slli	t0,t0,0x37
    800023cc:	ae0a                	fsd	ft2,280(sp)
    800023ce:	8315d8eb          	0x8315d8eb
    800023d2:	2576                	fld	fa0,344(sp)
    800023d4:	c3b8                	sw	a4,64(a5)
    800023d6:	9c50                	0x9c50
    800023d8:	fe06                	sd	ra,312(sp)
    800023da:	d8c8                	sw	a0,52(s1)
    800023dc:	43d5                	li	t2,21
    800023de:	508d                	li	ra,-29
    800023e0:	424a                	lw	tp,144(sp)
    800023e2:	b8f5                	j	80001cde <fromhost+0xc9e>
    800023e4:	0a3ac89b          	0xa3ac89b
    800023e8:	9e40                	0x9e40
    800023ea:	54ee18c3          	0x54ee18c3
    800023ee:	7854                	ld	a3,176(s0)
    800023f0:	5e71                	li	t3,-4
    800023f2:	5a2c                	lw	a1,112(a2)
    800023f4:	41e6                	lw	gp,88(sp)
    800023f6:	24765427          	0x24765427
    800023fa:	5c52                	lw	s8,52(sp)
    800023fc:	d345                	beqz	a4,8000239c <test_memory+0x19c>
    800023fe:	b77bac77          	0xb77bac77
    80002402:	ef10                	sd	a2,24(a4)
    80002404:	8516                	mv	a0,t0
    80002406:	5a3a                	lw	s4,172(sp)
    80002408:	5b2c                	lw	a1,112(a4)
    8000240a:	e791                	bnez	a5,80002416 <test_memory+0x216>
    8000240c:	6216                	ld	tp,320(sp)
    8000240e:	0a69                	addi	s4,s4,26
    80002410:	0850                	addi	a2,sp,20
    80002412:	f8c4                	sd	s1,176(s1)
    80002414:	b3905197          	auipc	gp,0xb3905
    80002418:	7a65                	lui	s4,0xffff9
    8000241a:	a5e9                	j	80002ae4 <_end+0x4d4>
    8000241c:	1cf8                	addi	a4,sp,636
    8000241e:	b4f0                	fsd	fa2,232(s1)
    80002420:	f7f2                	sd	t3,488(sp)
    80002422:	c5b6                	sw	a3,200(sp)
    80002424:	3fed                	addiw	t6,t6,-5
    80002426:	607e                	0x607e
    80002428:	976c                	0x976c
    8000242a:	cc32                	sw	a2,24(sp)
    8000242c:	3c2a                	fld	fs8,168(sp)
    8000242e:	cd40                	sw	s0,28(a0)
    80002430:	98e2                	add	a7,a7,s8
    80002432:	1878                	addi	a4,sp,60
    80002434:	702c                	ld	a1,96(s0)
    80002436:	9131                	srli	a0,a0,0x2c
    80002438:	ccd0                	sw	a2,28(s1)
    8000243a:	7449                	lui	s0,0xffff2
    8000243c:	2a30                	fld	fa2,80(a2)
    8000243e:	0df8                	addi	a4,sp,732
    80002440:	fac2                	sd	a6,368(sp)
    80002442:	2ba79cf3          	csrrw	s9,0x2ba,a5
    80002446:	41d4                	lw	a3,4(a1)
    80002448:	08825eaf          	0x8825eaf
    8000244c:	dea0                	sw	s0,120(a3)
    8000244e:	8260                	0x8260
    80002450:	cec2b23b          	0xcec2b23b
    80002454:	6df0                	ld	a2,216(a1)
    80002456:	06ff                	0x6ff
    80002458:	3a4e5f37          	lui	t5,0x3a4e5
    8000245c:	923c                	0x923c
    8000245e:	bbd8                	fsd	fa4,176(a5)
    80002460:	7b20                	ld	s0,112(a4)
    80002462:	3c45                	addiw	s8,s8,-15
    80002464:	8900                	0x8900
    80002466:	976ab907          	fld	fs2,-1674(s5) # ffffffff86602976 <__global_pointer$+0xffffffff065ffb66>
    8000246a:	9b2e                	add	s6,s6,a1
    8000246c:	2042                	fld	ft0,16(sp)
    8000246e:	362c                	fld	fa1,104(a2)
    80002470:	b9a258d3          	0xb9a258d3
    80002474:	a9f258ab          	0xa9f258ab
    80002478:	b820                	fsd	fs0,112(s0)
    8000247a:	e9b1                	bnez	a1,800024ce <test_memory+0x2ce>
    8000247c:	a902                	fsd	ft0,144(sp)
    8000247e:	f314                	sd	a3,32(a4)
    80002480:	1ed9d8e7          	0x1ed9d8e7
    80002484:	5bd8b963          	0x5bd8b963
    80002488:	1752                	slli	a4,a4,0x34
    8000248a:	49b22a47          	fmsub.s	fs4,ft4,fs11,fs1,rdn
    8000248e:	2a54                	fld	fa3,144(a2)
    80002490:	5c06                	lw	s8,96(sp)
    80002492:	36177b1b          	0x36177b1b
    80002496:	db5c                	sw	a5,52(a4)
    80002498:	7d95                	lui	s11,0xfffe5
    8000249a:	a529                	j	80002aa4 <_end+0x494>
    8000249c:	fd7d                	bnez	a0,8000249a <test_memory+0x29a>
    8000249e:	c845                	beqz	s0,8000254e <test_memory+0x34e>
    800024a0:	8915                	andi	a0,a0,5
    800024a2:	479a                	lw	a5,132(sp)
    800024a4:	2175                	addiw	sp,sp,29
    800024a6:	bef5                	j	800020a2 <reg_x20_init+0x2>
    800024a8:	93eac7e3          	blt	s5,t5,80001dd6 <fromhost+0xd96>
    800024ac:	fbe1                	bnez	a5,8000247c <test_memory+0x27c>
    800024ae:	3561                	addiw	a0,a0,-8
    800024b0:	4e95                	li	t4,5
    800024b2:	83a6                	mv	t2,s1
    800024b4:	976c8e5b          	0x976c8e5b
    800024b8:	61a1                	lui	gp,0x8
    800024ba:	6271                	lui	tp,0x1c
    800024bc:	283a                	fld	fa6,392(sp)
    800024be:	f779                	bnez	a4,8000248c <test_memory+0x28c>
    800024c0:	164c                	addi	a1,sp,804
    800024c2:	d4e4                	sw	s1,108(s1)
    800024c4:	4b18db8b          	0x4b18db8b
    800024c8:	dadc                	sw	a5,52(a3)
    800024ca:	e4c4                	sd	s1,136(s1)
    800024cc:	6698                	ld	a4,8(a3)
    800024ce:	6e7f                	0x6e7f
    800024d0:	0f24                	addi	s1,sp,920
    800024d2:	bf98                	fsd	fa4,56(a5)
    800024d4:	c69d                	beqz	a3,80002502 <test_memory+0x302>
    800024d6:	4baa                	lw	s7,136(sp)
    800024d8:	1ed6                	slli	t4,t4,0x35
    800024da:	e9da4517          	auipc	a0,0xe9da4
    800024de:	93e5                	srli	a5,a5,0x39
    800024e0:	b152                	fsd	fs4,160(sp)
    800024e2:	e60d                	bnez	a2,8000250c <test_memory+0x30c>
    800024e4:	3a32                	fld	fs4,296(sp)
    800024e6:	f0c4                	sd	s1,160(s1)
    800024e8:	0ec1                	addi	t4,t4,16
    800024ea:	f84c                	sd	a1,176(s0)
    800024ec:	ea03cef3          	0xea03cef3
    800024f0:	e0ba                	sd	a4,64(sp)
    800024f2:	79c1                	lui	s3,0xffff0
    800024f4:	4b70                	lw	a2,84(a4)
    800024f6:	0f71                	addi	t5,t5,28
    800024f8:	84ca                	mv	s1,s2
    800024fa:	0319                	addi	t1,t1,6
    800024fc:	f21c9993          	0xf21c9993
    80002500:	5191                	li	gp,-28
    80002502:	c722                	sw	s0,140(sp)
    80002504:	1aa8                	addi	a0,sp,376
    80002506:	03586b2f          	0x3586b2f
    8000250a:	d2f6                	sw	t4,100(sp)
    8000250c:	65e2                	ld	a1,24(sp)
    8000250e:	a079                	j	8000259c <test_memory+0x39c>
    80002510:	1344                	addi	s1,sp,420
    80002512:	0bcc                	addi	a1,sp,468
    80002514:	0fb38b5b          	0xfb38b5b
    80002518:	9495                	srai	s1,s1,0x25
    8000251a:	f4ac                	sd	a1,104(s1)
    8000251c:	e3ad                	bnez	a5,8000257e <test_memory+0x37e>
    8000251e:	8802                	jr	a6
    80002520:	6598                	ld	a4,8(a1)
    80002522:	c16d                	beqz	a0,80002604 <loop_count+0x4>
    80002524:	075f 6e64 9e2c      	0x9e2c6e64075f
    8000252a:	dad0                	sw	a2,52(a3)
    8000252c:	57176ea7          	0x57176ea7
    80002530:	3c11                	addiw	s8,s8,-28
    80002532:	c30d                	beqz	a4,80002554 <test_memory+0x354>
    80002534:	c15c                	sw	a5,4(a0)
    80002536:	1e98                	addi	a4,sp,880
    80002538:	ad54                	fsd	fa3,152(a0)
    8000253a:	88b4                	0x88b4
    8000253c:	d808                	sw	a0,48(s0)
    8000253e:	cf39                	beqz	a4,8000259c <test_memory+0x39c>
    80002540:	1398                	addi	a4,sp,480
    80002542:	61bd                	lui	gp,0xf
    80002544:	2a7e                	fld	fs4,472(sp)
    80002546:	efad                	bnez	a5,800025c0 <test_memory+0x3c0>
    80002548:	7f0e                	ld	t5,224(sp)
    8000254a:	b55c6f33          	0xb55c6f33
    8000254e:	85ea                	mv	a1,s10
    80002550:	b6dffe57          	0xb6dffe57
    80002554:	8f64                	0x8f64
    80002556:	1eb5                	addi	t4,t4,-19
    80002558:	c8aa                	sw	a0,80(sp)
    8000255a:	b7ca                	fsd	fs2,488(sp)
    8000255c:	4896                	lw	a7,68(sp)
    8000255e:	09e76fc7          	fmsub.s	ft11,fa4,ft10,ft1,unknown
    80002562:	7f7c                	ld	a5,248(a4)
    80002564:	105f b2bd 848e      	0x848eb2bd105f
    8000256a:	556a047b          	0x556a047b
    8000256e:	c526                	sw	s1,136(sp)
    80002570:	63ad                	lui	t2,0xb
    80002572:	2bb9                	addiw	s7,s7,14
    80002574:	68d8                	ld	a4,144(s1)
    80002576:	70ee                	ld	ra,248(sp)
    80002578:	c73a                	sw	a4,140(sp)
    8000257a:	77dab7db          	0x77dab7db
    8000257e:	1a1c                	addi	a5,sp,304
    80002580:	df80                	sw	s0,56(a5)
    80002582:	d204                	sw	s1,32(a2)
    80002584:	3a10                	fld	fa2,48(a2)
    80002586:	693d                	lui	s2,0xf
    80002588:	6086                	ld	ra,64(sp)
    8000258a:	d502                	sw	zero,168(sp)
    8000258c:	d011                	beqz	s0,80002490 <test_memory+0x290>
    8000258e:	4056                	0x4056
    80002590:	8481c48f          	0x8481c48f
    80002594:	cd0e                	sw	gp,152(sp)
    80002596:	a34c                	fsd	fa1,128(a4)
    80002598:	cd2e                	sw	a1,152(sp)
    8000259a:	a2b4                	fsd	fa3,64(a3)
    8000259c:	1770                	addi	a2,sp,940
    8000259e:	80d4                	0x80d4
    800025a0:	0482                	c.slli64	s1
    800025a2:	6bd1                	lui	s7,0x14
    800025a4:	7fd6                	ld	t6,368(sp)
    800025a6:	fdac                	sd	a1,120(a1)
    800025a8:	3c90                	fld	fa2,56(s1)
    800025aa:	6cc4                	ld	s1,152(s1)
    800025ac:	0b7172e7          	0xb7172e7
    800025b0:	40de                	lw	ra,212(sp)
    800025b2:	b1f2                	fsd	ft8,224(sp)
    800025b4:	51d6                	lw	gp,116(sp)
    800025b6:	5e51                	li	t3,-12
    800025b8:	fa0eaeb3          	0xfa0eaeb3
    800025bc:	9685                	srai	a3,a3,0x21
    800025be:	d3c1                	beqz	a5,8000253e <test_memory+0x33e>
    800025c0:	42ad                	li	t0,11
    800025c2:	0565                	addi	a0,a0,25
    800025c4:	43a6                	lw	t2,72(sp)
    800025c6:	6e8b15b7          	lui	a1,0x6e8b1
    800025ca:	d165                	beqz	a0,800025aa <test_memory+0x3aa>
    800025cc:	0e51                	addi	t3,t3,20
    800025ce:	fafa                	sd	t5,368(sp)
    800025d0:	c85d                	beqz	s0,80002686 <_end+0x76>
    800025d2:	85f8                	0x85f8
    800025d4:	7dee                	ld	s11,248(sp)
    800025d6:	f58c                	sd	a1,40(a1)
    800025d8:	6c7a                	ld	s8,408(sp)
    800025da:	f3ea                	sd	s10,480(sp)
    800025dc:	c05a                	sw	s6,0(sp)
    800025de:	cde8f72b          	0xcde8f72b
    800025e2:	9c1d                	subw	s0,s0,a5
    800025e4:	73a9                	lui	t2,0xfffea
    800025e6:	3d1a7373          	csrrci	t1,0x3d1,20
    800025ea:	cc8a                	sw	sp,88(sp)
    800025ec:	fc0c                	sd	a1,56(s0)
    800025ee:	cdb8                	sw	a4,88(a1)
    800025f0:	b335                	j	8000231c <test_memory+0x11c>
    800025f2:	4f64                	lw	s1,92(a4)
    800025f4:	738d                	lui	t2,0xfffe3
    800025f6:	0f88                	addi	a0,sp,976
    800025f8:	c039                	beqz	s0,8000263e <_end+0x2e>
    800025fa:	4250                	lw	a2,4(a2)
    800025fc:	aac5                	j	800027ec <_end+0x1dc>
    800025fe:	734c                	ld	a1,160(a4)

0000000080002600 <loop_count>:
    80002600:	0040                	addi	s0,sp,4
	...

Disassembly of section .riscv.attributes:

0000000000000000 <.riscv.attributes>:
   0:	1e41                	addi	t3,t3,-16
   2:	0000                	unimp
   4:	7200                	ld	s0,32(a2)
   6:	7369                	lui	t1,0xffffa
   8:	01007663          	bgeu	zero,a6,14 <_start-0x7fffffec>
   c:	0014                	0x14
   e:	0000                	unimp
  10:	7205                	lui	tp,0xfffe1
  12:	3676                	fld	fa2,376(sp)
  14:	6934                	ld	a3,80(a0)
  16:	7032                	0x7032
  18:	5f30                	lw	a2,120(a4)
  1a:	326d                	addiw	tp,tp,-5
  1c:	3070                	fld	fa2,224(s0)
	...
