
build/test7:     file format elf64-littleriscv


Disassembly of section .text.init:

0000000080000000 <_start>:
    80000000:	05c0006f          	j	8000005c <reset_vector>

0000000080000004 <trap_vector>:
    80000004:	34202f73          	csrr	t5,mcause
    80000008:	00800f93          	li	t6,8
    8000000c:	03ff0a63          	beq	t5,t6,80000040 <write_tohost>
    80000010:	00900f93          	li	t6,9
    80000014:	03ff0663          	beq	t5,t6,80000040 <write_tohost>
    80000018:	00b00f93          	li	t6,11
    8000001c:	03ff0263          	beq	t5,t6,80000040 <write_tohost>
    80000020:	80000f17          	auipc	t5,0x80000
    80000024:	fe0f0f13          	addi	t5,t5,-32 # 0 <_start-0x80000000>
    80000028:	000f0463          	beqz	t5,80000030 <trap_vector+0x2c>
    8000002c:	000f0067          	jr	t5
    80000030:	34202f73          	csrr	t5,mcause
    80000034:	000f5463          	bgez	t5,8000003c <handle_exception>
    80000038:	0040006f          	j	8000003c <handle_exception>

000000008000003c <handle_exception>:
    8000003c:	5391e193          	ori	gp,gp,1337

0000000080000040 <write_tohost>:
    80000040:	00001f17          	auipc	t5,0x1
    80000044:	fc3f2023          	sw	gp,-64(t5) # 80001000 <tohost>
    80000048:	000902b7          	lui	t0,0x90
    8000004c:	0012829b          	addiw	t0,t0,1
    80000050:	00c29293          	slli	t0,t0,0xc
    80000054:	0002af83          	lw	t6,0(t0) # 90000 <_start-0x7ff70000>
    80000058:	fe9ff06f          	j	80000040 <write_tohost>

000000008000005c <reset_vector>:
    8000005c:	00000093          	li	ra,0
    80000060:	00000113          	li	sp,0
    80000064:	00000193          	li	gp,0
    80000068:	00000213          	li	tp,0
    8000006c:	00000293          	li	t0,0
    80000070:	00000313          	li	t1,0
    80000074:	00000393          	li	t2,0
    80000078:	00000413          	li	s0,0
    8000007c:	00000493          	li	s1,0
    80000080:	00000513          	li	a0,0
    80000084:	00000593          	li	a1,0
    80000088:	00000613          	li	a2,0
    8000008c:	00000693          	li	a3,0
    80000090:	00000713          	li	a4,0
    80000094:	00000793          	li	a5,0
    80000098:	00000813          	li	a6,0
    8000009c:	00000893          	li	a7,0
    800000a0:	00000913          	li	s2,0
    800000a4:	00000993          	li	s3,0
    800000a8:	00000a13          	li	s4,0
    800000ac:	00000a93          	li	s5,0
    800000b0:	00000b13          	li	s6,0
    800000b4:	00000b93          	li	s7,0
    800000b8:	00000c13          	li	s8,0
    800000bc:	00000c93          	li	s9,0
    800000c0:	00000d13          	li	s10,0
    800000c4:	00000d93          	li	s11,0
    800000c8:	00000e13          	li	t3,0
    800000cc:	00000e93          	li	t4,0
    800000d0:	00000f13          	li	t5,0
    800000d4:	00000f93          	li	t6,0
    800000d8:	f1402573          	csrr	a0,mhartid
    800000dc:	00051063          	bnez	a0,800000dc <reset_vector+0x80>
    800000e0:	00000297          	auipc	t0,0x0
    800000e4:	01028293          	addi	t0,t0,16 # 800000f0 <reset_vector+0x94>
    800000e8:	30529073          	csrw	mtvec,t0
    800000ec:	18005073          	csrwi	satp,0
    800000f0:	00000297          	auipc	t0,0x0
    800000f4:	02428293          	addi	t0,t0,36 # 80000114 <reset_vector+0xb8>
    800000f8:	30529073          	csrw	mtvec,t0
    800000fc:	0010029b          	addiw	t0,zero,1
    80000100:	03529293          	slli	t0,t0,0x35
    80000104:	fff28293          	addi	t0,t0,-1
    80000108:	3b029073          	csrw	pmpaddr0,t0
    8000010c:	01f00293          	li	t0,31
    80000110:	3a029073          	csrw	pmpcfg0,t0
    80000114:	30405073          	csrwi	mie,0
    80000118:	00000297          	auipc	t0,0x0
    8000011c:	01428293          	addi	t0,t0,20 # 8000012c <reset_vector+0xd0>
    80000120:	30529073          	csrw	mtvec,t0
    80000124:	30205073          	csrwi	medeleg,0
    80000128:	30305073          	csrwi	mideleg,0
    8000012c:	00000193          	li	gp,0
    80000130:	00000297          	auipc	t0,0x0
    80000134:	ed428293          	addi	t0,t0,-300 # 80000004 <trap_vector>
    80000138:	30529073          	csrw	mtvec,t0
    8000013c:	00100513          	li	a0,1
    80000140:	01f51513          	slli	a0,a0,0x1f
    80000144:	00055c63          	bgez	a0,8000015c <reset_vector+0x100>
    80000148:	0ff0000f          	fence
    8000014c:	00100193          	li	gp,1
    80000150:	05d00893          	li	a7,93
    80000154:	00000513          	li	a0,0
    80000158:	00000073          	ecall
    8000015c:	80000297          	auipc	t0,0x80000
    80000160:	ea428293          	addi	t0,t0,-348 # 0 <_start-0x80000000>
    80000164:	00028a63          	beqz	t0,80000178 <reset_vector+0x11c>
    80000168:	10529073          	csrw	stvec,t0
    8000016c:	0000b2b7          	lui	t0,0xb
    80000170:	1092829b          	addiw	t0,t0,265
    80000174:	30229073          	csrw	medeleg,t0
    80000178:	30005073          	csrwi	mstatus,0
    8000017c:	00000297          	auipc	t0,0x0
    80000180:	01428293          	addi	t0,t0,20 # 80000190 <reset_vector+0x134>
    80000184:	34129073          	csrw	mepc,t0
    80000188:	f1402573          	csrr	a0,mhartid
    8000018c:	30200073          	mret
    80000190:	0200006f          	j	800001b0 <test_start>

0000000080000194 <crash_backward>:
    80000194:	0ff0000f          	fence
    80000198:	00018063          	beqz	gp,80000198 <crash_backward+0x4>
    8000019c:	00119193          	slli	gp,gp,0x1
    800001a0:	0011e193          	ori	gp,gp,1
    800001a4:	05d00893          	li	a7,93
    800001a8:	00018513          	mv	a0,gp
    800001ac:	00000073          	ecall

00000000800001b0 <test_start>:
    800001b0:	00002f97          	auipc	t6,0x2
    800001b4:	e50f8f93          	addi	t6,t6,-432 # 80002000 <hidden_data>
    800001b8:	000fb003          	ld	zero,0(t6)
    800001bc:	008fb083          	ld	ra,8(t6)
    800001c0:	010fb103          	ld	sp,16(t6)
    800001c4:	018fb183          	ld	gp,24(t6)
    800001c8:	020fb203          	ld	tp,32(t6)
    800001cc:	028fb283          	ld	t0,40(t6)
    800001d0:	030fb303          	ld	t1,48(t6)
    800001d4:	038fb383          	ld	t2,56(t6)
    800001d8:	040fb403          	ld	s0,64(t6)
    800001dc:	048fb483          	ld	s1,72(t6)
    800001e0:	050fb503          	ld	a0,80(t6)
    800001e4:	058fb583          	ld	a1,88(t6)
    800001e8:	060fb603          	ld	a2,96(t6)
    800001ec:	068fb683          	ld	a3,104(t6)
    800001f0:	070fb703          	ld	a4,112(t6)
    800001f4:	078fb783          	ld	a5,120(t6)
    800001f8:	080fb803          	ld	a6,128(t6)
    800001fc:	088fb883          	ld	a7,136(t6)
    80000200:	090fb903          	ld	s2,144(t6)
    80000204:	098fb983          	ld	s3,152(t6)
    80000208:	0a0fba03          	ld	s4,160(t6)
    8000020c:	0a8fba83          	ld	s5,168(t6)
    80000210:	0b0fbb03          	ld	s6,176(t6)
    80000214:	0b8fbb83          	ld	s7,184(t6)
    80000218:	0c0fbc03          	ld	s8,192(t6)
    8000021c:	0c8fbc83          	ld	s9,200(t6)
    80000220:	0d0fbd03          	ld	s10,208(t6)
    80000224:	0d8fbd83          	ld	s11,216(t6)
    80000228:	0e0fbe03          	ld	t3,224(t6)
    8000022c:	0e8fbe83          	ld	t4,232(t6)
    80000230:	0f0fbf03          	ld	t5,240(t6)
    80000234:	0f8fbf83          	ld	t6,248(t6)
    80000238:	0040006f          	j	8000023c <pseg_0>

000000008000023c <pseg_0>:
    8000023c:	41b056b3          	sra	a3,zero,s11
    80000240:	00100513          	li	a0,1
    80000244:	00002897          	auipc	a7,0x2
    80000248:	5a088893          	addi	a7,a7,1440 # 800027e4 <_end+0x1d4>
    8000024c:	019c8a33          	add	s4,s9,s9
    80000250:	0339d233          	divu	tp,s3,s3
    80000254:	00070e13          	mv	t3,a4
    80000258:	f226ac93          	slti	s9,a3,-222
    8000025c:	d1a00293          	li	t0,-742
    80000260:	0a700313          	li	t1,167
    80000264:	03f51513          	slli	a0,a0,0x3f
    80000268:	00048593          	mv	a1,s1
    8000026c:	fff00f93          	li	t6,-1
    80000270:	00afcfb3          	xor	t6,t6,a0
    80000274:	39e00193          	li	gp,926
    80000278:	01f9fd33          	and	s10,s3,t6
    8000027c:	b8e00e93          	li	t4,-1138
    80000280:	0252e13b          	remw	sp,t0,t0
    80000284:	00ad6b33          	or	s6,s10,a0
    80000288:	a8289c23          	sh	sp,-1384(a7)
    8000028c:	c5b00293          	li	t0,-933
    80000290:	41ef59b3          	sra	s3,t5,t5
    80000294:	d4c00613          	li	a2,-692
    80000298:	00000413          	li	s0,0
    8000029c:	b1800693          	li	a3,-1256
    800002a0:	00058813          	mv	a6,a1
    800002a4:	02c67f33          	remu	t5,a2,a2
    800002a8:	00000393          	li	t2,0
    800002ac:	000e0d93          	mv	s11,t3
    800002b0:	1d100093          	li	ra,465
    800002b4:	00100c93          	li	s9,1
    800002b8:	6fbe1a63          	bne	t3,s11,800009ac <crash_forward>
    800002bc:	021367b3          	rem	a5,t1,ra
    800002c0:	08718c13          	addi	s8,gp,135 # 80002e97 <__global_pointer$+0x87>
    800002c4:	03fc9c93          	slli	s9,s9,0x3f
    800002c8:	b6700493          	li	s1,-1177
    800002cc:	fff00b93          	li	s7,-1
    800002d0:	ed6d72e3          	bgeu	s10,s6,80000194 <crash_backward>
    800002d4:	019bcbb3          	xor	s7,s7,s9
    800002d8:	6c3c6a63          	bltu	s8,gp,800009ac <crash_forward>
    800002dc:	02d29a33          	mulh	s4,t0,a3
    800002e0:	02949733          	mulh	a4,s1,s1
    800002e4:	0175f233          	and	tp,a1,s7
    800002e8:	01926133          	or	sp,tp,s9
    800002ec:	ea4154e3          	bge	sp,tp,80000194 <crash_backward>
    800002f0:	0bc00a93          	li	s5,188
    800002f4:	035ee93b          	remw	s2,t4,s5
    800002f8:	d1500693          	li	a3,-747
    800002fc:	00002f97          	auipc	t6,0x2
    80000300:	39af8f93          	addi	t6,t6,922 # 80002696 <_end+0x86>
    80000304:	000e0393          	mv	t2,t3
    80000308:	02d6adb3          	mulhsu	s11,a3,a3
    8000030c:	00038b93          	mv	s7,t2
    80000310:	4a300413          	li	s0,1187
    80000314:	fe600293          	li	t0,-26
    80000318:	bbe00e93          	li	t4,-1090
    8000031c:	01a4171b          	slliw	a4,s0,0x1a
    80000320:	36d00193          	li	gp,877
    80000324:	fb71e4b7          	lui	s1,0xfb71e
    80000328:	00700f13          	li	t5,7
    8000032c:	d3af9823          	sh	s10,-720(t6)
    80000330:	025287b3          	mul	a5,t0,t0
    80000334:	a4500913          	li	s2,-1467
    80000338:	00100a93          	li	s5,1
    8000033c:	a3b00313          	li	t1,-1477
    80000340:	012f19bb          	sllw	s3,t5,s2
    80000344:	023e9633          	mulh	a2,t4,gp
    80000348:	04f00093          	li	ra,79
    8000034c:	00633d33          	sltu	s10,t1,t1
    80000350:	03fa9a93          	slli	s5,s5,0x3f
    80000354:	fff00b13          	li	s6,-1
    80000358:	59f40593          	addi	a1,s0,1439
    8000035c:	010814bb          	sllw	s1,a6,a6
    80000360:	46c00e93          	li	t4,1132
    80000364:	57500393          	li	t2,1397
    80000368:	01dea1b3          	slt	gp,t4,t4
    8000036c:	0273bd33          	mulhu	s10,t2,t2
    80000370:	a8900113          	li	sp,-1399
    80000374:	02be063b          	mulw	a2,t3,a1
    80000378:	69600513          	li	a0,1686
    8000037c:	015b4b33          	xor	s6,s6,s5
    80000380:	68000913          	li	s2,1664
    80000384:	d9a00e93          	li	t4,-614
    80000388:	01239db3          	sll	s11,t2,s2
    8000038c:	d9200493          	li	s1,-622
    80000390:	38e00993          	li	s3,910
    80000394:	407ad5bb          	sraw	a1,s5,t2
    80000398:	015ab2b3          	sltu	t0,s5,s5
    8000039c:	03349d33          	mulh	s10,s1,s3
    800003a0:	01637833          	and	a6,t1,s6
    800003a4:	01586233          	or	tp,a6,s5
    800003a8:	41ded63b          	sraw	a2,t4,t4
    800003ac:	54600713          	li	a4,1350
    800003b0:	bfd00893          	li	a7,-1027
    800003b4:	50f00c13          	li	s8,1295
    800003b8:	01810e33          	add	t3,sp,s8
    800003bc:	e8200193          	li	gp,-382
    800003c0:	0010bd33          	sltu	s10,ra,ra
    800003c4:	00100493          	li	s1,1
    800003c8:	003ed43b          	srlw	s0,t4,gp
    800003cc:	40b9d5bb          	sraw	a1,s3,a1
    800003d0:	a7600813          	li	a6,-1418
    800003d4:	0116ba33          	sltu	s4,a3,a7
    800003d8:	55e00b13          	li	s6,1374
    800003dc:	ac000313          	li	t1,-1344
    800003e0:	03bdf3bb          	remuw	t2,s11,s11
    800003e4:	8e500793          	li	a5,-1819
    800003e8:	a7800f93          	li	t6,-1416
    800003ec:	00000293          	li	t0,0
    800003f0:	00000913          	li	s2,0
    800003f4:	41f70bb3          	sub	s7,a4,t6
    800003f8:	00f31f3b          	sllw	t5,t1,a5
    800003fc:	7a3b0a93          	addi	s5,s6,1955
    80000400:	00100193          	li	gp,1
    80000404:	00c2d9b3          	srl	s3,t0,a2
    80000408:	7d000f93          	li	t6,2000
    8000040c:	5ad6e063          	bltu	a3,a3,800009ac <crash_forward>
    80000410:	02a08cb3          	mul	s9,ra,a0
    80000414:	aeb00b93          	li	s7,-1301
    80000418:	0287f7bb          	remuw	a5,a5,s0
    8000041c:	02212db3          	mulhsu	s11,sp,sp
    80000420:	07200f13          	li	t5,114
    80000424:	ed800113          	li	sp,-296
    80000428:	002f98b3          	sll	a7,t6,sp
    8000042c:	037bca33          	div	s4,s7,s7
    80000430:	03f19193          	slli	gp,gp,0x3f
    80000434:	00078693          	mv	a3,a5
    80000438:	00000413          	li	s0,0
    8000043c:	00000b13          	li	s6,0
    80000440:	02210eb3          	mul	t4,sp,sp
    80000444:	0108123b          	sllw	tp,a6,a6
    80000448:	41d00393          	li	t2,1053
    8000044c:	fff00d13          	li	s10,-1
    80000450:	003d4d33          	xor	s10,s10,gp
    80000454:	03f49493          	slli	s1,s1,0x3f
    80000458:	03ad7b3b          	remuw	s6,s10,s10
    8000045c:	fff00613          	li	a2,-1
    80000460:	00068a93          	mv	s5,a3
    80000464:	c1800913          	li	s2,-1000
    80000468:	013619b3          	sll	s3,a2,s3
    8000046c:	00964633          	xor	a2,a2,s1
    80000470:	e1d00793          	li	a5,-483
    80000474:	00002f97          	auipc	t6,0x2
    80000478:	852f8f93          	addi	t6,t6,-1966 # 80001cc6 <fromhost+0xc86>
    8000047c:	407f55b3          	sra	a1,t5,t2
    80000480:	78f86d93          	ori	s11,a6,1935
    80000484:	d15698e3          	bne	a3,s5,80000194 <crash_backward>
    80000488:	680f9e83          	lh	t4,1664(t6)
    8000048c:	11b00213          	li	tp,283
    80000490:	407383b3          	sub	t2,t2,t2
    80000494:	031b6bbb          	remw	s7,s6,a7
    80000498:	56e00513          	li	a0,1390
    8000049c:	f5100993          	li	s3,-175
    800004a0:	dac00b13          	li	s6,-596
    800004a4:	00100893          	li	a7,1
    800004a8:	00c0fc33          	and	s8,ra,a2
    800004ac:	01aa7733          	and	a4,s4,s10
    800004b0:	03fdff33          	remu	t5,s11,t6
    800004b4:	02478433          	mul	s0,a5,tp
    800004b8:	0169e833          	or	a6,s3,s6
    800004bc:	0210ecb3          	rem	s9,ra,ra
    800004c0:	02f245b3          	div	a1,tp,a5
    800004c4:	42fd5693          	srai	a3,s10,0x2f
    800004c8:	41c90433          	sub	s0,s2,t3
    800004cc:	03f89893          	slli	a7,a7,0x3f
    800004d0:	00ee7b33          	and	s6,t3,a4
    800004d4:	29500813          	li	a6,661
    800004d8:	01e55ebb          	srlw	t4,a0,t5
    800004dc:	00326333          	or	t1,tp,gp
    800004e0:	cab00d93          	li	s11,-853
    800004e4:	c3900993          	li	s3,-967
    800004e8:	009a6e33          	or	t3,s4,s1
    800004ec:	3d500793          	li	a5,981
    800004f0:	4bcc0e63          	beq	s8,t3,800009ac <crash_forward>
    800004f4:	41398abb          	subw	s5,s3,s3
    800004f8:	00a90133          	add	sp,s2,a0
    800004fc:	00002c17          	auipc	s8,0x2
    80000500:	5c3c0c13          	addi	s8,s8,1475 # 80002abf <_end+0x4af>
    80000504:	02259bb3          	mulh	s7,a1,sp
    80000508:	77500913          	li	s2,1909
    8000050c:	fff00293          	li	t0,-1
    80000510:	e7b575b7          	lui	a1,0xe7b57
    80000514:	01294133          	xor	sp,s2,s2
    80000518:	036b5333          	divu	t1,s6,s6
    8000051c:	00100593          	li	a1,1
    80000520:	03f59593          	slli	a1,a1,0x3f
    80000524:	32d00b13          	li	s6,813
    80000528:	0112c2b3          	xor	t0,t0,a7
    8000052c:	7d500e93          	li	t4,2005
    80000530:	d8814613          	xori	a2,sp,-632
    80000534:	02f7843b          	mulw	s0,a5,a5
    80000538:	00100f13          	li	t5,1
    8000053c:	01db56b3          	srl	a3,s6,t4
    80000540:	0059fa33          	and	s4,s3,t0
    80000544:	37400513          	li	a0,884
    80000548:	03b86233          	rem	tp,a6,s11
    8000054c:	02994abb          	divw	s5,s2,s1
    80000550:	b5bc8713          	addi	a4,s9,-1189
    80000554:	94b00313          	li	t1,-1717
    80000558:	fff00b93          	li	s7,-1
    8000055c:	03ff1f13          	slli	t5,t5,0x3f
    80000560:	011360b3          	or	ra,t1,a7
    80000564:	fff00f93          	li	t6,-1
    80000568:	bf700913          	li	s2,-1033
    8000056c:	01efcfb3          	xor	t6,t6,t5
    80000570:	29d00993          	li	s3,669
    80000574:	00100613          	li	a2,1
    80000578:	00002697          	auipc	a3,0x2
    8000057c:	e8e68693          	addi	a3,a3,-370 # 80002406 <test_memory+0x206>
    80000580:	4340e663          	bltu	ra,s4,800009ac <crash_forward>
    80000584:	991c0ba3          	sb	a7,-1641(s8)
    80000588:	fa169923          	sh	ra,-78(a3)
    8000058c:	00bbcbb3          	xor	s7,s7,a1
    80000590:	e9000713          	li	a4,-368
    80000594:	00002b17          	auipc	s6,0x2
    80000598:	a6eb0b13          	addi	s6,s6,-1426 # 80002002 <hidden_data+0x2>
    8000059c:	414a5e3b          	sraw	t3,s4,s4
    800005a0:	1a1efa13          	andi	s4,t4,417
    800005a4:	e3c00893          	li	a7,-452
    800005a8:	013524b3          	slt	s1,a0,s3
    800005ac:	77b00793          	li	a5,1915
    800005b0:	49ab6203          	lwu	tp,1178(s6)
    800005b4:	03f61613          	slli	a2,a2,0x3f
    800005b8:	cb900693          	li	a3,-839
    800005bc:	41235133          	sra	sp,t1,s2
    800005c0:	02d6d0b3          	divu	ra,a3,a3
    800005c4:	40f882bb          	subw	t0,a7,a5
    800005c8:	017371b3          	and	gp,t1,s7
    800005cc:	00e74833          	xor	a6,a4,a4
    800005d0:	00b1ed33          	or	s10,gp,a1
    800005d4:	01fdf3b3          	and	t2,s11,t6
    800005d8:	014b5b3b          	srlw	s6,s6,s4
    800005dc:	bd700793          	li	a5,-1065
    800005e0:	02f7e4bb          	remw	s1,a5,a5
    800005e4:	00002697          	auipc	a3,0x2
    800005e8:	ec168693          	addi	a3,a3,-319 # 800024a5 <test_memory+0x2a5>
    800005ec:	f1f00093          	li	ra,-225
    800005f0:	00426eb3          	or	t4,tp,tp
    800005f4:	97400813          	li	a6,-1676
    800005f8:	01ed6cb3          	or	s9,s10,t5
    800005fc:	43500113          	li	sp,1077
    80000600:	0010c933          	xor	s2,ra,ra
    80000604:	00002717          	auipc	a4,0x2
    80000608:	25c70713          	addi	a4,a4,604 # 80002860 <_end+0x250>
    8000060c:	fdc6ce03          	lbu	t3,-36(a3)
    80000610:	57900893          	li	a7,1401
    80000614:	bee00a13          	li	s4,-1042
    80000618:	bdc00513          	li	a0,-1060
    8000061c:	0de00193          	li	gp,222
    80000620:	ae974983          	lbu	s3,-1303(a4)
    80000624:	01c5debb          	srlw	t4,a1,t3
    80000628:	00100e13          	li	t3,1
    8000062c:	03fe1e13          	slli	t3,t3,0x3f
    80000630:	00100b93          	li	s7,1
    80000634:	00a88333          	add	t1,a7,a0
    80000638:	002152b3          	srl	t0,sp,sp
    8000063c:	00100513          	li	a0,1
    80000640:	fff00093          	li	ra,-1
    80000644:	37c00e93          	li	t4,892
    80000648:	409e0c3b          	subw	s8,t3,s1
    8000064c:	2ef18793          	addi	a5,gp,751 # 800030ff <__global_pointer$+0x2ef>
    80000650:	b437e2e3          	bltu	a5,gp,80000194 <crash_backward>
    80000654:	03fb9b93          	slli	s7,s7,0x3f
    80000658:	03f51513          	slli	a0,a0,0x3f
    8000065c:	00000c13          	li	s8,0
    80000660:	00000393          	li	t2,0
    80000664:	fff00313          	li	t1,-1
    80000668:	03b0acb3          	mulhsu	s9,ra,s11
    8000066c:	407e8893          	addi	a7,t4,1031
    80000670:	ef600193          	li	gp,-266
    80000674:	00a34333          	xor	t1,t1,a0
    80000678:	01c0c0b3          	xor	ra,ra,t3
    8000067c:	fff00a93          	li	s5,-1
    80000680:	06dd3713          	sltiu	a4,s10,109
    80000684:	01085233          	srl	tp,a6,a6
    80000688:	2b400793          	li	a5,692
    8000068c:	02f79fb3          	mulh	t6,a5,a5
    80000690:	00677133          	and	sp,a4,t1
    80000694:	00cacab3          	xor	s5,s5,a2
    80000698:	9b100f13          	li	t5,-1615
    8000069c:	001cf933          	and	s2,s9,ra
    800006a0:	00a562b3          	or	t0,a0,a0
    800006a4:	015cf433          	and	s0,s9,s5
    800006a8:	00c46db3          	or	s11,s0,a2
    800006ac:	01fff3b3          	and	t2,t6,t6
    800006b0:	fff00493          	li	s1,-1
    800006b4:	01e1b9b3          	sltu	s3,gp,t5
    800006b8:	0174c4b3          	xor	s1,s1,s7
    800006bc:	89900f13          	li	t5,-1895
    800006c0:	a8776c93          	ori	s9,a4,-1401
    800006c4:	0196519b          	srliw	gp,a2,0x19
    800006c8:	36a00513          	li	a0,874
    800006cc:	a9bf0a93          	addi	s5,t5,-1381
    800006d0:	c4d00393          	li	t2,-947
    800006d4:	01c966b3          	or	a3,s2,t3
    800006d8:	0073d63b          	srlw	a2,t2,t2
    800006dc:	00002c17          	auipc	s8,0x2
    800006e0:	2e0c0c13          	addi	s8,s8,736 # 800029bc <_end+0x3ac>
    800006e4:	cde00813          	li	a6,-802
    800006e8:	009575b3          	and	a1,a0,s1
    800006ec:	06053213          	sltiu	tp,a0,96
    800006f0:	aa900113          	li	sp,-1367
    800006f4:	82a80993          	addi	s3,a6,-2006
    800006f8:	034a0d33          	mul	s10,s4,s4
    800006fc:	017aeb33          	or	s6,s5,s7
    80000700:	64e00313          	li	t1,1614
    80000704:	00002197          	auipc	gp,0x2
    80000708:	12018193          	addi	gp,gp,288 # 80002824 <_end+0x214>
    8000070c:	a801a623          	sw	zero,-1396(gp) # 8000289c <_end+0x28c>
    80000710:	02b17fb3          	remu	t6,sp,a1
    80000714:	002127b3          	slt	a5,sp,sp
    80000718:	00000393          	li	t2,0
    8000071c:	00002d97          	auipc	s11,0x2
    80000720:	62ed8d93          	addi	s11,s11,1582 # 80002d4a <_end+0x73a>
    80000724:	8aac5703          	lhu	a4,-1878(s8)
    80000728:	00000f13          	li	t5,0
    8000072c:	806de883          	lwu	a7,-2042(s11)
    80000730:	a76582e3          	beq	a1,s6,80000194 <crash_backward>
    80000734:	006562b3          	or	t0,a0,t1
    80000738:	00002617          	auipc	a2,0x2
    8000073c:	fcc60613          	addi	a2,a2,-52 # 80002704 <_end+0xf4>
    80000740:	bc900413          	li	s0,-1079
    80000744:	00002217          	auipc	tp,0x2
    80000748:	b8b20213          	addi	tp,tp,-1141 # 800022cf <test_memory+0xcf>
    8000074c:	fb140e93          	addi	t4,s0,-79
    80000750:	d3e61a83          	lh	s5,-706(a2)
    80000754:	17a219a3          	sh	s10,371(tp) # 173 <_start-0x7ffffe8d>
    80000758:	a3d44ee3          	blt	s0,t4,80000194 <crash_backward>
    8000075c:	ea7b2993          	slti	s3,s6,-345
    80000760:	e4c00813          	li	a6,-436
    80000764:	01188133          	add	sp,a7,a7
    80000768:	80b00913          	li	s2,-2037
    8000076c:	eff00493          	li	s1,-257
    80000770:	0031c1b3          	xor	gp,gp,gp
    80000774:	02a552bb          	divuw	t0,a0,a0
    80000778:	1a000f93          	li	t6,416
    8000077c:	69b00393          	li	t2,1691
    80000780:	03468eb3          	mul	t4,a3,s4
    80000784:	001757bb          	srlw	a5,a4,ra
    80000788:	e6748093          	addi	ra,s1,-409 # fffffffffb71de67 <__global_pointer$+0xffffffff7b71b057>
    8000078c:	e6600b13          	li	s6,-410
    80000790:	00001317          	auipc	t1,0x1
    80000794:	7d730313          	addi	t1,t1,2007 # 80001f67 <fromhost+0xf27>
    80000798:	03f90433          	mul	s0,s2,t6
    8000079c:	00002297          	auipc	t0,0x2
    800007a0:	08528293          	addi	t0,t0,133 # 80002821 <_end+0x211>
    800007a4:	00002217          	auipc	tp,0x2
    800007a8:	1e720213          	addi	tp,tp,487 # 8000298b <_end+0x37b>
    800007ac:	a3a00d13          	li	s10,-1478
    800007b0:	c0f00613          	li	a2,-1009
    800007b4:	00002597          	auipc	a1,0x2
    800007b8:	a4858593          	addi	a1,a1,-1464 # 800021fc <reg_x31_output+0x4>
    800007bc:	01a86533          	or	a0,a6,s10
    800007c0:	90d00c13          	li	s8,-1779
    800007c4:	00002797          	auipc	a5,0x2
    800007c8:	dbb78793          	addi	a5,a5,-581 # 8000257f <test_memory+0x37f>
    800007cc:	02326c93          	ori	s9,tp,35
    800007d0:	36936f03          	lwu	t5,873(t1)
    800007d4:	00002717          	auipc	a4,0x2
    800007d8:	10f70713          	addi	a4,a4,271 # 800028e3 <_end+0x2d3>
    800007dc:	d012b3a3          	sd	ra,-761(t0)
    800007e0:	0273ce33          	div	t3,t2,t2
    800007e4:	1f300113          	li	sp,499
    800007e8:	0c75ac23          	sw	t2,216(a1)
    800007ec:	03a00513          	li	a0,58
    800007f0:	02cb4abb          	divw	s5,s6,a2
    800007f4:	02078423          	sb	zero,40(a5)
    800007f8:	9db00b93          	li	s7,-1573
    800007fc:	9fd70c23          	sb	t4,-1544(a4)
    80000800:	0239dfb3          	divu	t6,s3,gp
    80000804:	00002997          	auipc	s3,0x2
    80000808:	3be98993          	addi	s3,s3,958 # 80002bc2 <_end+0x5b2>
    8000080c:	23700d13          	li	s10,567
    80000810:	eebbfe13          	andi	t3,s7,-277
    80000814:	a069ed83          	lwu	s11,-1530(s3)
    80000818:	01a15eb3          	srl	t4,sp,s10
    8000081c:	0339c1bb          	divw	gp,s3,s3
    80000820:	03ea63bb          	remw	t2,s4,t5
    80000824:	038c46bb          	divw	a3,s8,s8
    80000828:	017bd8bb          	srlw	a7,s7,s7
    8000082c:	40a500bb          	subw	ra,a0,a0
    80000830:	00002c97          	auipc	s9,0x2
    80000834:	9abc8c93          	addi	s9,s9,-1621 # 800021db <reg_x27_output+0x3>
    80000838:	03fff2bb          	remuw	t0,t6,t6
    8000083c:	94f21a03          	lh	s4,-1713(tp) # fffffffffffff94f <__global_pointer$+0xffffffff7fffcb3f>
    80000840:	eb800813          	li	a6,-328
    80000844:	2e600493          	li	s1,742
    80000848:	02981933          	mulh	s2,a6,s1
    8000084c:	2d9ca403          	lw	s0,729(s9)
    80000850:	40d6581b          	sraiw	a6,a2,0xd
    80000854:	00001217          	auipc	tp,0x1
    80000858:	25120213          	addi	tp,tp,593 # 80001aa5 <fromhost+0xa65>
    8000085c:	02847fb3          	remu	t6,s0,s0
    80000860:	13900393          	li	t2,313
    80000864:	81a00793          	li	a5,-2022
    80000868:	0073b733          	sltu	a4,t2,t2
    8000086c:	4c5a7513          	andi	a0,s4,1221
    80000870:	40738e33          	sub	t3,t2,t2
    80000874:	01a00d93          	li	s11,26
    80000878:	00002f17          	auipc	t5,0x2
    8000087c:	237f0f13          	addi	t5,t5,567 # 80002aaf <_end+0x49f>
    80000880:	03bdc9b3          	div	s3,s11,s11
    80000884:	7e821da3          	sh	s0,2043(tp) # 7fb <_start-0x7ffff805>
    80000888:	49c00913          	li	s2,1180
    8000088c:	a2200513          	li	a0,-1502
    80000890:	018c543b          	srlw	s0,s8,s8
    80000894:	43c00493          	li	s1,1084
    80000898:	00001697          	auipc	a3,0x1
    8000089c:	2b068693          	addi	a3,a3,688 # 80001b48 <fromhost+0xb08>
    800008a0:	01296cb3          	or	s9,s2,s2
    800008a4:	02632ab3          	mulhsu	s5,t1,t1
    800008a8:	40f7dbb3          	sra	s7,a5,a5
    800008ac:	849f5103          	lhu	sp,-1975(t5)
    800008b0:	002108bb          	addw	a7,sp,sp
    800008b4:	02672633          	mulhsu	a2,a4,t1
    800008b8:	60c00193          	li	gp,1548
    800008bc:	0294e333          	rem	t1,s1,s1
    800008c0:	7bb69a23          	sh	s11,1972(a3)
    800008c4:	000d0c13          	mv	s8,s10
    800008c8:	00002f97          	auipc	t6,0x2
    800008cc:	374f8f93          	addi	t6,t6,884 # 80002c3c <_end+0x62c>
    800008d0:	98100093          	li	ra,-1663
    800008d4:	403185bb          	subw	a1,gp,gp
    800008d8:	000c0e93          	mv	t4,s8
    800008dc:	00c00b13          	li	s6,12
    800008e0:	896fc803          	lbu	a6,-1898(t6)
    800008e4:	90000a13          	li	s4,-1792
    800008e8:	014a5d33          	srl	s10,s4,s4
    800008ec:	0160d2b3          	srl	t0,ra,s6
    800008f0:	69300393          	li	t2,1683
    800008f4:	0bdc4c63          	blt	s8,t4,800009ac <crash_forward>
    800008f8:	00752e33          	slt	t3,a0,t2
    800008fc:	023f6b3b          	remw	s6,t5,gp
    80000900:	4d900493          	li	s1,1241
    80000904:	98e00193          	li	gp,-1650
    80000908:	0034eeb3          	or	t4,s1,gp
    8000090c:	7e400313          	li	t1,2020
    80000910:	94100293          	li	t0,-1727
    80000914:	0253043b          	mulw	s0,t1,t0
    80000918:	0040006f          	j	8000091c <reg_dump>

000000008000091c <reg_dump>:
    8000091c:	00002097          	auipc	ra,0x2
    80000920:	ce408093          	addi	ra,ra,-796 # 80002600 <loop_count>
    80000924:	0000a103          	lw	sp,0(ra)
    80000928:	fff10193          	addi	gp,sp,-1
    8000092c:	0030a023          	sw	gp,0(ra)
    80000930:	900116e3          	bnez	sp,8000023c <pseg_0>
    80000934:	00001097          	auipc	ra,0x1
    80000938:	7cc08093          	addi	ra,ra,1996 # 80002100 <begin_signature>
    8000093c:	0000b023          	sd	zero,0(ra)
    80000940:	0020b823          	sd	sp,16(ra)
    80000944:	0030bc23          	sd	gp,24(ra)
    80000948:	0250b423          	sd	t0,40(ra)
    8000094c:	0260b823          	sd	t1,48(ra)
    80000950:	0270bc23          	sd	t2,56(ra)
    80000954:	0480b023          	sd	s0,64(ra)
    80000958:	0490b423          	sd	s1,72(ra)
    8000095c:	04a0b823          	sd	a0,80(ra)
    80000960:	04b0bc23          	sd	a1,88(ra)
    80000964:	06c0b023          	sd	a2,96(ra)
    80000968:	06e0b823          	sd	a4,112(ra)
    8000096c:	06f0bc23          	sd	a5,120(ra)
    80000970:	0900b023          	sd	a6,128(ra)
    80000974:	0910b423          	sd	a7,136(ra)
    80000978:	0920b823          	sd	s2,144(ra)
    8000097c:	0930bc23          	sd	s3,152(ra)
    80000980:	0b40b023          	sd	s4,160(ra)
    80000984:	0b50b423          	sd	s5,168(ra)
    80000988:	0b60b823          	sd	s6,176(ra)
    8000098c:	0b70bc23          	sd	s7,184(ra)
    80000990:	0d80b023          	sd	s8,192(ra)
    80000994:	0d90b423          	sd	s9,200(ra)
    80000998:	0da0b823          	sd	s10,208(ra)
    8000099c:	0db0bc23          	sd	s11,216(ra)
    800009a0:	0fc0b023          	sd	t3,224(ra)
    800009a4:	0fd0b423          	sd	t4,232(ra)
    800009a8:	0200006f          	j	800009c8 <test_end>

00000000800009ac <crash_forward>:
    800009ac:	0ff0000f          	fence
    800009b0:	00018063          	beqz	gp,800009b0 <crash_forward+0x4>
    800009b4:	00119193          	slli	gp,gp,0x1
    800009b8:	0011e193          	ori	gp,gp,1
    800009bc:	05d00893          	li	a7,93
    800009c0:	00018513          	mv	a0,gp
    800009c4:	00000073          	ecall

00000000800009c8 <test_end>:
    800009c8:	0ff0000f          	fence
    800009cc:	00100193          	li	gp,1
    800009d0:	05d00893          	li	a7,93
    800009d4:	00000513          	li	a0,0
    800009d8:	00000073          	ecall
    800009dc:	c0001073          	unimp
	...

Disassembly of section .tohost:

0000000080001000 <tohost>:
	...

0000000080001040 <fromhost>:
	...

Disassembly of section .data:

0000000080002000 <hidden_data>:
    80002000:	0000                	unimp
    80002002:	0000                	unimp
    80002004:	0000                	unimp
    80002006:	0800                	addi	s0,sp,16

0000000080002008 <reg_x1_init>:
    80002008:	0000                	unimp
    8000200a:	8000                	0x8000
    8000200c:	ffff                	0xffff
    8000200e:	ffff                	0xffff

0000000080002010 <reg_x2_init>:
    80002010:	d9d9                	beqz	a1,80001fa6 <fromhost+0xf66>
    80002012:	35f35bef          	jal	s7,80037b70 <__global_pointer$+0x34d60>
    80002016:	d1c6                	sw	a7,224(sp)

0000000080002018 <reg_x3_init>:
    80002018:	adc1                	j	800026e8 <_end+0xd8>
    8000201a:	9442                	add	s0,s0,a6
    8000201c:	ffff                	0xffff
    8000201e:	          	0x29f8e333

0000000080002020 <reg_x4_init>:
    80002020:	29f8                	fld	fa4,208(a1)
    80002022:	666379d3          	0x666379d3
    80002026:	6c0e                	ld	s8,192(sp)

0000000080002028 <reg_x5_init>:
    80002028:	11f5                	addi	gp,gp,-3
    8000202a:	f5d1                	bnez	a1,80001fb6 <fromhost+0xf76>
    8000202c:	82d6                	mv	t0,s5
    8000202e:	36c5                	addiw	a3,a3,-15

0000000080002030 <reg_x6_init>:
    80002030:	b029                	j	8000183a <fromhost+0x7fa>
    80002032:	a4a1f4c7          	0xa4a1f4c7
    80002036:	          	fmsub.s	fs8,ft1,ft0,ft0,rtz

0000000080002038 <reg_x7_init>:
	...

0000000080002040 <reg_x8_init>:
    80002040:	1f0e                	slli	t5,t5,0x23
    80002042:	98f17f8b          	0x98f17f8b
    80002046:	f490                	sd	a2,40(s1)

0000000080002048 <reg_x9_init>:
    80002048:	a290                	fsd	fa2,0(a3)
    8000204a:	16180677          	0x16180677
    8000204e:	          	0xd4f7

0000000080002050 <reg_x10_init>:
	...

0000000080002058 <reg_x11_init>:
    80002058:	608b347b          	0x608b347b
    8000205c:	adf1                	j	80002738 <_end+0x128>
    8000205e:	2b98                	fld	fa4,16(a5)

0000000080002060 <reg_x12_init>:
    80002060:	dc5e                	sw	s7,56(sp)
    80002062:	caf2c3ef          	jal	t2,7ff2ed10 <_start-0xd12f0>
    80002066:	0f85                	addi	t6,t6,1

0000000080002068 <reg_x13_init>:
    80002068:	0dc2c6ab          	0xdc2c6ab
    8000206c:	f6e6                	sd	s9,360(sp)
    8000206e:	fb41                	bnez	a4,80001ffe <fromhost+0xfbe>

0000000080002070 <reg_x14_init>:
    80002070:	3b9e                	fld	fs7,480(sp)
    80002072:	4ea4                	lw	s1,88(a3)
    80002074:	aa2e                	fsd	fa1,272(sp)
    80002076:	5dd5                	li	s11,-11

0000000080002078 <reg_x15_init>:
    80002078:	380c3a2f          	0x380c3a2f
    8000207c:	1579                	addi	a0,a0,-2
    8000207e:	2aec                	fld	fa1,208(a3)

0000000080002080 <reg_x16_init>:
    80002080:	0006                	c.slli	zero,0x1
    80002082:	0000                	unimp
    80002084:	0000                	unimp
	...

0000000080002088 <reg_x17_init>:
    80002088:	ffff                	0xffff
    8000208a:	ffff                	0xffff
    8000208c:	ffff                	0xffff
    8000208e:	ffff                	0xffff

0000000080002090 <reg_x18_init>:
    80002090:	ffff                	0xffff
    80002092:	ffff                	0xffff
    80002094:	ffff                	0xffff
    80002096:	ffff                	0xffff

0000000080002098 <reg_x19_init>:
    80002098:	0ea1                	addi	t4,t4,8
    8000209a:	42d1                	li	t0,20
    8000209c:	5162                	lw	sp,56(sp)
    8000209e:	ad55                	j	80002752 <_end+0x142>

00000000800020a0 <reg_x20_init>:
    800020a0:	0185                	addi	gp,gp,1
    800020a2:	30a47533          	0x30a47533
    800020a6:	e388                	sd	a0,0(a5)

00000000800020a8 <reg_x21_init>:
    800020a8:	8000                	0x8000
    800020aa:	ffff                	0xffff
    800020ac:	ffff                	0xffff
    800020ae:	ffff                	0xffff

00000000800020b0 <reg_x22_init>:
    800020b0:	5212                	lw	tp,36(sp)
    800020b2:	1216                	slli	tp,tp,0x25
    800020b4:	5dcd                	li	s11,-13
    800020b6:	484a                	lw	a6,144(sp)

00000000800020b8 <reg_x23_init>:
	...

00000000800020c0 <reg_x24_init>:
    800020c0:	ff81                	bnez	a5,80001fd8 <fromhost+0xf98>
    800020c2:	ffff                	0xffff
    800020c4:	ffff                	0xffff
    800020c6:	ffff                	0xffff

00000000800020c8 <reg_x25_init>:
    800020c8:	d56e                	sw	s11,168(sp)
    800020ca:	46920c8f          	0x46920c8f
    800020ce:	          	0x1489efaf

00000000800020d0 <reg_x26_init>:
    800020d0:	1489                	addi	s1,s1,-30
    800020d2:	9bb0                	0x9bb0
    800020d4:	1c50045b          	0x1c50045b

00000000800020d8 <reg_x27_init>:
    800020d8:	ffff                	0xffff
    800020da:	ffff                	0xffff
    800020dc:	ffff                	0xffff
    800020de:	ffff                	0xffff

00000000800020e0 <reg_x28_init>:
    800020e0:	0008                	0x8
    800020e2:	8000                	0x8000
    800020e4:	ffff                	0xffff
    800020e6:	ffff                	0xffff

00000000800020e8 <reg_x29_init>:
    800020e8:	7918                	ld	a4,48(a0)
    800020ea:	ed8e                	sd	gp,216(sp)
    800020ec:	4f50b7a3          	sd	s5,1263(ra)

00000000800020f0 <reg_x30_init>:
    800020f0:	80000003          	lb	zero,-2048(zero) # fffffffffffff800 <__global_pointer$+0xffffffff7fffc9f0>
    800020f4:	ffff                	0xffff
    800020f6:	ffff                	0xffff

00000000800020f8 <reg_x31_init>:
    800020f8:	0000                	unimp
    800020fa:	8000                	0x8000
    800020fc:	ffff                	0xffff
    800020fe:	ffff                	0xffff

0000000080002100 <begin_signature>:
    80002100:	4630                	lw	a2,72(a2)
    80002102:	8951                	andi	a0,a0,20
    80002104:	e66c048f          	0xe66c048f

0000000080002108 <reg_x1_output>:
    80002108:	dc34                	sw	a3,120(s0)
    8000210a:	9914                	0x9914
    8000210c:	99e2                	add	s3,s3,s8
    8000210e:	6f48                	ld	a0,152(a4)

0000000080002110 <reg_x2_output>:
    80002110:	db1c                	sw	a5,48(a4)
    80002112:	60e2                	ld	ra,24(sp)
    80002114:	bf8a                	fsd	ft2,504(sp)
    80002116:	  	0x4e113da8bb238a3f

0000000080002118 <reg_x3_output>:
    80002118:	3da8bb23          	sd	s10,982(a7)
    8000211c:	4e11                	li	t3,4
    8000211e:	ef24                	sd	s1,88(a4)

0000000080002120 <reg_x4_output>:
    80002120:	9553c13b          	0x9553c13b
    80002124:	51dff1cf          	fnmadd.s	ft3,ft11,ft9,fa0

0000000080002128 <reg_x5_output>:
    80002128:	8a02dfd3          	0x8a02dfd3
    8000212c:	bbb4c6af          	0xbbb4c6af

0000000080002130 <reg_x6_output>:
    80002130:	908a                	add	ra,ra,sp
    80002132:	c0699c4f          	fnmadd.s	fs8,fs3,ft6,fs8,rtz
    80002136:	          	0x9108ff7

0000000080002138 <reg_x7_output>:
    80002138:	0910                	addi	a2,sp,144
    8000213a:	409c                	lw	a5,0(s1)
    8000213c:	fdb1                	bnez	a1,80002098 <reg_x19_init>
    8000213e:	          	0xeacd01b3

0000000080002140 <reg_x8_output>:
    80002140:	eacd                	bnez	a3,800021f2 <reg_x30_output+0x2>
    80002142:	8ef1cf03          	lbu	t5,-1809(gp) # 800026ff <_end+0xef>
    80002146:	          	bgez	s3,80001420 <fromhost+0x3e0>

0000000080002148 <reg_x9_output>:
    80002148:	ac09                	j	8000235a <test_memory+0x15a>
    8000214a:	e39c                	sd	a5,0(a5)
    8000214c:	4d80                	lw	s0,24(a1)
    8000214e:	f058                	sd	a4,160(s0)

0000000080002150 <reg_x10_output>:
    80002150:	4aa0                	lw	s0,80(a3)
    80002152:	0288                	addi	a0,sp,320
    80002154:	3f602e77          	0x3f602e77

0000000080002158 <reg_x11_output>:
    80002158:	fd07ab8b          	0xfd07ab8b
    8000215c:	948a                	add	s1,s1,sp
    8000215e:	          	lw	zero,764(s6)

0000000080002160 <reg_x12_output>:
    80002160:	100b2fcb          	fnmsub.s	ft11,fs6,ft0,ft2,rdn
    80002164:	96a4                	0x96a4
    80002166:	          	fmadd.q	ft8,ft4,ft7,fs9,rup

0000000080002168 <reg_x13_output>:
    80002168:	ce72                	sw	t3,28(sp)
    8000216a:	6c7c                	ld	a5,216(s0)
    8000216c:	8d00                	0x8d00
    8000216e:	d8c2                	sw	a6,112(sp)

0000000080002170 <reg_x14_output>:
    80002170:	4db53cdb          	0x4db53cdb
    80002174:	8d21                	xor	a0,a0,s0
    80002176:	82a5                	srli	a3,a3,0x9

0000000080002178 <reg_x15_output>:
    80002178:	0307a95b          	0x307a95b
    8000217c:	5cda                	lw	s9,180(sp)
    8000217e:	          	ld	s0,414(s10)

0000000080002180 <reg_x16_output>:
    80002180:	19ed                	addi	s3,s3,-5
    80002182:	bf28                	fsd	fa0,120(a4)
    80002184:	9c60df37          	lui	t5,0x9c60d

0000000080002188 <reg_x17_output>:
    80002188:	ef9e                	sd	t2,472(sp)
    8000218a:	7b86                	ld	s7,96(sp)
    8000218c:	a21d                	j	800022b2 <test_memory+0xb2>
    8000218e:	b5d6                	fsd	fs5,232(sp)

0000000080002190 <reg_x18_output>:
    80002190:	30cc                	fld	fa1,160(s1)
    80002192:	ec88                	sd	a0,24(s1)
    80002194:	11ba                	slli	gp,gp,0x2e
    80002196:	d23c                	sw	a5,96(a2)

0000000080002198 <reg_x19_output>:
    80002198:	a6835f7b          	0xa6835f7b
    8000219c:	7f5e                	ld	t5,496(sp)
    8000219e:	557e                	lw	a0,252(sp)

00000000800021a0 <reg_x20_output>:
    800021a0:	963e                	add	a2,a2,a5
    800021a2:	665d                	lui	a2,0x17
    800021a4:	ab25                	j	800026dc <_end+0xcc>
    800021a6:	bc92                	fsd	ft4,120(sp)

00000000800021a8 <reg_x21_output>:
    800021a8:	bd92                	fsd	ft4,248(sp)
    800021aa:	da0c                	sw	a1,48(a2)
    800021ac:	6c8a                	ld	s9,128(sp)
    800021ae:	          	0xb49aa743

00000000800021b0 <reg_x22_output>:
    800021b0:	b49a                	fsd	ft6,104(sp)
    800021b2:	2489                	addiw	s1,s1,2
    800021b4:	7bff                	0x7bff
    800021b6:	d746                	sw	a7,172(sp)

00000000800021b8 <reg_x23_output>:
    800021b8:	9398                	0x9398
    800021ba:	84a6                	mv	s1,s1
    800021bc:	cfe0                	sw	s0,92(a5)
    800021be:	9abe                	add	s5,s5,a5

00000000800021c0 <reg_x24_output>:
    800021c0:	8b9e                	mv	s7,t2
    800021c2:	1c54                	addi	a3,sp,564
    800021c4:	8985                	andi	a1,a1,1
    800021c6:	a9d2                	fsd	fs4,208(sp)

00000000800021c8 <reg_x25_output>:
    800021c8:	3cb5a647          	0x3cb5a647
    800021cc:	a340                	fsd	fs0,128(a4)
    800021ce:	          	fmsub.s	fa0,ft11,fs7,fs3

00000000800021d0 <reg_x26_output>:
    800021d0:	997f                	0x997f
    800021d2:	a66d                	j	8000257c <test_memory+0x37c>
    800021d4:	7e88                	ld	a0,56(a3)
    800021d6:	          	fnmadd.q	fa1,fa2,fs1,fa0,rne

00000000800021d8 <reg_x27_output>:
    800021d8:	5696                	lw	a3,100(sp)
    800021da:	177a                	slli	a4,a4,0x3e
    800021dc:	c82da9a7          	fsw	ft2,-877(s11)

00000000800021e0 <reg_x28_output>:
    800021e0:	c140                	sw	s0,4(a0)
    800021e2:	f6e9                	bnez	a3,800021ac <reg_x21_output+0x4>
    800021e4:	c695                	beqz	a3,80002210 <test_memory+0x10>
    800021e6:	          	0x622ab6d3

00000000800021e8 <reg_x29_output>:
    800021e8:	622a                	ld	tp,136(sp)
    800021ea:	f8f93ab3          	0xf8f93ab3
    800021ee:	          	0xc247d233

00000000800021f0 <reg_x30_output>:
    800021f0:	f008c247          	fmsub.s	ft4,fa7,ft0,ft10,rmm
    800021f4:	b756                	fsd	fs5,424(sp)
    800021f6:	          	auipc	ra,0xb70bc

00000000800021f8 <reg_x31_output>:
    800021f8:	edc7b70b          	0xedc7b70b
    800021fc:	dbff                	0xdbff
    800021fe:	          	ld	s7,338(s8)

0000000080002200 <test_memory>:
    80002200:	152c                	addi	a1,sp,680
    80002202:	c222                	sw	s0,4(sp)
    80002204:	6c38                	ld	a4,88(s0)
    80002206:	83e8                	0x83e8
    80002208:	520d4e9b          	0x520d4e9b
    8000220c:	e75d50b3          	0xe75d50b3
    80002210:	41d4                	lw	a3,4(a1)
    80002212:	f0c2                	sd	a6,96(sp)
    80002214:	384e                	fld	fa6,240(sp)
    80002216:	4e7a                	lw	t3,156(sp)
    80002218:	f8ae43c3          	fmadd.s	ft7,ft8,fa0,ft11,rmm
    8000221c:	a6ba                	fsd	fa4,328(sp)
    8000221e:	af5a                	fsd	fs6,408(sp)
    80002220:	02be                	slli	t0,t0,0xf
    80002222:	a3ff                	0xa3ff
    80002224:	d275                	beqz	a2,80002208 <test_memory+0x8>
    80002226:	8f55                	or	a4,a4,a3
    80002228:	986e                	add	a6,a6,s11
    8000222a:	d70c                	sw	a1,40(a4)
    8000222c:	0232                	slli	tp,tp,0xc
    8000222e:	0571                	addi	a0,a0,28
    80002230:	c99c                	sw	a5,16(a1)
    80002232:	6699                	lui	a3,0x6
    80002234:	9fb9                	addw	a5,a5,a4
    80002236:	27a9                	addiw	a5,a5,10
    80002238:	5e3a                	lw	t3,172(sp)
    8000223a:	6398                	ld	a4,0(a5)
    8000223c:	7c2fc6af          	0x7c2fc6af
    80002240:	7925                	lui	s2,0xfffe9
    80002242:	2aed                	addiw	s5,s5,27
    80002244:	bff6                	fsd	ft9,504(sp)
    80002246:	b87a                	fsd	ft10,48(sp)
    80002248:	366d                	addiw	a2,a2,-5
    8000224a:	2e7ea413          	slti	s0,t4,743
    8000224e:	9c5d                	0x9c5d
    80002250:	6829                	lui	a6,0xa
    80002252:	531d                	li	t1,-25
    80002254:	c0c1                	beqz	s1,800022d4 <test_memory+0xd4>
    80002256:	5d25e747          	0x5d25e747
    8000225a:	92349677          	0x92349677
    8000225e:	cc2e                	sw	a1,24(sp)
    80002260:	01e5                	addi	gp,gp,25
    80002262:	81c9                	srli	a1,a1,0x12
    80002264:	08691a87          	0x8691a87
    80002268:	fe67b3d3          	0xfe67b3d3
    8000226c:	2462                	fld	fs0,24(sp)
    8000226e:	9798333f dbf5b8e8 	0xdbf5b8e89798333f
    80002276:	7c19                	lui	s8,0xfffe6
    80002278:	7ee9                	lui	t4,0xffffa
    8000227a:	5571                	li	a0,-4
    8000227c:	25a8                	fld	fa0,72(a1)
    8000227e:	cf50                	sw	a2,28(a4)
    80002280:	3755                	addiw	a4,a4,-11
    80002282:	29ad                	addiw	s3,s3,11
    80002284:	279c                	fld	fa5,8(a5)
    80002286:	04d5                	addi	s1,s1,21
    80002288:	cad2                	sw	s4,84(sp)
    8000228a:	d4ee6bbf 9c1bf509 	0x9c1bf509d4ee6bbf
    80002292:	8b86                	mv	s7,ra
    80002294:	67cd                	lui	a5,0x13
    80002296:	ac22095b          	0xac22095b
    8000229a:	9fec6c6b          	0x9fec6c6b
    8000229e:	5da4                	lw	s1,120(a1)
    800022a0:	8b22                	mv	s6,s0
    800022a2:	5ccaa70f          	0x5ccaa70f
    800022a6:	cc7c                	sw	a5,92(s0)
    800022a8:	cf0e                	sw	gp,156(sp)
    800022aa:	57f22393          	slti	t2,tp,1407
    800022ae:	8ad6                	mv	s5,s5
    800022b0:	5cd23277          	0x5cd23277
    800022b4:	6920                	ld	s0,80(a0)
    800022b6:	46f1                	li	a3,28
    800022b8:	0a1e                	slli	s4,s4,0x7
    800022ba:	f819                	bnez	s0,800021d0 <reg_x26_output>
    800022bc:	6ee4                	ld	s1,216(a3)
    800022be:	5ccb9dd7          	0x5ccb9dd7
    800022c2:	c04d04db          	0xc04d04db
    800022c6:	3e65                	addiw	t3,t3,-7
    800022c8:	e820                	sd	s0,80(s0)
    800022ca:	5e84                	lw	s1,56(a3)
    800022cc:	e9108087          	0xe9108087
    800022d0:	8e86                	mv	t4,ra
    800022d2:	dc2c                	sw	a1,120(s0)
    800022d4:	16805ba7          	0x16805ba7
    800022d8:	5d60                	lw	s0,124(a0)
    800022da:	297a                	fld	fs2,408(sp)
    800022dc:	3640abfb          	0x3640abfb
    800022e0:	6022                	0x6022
    800022e2:	ed8a                	sd	sp,216(sp)
    800022e4:	d980                	sw	s0,48(a1)
    800022e6:	779d                	lui	a5,0xfffe7
    800022e8:	1c15                	addi	s8,s8,-27
    800022ea:	0560                	addi	s0,sp,652
    800022ec:	8188                	0x8188
    800022ee:	68f1                	lui	a7,0x1c
    800022f0:	ad25a9b7          	lui	s3,0xad25a
    800022f4:	aa85                	j	80002464 <test_memory+0x264>
    800022f6:	7126                	ld	sp,104(sp)
    800022f8:	3c1d                	addiw	s8,s8,-25
    800022fa:	889c53f7          	0x889c53f7
    800022fe:	4715                	li	a4,5
    80002300:	53d1                	li	t2,-12
    80002302:	31695f73          	csrrwi	t5,0x316,18
    80002306:	0550                	addi	a2,sp,644
    80002308:	29ed                	addiw	s3,s3,27
    8000230a:	2888                	fld	fa0,16(s1)
    8000230c:	a214                	fsd	fa3,0(a2)
    8000230e:	83fa                	mv	t2,t5
    80002310:	e189                	bnez	a1,80002312 <test_memory+0x112>
    80002312:	b8bf746f          	jal	s0,7fff9e9c <_start-0x6164>
    80002316:	c7dd                	beqz	a5,800023c4 <test_memory+0x1c4>
    80002318:	10c2                	slli	ra,ra,0x30
    8000231a:	caba317b          	0xcaba317b
    8000231e:	ec89                	bnez	s1,80002338 <test_memory+0x138>
    80002320:	aec907d3          	0xaec907d3
    80002324:	632a                	ld	t1,136(sp)
    80002326:	4360                	lw	s0,68(a4)
    80002328:	341c                	fld	fa5,40(s0)
    8000232a:	37d0                	fld	fa2,168(a5)
    8000232c:	020e                	slli	tp,tp,0x3
    8000232e:	cb62                	sw	s8,148(sp)
    80002330:	3b38e613          	ori	a2,a7,947
    80002334:	6ec379bb          	0x6ec379bb
    80002338:	ec6c                	sd	a1,216(s0)
    8000233a:	59488b3f b3f64ff4 	0xb3f64ff459488b3f
    80002342:	bc909d03          	lh	s10,-1079(ra) # 370bddbf <_start-0x48f42241>
    80002346:	81e4                	0x81e4
    80002348:	2a113b0b          	0x2a113b0b
    8000234c:	6e9e                	ld	t4,448(sp)
    8000234e:	f87f41a3          	0xf87f41a3
    80002352:	7241                	lui	tp,0xffff0
    80002354:	99c5                	andi	a1,a1,-15
    80002356:	b1ce                	fsd	fs3,224(sp)
    80002358:	296e                	fld	fs2,216(sp)
    8000235a:	e131                	bnez	a0,8000239e <test_memory+0x19e>
    8000235c:	d8c1                	beqz	s1,800022ec <test_memory+0xec>
    8000235e:	5f48                	lw	a0,60(a4)
    80002360:	9e60                	0x9e60
    80002362:	caae                	sw	a1,84(sp)
    80002364:	6e89                	lui	t4,0x2
    80002366:	b624                	fsd	fs1,104(a2)
    80002368:	6798                	ld	a4,8(a5)
    8000236a:	a304                	fsd	fs1,0(a4)
    8000236c:	46ae                	lw	a3,200(sp)
    8000236e:	798b10a7          	0x798b10a7
    80002372:	ef51                	bnez	a4,8000240e <test_memory+0x20e>
    80002374:	368e                	fld	fa3,224(sp)
    80002376:	ddcfbfaf          	0xddcfbfaf
    8000237a:	57a33d0f          	0x57a33d0f
    8000237e:	1a78                	addi	a4,sp,316
    80002380:	add41207          	0xadd41207
    80002384:	4da6                	lw	s11,72(sp)
    80002386:	2592adfb          	0x2592adfb
    8000238a:	ad2c                	fsd	fa1,88(a0)
    8000238c:	6f6d                	lui	t5,0x1b
    8000238e:	b331                	j	8000209a <reg_x19_init+0x2>
    80002390:	38d7c807          	flq	fa6,909(a5) # fffffffffffe738d <__global_pointer$+0xffffffff7ffe457d>
    80002394:	adde27ab          	0xadde27ab
    80002398:	1dc9                	addi	s11,s11,-14
    8000239a:	0aed19c3          	fmadd.d	fs3,fs10,fa4,ft1,rtz
    8000239e:	a537068b          	0xa537068b
    800023a2:	8481                	c.srai64	s1
    800023a4:	229d                	addiw	t0,t0,7
    800023a6:	f6c5                	bnez	a3,8000234e <test_memory+0x14e>
    800023a8:	0e3e                	slli	t3,t3,0xf
    800023aa:	ccd6                	sw	s5,88(sp)
    800023ac:	58d0                	lw	a2,52(s1)
    800023ae:	0c8a                	slli	s9,s9,0x2
    800023b0:	6f59                	lui	t5,0x16
    800023b2:	54e1                	li	s1,-8
    800023b4:	d712                	sw	tp,172(sp)
    800023b6:	771c                	ld	a5,40(a4)
    800023b8:	2a7e0e4b          	fnmsub.d	ft8,ft8,ft7,ft5,rne
    800023bc:	1aa5                	addi	s5,s5,-23
    800023be:	be85                	j	80001f2e <fromhost+0xeee>
    800023c0:	d010                	sw	a2,32(s0)
    800023c2:	701e                	0x701e
    800023c4:	eb328acb          	fnmsub.d	fs5,ft5,fs3,ft9,rne
    800023c8:	a2d5                	j	800025ac <test_memory+0x3ac>
    800023ca:	087f                	0x87f
    800023cc:	120e                	slli	tp,tp,0x23
    800023ce:	9594                	0x9594
    800023d0:	a5fc                	fsd	fa5,200(a1)
    800023d2:	19b0                	addi	a2,sp,248
    800023d4:	a9a1                	j	8000282c <_end+0x21c>
    800023d6:	c778fbe7          	0xc778fbe7
    800023da:	d8a5                	beqz	s1,8000234a <test_memory+0x14a>
    800023dc:	7e52                	ld	t3,304(sp)
    800023de:	ca68                	sw	a0,84(a2)
    800023e0:	d306                	sw	ra,164(sp)
    800023e2:	68aa038f          	0x68aa038f
    800023e6:	a5a9                	j	80002a30 <_end+0x420>
    800023e8:	0227d703          	lhu	a4,34(a5)
    800023ec:	6e1f babd 1bfc      	0x1bfcbabd6e1f
    800023f2:	af98                	fsd	fa4,24(a5)
    800023f4:	ba9cf797          	auipc	a5,0xba9cf
    800023f8:	0726                	slli	a4,a4,0x9
    800023fa:	82a1                	srli	a3,a3,0x8
    800023fc:	e985                	bnez	a1,8000242c <test_memory+0x22c>
    800023fe:	dce5                	beqz	s1,800023f6 <test_memory+0x1f6>
    80002400:	ed5f 135e e45e      	0xe45e135eed5f
    80002406:	e712                	sd	tp,392(sp)
    80002408:	6b6a                	ld	s6,152(sp)
    8000240a:	38456457          	0x38456457
    8000240e:	c285                	beqz	a3,8000242e <test_memory+0x22e>
    80002410:	8cf1197b          	0x8cf1197b
    80002414:	9518                	0x9518
    80002416:	2b5a                	fld	fs6,400(sp)
    80002418:	b360                	fsd	fs0,224(a4)
    8000241a:	c84ce0fb          	0xc84ce0fb
    8000241e:	588e                	lw	a7,224(sp)
    80002420:	e3b8                	sd	a4,64(a5)
    80002422:	8465                	srai	s0,s0,0x19
    80002424:	fc2d                	bnez	s0,8000239e <test_memory+0x19e>
    80002426:	5c38                	lw	a4,120(s0)
    80002428:	181d                	addi	a6,a6,-25
    8000242a:	b4ea                	fsd	fs10,104(sp)
    8000242c:	7881                	lui	a7,0xfffe0
    8000242e:	187f                	0x187f
    80002430:	ed30                	sd	a2,88(a0)
    80002432:	b646                	fsd	fa7,296(sp)
    80002434:	eaae                	sd	a1,336(sp)
    80002436:	2ce569d3          	0x2ce569d3
    8000243a:	7a88                	ld	a0,48(a3)
    8000243c:	859a4bbf 2ab1d681 	0x2ab1d681859a4bbf
    80002444:	a502                	fsd	ft0,136(sp)
    80002446:	0e15                	addi	t3,t3,5
    80002448:	8725                	srai	a4,a4,0x9
    8000244a:	16e2                	slli	a3,a3,0x38
    8000244c:	c81d                	beqz	s0,80002482 <test_memory+0x282>
    8000244e:	a50e                	fsd	ft3,136(sp)
    80002450:	7611aae3          	0x7611aae3
    80002454:	9dc4                	0x9dc4
    80002456:	1da2                	slli	s11,s11,0x28
    80002458:	71a6                	ld	gp,104(sp)
    8000245a:	bb68                	fsd	fa0,240(a4)
    8000245c:	8674                	0x8674
    8000245e:	687c318f          	0x687c318f
    80002462:	7ae9879b          	addiw	a5,s3,1966
    80002466:	33b5                	addiw	t2,t2,-19
    80002468:	1f00                	addi	s0,sp,944
    8000246a:	b621a3d3          	0xb621a3d3
    8000246e:	39f2ee43          	fmadd.s	ft8,ft5,ft11,ft7,unknown
    80002472:	109a                	slli	ra,ra,0x26
    80002474:	c929                	beqz	a0,800024c6 <test_memory+0x2c6>
    80002476:	0f4c5fd3          	fsub.q	ft11,fs8,fs4,unknown
    8000247a:	1629                	addi	a2,a2,-22
    8000247c:	8a66990b          	0x8a66990b
    80002480:	3542                	fld	fa0,48(sp)
    80002482:	5b4d                	li	s6,-13
    80002484:	0e900197          	auipc	gp,0xe900
    80002488:	9d1c                	0x9d1c
    8000248a:	cca5                	beqz	s1,80002502 <test_memory+0x302>
    8000248c:	3bdf 1a94 b3d0      	0xb3d01a943bdf
    80002492:	31e1                	addiw	gp,gp,-8
    80002494:	c592                	sw	tp,200(sp)
    80002496:	e5afb2b3          	0xe5afb2b3
    8000249a:	eea19157          	0xeea19157
    8000249e:	e6f2                	sd	t3,328(sp)
    800024a0:	97be                	add	a5,a5,a5
    800024a2:	8b32                	mv	s6,a2
    800024a4:	74df f477 8061      	0x8061f47774df
    800024aa:	4168a0cb          	fnmsub.s	ft1,fa7,fs6,fs0,rdn
    800024ae:	925d                	srli	a2,a2,0x37
    800024b0:	1280                	addi	s0,sp,352
    800024b2:	f4a6                	sd	s1,104(sp)
    800024b4:	8216                	mv	tp,t0
    800024b6:	ff1a                	sd	t1,440(sp)
    800024b8:	b960                	fsd	fs0,240(a0)
    800024ba:	4740                	lw	s0,12(a4)
    800024bc:	8961                	andi	a0,a0,24
    800024be:	d6a8                	sw	a0,104(a3)
    800024c0:	c0b0                	sw	a2,64(s1)
    800024c2:	d408                	sw	a0,40(s0)
    800024c4:	293e                	fld	fs2,456(sp)
    800024c6:	2c82                	fld	fs9,0(sp)
    800024c8:	43a4                	lw	s1,64(a5)
    800024ca:	f221                	bnez	a2,8000240a <test_memory+0x20a>
    800024cc:	3214                	fld	fa3,32(a2)
    800024ce:	e960                	sd	s0,208(a0)
    800024d0:	2f1e                	fld	ft10,448(sp)
    800024d2:	6ade                	ld	s5,464(sp)
    800024d4:	6cb5                	lui	s9,0xd
    800024d6:	f0ba                	sd	a4,96(sp)
    800024d8:	9620                	0x9620
    800024da:	a8b9                	j	80002538 <test_memory+0x338>
    800024dc:	5eee                	lw	t4,248(sp)
    800024de:	430e                	lw	t1,192(sp)
    800024e0:	1b8c1d2b          	0x1b8c1d2b
    800024e4:	7c52                	ld	s8,304(sp)
    800024e6:	6835ce8f          	0x6835ce8f
    800024ea:	0b0e                	slli	s6,s6,0x3
    800024ec:	a0ff                	0xa0ff
    800024ee:	edae                	sd	a1,216(sp)
    800024f0:	1056                	c.slli	zero,0x35
    800024f2:	eaca8147          	fmsub.d	ft2,fs5,fa2,ft9,rne
    800024f6:	0167f933          	and	s2,a5,s6
    800024fa:	c729                	beqz	a4,80002544 <test_memory+0x344>
    800024fc:	c4fa                	sw	t5,72(sp)
    800024fe:	0d17a56f          	jal	a0,8007cdce <__global_pointer$+0x79fbe>
    80002502:	fafc                	sd	a5,240(a3)
    80002504:	5559                	li	a0,-10
    80002506:	674a                	ld	a4,144(sp)
    80002508:	5052                	0x5052
    8000250a:	13ac                	addi	a1,sp,488
    8000250c:	fd86                	sd	ra,248(sp)
    8000250e:	35b5                	addiw	a1,a1,-19
    80002510:	f0dc88eb          	0xf0dc88eb
    80002514:	619d                	lui	gp,0x7
    80002516:	fcdeb7ef          	jal	a5,7ffee4e2 <_start-0x11b1e>
    8000251a:	edb4852f          	0xedb4852f
    8000251e:	539e                	lw	t2,228(sp)
    80002520:	e9b0                	sd	a2,80(a1)
    80002522:	48ee                	lw	a7,216(sp)
    80002524:	bccb35bf 51fde9b1 	0x51fde9b1bccb35bf
    8000252c:	57ce                	lw	a5,240(sp)
    8000252e:	4b5d                	li	s6,23
    80002530:	2632                	fld	fa2,264(sp)
    80002532:	ced4b257          	0xced4b257
    80002536:	82ff                	0x82ff
    80002538:	d8e5                	beqz	s1,80002528 <test_memory+0x328>
    8000253a:	50a1                	li	ra,-24
    8000253c:	7452                	ld	s0,304(sp)
    8000253e:	aeda                	fsd	fs6,344(sp)
    80002540:	5c05                	li	s8,-31
    80002542:	fe30                	sd	a2,120(a2)
    80002544:	d989                	beqz	a1,80002456 <test_memory+0x256>
    80002546:	27fab23b          	0x27fab23b
    8000254a:	2882                	fld	fa7,0(sp)
    8000254c:	353d                	addiw	a0,a0,-17
    8000254e:	6e949e67          	0x6e949e67
    80002552:	1109                	addi	sp,sp,-30
    80002554:	f0fd                	bnez	s1,8000253a <test_memory+0x33a>
    80002556:	d70e538f          	0xd70e538f
    8000255a:	f98af3b3          	0xf98af3b3
    8000255e:	037a9027          	0x37a9027
    80002562:	cea4                	sw	s1,88(a3)
    80002564:	67e8                	ld	a0,200(a5)
    80002566:	f31e                	sd	t2,416(sp)
    80002568:	15ab4f4b          	0x15ab4f4b
    8000256c:	74fe                	ld	s1,504(sp)
    8000256e:	bc89                	j	80001fc0 <fromhost+0xf80>
    80002570:	7010                	ld	a2,32(s0)
    80002572:	0bb6                	slli	s7,s7,0xd
    80002574:	0006                	c.slli	zero,0x1
    80002576:	669c                	ld	a5,8(a3)
    80002578:	9ca0                	0x9ca0
    8000257a:	1e8e                	slli	t4,t4,0x23
    8000257c:	d01e                	sw	t2,32(sp)
    8000257e:	a5b5                	j	80002bea <_end+0x5da>
    80002580:	6c46                	ld	s8,80(sp)
    80002582:	3466                	fld	fs0,120(sp)
    80002584:	33ae                	fld	ft7,232(sp)
    80002586:	c11a                	sw	t1,128(sp)
    80002588:	0eb2                	slli	t4,t4,0xc
    8000258a:	fe05                	bnez	a2,800024c2 <test_memory+0x2c2>
    8000258c:	4480                	lw	s0,8(s1)
    8000258e:	e9ed                	bnez	a1,80002680 <_end+0x70>
    80002590:	9eb6                	add	t4,t4,a3
    80002592:	f5c42b3b          	0xf5c42b3b
    80002596:	78f9                	lui	a7,0xffffe
    80002598:	7515                	lui	a0,0xfffe5
    8000259a:	b94b85ab          	0xb94b85ab
    8000259e:	9515                	srai	a0,a0,0x25
    800025a0:	55f6                	lw	a1,124(sp)
    800025a2:	78a6                	ld	a7,104(sp)
    800025a4:	0bd1                	addi	s7,s7,20
    800025a6:	f970                	sd	a2,240(a0)
    800025a8:	6ab6                	ld	s5,328(sp)
    800025aa:	23f8ba13          	sltiu	s4,a7,575
    800025ae:	1909                	addi	s2,s2,-30
    800025b0:	032d                	addi	t1,t1,11
    800025b2:	5828                	lw	a0,112(s0)
    800025b4:	a3f2666f          	jal	a2,7ff28ff2 <_start-0xd700e>
    800025b8:	649c                	ld	a5,8(s1)
    800025ba:	b159d4a7          	0xb159d4a7
    800025be:	9e62                	add	t3,t3,s8
    800025c0:	49e8                	lw	a0,84(a1)
    800025c2:	7af0                	ld	a2,240(a3)
    800025c4:	1bea                	slli	s7,s7,0x3a
    800025c6:	2978                	fld	fa4,208(a0)
    800025c8:	383477cf          	fnmadd.s	fa5,fs0,ft3,ft7
    800025cc:	fadc                	sd	a5,176(a3)
    800025ce:	6d06                	ld	s10,64(sp)
    800025d0:	b92e                	fsd	fa1,176(sp)
    800025d2:	819a                	mv	gp,t1
    800025d4:	e922                	sd	s0,144(sp)
    800025d6:	0a9785eb          	0xa9785eb
    800025da:	4076                	0x4076
    800025dc:	cc10                	sw	a2,24(s0)
    800025de:	81d12ca3          	sw	t4,-2023(sp)
    800025e2:	94e6                	add	s1,s1,s9
    800025e4:	5cb6                	lw	s9,108(sp)
    800025e6:	e4e953cb          	0xe4e953cb
    800025ea:	820e                	mv	tp,gp
    800025ec:	3c66                	fld	fs8,120(sp)
    800025ee:	e628                	sd	a0,72(a2)
    800025f0:	be06                	fsd	ft1,312(sp)
    800025f2:	1902                	slli	s2,s2,0x20
    800025f4:	1061                	c.nop	-8
    800025f6:	541e90eb          	0x541e90eb
    800025fa:	371e                	fld	fa4,480(sp)
    800025fc:	213d                	addiw	sp,sp,15
    800025fe:	37fe                	fld	fa5,504(sp)

0000000080002600 <loop_count>:
    80002600:	0040                	addi	s0,sp,4
	...

Disassembly of section .riscv.attributes:

0000000000000000 <.riscv.attributes>:
   0:	1e41                	addi	t3,t3,-16
   2:	0000                	unimp
   4:	7200                	ld	s0,32(a2)
   6:	7369                	lui	t1,0xffffa
   8:	01007663          	bgeu	zero,a6,14 <_start-0x7fffffec>
   c:	0014                	0x14
   e:	0000                	unimp
  10:	7205                	lui	tp,0xfffe1
  12:	3676                	fld	fa2,376(sp)
  14:	6934                	ld	a3,80(a0)
  16:	7032                	0x7032
  18:	5f30                	lw	a2,120(a4)
  1a:	326d                	addiw	tp,tp,-5
  1c:	3070                	fld	fa2,224(s0)
	...
